ARM GAS  C:\DOCUME~1\david\LOCALS~1\Temp\ccYBZ8gP.s 			page 1


   1              		.syntax unified
   2              		.cpu cortex-m3
   3              		.fpu softvfp
   4              		.eabi_attribute 20, 1
   5              		.eabi_attribute 21, 1
   6              		.eabi_attribute 23, 3
   7              		.eabi_attribute 24, 1
   8              		.eabi_attribute 25, 1
   9              		.eabi_attribute 26, 1
  10              		.eabi_attribute 30, 6
  11              		.eabi_attribute 18, 4
  12              		.thumb
  13              		.file	"CapSense_IdacCH0_PM.c"
  20 0000 DB000000 		.text
  20      02008200 
  20      00000201 
  20      FB0E0D00 
  20      01010101 
  21              	.Ltext0:
  22              		.cfi_sections	.debug_frame
  23              		.bss
  24              		.align	2
  25              	CapSense_IdacCH0_backup:
  26 0000 0000     		.space	2
  27 0002 0000     		.section	.text.CapSense_IdacCH0_SaveConfig,"ax",%progbits
  28              		.align	2
  29              		.global	CapSense_IdacCH0_SaveConfig
  30              		.thumb
  31              		.thumb_func
  32              		.type	CapSense_IdacCH0_SaveConfig, %function
  33              	CapSense_IdacCH0_SaveConfig:
  34              	.LFB0:
  35              		.file 1 ".\\Generated_Source\\PSoC5\\CapSense_IdacCH0_PM.c"
   1:.\Generated_Source\PSoC5/CapSense_IdacCH0_PM.c **** /*******************************************************************************
   2:.\Generated_Source\PSoC5/CapSense_IdacCH0_PM.c **** * File Name: CapSense_IdacCH0.c
   3:.\Generated_Source\PSoC5/CapSense_IdacCH0_PM.c **** * Version 2.0
   4:.\Generated_Source\PSoC5/CapSense_IdacCH0_PM.c **** *
   5:.\Generated_Source\PSoC5/CapSense_IdacCH0_PM.c **** * Description:
   6:.\Generated_Source\PSoC5/CapSense_IdacCH0_PM.c **** *  This file provides the power management source code to API for the
   7:.\Generated_Source\PSoC5/CapSense_IdacCH0_PM.c **** *  IDAC8.
   8:.\Generated_Source\PSoC5/CapSense_IdacCH0_PM.c **** *
   9:.\Generated_Source\PSoC5/CapSense_IdacCH0_PM.c **** * Note:
  10:.\Generated_Source\PSoC5/CapSense_IdacCH0_PM.c **** *  None
  11:.\Generated_Source\PSoC5/CapSense_IdacCH0_PM.c **** *
  12:.\Generated_Source\PSoC5/CapSense_IdacCH0_PM.c **** ********************************************************************************
  13:.\Generated_Source\PSoC5/CapSense_IdacCH0_PM.c **** * Copyright 2008-2012, Cypress Semiconductor Corporation.  All rights reserved.
  14:.\Generated_Source\PSoC5/CapSense_IdacCH0_PM.c **** * You may use this file only in accordance with the license, terms, conditions, 
  15:.\Generated_Source\PSoC5/CapSense_IdacCH0_PM.c **** * disclaimers, and limitations in the end user license agreement accompanying 
  16:.\Generated_Source\PSoC5/CapSense_IdacCH0_PM.c **** * the software package with which this file was provided.
  17:.\Generated_Source\PSoC5/CapSense_IdacCH0_PM.c **** *******************************************************************************/
  18:.\Generated_Source\PSoC5/CapSense_IdacCH0_PM.c **** 
ARM GAS  C:\DOCUME~1\david\LOCALS~1\Temp\ccYBZ8gP.s 			page 2


  19:.\Generated_Source\PSoC5/CapSense_IdacCH0_PM.c **** 
  20:.\Generated_Source\PSoC5/CapSense_IdacCH0_PM.c **** #include "CapSense_IdacCH0.h"
  21:.\Generated_Source\PSoC5/CapSense_IdacCH0_PM.c **** 
  22:.\Generated_Source\PSoC5/CapSense_IdacCH0_PM.c **** static CapSense_IdacCH0_backupStruct CapSense_IdacCH0_backup;
  23:.\Generated_Source\PSoC5/CapSense_IdacCH0_PM.c **** 
  24:.\Generated_Source\PSoC5/CapSense_IdacCH0_PM.c **** 
  25:.\Generated_Source\PSoC5/CapSense_IdacCH0_PM.c **** /*******************************************************************************
  26:.\Generated_Source\PSoC5/CapSense_IdacCH0_PM.c **** * Function Name: CapSense_IdacCH0_SaveConfig
  27:.\Generated_Source\PSoC5/CapSense_IdacCH0_PM.c **** ********************************************************************************
  28:.\Generated_Source\PSoC5/CapSense_IdacCH0_PM.c **** * Summary:
  29:.\Generated_Source\PSoC5/CapSense_IdacCH0_PM.c **** *  Save the current user configuration
  30:.\Generated_Source\PSoC5/CapSense_IdacCH0_PM.c **** *
  31:.\Generated_Source\PSoC5/CapSense_IdacCH0_PM.c **** * Parameters:
  32:.\Generated_Source\PSoC5/CapSense_IdacCH0_PM.c **** *  void
  33:.\Generated_Source\PSoC5/CapSense_IdacCH0_PM.c **** *
  34:.\Generated_Source\PSoC5/CapSense_IdacCH0_PM.c **** * Return:
  35:.\Generated_Source\PSoC5/CapSense_IdacCH0_PM.c **** *  void
  36:.\Generated_Source\PSoC5/CapSense_IdacCH0_PM.c **** *
  37:.\Generated_Source\PSoC5/CapSense_IdacCH0_PM.c **** *******************************************************************************/
  38:.\Generated_Source\PSoC5/CapSense_IdacCH0_PM.c **** void CapSense_IdacCH0_SaveConfig(void) 
  39:.\Generated_Source\PSoC5/CapSense_IdacCH0_PM.c **** {
  36              		.loc 1 39 0
  37              		.cfi_startproc
  38              		@ args = 0, pretend = 0, frame = 0
  39              		@ frame_needed = 1, uses_anonymous_args = 0
  40              		@ link register save eliminated.
  41 0000 80B4     		push	{r7}
  42              	.LCFI0:
  43              		.cfi_def_cfa_offset 4
  44 0002 00AF     		add	r7, sp, #0
  45              		.cfi_offset 7, -4
  46              	.LCFI1:
  47              		.cfi_def_cfa_register 7
  40:.\Generated_Source\PSoC5/CapSense_IdacCH0_PM.c ****     if (!((CapSense_IdacCH0_CR1 & CapSense_IdacCH0_SRC_MASK) == CapSense_IdacCH0_SRC_UDB))
  48              		.loc 1 40 0
  49 0004 45F62D03 		movw	r3, #:lower16:1073764397
  50 0008 C4F20003 		movt	r3, #:upper16:1073764397
  51 000c 1B78     		ldrb	r3, [r3, #0]
  52 000e DBB2     		uxtb	r3, r3
  53 0010 03F02003 		and	r3, r3, #32
  54 0014 002B     		cmp	r3, #0
  55 0016 0AD1     		bne	.L3
  41:.\Generated_Source\PSoC5/CapSense_IdacCH0_PM.c ****     {
  42:.\Generated_Source\PSoC5/CapSense_IdacCH0_PM.c ****         CapSense_IdacCH0_backup.data_value = CapSense_IdacCH0_Data;
  56              		.loc 1 42 0
  57 0018 45F68333 		movw	r3, #:lower16:1073765251
  58 001c C4F20003 		movt	r3, #:upper16:1073765251
  59 0020 1B78     		ldrb	r3, [r3, #0]
  60 0022 DAB2     		uxtb	r2, r3
  61 0024 40F20003 		movw	r3, #:lower16:CapSense_IdacCH0_backup
  62 0028 C0F20003 		movt	r3, #:upper16:CapSense_IdacCH0_backup
  63 002c 5A70     		strb	r2, [r3, #1]
  64              	.L3:
  43:.\Generated_Source\PSoC5/CapSense_IdacCH0_PM.c ****     }
  44:.\Generated_Source\PSoC5/CapSense_IdacCH0_PM.c **** }
  65              		.loc 1 44 0
  66 002e BD46     		mov	sp, r7
ARM GAS  C:\DOCUME~1\david\LOCALS~1\Temp\ccYBZ8gP.s 			page 3


  67 0030 80BC     		pop	{r7}
  68 0032 7047     		bx	lr
  69              		.cfi_endproc
  70              	.LFE0:
  71              		.size	CapSense_IdacCH0_SaveConfig, .-CapSense_IdacCH0_SaveConfig
  72              		.section	.text.CapSense_IdacCH0_RestoreConfig,"ax",%progbits
  73              		.align	2
  74              		.global	CapSense_IdacCH0_RestoreConfig
  75              		.thumb
  76              		.thumb_func
  77              		.type	CapSense_IdacCH0_RestoreConfig, %function
  78              	CapSense_IdacCH0_RestoreConfig:
  79              	.LFB1:
  45:.\Generated_Source\PSoC5/CapSense_IdacCH0_PM.c **** 
  46:.\Generated_Source\PSoC5/CapSense_IdacCH0_PM.c **** 
  47:.\Generated_Source\PSoC5/CapSense_IdacCH0_PM.c **** /*******************************************************************************
  48:.\Generated_Source\PSoC5/CapSense_IdacCH0_PM.c **** * Function Name: CapSense_IdacCH0_RestoreConfig
  49:.\Generated_Source\PSoC5/CapSense_IdacCH0_PM.c **** ********************************************************************************
  50:.\Generated_Source\PSoC5/CapSense_IdacCH0_PM.c **** *
  51:.\Generated_Source\PSoC5/CapSense_IdacCH0_PM.c **** * Summary:
  52:.\Generated_Source\PSoC5/CapSense_IdacCH0_PM.c **** *  Restores the current user configuration.
  53:.\Generated_Source\PSoC5/CapSense_IdacCH0_PM.c **** *
  54:.\Generated_Source\PSoC5/CapSense_IdacCH0_PM.c **** * Parameters:
  55:.\Generated_Source\PSoC5/CapSense_IdacCH0_PM.c **** *  void
  56:.\Generated_Source\PSoC5/CapSense_IdacCH0_PM.c **** *
  57:.\Generated_Source\PSoC5/CapSense_IdacCH0_PM.c **** * Return:
  58:.\Generated_Source\PSoC5/CapSense_IdacCH0_PM.c **** *  void
  59:.\Generated_Source\PSoC5/CapSense_IdacCH0_PM.c **** *
  60:.\Generated_Source\PSoC5/CapSense_IdacCH0_PM.c **** *******************************************************************************/
  61:.\Generated_Source\PSoC5/CapSense_IdacCH0_PM.c **** void CapSense_IdacCH0_RestoreConfig(void) 
  62:.\Generated_Source\PSoC5/CapSense_IdacCH0_PM.c **** {
  80              		.loc 1 62 0
  81              		.cfi_startproc
  82              		@ args = 0, pretend = 0, frame = 0
  83              		@ frame_needed = 1, uses_anonymous_args = 0
  84              		@ link register save eliminated.
  85 0000 80B4     		push	{r7}
  86              	.LCFI2:
  87              		.cfi_def_cfa_offset 4
  88 0002 00AF     		add	r7, sp, #0
  89              		.cfi_offset 7, -4
  90              	.LCFI3:
  91              		.cfi_def_cfa_register 7
  63:.\Generated_Source\PSoC5/CapSense_IdacCH0_PM.c ****     if (!((CapSense_IdacCH0_CR1 & CapSense_IdacCH0_SRC_MASK) == CapSense_IdacCH0_SRC_UDB))
  92              		.loc 1 63 0
  93 0004 45F62D03 		movw	r3, #:lower16:1073764397
  94 0008 C4F20003 		movt	r3, #:upper16:1073764397
  95 000c 1B78     		ldrb	r3, [r3, #0]
  96 000e DBB2     		uxtb	r3, r3
  97 0010 03F02003 		and	r3, r3, #32
  98 0014 002B     		cmp	r3, #0
  99 0016 39D1     		bne	.L7
  64:.\Generated_Source\PSoC5/CapSense_IdacCH0_PM.c ****     {
  65:.\Generated_Source\PSoC5/CapSense_IdacCH0_PM.c ****         if((CapSense_IdacCH0_Strobe & CapSense_IdacCH0_STRB_MASK) == CapSense_IdacCH0_STRB_EN)
 100              		.loc 1 65 0
 101 0018 45F69F23 		movw	r3, #:lower16:1073765023
 102 001c C4F20003 		movt	r3, #:upper16:1073765023
ARM GAS  C:\DOCUME~1\david\LOCALS~1\Temp\ccYBZ8gP.s 			page 4


 103 0020 1B78     		ldrb	r3, [r3, #0]
 104 0022 DBB2     		uxtb	r3, r3
 105 0024 03F00803 		and	r3, r3, #8
 106 0028 002B     		cmp	r3, #0
 107 002a 25D0     		beq	.L6
  66:.\Generated_Source\PSoC5/CapSense_IdacCH0_PM.c ****         {
  67:.\Generated_Source\PSoC5/CapSense_IdacCH0_PM.c ****             CapSense_IdacCH0_Strobe &= (uint8)(~CapSense_IdacCH0_STRB_MASK);
 108              		.loc 1 67 0
 109 002c 45F69F23 		movw	r3, #:lower16:1073765023
 110 0030 C4F20003 		movt	r3, #:upper16:1073765023
 111 0034 45F69F22 		movw	r2, #:lower16:1073765023
 112 0038 C4F20002 		movt	r2, #:upper16:1073765023
 113 003c 1278     		ldrb	r2, [r2, #0]
 114 003e D2B2     		uxtb	r2, r2
 115 0040 02F0F702 		and	r2, r2, #247
 116 0044 1A70     		strb	r2, [r3, #0]
  68:.\Generated_Source\PSoC5/CapSense_IdacCH0_PM.c ****             CapSense_IdacCH0_Data = CapSense_IdacCH0_backup.data_value;
 117              		.loc 1 68 0
 118 0046 45F68333 		movw	r3, #:lower16:1073765251
 119 004a C4F20003 		movt	r3, #:upper16:1073765251
 120 004e 40F20002 		movw	r2, #:lower16:CapSense_IdacCH0_backup
 121 0052 C0F20002 		movt	r2, #:upper16:CapSense_IdacCH0_backup
 122 0056 5278     		ldrb	r2, [r2, #1]	@ zero_extendqisi2
 123 0058 1A70     		strb	r2, [r3, #0]
  69:.\Generated_Source\PSoC5/CapSense_IdacCH0_PM.c ****             CapSense_IdacCH0_Strobe |= CapSense_IdacCH0_STRB_EN;
 124              		.loc 1 69 0
 125 005a 45F69F23 		movw	r3, #:lower16:1073765023
 126 005e C4F20003 		movt	r3, #:upper16:1073765023
 127 0062 45F69F22 		movw	r2, #:lower16:1073765023
 128 0066 C4F20002 		movt	r2, #:upper16:1073765023
 129 006a 1278     		ldrb	r2, [r2, #0]
 130 006c D2B2     		uxtb	r2, r2
 131 006e 42F00802 		orr	r2, r2, #8
 132 0072 D2B2     		uxtb	r2, r2
 133 0074 1A70     		strb	r2, [r3, #0]
 134 0076 09E0     		b	.L7
 135              	.L6:
  70:.\Generated_Source\PSoC5/CapSense_IdacCH0_PM.c ****         }
  71:.\Generated_Source\PSoC5/CapSense_IdacCH0_PM.c ****         else
  72:.\Generated_Source\PSoC5/CapSense_IdacCH0_PM.c ****         {
  73:.\Generated_Source\PSoC5/CapSense_IdacCH0_PM.c ****             CapSense_IdacCH0_Data = CapSense_IdacCH0_backup.data_value;
 136              		.loc 1 73 0
 137 0078 45F68333 		movw	r3, #:lower16:1073765251
 138 007c C4F20003 		movt	r3, #:upper16:1073765251
 139 0080 40F20002 		movw	r2, #:lower16:CapSense_IdacCH0_backup
 140 0084 C0F20002 		movt	r2, #:upper16:CapSense_IdacCH0_backup
 141 0088 5278     		ldrb	r2, [r2, #1]	@ zero_extendqisi2
 142 008a 1A70     		strb	r2, [r3, #0]
 143              	.L7:
  74:.\Generated_Source\PSoC5/CapSense_IdacCH0_PM.c ****         }
  75:.\Generated_Source\PSoC5/CapSense_IdacCH0_PM.c ****     }
  76:.\Generated_Source\PSoC5/CapSense_IdacCH0_PM.c **** }
 144              		.loc 1 76 0
 145 008c BD46     		mov	sp, r7
 146 008e 80BC     		pop	{r7}
 147 0090 7047     		bx	lr
 148              		.cfi_endproc
ARM GAS  C:\DOCUME~1\david\LOCALS~1\Temp\ccYBZ8gP.s 			page 5


 149              	.LFE1:
 150              		.size	CapSense_IdacCH0_RestoreConfig, .-CapSense_IdacCH0_RestoreConfig
 151 0092 00BF     		.section	.text.CapSense_IdacCH0_Sleep,"ax",%progbits
 152              		.align	2
 153              		.global	CapSense_IdacCH0_Sleep
 154              		.thumb
 155              		.thumb_func
 156              		.type	CapSense_IdacCH0_Sleep, %function
 157              	CapSense_IdacCH0_Sleep:
 158              	.LFB2:
  77:.\Generated_Source\PSoC5/CapSense_IdacCH0_PM.c **** 
  78:.\Generated_Source\PSoC5/CapSense_IdacCH0_PM.c **** 
  79:.\Generated_Source\PSoC5/CapSense_IdacCH0_PM.c **** /*******************************************************************************
  80:.\Generated_Source\PSoC5/CapSense_IdacCH0_PM.c **** * Function Name: CapSense_IdacCH0_Sleep
  81:.\Generated_Source\PSoC5/CapSense_IdacCH0_PM.c **** ********************************************************************************
  82:.\Generated_Source\PSoC5/CapSense_IdacCH0_PM.c **** * Summary:
  83:.\Generated_Source\PSoC5/CapSense_IdacCH0_PM.c **** *  Stop and Save the user configuration
  84:.\Generated_Source\PSoC5/CapSense_IdacCH0_PM.c **** *
  85:.\Generated_Source\PSoC5/CapSense_IdacCH0_PM.c **** * Parameters:
  86:.\Generated_Source\PSoC5/CapSense_IdacCH0_PM.c **** *  void:
  87:.\Generated_Source\PSoC5/CapSense_IdacCH0_PM.c **** *
  88:.\Generated_Source\PSoC5/CapSense_IdacCH0_PM.c **** * Return:
  89:.\Generated_Source\PSoC5/CapSense_IdacCH0_PM.c **** *  void
  90:.\Generated_Source\PSoC5/CapSense_IdacCH0_PM.c **** *
  91:.\Generated_Source\PSoC5/CapSense_IdacCH0_PM.c **** * Global variables:
  92:.\Generated_Source\PSoC5/CapSense_IdacCH0_PM.c **** *  CapSense_IdacCH0_backup.enableState: Is modified depending on the enable 
  93:.\Generated_Source\PSoC5/CapSense_IdacCH0_PM.c **** *  state of the block before entering sleep mode.
  94:.\Generated_Source\PSoC5/CapSense_IdacCH0_PM.c **** *
  95:.\Generated_Source\PSoC5/CapSense_IdacCH0_PM.c **** *******************************************************************************/
  96:.\Generated_Source\PSoC5/CapSense_IdacCH0_PM.c **** void CapSense_IdacCH0_Sleep(void) 
  97:.\Generated_Source\PSoC5/CapSense_IdacCH0_PM.c **** {
 159              		.loc 1 97 0
 160              		.cfi_startproc
 161              		@ args = 0, pretend = 0, frame = 0
 162              		@ frame_needed = 1, uses_anonymous_args = 0
 163 0000 80B5     		push	{r7, lr}
 164              	.LCFI4:
 165              		.cfi_def_cfa_offset 8
 166 0002 00AF     		add	r7, sp, #0
 167              		.cfi_offset 14, -4
 168              		.cfi_offset 7, -8
 169              	.LCFI5:
 170              		.cfi_def_cfa_register 7
  98:.\Generated_Source\PSoC5/CapSense_IdacCH0_PM.c ****     if(CapSense_IdacCH0_ACT_PWR_EN == (CapSense_IdacCH0_PWRMGR & CapSense_IdacCH0_ACT_PWR_EN))
 171              		.loc 1 98 0
 172 0004 44F2A833 		movw	r3, #:lower16:1073759144
 173 0008 C4F20003 		movt	r3, #:upper16:1073759144
 174 000c 1B78     		ldrb	r3, [r3, #0]
 175 000e DBB2     		uxtb	r3, r3
 176 0010 03F00803 		and	r3, r3, #8
 177 0014 002B     		cmp	r3, #0
 178 0016 07D0     		beq	.L9
  99:.\Generated_Source\PSoC5/CapSense_IdacCH0_PM.c ****     {
 100:.\Generated_Source\PSoC5/CapSense_IdacCH0_PM.c ****         /* IDAC8 is enabled */
 101:.\Generated_Source\PSoC5/CapSense_IdacCH0_PM.c ****         CapSense_IdacCH0_backup.enableState = 1u;
 179              		.loc 1 101 0
 180 0018 40F20003 		movw	r3, #:lower16:CapSense_IdacCH0_backup
ARM GAS  C:\DOCUME~1\david\LOCALS~1\Temp\ccYBZ8gP.s 			page 6


 181 001c C0F20003 		movt	r3, #:upper16:CapSense_IdacCH0_backup
 182 0020 4FF00102 		mov	r2, #1
 183 0024 1A70     		strb	r2, [r3, #0]
 184 0026 06E0     		b	.L10
 185              	.L9:
 102:.\Generated_Source\PSoC5/CapSense_IdacCH0_PM.c ****     }
 103:.\Generated_Source\PSoC5/CapSense_IdacCH0_PM.c ****     else
 104:.\Generated_Source\PSoC5/CapSense_IdacCH0_PM.c ****     {
 105:.\Generated_Source\PSoC5/CapSense_IdacCH0_PM.c ****         /* IDAC8 is disabled */
 106:.\Generated_Source\PSoC5/CapSense_IdacCH0_PM.c ****         CapSense_IdacCH0_backup.enableState = 0u;
 186              		.loc 1 106 0
 187 0028 40F20003 		movw	r3, #:lower16:CapSense_IdacCH0_backup
 188 002c C0F20003 		movt	r3, #:upper16:CapSense_IdacCH0_backup
 189 0030 4FF00002 		mov	r2, #0
 190 0034 1A70     		strb	r2, [r3, #0]
 191              	.L10:
 107:.\Generated_Source\PSoC5/CapSense_IdacCH0_PM.c ****     }
 108:.\Generated_Source\PSoC5/CapSense_IdacCH0_PM.c **** 
 109:.\Generated_Source\PSoC5/CapSense_IdacCH0_PM.c ****     CapSense_IdacCH0_Stop();
 192              		.loc 1 109 0
 193 0036 FFF7FEFF 		bl	CapSense_IdacCH0_Stop
 110:.\Generated_Source\PSoC5/CapSense_IdacCH0_PM.c ****     CapSense_IdacCH0_SaveConfig();
 194              		.loc 1 110 0
 195 003a FFF7FEFF 		bl	CapSense_IdacCH0_SaveConfig
 111:.\Generated_Source\PSoC5/CapSense_IdacCH0_PM.c **** }
 196              		.loc 1 111 0
 197 003e 80BD     		pop	{r7, pc}
 198              		.cfi_endproc
 199              	.LFE2:
 200              		.size	CapSense_IdacCH0_Sleep, .-CapSense_IdacCH0_Sleep
 201              		.section	.text.CapSense_IdacCH0_Wakeup,"ax",%progbits
 202              		.align	2
 203              		.global	CapSense_IdacCH0_Wakeup
 204              		.thumb
 205              		.thumb_func
 206              		.type	CapSense_IdacCH0_Wakeup, %function
 207              	CapSense_IdacCH0_Wakeup:
 208              	.LFB3:
 112:.\Generated_Source\PSoC5/CapSense_IdacCH0_PM.c **** 
 113:.\Generated_Source\PSoC5/CapSense_IdacCH0_PM.c **** 
 114:.\Generated_Source\PSoC5/CapSense_IdacCH0_PM.c **** /*******************************************************************************
 115:.\Generated_Source\PSoC5/CapSense_IdacCH0_PM.c **** * Function Name: CapSense_IdacCH0_Wakeup
 116:.\Generated_Source\PSoC5/CapSense_IdacCH0_PM.c **** ********************************************************************************
 117:.\Generated_Source\PSoC5/CapSense_IdacCH0_PM.c **** *
 118:.\Generated_Source\PSoC5/CapSense_IdacCH0_PM.c **** * Summary:
 119:.\Generated_Source\PSoC5/CapSense_IdacCH0_PM.c **** *  Restores and enables the user configuration
 120:.\Generated_Source\PSoC5/CapSense_IdacCH0_PM.c **** *  
 121:.\Generated_Source\PSoC5/CapSense_IdacCH0_PM.c **** * Parameters:
 122:.\Generated_Source\PSoC5/CapSense_IdacCH0_PM.c **** *  void
 123:.\Generated_Source\PSoC5/CapSense_IdacCH0_PM.c **** *
 124:.\Generated_Source\PSoC5/CapSense_IdacCH0_PM.c **** * Return:
 125:.\Generated_Source\PSoC5/CapSense_IdacCH0_PM.c **** *  void
 126:.\Generated_Source\PSoC5/CapSense_IdacCH0_PM.c **** *
 127:.\Generated_Source\PSoC5/CapSense_IdacCH0_PM.c **** * Global variables:
 128:.\Generated_Source\PSoC5/CapSense_IdacCH0_PM.c **** *  CapSense_IdacCH0_backup.enableState: Is used to restore the enable state of 
 129:.\Generated_Source\PSoC5/CapSense_IdacCH0_PM.c **** *  block on wakeup from sleep mode.
 130:.\Generated_Source\PSoC5/CapSense_IdacCH0_PM.c **** *
ARM GAS  C:\DOCUME~1\david\LOCALS~1\Temp\ccYBZ8gP.s 			page 7


 131:.\Generated_Source\PSoC5/CapSense_IdacCH0_PM.c **** *******************************************************************************/
 132:.\Generated_Source\PSoC5/CapSense_IdacCH0_PM.c **** void CapSense_IdacCH0_Wakeup(void) 
 133:.\Generated_Source\PSoC5/CapSense_IdacCH0_PM.c **** {
 209              		.loc 1 133 0
 210              		.cfi_startproc
 211              		@ args = 0, pretend = 0, frame = 0
 212              		@ frame_needed = 1, uses_anonymous_args = 0
 213 0000 80B5     		push	{r7, lr}
 214              	.LCFI6:
 215              		.cfi_def_cfa_offset 8
 216 0002 00AF     		add	r7, sp, #0
 217              		.cfi_offset 14, -4
 218              		.cfi_offset 7, -8
 219              	.LCFI7:
 220              		.cfi_def_cfa_register 7
 134:.\Generated_Source\PSoC5/CapSense_IdacCH0_PM.c ****     CapSense_IdacCH0_RestoreConfig();
 221              		.loc 1 134 0
 222 0004 FFF7FEFF 		bl	CapSense_IdacCH0_RestoreConfig
 135:.\Generated_Source\PSoC5/CapSense_IdacCH0_PM.c ****     
 136:.\Generated_Source\PSoC5/CapSense_IdacCH0_PM.c ****     if(CapSense_IdacCH0_backup.enableState == 1u)
 223              		.loc 1 136 0
 224 0008 40F20003 		movw	r3, #:lower16:CapSense_IdacCH0_backup
 225 000c C0F20003 		movt	r3, #:upper16:CapSense_IdacCH0_backup
 226 0010 1B78     		ldrb	r3, [r3, #0]	@ zero_extendqisi2
 227 0012 012B     		cmp	r3, #1
 228 0014 0AD1     		bne	.L14
 137:.\Generated_Source\PSoC5/CapSense_IdacCH0_PM.c ****     {
 138:.\Generated_Source\PSoC5/CapSense_IdacCH0_PM.c ****         /* Enable IDAC8's operation */
 139:.\Generated_Source\PSoC5/CapSense_IdacCH0_PM.c ****         CapSense_IdacCH0_Enable();
 229              		.loc 1 139 0
 230 0016 FFF7FEFF 		bl	CapSense_IdacCH0_Enable
 140:.\Generated_Source\PSoC5/CapSense_IdacCH0_PM.c ****         
 141:.\Generated_Source\PSoC5/CapSense_IdacCH0_PM.c ****         /* Set the data register */
 142:.\Generated_Source\PSoC5/CapSense_IdacCH0_PM.c ****         CapSense_IdacCH0_SetValue(CapSense_IdacCH0_Data);
 231              		.loc 1 142 0
 232 001a 45F68333 		movw	r3, #:lower16:1073765251
 233 001e C4F20003 		movt	r3, #:upper16:1073765251
 234 0022 1B78     		ldrb	r3, [r3, #0]
 235 0024 DBB2     		uxtb	r3, r3
 236 0026 1846     		mov	r0, r3
 237 0028 FFF7FEFF 		bl	CapSense_IdacCH0_SetValue
 238              	.L14:
 143:.\Generated_Source\PSoC5/CapSense_IdacCH0_PM.c ****     } /* Do nothing if IDAC8 was disabled before */    
 144:.\Generated_Source\PSoC5/CapSense_IdacCH0_PM.c **** }
 239              		.loc 1 144 0
 240 002c 80BD     		pop	{r7, pc}
 241              		.cfi_endproc
 242              	.LFE3:
 243              		.size	CapSense_IdacCH0_Wakeup, .-CapSense_IdacCH0_Wakeup
 244 002e 00BF     		.text
 245              	.Letext0: