ARM GAS  C:\DOCUME~1\david\LOCALS~1\Temp\ccyMY81M.s 			page 1


   1              		.syntax unified
   2              		.cpu cortex-m3
   3              		.fpu softvfp
   4              		.eabi_attribute 20, 1
   5              		.eabi_attribute 21, 1
   6              		.eabi_attribute 23, 3
   7              		.eabi_attribute 24, 1
   8              		.eabi_attribute 25, 1
   9              		.eabi_attribute 26, 1
  10              		.eabi_attribute 30, 6
  11              		.eabi_attribute 18, 4
  12              		.thumb
  13              		.file	"main.c"
  20 0000 A9030000 		.text
  20      02005300 
  20      00000201 
  20      FB0E0D00 
  20      01010101 
  21              	.Ltext0:
  22              		.cfi_sections	.debug_frame
  23              		.section	.rodata
  24              		.align	2
  25              	.LC0:
  26 0000 20202020 		.ascii	"                \000"
  26      20202020 
  26      20202020 
  26      20202020 
  26      00
  27              		.section	.text.LCD_ClearLine,"ax",%progbits
  28              		.align	2
  29              		.global	LCD_ClearLine
  30              		.thumb
  31              		.thumb_func
  32              		.type	LCD_ClearLine, %function
  33              	LCD_ClearLine:
  34              	.LFB29:
  35              		.file 1 ".\\main.c"
   1:.\main.c      **** #include <device.h>
   2:.\main.c      **** #include <stdbool.h>
   3:.\main.c      **** 
   4:.\main.c      **** 
   5:.\main.c      **** #define SERIAL true
   6:.\main.c      **** 
   7:.\main.c      **** #define MATRIX_ROWS 8
   8:.\main.c      **** #define MATRIX_COLS 8
   9:.\main.c      **** 
  10:.\main.c      **** #define OFF     0x00
  11:.\main.c      **** #define RED     0x01
  12:.\main.c      **** #define GREEN   0x02
  13:.\main.c      **** #define YELLOW  0x03
  14:.\main.c      **** #define BLUE    0x04
ARM GAS  C:\DOCUME~1\david\LOCALS~1\Temp\ccyMY81M.s 			page 2


  15:.\main.c      **** #define MAGENTA 0x05
  16:.\main.c      **** #define CYAN    0x06
  17:.\main.c      **** #define WHITE   0x07
  18:.\main.c      **** 
  19:.\main.c      **** 
  20:.\main.c      **** 
  21:.\main.c      **** 
  22:.\main.c      **** void matrix_illuminate  ( uint8 row , uint8 col , uint8 color );
  23:.\main.c      **** void matrix_deluminate  ();
  24:.\main.c      **** void matrix_test        ( bool extended , bool slow );
  25:.\main.c      **** void matrix_refresh     ( uint8 display[MATRIX_ROWS][MATRIX_COLS] );
  26:.\main.c      **** 
  27:.\main.c      **** void LCD_ClearLine     ( uint8 line );
  28:.\main.c      **** void LCD_UpdateStatus  ( const char string[] );
  29:.\main.c      **** void LCD_UpdateMessage ( const char string[] );
  30:.\main.c      **** void LCD_Spin          ( uint8 row , uint8 col , uint8 speed , uint8 count );
  31:.\main.c      **** 
  32:.\main.c      **** 
  33:.\main.c      **** 
  34:.\main.c      **** 
  35:.\main.c      **** 
  36:.\main.c      **** 
  37:.\main.c      **** 
  38:.\main.c      **** void LCD_ClearLine ( uint8 line ) {
  36              		.loc 1 38 0
  37              		.cfi_startproc
  38              		@ args = 0, pretend = 0, frame = 8
  39              		@ frame_needed = 1, uses_anonymous_args = 0
  40 0000 80B5     		push	{r7, lr}
  41              	.LCFI0:
  42              		.cfi_def_cfa_offset 8
  43 0002 82B0     		sub	sp, sp, #8
  44              	.LCFI1:
  45              		.cfi_def_cfa_offset 16
  46 0004 00AF     		add	r7, sp, #0
  47              		.cfi_offset 14, -4
  48              		.cfi_offset 7, -8
  49              	.LCFI2:
  50              		.cfi_def_cfa_register 7
  51 0006 0346     		mov	r3, r0
  52 0008 FB71     		strb	r3, [r7, #7]
  39:.\main.c      ****     LCD_Position(line,0);
  53              		.loc 1 39 0
  54 000a FB79     		ldrb	r3, [r7, #7]	@ zero_extendqisi2
  55 000c 1846     		mov	r0, r3
  56 000e 4FF00001 		mov	r1, #0
  57 0012 FFF7FEFF 		bl	LCD_Position
  40:.\main.c      ****     LCD_PrintString("                ");
  58              		.loc 1 40 0
  59 0016 40F20000 		movw	r0, #:lower16:.LC0
  60 001a C0F20000 		movt	r0, #:upper16:.LC0
  61 001e FFF7FEFF 		bl	LCD_PrintString
  41:.\main.c      ****     LCD_Position(line,0);
  62              		.loc 1 41 0
  63 0022 FB79     		ldrb	r3, [r7, #7]	@ zero_extendqisi2
  64 0024 1846     		mov	r0, r3
  65 0026 4FF00001 		mov	r1, #0
ARM GAS  C:\DOCUME~1\david\LOCALS~1\Temp\ccyMY81M.s 			page 3


  66 002a FFF7FEFF 		bl	LCD_Position
  42:.\main.c      **** }
  67              		.loc 1 42 0
  68 002e 07F10807 		add	r7, r7, #8
  69 0032 BD46     		mov	sp, r7
  70 0034 80BD     		pop	{r7, pc}
  71              		.cfi_endproc
  72              	.LFE29:
  73              		.size	LCD_ClearLine, .-LCD_ClearLine
  74 0036 00BF     		.section	.text.LCD_UpdateStatus,"ax",%progbits
  75              		.align	2
  76              		.global	LCD_UpdateStatus
  77              		.thumb
  78              		.thumb_func
  79              		.type	LCD_UpdateStatus, %function
  80              	LCD_UpdateStatus:
  81              	.LFB30:
  43:.\main.c      **** 
  44:.\main.c      **** 
  45:.\main.c      **** 
  46:.\main.c      **** 
  47:.\main.c      **** void LCD_UpdateStatus ( const char string[] ) {
  82              		.loc 1 47 0
  83              		.cfi_startproc
  84              		@ args = 0, pretend = 0, frame = 8
  85              		@ frame_needed = 1, uses_anonymous_args = 0
  86 0000 80B5     		push	{r7, lr}
  87              	.LCFI3:
  88              		.cfi_def_cfa_offset 8
  89 0002 82B0     		sub	sp, sp, #8
  90              	.LCFI4:
  91              		.cfi_def_cfa_offset 16
  92 0004 00AF     		add	r7, sp, #0
  93              		.cfi_offset 14, -4
  94              		.cfi_offset 7, -8
  95              	.LCFI5:
  96              		.cfi_def_cfa_register 7
  97 0006 7860     		str	r0, [r7, #4]
  48:.\main.c      ****     LCD_ClearDisplay();
  98              		.loc 1 48 0
  99 0008 4FF00100 		mov	r0, #1
 100 000c FFF7FEFF 		bl	LCD_WriteControl
  49:.\main.c      ****     LCD_Position(0,0);
 101              		.loc 1 49 0
 102 0010 4FF00000 		mov	r0, #0
 103 0014 4FF00001 		mov	r1, #0
 104 0018 FFF7FEFF 		bl	LCD_Position
  50:.\main.c      ****     LCD_PrintString(string);
 105              		.loc 1 50 0
 106 001c 7868     		ldr	r0, [r7, #4]
 107 001e FFF7FEFF 		bl	LCD_PrintString
  51:.\main.c      **** }
 108              		.loc 1 51 0
 109 0022 07F10807 		add	r7, r7, #8
 110 0026 BD46     		mov	sp, r7
 111 0028 80BD     		pop	{r7, pc}
 112              		.cfi_endproc
ARM GAS  C:\DOCUME~1\david\LOCALS~1\Temp\ccyMY81M.s 			page 4


 113              	.LFE30:
 114              		.size	LCD_UpdateStatus, .-LCD_UpdateStatus
 115 002a 00BF     		.section	.text.LCD_UpdateMessage,"ax",%progbits
 116              		.align	2
 117              		.global	LCD_UpdateMessage
 118              		.thumb
 119              		.thumb_func
 120              		.type	LCD_UpdateMessage, %function
 121              	LCD_UpdateMessage:
 122              	.LFB31:
  52:.\main.c      **** 
  53:.\main.c      **** 
  54:.\main.c      **** 
  55:.\main.c      **** 
  56:.\main.c      **** void LCD_UpdateMessage ( const char string[] ) {
 123              		.loc 1 56 0
 124              		.cfi_startproc
 125              		@ args = 0, pretend = 0, frame = 8
 126              		@ frame_needed = 1, uses_anonymous_args = 0
 127 0000 80B5     		push	{r7, lr}
 128              	.LCFI6:
 129              		.cfi_def_cfa_offset 8
 130 0002 82B0     		sub	sp, sp, #8
 131              	.LCFI7:
 132              		.cfi_def_cfa_offset 16
 133 0004 00AF     		add	r7, sp, #0
 134              		.cfi_offset 14, -4
 135              		.cfi_offset 7, -8
 136              	.LCFI8:
 137              		.cfi_def_cfa_register 7
 138 0006 7860     		str	r0, [r7, #4]
  57:.\main.c      ****     LCD_ClearLine(1);
 139              		.loc 1 57 0
 140 0008 4FF00100 		mov	r0, #1
 141 000c FFF7FEFF 		bl	LCD_ClearLine
  58:.\main.c      ****     LCD_PrintString(string);
 142              		.loc 1 58 0
 143 0010 7868     		ldr	r0, [r7, #4]
 144 0012 FFF7FEFF 		bl	LCD_PrintString
  59:.\main.c      **** }
 145              		.loc 1 59 0
 146 0016 07F10807 		add	r7, r7, #8
 147 001a BD46     		mov	sp, r7
 148 001c 80BD     		pop	{r7, pc}
 149              		.cfi_endproc
 150              	.LFE31:
 151              		.size	LCD_UpdateMessage, .-LCD_UpdateMessage
 152 001e 00BF     		.section	.text.LCD_Spin,"ax",%progbits
 153              		.align	2
 154              		.global	LCD_Spin
 155              		.thumb
 156              		.thumb_func
 157              		.type	LCD_Spin, %function
 158              	LCD_Spin:
 159              	.LFB32:
  60:.\main.c      **** 
  61:.\main.c      **** 
ARM GAS  C:\DOCUME~1\david\LOCALS~1\Temp\ccyMY81M.s 			page 5


  62:.\main.c      **** 
  63:.\main.c      **** 
  64:.\main.c      **** void LCD_Spin ( uint8 row , uint8 col , uint8 speed , uint8 count ) {
 160              		.loc 1 64 0
 161              		.cfi_startproc
 162              		@ args = 0, pretend = 0, frame = 8
 163              		@ frame_needed = 1, uses_anonymous_args = 0
 164 0000 80B5     		push	{r7, lr}
 165              	.LCFI9:
 166              		.cfi_def_cfa_offset 8
 167 0002 82B0     		sub	sp, sp, #8
 168              	.LCFI10:
 169              		.cfi_def_cfa_offset 16
 170 0004 00AF     		add	r7, sp, #0
 171              		.cfi_offset 14, -4
 172              		.cfi_offset 7, -8
 173              	.LCFI11:
 174              		.cfi_def_cfa_register 7
 175 0006 F871     		strb	r0, [r7, #7]
 176 0008 B971     		strb	r1, [r7, #6]
 177 000a 7A71     		strb	r2, [r7, #5]
 178 000c 3B71     		strb	r3, [r7, #4]
  65:.\main.c      ****     while (count-- > 0) {
 179              		.loc 1 65 0
 180 000e 43E0     		b	.L8
 181              	.L9:
  66:.\main.c      ****         LCD_Position(row,col);
 182              		.loc 1 66 0
 183 0010 FA79     		ldrb	r2, [r7, #7]	@ zero_extendqisi2
 184 0012 BB79     		ldrb	r3, [r7, #6]	@ zero_extendqisi2
 185 0014 1046     		mov	r0, r2
 186 0016 1946     		mov	r1, r3
 187 0018 FFF7FEFF 		bl	LCD_Position
  67:.\main.c      ****         LCD_PutChar('|');
 188              		.loc 1 67 0
 189 001c 4FF07C00 		mov	r0, #124
 190 0020 FFF7FEFF 		bl	LCD_PutChar
  68:.\main.c      ****         CyDelay(speed/4);
 191              		.loc 1 68 0
 192 0024 7B79     		ldrb	r3, [r7, #5]	@ zero_extendqisi2
 193 0026 4FEA9303 		lsr	r3, r3, #2
 194 002a DBB2     		uxtb	r3, r3
 195 002c 1846     		mov	r0, r3
 196 002e FFF7FEFF 		bl	CyDelay
  69:.\main.c      ****         LCD_Position(row,col);
 197              		.loc 1 69 0
 198 0032 FA79     		ldrb	r2, [r7, #7]	@ zero_extendqisi2
 199 0034 BB79     		ldrb	r3, [r7, #6]	@ zero_extendqisi2
 200 0036 1046     		mov	r0, r2
 201 0038 1946     		mov	r1, r3
 202 003a FFF7FEFF 		bl	LCD_Position
  70:.\main.c      ****         LCD_PutChar('/');
 203              		.loc 1 70 0
 204 003e 4FF02F00 		mov	r0, #47
 205 0042 FFF7FEFF 		bl	LCD_PutChar
  71:.\main.c      ****         CyDelay(speed/4);
 206              		.loc 1 71 0
ARM GAS  C:\DOCUME~1\david\LOCALS~1\Temp\ccyMY81M.s 			page 6


 207 0046 7B79     		ldrb	r3, [r7, #5]	@ zero_extendqisi2
 208 0048 4FEA9303 		lsr	r3, r3, #2
 209 004c DBB2     		uxtb	r3, r3
 210 004e 1846     		mov	r0, r3
 211 0050 FFF7FEFF 		bl	CyDelay
  72:.\main.c      ****         LCD_Position(row,col);
 212              		.loc 1 72 0
 213 0054 FA79     		ldrb	r2, [r7, #7]	@ zero_extendqisi2
 214 0056 BB79     		ldrb	r3, [r7, #6]	@ zero_extendqisi2
 215 0058 1046     		mov	r0, r2
 216 005a 1946     		mov	r1, r3
 217 005c FFF7FEFF 		bl	LCD_Position
  73:.\main.c      ****         LCD_PutChar('-');
 218              		.loc 1 73 0
 219 0060 4FF02D00 		mov	r0, #45
 220 0064 FFF7FEFF 		bl	LCD_PutChar
  74:.\main.c      ****         CyDelay(speed/4);
 221              		.loc 1 74 0
 222 0068 7B79     		ldrb	r3, [r7, #5]	@ zero_extendqisi2
 223 006a 4FEA9303 		lsr	r3, r3, #2
 224 006e DBB2     		uxtb	r3, r3
 225 0070 1846     		mov	r0, r3
 226 0072 FFF7FEFF 		bl	CyDelay
  75:.\main.c      ****         LCD_Position(row,col);
 227              		.loc 1 75 0
 228 0076 FA79     		ldrb	r2, [r7, #7]	@ zero_extendqisi2
 229 0078 BB79     		ldrb	r3, [r7, #6]	@ zero_extendqisi2
 230 007a 1046     		mov	r0, r2
 231 007c 1946     		mov	r1, r3
 232 007e FFF7FEFF 		bl	LCD_Position
  76:.\main.c      ****         LCD_PutChar('\\');
 233              		.loc 1 76 0
 234 0082 4FF05C00 		mov	r0, #92
 235 0086 FFF7FEFF 		bl	LCD_PutChar
  77:.\main.c      ****         CyDelay(speed/4);
 236              		.loc 1 77 0
 237 008a 7B79     		ldrb	r3, [r7, #5]	@ zero_extendqisi2
 238 008c 4FEA9303 		lsr	r3, r3, #2
 239 0090 DBB2     		uxtb	r3, r3
 240 0092 1846     		mov	r0, r3
 241 0094 FFF7FEFF 		bl	CyDelay
 242              	.L8:
 243              		.loc 1 65 0
 244 0098 3B79     		ldrb	r3, [r7, #4]	@ zero_extendqisi2
 245 009a 002B     		cmp	r3, #0
 246 009c 0CBF     		ite	eq
 247 009e 0023     		moveq	r3, #0
 248 00a0 0123     		movne	r3, #1
 249 00a2 DBB2     		uxtb	r3, r3
 250 00a4 3A79     		ldrb	r2, [r7, #4]
 251 00a6 02F1FF32 		add	r2, r2, #-1
 252 00aa 3A71     		strb	r2, [r7, #4]
 253 00ac 002B     		cmp	r3, #0
 254 00ae AFD1     		bne	.L9
  78:.\main.c      ****     }
  79:.\main.c      **** }
 255              		.loc 1 79 0
ARM GAS  C:\DOCUME~1\david\LOCALS~1\Temp\ccyMY81M.s 			page 7


 256 00b0 07F10807 		add	r7, r7, #8
 257 00b4 BD46     		mov	sp, r7
 258 00b6 80BD     		pop	{r7, pc}
 259              		.cfi_endproc
 260              	.LFE32:
 261              		.size	LCD_Spin, .-LCD_Spin
 262              		.section	.rodata
 263 0011 000000   		.align	2
 264              	.LC1:
 265 0014 73657269 		.ascii	"serial error\000"
 265      616C2065 
 265      72726F72 
 265      00
 266 0021 000000   		.align	2
 267              	.LC2:
 268 0024 636F6C6F 		.ascii	"color mismatch\000"
 268      72206D69 
 268      736D6174 
 268      636800
 269              		.section	.text.matrix_illuminate,"ax",%progbits
 270              		.align	2
 271              		.global	matrix_illuminate
 272              		.thumb
 273              		.thumb_func
 274              		.type	matrix_illuminate, %function
 275              	matrix_illuminate:
 276              	.LFB33:
  80:.\main.c      **** 
  81:.\main.c      **** 
  82:.\main.c      **** 
  83:.\main.c      **** 
  84:.\main.c      **** 
  85:.\main.c      **** 
  86:.\main.c      **** 
  87:.\main.c      **** 
  88:.\main.c      **** 
  89:.\main.c      **** void matrix_illuminate ( uint8 row , uint8 col , uint8 color ) {
 277              		.loc 1 89 0
 278              		.cfi_startproc
 279              		@ args = 0, pretend = 0, frame = 24
 280              		@ frame_needed = 1, uses_anonymous_args = 0
 281 0000 80B5     		push	{r7, lr}
 282              	.LCFI12:
 283              		.cfi_def_cfa_offset 8
 284 0002 86B0     		sub	sp, sp, #24
 285              	.LCFI13:
 286              		.cfi_def_cfa_offset 32
 287 0004 00AF     		add	r7, sp, #0
 288              		.cfi_offset 14, -4
 289              		.cfi_offset 7, -8
 290              	.LCFI14:
 291              		.cfi_def_cfa_register 7
 292 0006 1346     		mov	r3, r2
 293 0008 0246     		mov	r2, r0
 294 000a FA71     		strb	r2, [r7, #7]
 295 000c 0A46     		mov	r2, r1
 296 000e BA71     		strb	r2, [r7, #6]
ARM GAS  C:\DOCUME~1\david\LOCALS~1\Temp\ccyMY81M.s 			page 8


 297 0010 7B71     		strb	r3, [r7, #5]
  90:.\main.c      ****     uint8 off = 0x00, on = 0x01;
 298              		.loc 1 90 0
 299 0012 4FF00003 		mov	r3, #0
 300 0016 BB72     		strb	r3, [r7, #10]
 301 0018 4FF00103 		mov	r3, #1
 302 001c FB72     		strb	r3, [r7, #11]
 303              	.LBB2:
  91:.\main.c      ****     if (SERIAL) {
  92:.\main.c      ****         uint8 rows = 0b00000001 << row;
 304              		.loc 1 92 0
 305 001e FB79     		ldrb	r3, [r7, #7]	@ zero_extendqisi2
 306 0020 4FF00102 		mov	r2, #1
 307 0024 02FA03F3 		lsl	r3, r2, r3
 308 0028 3B73     		strb	r3, [r7, #12]
  93:.\main.c      ****         uint8 reds = 0b00000001;
 309              		.loc 1 93 0
 310 002a 4FF00103 		mov	r3, #1
 311 002e 7B73     		strb	r3, [r7, #13]
  94:.\main.c      ****         uint8 grns = 0b00000001;
 312              		.loc 1 94 0
 313 0030 4FF00103 		mov	r3, #1
 314 0034 BB73     		strb	r3, [r7, #14]
  95:.\main.c      ****         uint8 blus = 0b00000001;
 315              		.loc 1 95 0
 316 0036 4FF00103 		mov	r3, #1
 317 003a FB73     		strb	r3, [r7, #15]
  96:.\main.c      ****         switch (color) {
 318              		.loc 1 96 0
 319 003c 7B79     		ldrb	r3, [r7, #5]	@ zero_extendqisi2
 320 003e 072B     		cmp	r3, #7
 321 0040 6ED8     		bhi	.L12
 322 0042 01A2     		adr	r2, .L21
 323 0044 52F823F0 		ldr	pc, [r2, r3, lsl #2]
 324              		.align	2
 325              	.L21:
 326 0048 69000000 		.word	.L13+1
 327 004c 77000000 		.word	.L14+1
 328 0050 8B000000 		.word	.L15+1
 329 0054 9F000000 		.word	.L16+1
 330 0058 B9000000 		.word	.L17+1
 331 005c CD000000 		.word	.L18+1
 332 0060 E7000000 		.word	.L19+1
 333 0064 01010000 		.word	.L20+1
 334              	.L13:
  97:.\main.c      ****             case OFF:     reds   = off;
 335              		.loc 1 97 0
 336 0068 BB7A     		ldrb	r3, [r7, #10]
 337 006a 7B73     		strb	r3, [r7, #13]
  98:.\main.c      ****                           grns   = off;
 338              		.loc 1 98 0
 339 006c BB7A     		ldrb	r3, [r7, #10]
 340 006e BB73     		strb	r3, [r7, #14]
  99:.\main.c      ****                           blus   = off; break;
 341              		.loc 1 99 0
 342 0070 BB7A     		ldrb	r3, [r7, #10]
 343 0072 FB73     		strb	r3, [r7, #15]
ARM GAS  C:\DOCUME~1\david\LOCALS~1\Temp\ccyMY81M.s 			page 9


 344 0074 6BE0     		b	.L22
 345              	.L14:
 100:.\main.c      ****             case RED:     reds <<= col;
 346              		.loc 1 100 0
 347 0076 7A7B     		ldrb	r2, [r7, #13]	@ zero_extendqisi2
 348 0078 BB79     		ldrb	r3, [r7, #6]	@ zero_extendqisi2
 349 007a 02FA03F3 		lsl	r3, r2, r3
 350 007e 7B73     		strb	r3, [r7, #13]
 101:.\main.c      ****                           grns   = off;
 351              		.loc 1 101 0
 352 0080 BB7A     		ldrb	r3, [r7, #10]
 353 0082 BB73     		strb	r3, [r7, #14]
 102:.\main.c      ****                           blus   = off; break;
 354              		.loc 1 102 0
 355 0084 BB7A     		ldrb	r3, [r7, #10]
 356 0086 FB73     		strb	r3, [r7, #15]
 357 0088 61E0     		b	.L22
 358              	.L15:
 103:.\main.c      ****             case GREEN:   reds   = off;
 359              		.loc 1 103 0
 360 008a BB7A     		ldrb	r3, [r7, #10]
 361 008c 7B73     		strb	r3, [r7, #13]
 104:.\main.c      ****                           grns <<= col;
 362              		.loc 1 104 0
 363 008e BA7B     		ldrb	r2, [r7, #14]	@ zero_extendqisi2
 364 0090 BB79     		ldrb	r3, [r7, #6]	@ zero_extendqisi2
 365 0092 02FA03F3 		lsl	r3, r2, r3
 366 0096 BB73     		strb	r3, [r7, #14]
 105:.\main.c      ****                           blus   = off; break;
 367              		.loc 1 105 0
 368 0098 BB7A     		ldrb	r3, [r7, #10]
 369 009a FB73     		strb	r3, [r7, #15]
 370 009c 57E0     		b	.L22
 371              	.L16:
 106:.\main.c      ****             case YELLOW:  reds <<= col;
 372              		.loc 1 106 0
 373 009e 7A7B     		ldrb	r2, [r7, #13]	@ zero_extendqisi2
 374 00a0 BB79     		ldrb	r3, [r7, #6]	@ zero_extendqisi2
 375 00a2 02FA03F3 		lsl	r3, r2, r3
 376 00a6 7B73     		strb	r3, [r7, #13]
 107:.\main.c      ****                           grns <<= col;
 377              		.loc 1 107 0
 378 00a8 BA7B     		ldrb	r2, [r7, #14]	@ zero_extendqisi2
 379 00aa BB79     		ldrb	r3, [r7, #6]	@ zero_extendqisi2
 380 00ac 02FA03F3 		lsl	r3, r2, r3
 381 00b0 BB73     		strb	r3, [r7, #14]
 108:.\main.c      ****                           blus   = off; break;
 382              		.loc 1 108 0
 383 00b2 BB7A     		ldrb	r3, [r7, #10]
 384 00b4 FB73     		strb	r3, [r7, #15]
 385 00b6 4AE0     		b	.L22
 386              	.L17:
 109:.\main.c      ****             case BLUE:    reds   = off;
 387              		.loc 1 109 0
 388 00b8 BB7A     		ldrb	r3, [r7, #10]
 389 00ba 7B73     		strb	r3, [r7, #13]
 110:.\main.c      ****                           grns   = off;
ARM GAS  C:\DOCUME~1\david\LOCALS~1\Temp\ccyMY81M.s 			page 10


 390              		.loc 1 110 0
 391 00bc BB7A     		ldrb	r3, [r7, #10]
 392 00be BB73     		strb	r3, [r7, #14]
 111:.\main.c      ****                           blus <<= col; break;
 393              		.loc 1 111 0
 394 00c0 FA7B     		ldrb	r2, [r7, #15]	@ zero_extendqisi2
 395 00c2 BB79     		ldrb	r3, [r7, #6]	@ zero_extendqisi2
 396 00c4 02FA03F3 		lsl	r3, r2, r3
 397 00c8 FB73     		strb	r3, [r7, #15]
 398 00ca 40E0     		b	.L22
 399              	.L18:
 112:.\main.c      ****             case MAGENTA: reds <<= col;
 400              		.loc 1 112 0
 401 00cc 7A7B     		ldrb	r2, [r7, #13]	@ zero_extendqisi2
 402 00ce BB79     		ldrb	r3, [r7, #6]	@ zero_extendqisi2
 403 00d0 02FA03F3 		lsl	r3, r2, r3
 404 00d4 7B73     		strb	r3, [r7, #13]
 113:.\main.c      ****                           grns   = off;
 405              		.loc 1 113 0
 406 00d6 BB7A     		ldrb	r3, [r7, #10]
 407 00d8 BB73     		strb	r3, [r7, #14]
 114:.\main.c      ****                           blus <<= col; break;
 408              		.loc 1 114 0
 409 00da FA7B     		ldrb	r2, [r7, #15]	@ zero_extendqisi2
 410 00dc BB79     		ldrb	r3, [r7, #6]	@ zero_extendqisi2
 411 00de 02FA03F3 		lsl	r3, r2, r3
 412 00e2 FB73     		strb	r3, [r7, #15]
 413 00e4 33E0     		b	.L22
 414              	.L19:
 115:.\main.c      ****             case CYAN:    reds   = off;
 415              		.loc 1 115 0
 416 00e6 BB7A     		ldrb	r3, [r7, #10]
 417 00e8 7B73     		strb	r3, [r7, #13]
 116:.\main.c      ****                           grns <<= col;
 418              		.loc 1 116 0
 419 00ea BA7B     		ldrb	r2, [r7, #14]	@ zero_extendqisi2
 420 00ec BB79     		ldrb	r3, [r7, #6]	@ zero_extendqisi2
 421 00ee 02FA03F3 		lsl	r3, r2, r3
 422 00f2 BB73     		strb	r3, [r7, #14]
 117:.\main.c      ****                           blus <<= col; break;
 423              		.loc 1 117 0
 424 00f4 FA7B     		ldrb	r2, [r7, #15]	@ zero_extendqisi2
 425 00f6 BB79     		ldrb	r3, [r7, #6]	@ zero_extendqisi2
 426 00f8 02FA03F3 		lsl	r3, r2, r3
 427 00fc FB73     		strb	r3, [r7, #15]
 428 00fe 26E0     		b	.L22
 429              	.L20:
 118:.\main.c      ****             case WHITE:   reds <<= col;
 430              		.loc 1 118 0
 431 0100 7A7B     		ldrb	r2, [r7, #13]	@ zero_extendqisi2
 432 0102 BB79     		ldrb	r3, [r7, #6]	@ zero_extendqisi2
 433 0104 02FA03F3 		lsl	r3, r2, r3
 434 0108 7B73     		strb	r3, [r7, #13]
 119:.\main.c      ****                           grns <<= col;
 435              		.loc 1 119 0
 436 010a BA7B     		ldrb	r2, [r7, #14]	@ zero_extendqisi2
 437 010c BB79     		ldrb	r3, [r7, #6]	@ zero_extendqisi2
ARM GAS  C:\DOCUME~1\david\LOCALS~1\Temp\ccyMY81M.s 			page 11


 438 010e 02FA03F3 		lsl	r3, r2, r3
 439 0112 BB73     		strb	r3, [r7, #14]
 120:.\main.c      ****                           blus <<= col; break;
 440              		.loc 1 120 0
 441 0114 FA7B     		ldrb	r2, [r7, #15]	@ zero_extendqisi2
 442 0116 BB79     		ldrb	r3, [r7, #6]	@ zero_extendqisi2
 443 0118 02FA03F3 		lsl	r3, r2, r3
 444 011c FB73     		strb	r3, [r7, #15]
 445 011e 16E0     		b	.L22
 446              	.L12:
 121:.\main.c      ****             
 122:.\main.c      ****             default: LCD_UpdateStatus("serial error");
 447              		.loc 1 122 0
 448 0120 40F20000 		movw	r0, #:lower16:.LC1
 449 0124 C0F20000 		movt	r0, #:upper16:.LC1
 450 0128 FFF7FEFF 		bl	LCD_UpdateStatus
 123:.\main.c      ****                      LCD_UpdateMessage("color mismatch");
 451              		.loc 1 123 0
 452 012c 40F20000 		movw	r0, #:lower16:.LC2
 453 0130 C0F20000 		movt	r0, #:upper16:.LC2
 454 0134 FFF7FEFF 		bl	LCD_UpdateMessage
 124:.\main.c      ****                      LCD_Position(1,14);
 455              		.loc 1 124 0
 456 0138 4FF00100 		mov	r0, #1
 457 013c 4FF00E01 		mov	r1, #14
 458 0140 FFF7FEFF 		bl	LCD_Position
 125:.\main.c      ****                      LCD_PrintInt8(color);
 459              		.loc 1 125 0
 460 0144 7B79     		ldrb	r3, [r7, #5]	@ zero_extendqisi2
 461 0146 1846     		mov	r0, r3
 462 0148 FFF7FEFF 		bl	LCD_PrintInt8
 463              	.L23:
 126:.\main.c      ****                      while (true);
 464              		.loc 1 126 0
 465 014c FEE7     		b	.L23
 466              	.L22:
 127:.\main.c      ****         }
 128:.\main.c      ****         
 129:.\main.c      ****         rows = ~rows;
 467              		.loc 1 129 0
 468 014e 3B7B     		ldrb	r3, [r7, #12]
 469 0150 6FEA0303 		mvn	r3, r3
 470 0154 3B73     		strb	r3, [r7, #12]
 130:.\main.c      ****         reds = ~reds;
 471              		.loc 1 130 0
 472 0156 7B7B     		ldrb	r3, [r7, #13]
 473 0158 6FEA0303 		mvn	r3, r3
 474 015c 7B73     		strb	r3, [r7, #13]
 131:.\main.c      ****         grns = ~grns;
 475              		.loc 1 131 0
 476 015e BB7B     		ldrb	r3, [r7, #14]
 477 0160 6FEA0303 		mvn	r3, r3
 478 0164 BB73     		strb	r3, [r7, #14]
 132:.\main.c      ****         blus = ~blus;
 479              		.loc 1 132 0
 480 0166 FB7B     		ldrb	r3, [r7, #15]
 481 0168 6FEA0303 		mvn	r3, r3
ARM GAS  C:\DOCUME~1\david\LOCALS~1\Temp\ccyMY81M.s 			page 12


 482 016c FB73     		strb	r3, [r7, #15]
 133:.\main.c      ****         
 134:.\main.c      ****         Colors_Write(off);
 483              		.loc 1 134 0
 484 016e BB7A     		ldrb	r3, [r7, #10]	@ zero_extendqisi2
 485 0170 1846     		mov	r0, r3
 486 0172 FFF7FEFF 		bl	Colors_Write
 135:.\main.c      ****         int i;
 136:.\main.c      ****         for (i=0; i < 8 ;++i) {
 487              		.loc 1 136 0
 488 0176 4FF00003 		mov	r3, #0
 489 017a 3B61     		str	r3, [r7, #16]
 490 017c 4BE0     		b	.L24
 491              	.L33:
 137:.\main.c      ****             Row_Write(  (rows & (0b10000000 >> i)) ? on : off);
 492              		.loc 1 137 0
 493 017e 3A7B     		ldrb	r2, [r7, #12]	@ zero_extendqisi2
 494 0180 4FF08001 		mov	r1, #128
 495 0184 3B69     		ldr	r3, [r7, #16]
 496 0186 41FA03F3 		asr	r3, r1, r3
 497 018a 02EA0303 		and	r3, r2, r3
 498 018e 002B     		cmp	r3, #0
 499 0190 01D0     		beq	.L25
 500 0192 FB7A     		ldrb	r3, [r7, #11]	@ zero_extendqisi2
 501 0194 00E0     		b	.L26
 502              	.L25:
 503 0196 BB7A     		ldrb	r3, [r7, #10]	@ zero_extendqisi2
 504              	.L26:
 505 0198 1846     		mov	r0, r3
 506 019a FFF7FEFF 		bl	Row_Write
 138:.\main.c      ****             Red_Write(  (reds & (0b10000000 >> i)) ? on : off);
 507              		.loc 1 138 0
 508 019e 7A7B     		ldrb	r2, [r7, #13]	@ zero_extendqisi2
 509 01a0 4FF08001 		mov	r1, #128
 510 01a4 3B69     		ldr	r3, [r7, #16]
 511 01a6 41FA03F3 		asr	r3, r1, r3
 512 01aa 02EA0303 		and	r3, r2, r3
 513 01ae 002B     		cmp	r3, #0
 514 01b0 01D0     		beq	.L27
 515 01b2 FB7A     		ldrb	r3, [r7, #11]	@ zero_extendqisi2
 516 01b4 00E0     		b	.L28
 517              	.L27:
 518 01b6 BB7A     		ldrb	r3, [r7, #10]	@ zero_extendqisi2
 519              	.L28:
 520 01b8 1846     		mov	r0, r3
 521 01ba FFF7FEFF 		bl	Red_Write
 139:.\main.c      ****             Green_Write((grns & (0b10000000 >> i)) ? on : off);
 522              		.loc 1 139 0
 523 01be BA7B     		ldrb	r2, [r7, #14]	@ zero_extendqisi2
 524 01c0 4FF08001 		mov	r1, #128
 525 01c4 3B69     		ldr	r3, [r7, #16]
 526 01c6 41FA03F3 		asr	r3, r1, r3
 527 01ca 02EA0303 		and	r3, r2, r3
 528 01ce 002B     		cmp	r3, #0
 529 01d0 01D0     		beq	.L29
 530 01d2 FB7A     		ldrb	r3, [r7, #11]	@ zero_extendqisi2
 531 01d4 00E0     		b	.L30
ARM GAS  C:\DOCUME~1\david\LOCALS~1\Temp\ccyMY81M.s 			page 13


 532              	.L29:
 533 01d6 BB7A     		ldrb	r3, [r7, #10]	@ zero_extendqisi2
 534              	.L30:
 535 01d8 1846     		mov	r0, r3
 536 01da FFF7FEFF 		bl	Green_Write
 140:.\main.c      ****             Blue_Write( (blus & (0b10000000 >> i)) ? on : off);
 537              		.loc 1 140 0
 538 01de FA7B     		ldrb	r2, [r7, #15]	@ zero_extendqisi2
 539 01e0 4FF08001 		mov	r1, #128
 540 01e4 3B69     		ldr	r3, [r7, #16]
 541 01e6 41FA03F3 		asr	r3, r1, r3
 542 01ea 02EA0303 		and	r3, r2, r3
 543 01ee 002B     		cmp	r3, #0
 544 01f0 01D0     		beq	.L31
 545 01f2 FB7A     		ldrb	r3, [r7, #11]	@ zero_extendqisi2
 546 01f4 00E0     		b	.L32
 547              	.L31:
 548 01f6 BB7A     		ldrb	r3, [r7, #10]	@ zero_extendqisi2
 549              	.L32:
 550 01f8 1846     		mov	r0, r3
 551 01fa FFF7FEFF 		bl	Blue_Write
 141:.\main.c      ****             
 142:.\main.c      ****             //generate a rising edge
 143:.\main.c      ****             Shifter_Write(on);
 552              		.loc 1 143 0
 553 01fe FB7A     		ldrb	r3, [r7, #11]	@ zero_extendqisi2
 554 0200 1846     		mov	r0, r3
 555 0202 FFF7FEFF 		bl	Shifter_Write
 144:.\main.c      ****             Shifter_Write(off);
 556              		.loc 1 144 0
 557 0206 BB7A     		ldrb	r3, [r7, #10]	@ zero_extendqisi2
 558 0208 1846     		mov	r0, r3
 559 020a FFF7FEFF 		bl	Shifter_Write
 560              		.loc 1 136 0
 561 020e 3B69     		ldr	r3, [r7, #16]
 562 0210 03F10103 		add	r3, r3, #1
 563 0214 3B61     		str	r3, [r7, #16]
 564              	.L24:
 565 0216 3B69     		ldr	r3, [r7, #16]
 566 0218 072B     		cmp	r3, #7
 567 021a B0DD     		ble	.L33
 145:.\main.c      ****         }
 146:.\main.c      ****         Colors_Write(on);
 568              		.loc 1 146 0
 569 021c FB7A     		ldrb	r3, [r7, #11]	@ zero_extendqisi2
 570 021e 1846     		mov	r0, r3
 571 0220 FFF7FEFF 		bl	Colors_Write
 572              	.LBE2:
 147:.\main.c      ****     }
 148:.\main.c      ****     else {
 149:.\main.c      ****         uint8 r = on, c = on;
 150:.\main.c      ****         while (row-- > 0) r *= 2;
 151:.\main.c      ****         Row_Write(r);
 152:.\main.c      ****         while (col-- > 0) c *= 2;
 153:.\main.c      ****         switch (color) {
 154:.\main.c      ****             case RED:       Red_Write(c); break;
 155:.\main.c      ****             case GREEN:   Green_Write(c); break;
ARM GAS  C:\DOCUME~1\david\LOCALS~1\Temp\ccyMY81M.s 			page 14


 156:.\main.c      ****             case YELLOW:    Red_Write(c);
 157:.\main.c      ****                           Green_Write(c); break;
 158:.\main.c      ****             case BLUE:     Blue_Write(c); break;
 159:.\main.c      ****             case MAGENTA:   Red_Write(c);
 160:.\main.c      ****                            Blue_Write(c); break;
 161:.\main.c      ****             case CYAN:    Green_Write(c);
 162:.\main.c      ****                            Blue_Write(c); break;
 163:.\main.c      ****             case WHITE:     Red_Write(c);
 164:.\main.c      ****                           Green_Write(c);
 165:.\main.c      ****                            Blue_Write(c); break;
 166:.\main.c      ****             
 167:.\main.c      ****             default:  LCD_UpdateStatus("parallel error");
 168:.\main.c      ****                       LCD_UpdateMessage("color mismatch");
 169:.\main.c      ****                       LCD_Position(1,14);
 170:.\main.c      ****                       LCD_PrintInt8(color);
 171:.\main.c      ****                       while (true);
 172:.\main.c      ****             case OFF: break;
 173:.\main.c      ****         }
 174:.\main.c      ****     }
 175:.\main.c      **** }
 573              		.loc 1 175 0
 574 0224 07F11807 		add	r7, r7, #24
 575 0228 BD46     		mov	sp, r7
 576 022a 80BD     		pop	{r7, pc}
 577              		.cfi_endproc
 578              	.LFE33:
 579              		.size	matrix_illuminate, .-matrix_illuminate
 580              		.section	.text.matrix_deluminate,"ax",%progbits
 581              		.align	2
 582              		.global	matrix_deluminate
 583              		.thumb
 584              		.thumb_func
 585              		.type	matrix_deluminate, %function
 586              	matrix_deluminate:
 587              	.LFB34:
 176:.\main.c      **** 
 177:.\main.c      **** 
 178:.\main.c      **** 
 179:.\main.c      **** 
 180:.\main.c      **** void matrix_deluminate () {
 588              		.loc 1 180 0
 589              		.cfi_startproc
 590              		@ args = 0, pretend = 0, frame = 8
 591              		@ frame_needed = 1, uses_anonymous_args = 0
 592 0000 80B5     		push	{r7, lr}
 593              	.LCFI15:
 594              		.cfi_def_cfa_offset 8
 595 0002 82B0     		sub	sp, sp, #8
 596              	.LCFI16:
 597              		.cfi_def_cfa_offset 16
 598 0004 00AF     		add	r7, sp, #0
 599              		.cfi_offset 14, -4
 600              		.cfi_offset 7, -8
 601              	.LCFI17:
 602              		.cfi_def_cfa_register 7
 181:.\main.c      ****     uint8 off = 0x00, on = 0x01;
 603              		.loc 1 181 0
ARM GAS  C:\DOCUME~1\david\LOCALS~1\Temp\ccyMY81M.s 			page 15


 604 0006 4FF00003 		mov	r3, #0
 605 000a BB70     		strb	r3, [r7, #2]
 606 000c 4FF00103 		mov	r3, #1
 607 0010 FB70     		strb	r3, [r7, #3]
 608              	.LBB3:
 182:.\main.c      ****     if (SERIAL) {
 183:.\main.c      ****         Colors_Write(off);
 609              		.loc 1 183 0
 610 0012 BB78     		ldrb	r3, [r7, #2]	@ zero_extendqisi2
 611 0014 1846     		mov	r0, r3
 612 0016 FFF7FEFF 		bl	Colors_Write
 184:.\main.c      ****         int i;
 185:.\main.c      ****         for (i=0; i < 8 ;++i) {
 613              		.loc 1 185 0
 614 001a 4FF00003 		mov	r3, #0
 615 001e 7B60     		str	r3, [r7, #4]
 616 0020 1BE0     		b	.L36
 617              	.L37:
 186:.\main.c      ****             Row_Write(0xFF);
 618              		.loc 1 186 0
 619 0022 4FF0FF00 		mov	r0, #255
 620 0026 FFF7FEFF 		bl	Row_Write
 187:.\main.c      ****             Red_Write(0xFF);
 621              		.loc 1 187 0
 622 002a 4FF0FF00 		mov	r0, #255
 623 002e FFF7FEFF 		bl	Red_Write
 188:.\main.c      ****             Green_Write(0xFF);
 624              		.loc 1 188 0
 625 0032 4FF0FF00 		mov	r0, #255
 626 0036 FFF7FEFF 		bl	Green_Write
 189:.\main.c      ****             Blue_Write(0xFF);
 627              		.loc 1 189 0
 628 003a 4FF0FF00 		mov	r0, #255
 629 003e FFF7FEFF 		bl	Blue_Write
 190:.\main.c      ****             
 191:.\main.c      ****             //generate a rising edge
 192:.\main.c      ****             Shifter_Write(on);
 630              		.loc 1 192 0
 631 0042 FB78     		ldrb	r3, [r7, #3]	@ zero_extendqisi2
 632 0044 1846     		mov	r0, r3
 633 0046 FFF7FEFF 		bl	Shifter_Write
 193:.\main.c      ****             Shifter_Write(off);
 634              		.loc 1 193 0
 635 004a BB78     		ldrb	r3, [r7, #2]	@ zero_extendqisi2
 636 004c 1846     		mov	r0, r3
 637 004e FFF7FEFF 		bl	Shifter_Write
 638              		.loc 1 185 0
 639 0052 7B68     		ldr	r3, [r7, #4]
 640 0054 03F10103 		add	r3, r3, #1
 641 0058 7B60     		str	r3, [r7, #4]
 642              	.L36:
 643 005a 7B68     		ldr	r3, [r7, #4]
 644 005c 072B     		cmp	r3, #7
 645 005e E0DD     		ble	.L37
 194:.\main.c      ****         }
 195:.\main.c      ****         Colors_Write(on);
 646              		.loc 1 195 0
ARM GAS  C:\DOCUME~1\david\LOCALS~1\Temp\ccyMY81M.s 			page 16


 647 0060 FB78     		ldrb	r3, [r7, #3]	@ zero_extendqisi2
 648 0062 1846     		mov	r0, r3
 649 0064 FFF7FEFF 		bl	Colors_Write
 650              	.LBE3:
 196:.\main.c      ****     }
 197:.\main.c      ****     else {
 198:.\main.c      ****         Row_Write(off);
 199:.\main.c      ****         Red_Write(off);
 200:.\main.c      ****         Green_Write(off);
 201:.\main.c      ****         Blue_Write(off);
 202:.\main.c      ****     }
 203:.\main.c      **** }
 651              		.loc 1 203 0
 652 0068 07F10807 		add	r7, r7, #8
 653 006c BD46     		mov	sp, r7
 654 006e 80BD     		pop	{r7, pc}
 655              		.cfi_endproc
 656              	.LFE34:
 657              		.size	matrix_deluminate, .-matrix_deluminate
 658              		.section	.rodata
 659 0033 00       		.align	2
 660              	.LC3:
 661 0034 20202020 		.ascii	"       \000"
 661      20202000 
 662              		.align	2
 663              	.LC4:
 664 003c 52656400 		.ascii	"Red\000"
 665              		.align	2
 666              	.LC5:
 667 0040 47726565 		.ascii	"Green\000"
 667      6E00
 668 0046 0000     		.align	2
 669              	.LC6:
 670 0048 59656C6C 		.ascii	"Yellow\000"
 670      6F7700
 671 004f 00       		.align	2
 672              	.LC7:
 673 0050 426C7565 		.ascii	"Blue\000"
 673      00
 674 0055 000000   		.align	2
 675              	.LC8:
 676 0058 4D616765 		.ascii	"Magenta\000"
 676      6E746100 
 677              		.align	2
 678              	.LC9:
 679 0060 4379616E 		.ascii	"Cyan\000"
 679      00
 680 0065 000000   		.align	2
 681              	.LC10:
 682 0068 57686974 		.ascii	"White\000"
 682      6500
 683 006e 0000     		.align	2
 684              	.LC11:
 685 0070 6572726F 		.ascii	"error\000"
 685      7200
 686              		.section	.text.matrix_test,"ax",%progbits
 687              		.align	2
ARM GAS  C:\DOCUME~1\david\LOCALS~1\Temp\ccyMY81M.s 			page 17


 688              		.global	matrix_test
 689              		.thumb
 690              		.thumb_func
 691              		.type	matrix_test, %function
 692              	matrix_test:
 693              	.LFB35:
 204:.\main.c      **** 
 205:.\main.c      **** 
 206:.\main.c      **** 
 207:.\main.c      **** 
 208:.\main.c      **** void matrix_test ( bool extended , bool slow ) {
 694              		.loc 1 208 0
 695              		.cfi_startproc
 696              		@ args = 0, pretend = 0, frame = 16
 697              		@ frame_needed = 1, uses_anonymous_args = 0
 698 0000 80B5     		push	{r7, lr}
 699              	.LCFI18:
 700              		.cfi_def_cfa_offset 8
 701 0002 84B0     		sub	sp, sp, #16
 702              	.LCFI19:
 703              		.cfi_def_cfa_offset 24
 704 0004 00AF     		add	r7, sp, #0
 705              		.cfi_offset 14, -4
 706              		.cfi_offset 7, -8
 707              	.LCFI20:
 708              		.cfi_def_cfa_register 7
 709 0006 0246     		mov	r2, r0
 710 0008 0B46     		mov	r3, r1
 711 000a FA71     		strb	r2, [r7, #7]
 712 000c BB71     		strb	r3, [r7, #6]
 209:.\main.c      ****     matrix_deluminate();
 713              		.loc 1 209 0
 714 000e FFF7FEFF 		bl	matrix_deluminate
 210:.\main.c      ****     uint8 color = 0x01;
 715              		.loc 1 210 0
 716 0012 4FF00103 		mov	r3, #1
 717 0016 7B73     		strb	r3, [r7, #13]
 211:.\main.c      ****     while (color < 0x08) {
 718              		.loc 1 211 0
 719 0018 C2E0     		b	.L40
 720              	.L60:
 721              	.LBB4:
 212:.\main.c      ****         uint8 i, j;
 213:.\main.c      ****         for (i=0; i < MATRIX_ROWS ;++i) {
 722              		.loc 1 213 0
 723 001a 4FF00003 		mov	r3, #0
 724 001e BB73     		strb	r3, [r7, #14]
 725 0020 ADE0     		b	.L41
 726              	.L57:
 214:.\main.c      ****             for (j=0; j < MATRIX_COLS ;++j) {
 727              		.loc 1 214 0
 728 0022 4FF00003 		mov	r3, #0
 729 0026 FB73     		strb	r3, [r7, #15]
 730 0028 A1E0     		b	.L42
 731              	.L56:
 215:.\main.c      ****                 LCD_ClearLine(1);
 732              		.loc 1 215 0
ARM GAS  C:\DOCUME~1\david\LOCALS~1\Temp\ccyMY81M.s 			page 18


 733 002a 4FF00100 		mov	r0, #1
 734 002e FFF7FEFF 		bl	LCD_ClearLine
 216:.\main.c      ****                 LCD_Position(1,0);
 735              		.loc 1 216 0
 736 0032 4FF00100 		mov	r0, #1
 737 0036 4FF00001 		mov	r1, #0
 738 003a FFF7FEFF 		bl	LCD_Position
 217:.\main.c      ****                 LCD_PrintNumber(i);
 739              		.loc 1 217 0
 740 003e BB7B     		ldrb	r3, [r7, #14]	@ zero_extendqisi2
 741 0040 1846     		mov	r0, r3
 742 0042 FFF7FEFF 		bl	LCD_PrintNumber
 218:.\main.c      ****                 LCD_Position(1,1);
 743              		.loc 1 218 0
 744 0046 4FF00100 		mov	r0, #1
 745 004a 4FF00101 		mov	r1, #1
 746 004e FFF7FEFF 		bl	LCD_Position
 219:.\main.c      ****                 LCD_PutChar(',');
 747              		.loc 1 219 0
 748 0052 4FF02C00 		mov	r0, #44
 749 0056 FFF7FEFF 		bl	LCD_PutChar
 220:.\main.c      ****                 LCD_Position(1,2);
 750              		.loc 1 220 0
 751 005a 4FF00100 		mov	r0, #1
 752 005e 4FF00201 		mov	r1, #2
 753 0062 FFF7FEFF 		bl	LCD_Position
 221:.\main.c      ****                 LCD_PrintNumber(j);
 754              		.loc 1 221 0
 755 0066 FB7B     		ldrb	r3, [r7, #15]	@ zero_extendqisi2
 756 0068 1846     		mov	r0, r3
 757 006a FFF7FEFF 		bl	LCD_PrintNumber
 222:.\main.c      ****                 LCD_Position(1,4);
 758              		.loc 1 222 0
 759 006e 4FF00100 		mov	r0, #1
 760 0072 4FF00401 		mov	r1, #4
 761 0076 FFF7FEFF 		bl	LCD_Position
 223:.\main.c      ****                 LCD_PrintString("       ");
 762              		.loc 1 223 0
 763 007a 40F20000 		movw	r0, #:lower16:.LC3
 764 007e C0F20000 		movt	r0, #:upper16:.LC3
 765 0082 FFF7FEFF 		bl	LCD_PrintString
 224:.\main.c      ****                 LCD_Position(1,4);
 766              		.loc 1 224 0
 767 0086 4FF00100 		mov	r0, #1
 768 008a 4FF00401 		mov	r1, #4
 769 008e FFF7FEFF 		bl	LCD_Position
 225:.\main.c      ****                 switch (color) {
 770              		.loc 1 225 0
 771 0092 7B7B     		ldrb	r3, [r7, #13]	@ zero_extendqisi2
 772 0094 03F1FF33 		add	r3, r3, #-1
 773 0098 062B     		cmp	r3, #6
 774 009a 42D8     		bhi	.L43
 775 009c 01A2     		adr	r2, .L51
 776 009e 52F823F0 		ldr	pc, [r2, r3, lsl #2]
 777 00a2 00BF     		.align	2
 778              	.L51:
 779 00a4 C1000000 		.word	.L44+1
ARM GAS  C:\DOCUME~1\david\LOCALS~1\Temp\ccyMY81M.s 			page 19


 780 00a8 CF000000 		.word	.L45+1
 781 00ac DD000000 		.word	.L46+1
 782 00b0 EB000000 		.word	.L47+1
 783 00b4 F9000000 		.word	.L48+1
 784 00b8 07010000 		.word	.L49+1
 785 00bc 15010000 		.word	.L50+1
 786              	.L44:
 226:.\main.c      ****                     case RED:     LCD_PrintString("Red");     break;
 787              		.loc 1 226 0
 788 00c0 40F20000 		movw	r0, #:lower16:.LC4
 789 00c4 C0F20000 		movt	r0, #:upper16:.LC4
 790 00c8 FFF7FEFF 		bl	LCD_PrintString
 791 00cc 36E0     		b	.L52
 792              	.L45:
 227:.\main.c      ****                     case GREEN:   LCD_PrintString("Green");   break;
 793              		.loc 1 227 0
 794 00ce 40F20000 		movw	r0, #:lower16:.LC5
 795 00d2 C0F20000 		movt	r0, #:upper16:.LC5
 796 00d6 FFF7FEFF 		bl	LCD_PrintString
 797 00da 2FE0     		b	.L52
 798              	.L46:
 228:.\main.c      ****                     case YELLOW:  LCD_PrintString("Yellow");  break;
 799              		.loc 1 228 0
 800 00dc 40F20000 		movw	r0, #:lower16:.LC6
 801 00e0 C0F20000 		movt	r0, #:upper16:.LC6
 802 00e4 FFF7FEFF 		bl	LCD_PrintString
 803 00e8 28E0     		b	.L52
 804              	.L47:
 229:.\main.c      ****                     case BLUE:    LCD_PrintString("Blue");    break;
 805              		.loc 1 229 0
 806 00ea 40F20000 		movw	r0, #:lower16:.LC7
 807 00ee C0F20000 		movt	r0, #:upper16:.LC7
 808 00f2 FFF7FEFF 		bl	LCD_PrintString
 809 00f6 21E0     		b	.L52
 810              	.L48:
 230:.\main.c      ****                     case MAGENTA: LCD_PrintString("Magenta"); break;
 811              		.loc 1 230 0
 812 00f8 40F20000 		movw	r0, #:lower16:.LC8
 813 00fc C0F20000 		movt	r0, #:upper16:.LC8
 814 0100 FFF7FEFF 		bl	LCD_PrintString
 815 0104 1AE0     		b	.L52
 816              	.L49:
 231:.\main.c      ****                     case CYAN:    LCD_PrintString("Cyan");    break;
 817              		.loc 1 231 0
 818 0106 40F20000 		movw	r0, #:lower16:.LC9
 819 010a C0F20000 		movt	r0, #:upper16:.LC9
 820 010e FFF7FEFF 		bl	LCD_PrintString
 821 0112 13E0     		b	.L52
 822              	.L50:
 232:.\main.c      ****                     case WHITE:   LCD_PrintString("White");   break;
 823              		.loc 1 232 0
 824 0114 40F20000 		movw	r0, #:lower16:.LC10
 825 0118 C0F20000 		movt	r0, #:upper16:.LC10
 826 011c FFF7FEFF 		bl	LCD_PrintString
 827 0120 0CE0     		b	.L52
 828              	.L43:
 233:.\main.c      ****                     
ARM GAS  C:\DOCUME~1\david\LOCALS~1\Temp\ccyMY81M.s 			page 20


 234:.\main.c      ****                     default: LCD_UpdateStatus("error");
 829              		.loc 1 234 0
 830 0122 40F20000 		movw	r0, #:lower16:.LC11
 831 0126 C0F20000 		movt	r0, #:upper16:.LC11
 832 012a FFF7FEFF 		bl	LCD_UpdateStatus
 235:.\main.c      ****                              LCD_UpdateMessage("color mismatch");
 833              		.loc 1 235 0
 834 012e 40F20000 		movw	r0, #:lower16:.LC2
 835 0132 C0F20000 		movt	r0, #:upper16:.LC2
 836 0136 FFF7FEFF 		bl	LCD_UpdateMessage
 837              	.L53:
 236:.\main.c      ****                              while(true);
 838              		.loc 1 236 0
 839 013a FEE7     		b	.L53
 840              	.L52:
 237:.\main.c      ****                              break;
 238:.\main.c      ****                 }
 239:.\main.c      ****                 matrix_illuminate(i,j,color);
 841              		.loc 1 239 0
 842 013c B97B     		ldrb	r1, [r7, #14]	@ zero_extendqisi2
 843 013e FA7B     		ldrb	r2, [r7, #15]	@ zero_extendqisi2
 844 0140 7B7B     		ldrb	r3, [r7, #13]	@ zero_extendqisi2
 845 0142 0846     		mov	r0, r1
 846 0144 1146     		mov	r1, r2
 847 0146 1A46     		mov	r2, r3
 848 0148 FFF7FEFF 		bl	matrix_illuminate
 240:.\main.c      ****                 CyDelay((slow) ? 1000/MATRIX_COLS : 5);
 849              		.loc 1 240 0
 850 014c BB79     		ldrb	r3, [r7, #6]	@ zero_extendqisi2
 851 014e 002B     		cmp	r3, #0
 852 0150 02D0     		beq	.L54
 853 0152 4FF07D03 		mov	r3, #125
 854 0156 01E0     		b	.L55
 855              	.L54:
 856 0158 4FF00503 		mov	r3, #5
 857              	.L55:
 858 015c 1846     		mov	r0, r3
 859 015e FFF7FEFF 		bl	CyDelay
 241:.\main.c      ****                 matrix_deluminate();
 860              		.loc 1 241 0
 861 0162 FFF7FEFF 		bl	matrix_deluminate
 862              		.loc 1 214 0
 863 0166 FB7B     		ldrb	r3, [r7, #15]
 864 0168 03F10103 		add	r3, r3, #1
 865 016c FB73     		strb	r3, [r7, #15]
 866              	.L42:
 867 016e FB7B     		ldrb	r3, [r7, #15]	@ zero_extendqisi2
 868 0170 072B     		cmp	r3, #7
 869 0172 7FF65AAF 		bls	.L56
 870              		.loc 1 213 0
 871 0176 BB7B     		ldrb	r3, [r7, #14]
 872 0178 03F10103 		add	r3, r3, #1
 873 017c BB73     		strb	r3, [r7, #14]
 874              	.L41:
 875 017e BB7B     		ldrb	r3, [r7, #14]	@ zero_extendqisi2
 876 0180 072B     		cmp	r3, #7
 877 0182 7FF64EAF 		bls	.L57
ARM GAS  C:\DOCUME~1\david\LOCALS~1\Temp\ccyMY81M.s 			page 21


 242:.\main.c      ****             }
 243:.\main.c      ****         }
 244:.\main.c      ****         color = (extended) ? color+1 : color*2;
 878              		.loc 1 244 0
 879 0186 FB79     		ldrb	r3, [r7, #7]	@ zero_extendqisi2
 880 0188 002B     		cmp	r3, #0
 881 018a 04D0     		beq	.L58
 882 018c 7B7B     		ldrb	r3, [r7, #13]
 883 018e 03F10103 		add	r3, r3, #1
 884 0192 DBB2     		uxtb	r3, r3
 885 0194 03E0     		b	.L59
 886              	.L58:
 887 0196 7B7B     		ldrb	r3, [r7, #13]
 888 0198 4FEA4303 		lsl	r3, r3, #1
 889 019c DBB2     		uxtb	r3, r3
 890              	.L59:
 891 019e 7B73     		strb	r3, [r7, #13]
 892              	.L40:
 893              	.LBE4:
 894              		.loc 1 211 0
 895 01a0 7B7B     		ldrb	r3, [r7, #13]	@ zero_extendqisi2
 896 01a2 072B     		cmp	r3, #7
 897 01a4 7FF639AF 		bls	.L60
 245:.\main.c      ****     }
 246:.\main.c      **** }
 898              		.loc 1 246 0
 899 01a8 07F11007 		add	r7, r7, #16
 900 01ac BD46     		mov	sp, r7
 901 01ae 80BD     		pop	{r7, pc}
 902              		.cfi_endproc
 903              	.LFE35:
 904              		.size	matrix_test, .-matrix_test
 905              		.global	player1_turn
 906              		.data
 907              		.type	player1_turn, %object
 908              		.size	player1_turn, 1
 909              	player1_turn:
 910 0000 01       		.byte	1
 911              		.global	player2_local
 912              		.type	player2_local, %object
 913              		.size	player2_local, 1
 914              	player2_local:
 915 0001 01       		.byte	1
 916              		.global	player1_color
 917              		.type	player1_color, %object
 918              		.size	player1_color, 1
 919              	player1_color:
 920 0002 01       		.byte	1
 921              		.global	player2_color
 922              		.type	player2_color, %object
 923              		.size	player2_color, 1
 924              	player2_color:
 925 0003 04       		.byte	4
 926              		.comm	player1,64,4
 927              		.comm	player2,64,4
 928              		.comm	last_move,2,4
 929              		.global	locating
ARM GAS  C:\DOCUME~1\david\LOCALS~1\Temp\ccyMY81M.s 			page 22


 930              		.bss
 931              		.type	locating, %object
 932              		.size	locating, 1
 933              	locating:
 934 0000 00       		.space	1
 935              		.section	.text.toggle,"ax",%progbits
 936              		.align	2
 937              		.global	toggle
 938              		.thumb
 939              		.thumb_func
 940              		.type	toggle, %function
 941              	toggle:
 942              	.LFB36:
 247:.\main.c      **** 
 248:.\main.c      **** 
 249:.\main.c      **** 
 250:.\main.c      **** 
 251:.\main.c      **** 
 252:.\main.c      **** 
 253:.\main.c      **** 
 254:.\main.c      **** 
 255:.\main.c      **** 
 256:.\main.c      **** 
 257:.\main.c      **** 
 258:.\main.c      **** 
 259:.\main.c      **** 
 260:.\main.c      **** 
 261:.\main.c      **** 
 262:.\main.c      **** 
 263:.\main.c      **** 
 264:.\main.c      **** 
 265:.\main.c      **** 
 266:.\main.c      **** 
 267:.\main.c      **** 
 268:.\main.c      **** 
 269:.\main.c      **** #define BUS_CLK_FREQ    24000000 // Hz
 270:.\main.c      **** #define REFRESH_RATE    60     // [370,BUS_CLK_FREQ] Hz
 271:.\main.c      **** #define XBEE_CONFIGURED false
 272:.\main.c      **** #define XBEE_VERIFY     true
 273:.\main.c      **** #define XBEE_GUARD_TIME 1000     // ms
 274:.\main.c      **** #define XBEE_CHANNEL    0x0C     // [0x0B,0x1A]
 275:.\main.c      **** #define XBEE_REMEMBER   false
 276:.\main.c      **** #define PLAYER1_ID      0xDA     // [0x00,0xFF]
 277:.\main.c      **** #define PLAYER2_ID      0x85     // ID > max(MATRIX_ROWS,MATRIX_COLS) recommended
 278:.\main.c      **** #define PACKET_TYPE     0x00     // version
 279:.\main.c      **** 
 280:.\main.c      **** typedef struct play {
 281:.\main.c      ****     uint8  row;
 282:.\main.c      ****     uint8  col;
 283:.\main.c      **** } play_t;
 284:.\main.c      **** 
 285:.\main.c      **** bool  player1_turn  = true;
 286:.\main.c      **** bool  player2_local = true;
 287:.\main.c      **** uint8 player1_color = RED;
 288:.\main.c      **** uint8 player2_color = BLUE;
 289:.\main.c      **** //uint8 XBee_channel  = XBEE_CHANNEL;
 290:.\main.c      **** 
ARM GAS  C:\DOCUME~1\david\LOCALS~1\Temp\ccyMY81M.s 			page 23


 291:.\main.c      **** bool  player1[MATRIX_ROWS][MATRIX_COLS];
 292:.\main.c      **** bool  player2[MATRIX_ROWS][MATRIX_COLS];
 293:.\main.c      **** play_t last_move;
 294:.\main.c      **** 
 295:.\main.c      **** void  initialize     ( );
 296:.\main.c      **** void  clear_board    ( );
 297:.\main.c      **** void  configure_XBee ( );//uint8 channel );
 298:.\main.c      **** uint8 get_move       ( );
 299:.\main.c      **** uint8 receive_move   ( ); 
 300:.\main.c      **** void  receive_packet ( play_t * move );
 301:.\main.c      **** void  send_packet    ( play_t * move );
 302:.\main.c      **** void  send_move      ( uint8 row , uint8 col );
 303:.\main.c      **** uint8 animate        ( uint8 c );
 304:.\main.c      **** void  winner_check   ( );
 305:.\main.c      **** void  cleanup        ( );
 306:.\main.c      **** 
 307:.\main.c      **** //void  receive_packet ( packet_t * move );
 308:.\main.c      **** //void  show_packet    ( packet_t * move );
 309:.\main.c      **** //void  send_packet    ( packet_t * move );
 310:.\main.c      **** //void  send_move      ( uint8 r , uint8 c ); 
 311:.\main.c      **** 
 312:.\main.c      **** 
 313:.\main.c      **** 
 314:.\main.c      **** 
 315:.\main.c      **** bool locating = false;//, channel_change = false;
 316:.\main.c      **** CY_ISR (toggle) {
 943              		.loc 1 316 0
 944              		.cfi_startproc
 945              		@ args = 0, pretend = 0, frame = 0
 946              		@ frame_needed = 1, uses_anonymous_args = 0
 947              		@ link register save eliminated.
 948 0000 80B4     		push	{r7}
 949              	.LCFI21:
 950              		.cfi_def_cfa_offset 4
 951 0002 00AF     		add	r7, sp, #0
 952              		.cfi_offset 7, -4
 953              	.LCFI22:
 954              		.cfi_def_cfa_register 7
 317:.\main.c      ****     if (locating) player2_local = !player2_local;
 955              		.loc 1 317 0
 956 0004 40F20003 		movw	r3, #:lower16:locating
 957 0008 C0F20003 		movt	r3, #:upper16:locating
 958 000c 1B78     		ldrb	r3, [r3, #0]	@ zero_extendqisi2
 959 000e 002B     		cmp	r3, #0
 960 0010 0DD0     		beq	.L64
 961 0012 40F20003 		movw	r3, #:lower16:player2_local
 962 0016 C0F20003 		movt	r3, #:upper16:player2_local
 963 001a 1B78     		ldrb	r3, [r3, #0]	@ zero_extendqisi2
 964 001c 83F00103 		eor	r3, r3, #1
 965 0020 DBB2     		uxtb	r3, r3
 966 0022 DAB2     		uxtb	r2, r3
 967 0024 40F20003 		movw	r3, #:lower16:player2_local
 968 0028 C0F20003 		movt	r3, #:upper16:player2_local
 969 002c 1A70     		strb	r2, [r3, #0]
 970              	.L64:
 318:.\main.c      ****     //else channel_change = true;
 319:.\main.c      **** }
ARM GAS  C:\DOCUME~1\david\LOCALS~1\Temp\ccyMY81M.s 			page 24


 971              		.loc 1 319 0
 972 002e BD46     		mov	sp, r7
 973 0030 80BC     		pop	{r7}
 974 0032 7047     		bx	lr
 975              		.cfi_endproc
 976              	.LFE36:
 977              		.size	toggle, .-toggle
 978              		.global	rPos
 979              		.data
 980              		.align	1
 981              		.type	rPos, %object
 982              		.size	rPos, 2
 983              	rPos:
 984 0004 0800     		.short	8
 985              		.global	cPos
 986              		.align	1
 987              		.type	cPos, %object
 988              		.size	cPos, 2
 989              	cPos:
 990 0006 0800     		.short	8
 991              		.section	.text.refresh,"ax",%progbits
 992              		.align	2
 993              		.global	refresh
 994              		.thumb
 995              		.thumb_func
 996              		.type	refresh, %function
 997              	refresh:
 998              	.LFB37:
 320:.\main.c      **** 
 321:.\main.c      **** 
 322:.\main.c      **** 
 323:.\main.c      **** 
 324:.\main.c      **** uint16 rPos = MATRIX_ROWS, cPos = MATRIX_COLS;
 325:.\main.c      **** CY_ISR (refresh) {
 999              		.loc 1 325 0
 1000              		.cfi_startproc
 1001              		@ args = 0, pretend = 0, frame = 8
 1002              		@ frame_needed = 1, uses_anonymous_args = 0
 1003 0000 80B5     		push	{r7, lr}
 1004              	.LCFI23:
 1005              		.cfi_def_cfa_offset 8
 1006 0002 82B0     		sub	sp, sp, #8
 1007              	.LCFI24:
 1008              		.cfi_def_cfa_offset 16
 1009 0004 00AF     		add	r7, sp, #0
 1010              		.cfi_offset 14, -4
 1011              		.cfi_offset 7, -8
 1012              	.LCFI25:
 1013              		.cfi_def_cfa_register 7
 326:.\main.c      ****     uint16 cells = MATRIX_ROWS*MATRIX_COLS;
 1014              		.loc 1 326 0
 1015 0006 4FF04003 		mov	r3, #64
 1016 000a FB80     		strh	r3, [r7, #6]	@ movhi
 327:.\main.c      ****     while (cells-- > 0) {
 1017              		.loc 1 327 0
 1018 000c FB88     		ldrh	r3, [r7, #6]
 1019 000e 002B     		cmp	r3, #0
ARM GAS  C:\DOCUME~1\david\LOCALS~1\Temp\ccyMY81M.s 			page 25


 1020 0010 0CBF     		ite	eq
 1021 0012 0023     		moveq	r3, #0
 1022 0014 0123     		movne	r3, #1
 1023 0016 DBB2     		uxtb	r3, r3
 1024 0018 FA88     		ldrh	r2, [r7, #6]	@ movhi
 1025 001a 02F1FF32 		add	r2, r2, #-1
 1026 001e FA80     		strh	r2, [r7, #6]	@ movhi
 1027 0020 002B     		cmp	r3, #0
 1028 0022 00F09580 		beq	.L70
 328:.\main.c      ****         if (++cPos >= MATRIX_COLS) {
 1029              		.loc 1 328 0
 1030 0026 40F20003 		movw	r3, #:lower16:cPos
 1031 002a C0F20003 		movt	r3, #:upper16:cPos
 1032 002e 1B88     		ldrh	r3, [r3, #0]
 1033 0030 03F10103 		add	r3, r3, #1
 1034 0034 9AB2     		uxth	r2, r3
 1035 0036 40F20003 		movw	r3, #:lower16:cPos
 1036 003a C0F20003 		movt	r3, #:upper16:cPos
 1037 003e 1A80     		strh	r2, [r3, #0]	@ movhi
 1038 0040 40F20003 		movw	r3, #:lower16:cPos
 1039 0044 C0F20003 		movt	r3, #:upper16:cPos
 1040 0048 1B88     		ldrh	r3, [r3, #0]
 1041 004a 072B     		cmp	r3, #7
 1042 004c 21D9     		bls	.L67
 329:.\main.c      ****             cPos = 0;
 1043              		.loc 1 329 0
 1044 004e 40F20003 		movw	r3, #:lower16:cPos
 1045 0052 C0F20003 		movt	r3, #:upper16:cPos
 1046 0056 4FF00002 		mov	r2, #0
 1047 005a 1A80     		strh	r2, [r3, #0]	@ movhi
 330:.\main.c      ****             if (++rPos >= MATRIX_ROWS) rPos = 0;
 1048              		.loc 1 330 0
 1049 005c 40F20003 		movw	r3, #:lower16:rPos
 1050 0060 C0F20003 		movt	r3, #:upper16:rPos
 1051 0064 1B88     		ldrh	r3, [r3, #0]
 1052 0066 03F10103 		add	r3, r3, #1
 1053 006a 9AB2     		uxth	r2, r3
 1054 006c 40F20003 		movw	r3, #:lower16:rPos
 1055 0070 C0F20003 		movt	r3, #:upper16:rPos
 1056 0074 1A80     		strh	r2, [r3, #0]	@ movhi
 1057 0076 40F20003 		movw	r3, #:lower16:rPos
 1058 007a C0F20003 		movt	r3, #:upper16:rPos
 1059 007e 1B88     		ldrh	r3, [r3, #0]
 1060 0080 072B     		cmp	r3, #7
 1061 0082 06D9     		bls	.L67
 1062 0084 40F20003 		movw	r3, #:lower16:rPos
 1063 0088 C0F20003 		movt	r3, #:upper16:rPos
 1064 008c 4FF00002 		mov	r2, #0
 1065 0090 1A80     		strh	r2, [r3, #0]	@ movhi
 1066              	.L67:
 331:.\main.c      ****         }
 332:.\main.c      ****         matrix_deluminate();
 1067              		.loc 1 332 0
 1068 0092 FFF7FEFF 		bl	matrix_deluminate
 333:.\main.c      ****              if (player1[rPos][cPos]) matrix_illuminate(rPos,cPos,player1_color);
 1069              		.loc 1 333 0
 1070 0096 40F20003 		movw	r3, #:lower16:rPos
ARM GAS  C:\DOCUME~1\david\LOCALS~1\Temp\ccyMY81M.s 			page 26


 1071 009a C0F20003 		movt	r3, #:upper16:rPos
 1072 009e 1B88     		ldrh	r3, [r3, #0]
 1073 00a0 1946     		mov	r1, r3
 1074 00a2 40F20003 		movw	r3, #:lower16:cPos
 1075 00a6 C0F20003 		movt	r3, #:upper16:cPos
 1076 00aa 1B88     		ldrh	r3, [r3, #0]
 1077 00ac 1A46     		mov	r2, r3
 1078 00ae 40F20003 		movw	r3, #:lower16:player1
 1079 00b2 C0F20003 		movt	r3, #:upper16:player1
 1080 00b6 4FEAC101 		lsl	r1, r1, #3
 1081 00ba 0A44     		add	r2, r1, r2
 1082 00bc 1344     		add	r3, r2, r3
 1083 00be 1B78     		ldrb	r3, [r3, #0]	@ zero_extendqisi2
 1084 00c0 002B     		cmp	r3, #0
 1085 00c2 16D0     		beq	.L68
 1086 00c4 40F20003 		movw	r3, #:lower16:rPos
 1087 00c8 C0F20003 		movt	r3, #:upper16:rPos
 1088 00cc 1B88     		ldrh	r3, [r3, #0]
 1089 00ce D9B2     		uxtb	r1, r3
 1090 00d0 40F20003 		movw	r3, #:lower16:cPos
 1091 00d4 C0F20003 		movt	r3, #:upper16:cPos
 1092 00d8 1B88     		ldrh	r3, [r3, #0]
 1093 00da DAB2     		uxtb	r2, r3
 1094 00dc 40F20003 		movw	r3, #:lower16:player1_color
 1095 00e0 C0F20003 		movt	r3, #:upper16:player1_color
 1096 00e4 1B78     		ldrb	r3, [r3, #0]	@ zero_extendqisi2
 1097 00e6 0846     		mov	r0, r1
 1098 00e8 1146     		mov	r1, r2
 1099 00ea 1A46     		mov	r2, r3
 1100 00ec FFF7FEFF 		bl	matrix_illuminate
 334:.\main.c      ****         else if (player2[rPos][cPos]) matrix_illuminate(rPos,cPos,player2_color);
 335:.\main.c      ****         break;
 1101              		.loc 1 335 0
 1102 00f0 2EE0     		b	.L70
 1103              	.L68:
 1104              		.loc 1 334 0
 1105 00f2 40F20003 		movw	r3, #:lower16:rPos
 1106 00f6 C0F20003 		movt	r3, #:upper16:rPos
 1107 00fa 1B88     		ldrh	r3, [r3, #0]
 1108 00fc 1946     		mov	r1, r3
 1109 00fe 40F20003 		movw	r3, #:lower16:cPos
 1110 0102 C0F20003 		movt	r3, #:upper16:cPos
 1111 0106 1B88     		ldrh	r3, [r3, #0]
 1112 0108 1A46     		mov	r2, r3
 1113 010a 40F20003 		movw	r3, #:lower16:player2
 1114 010e C0F20003 		movt	r3, #:upper16:player2
 1115 0112 4FEAC101 		lsl	r1, r1, #3
 1116 0116 0A44     		add	r2, r1, r2
 1117 0118 1344     		add	r3, r2, r3
 1118 011a 1B78     		ldrb	r3, [r3, #0]	@ zero_extendqisi2
 1119 011c 002B     		cmp	r3, #0
 1120 011e 16D0     		beq	.L71
 1121 0120 40F20003 		movw	r3, #:lower16:rPos
 1122 0124 C0F20003 		movt	r3, #:upper16:rPos
 1123 0128 1B88     		ldrh	r3, [r3, #0]
 1124 012a D9B2     		uxtb	r1, r3
 1125 012c 40F20003 		movw	r3, #:lower16:cPos
ARM GAS  C:\DOCUME~1\david\LOCALS~1\Temp\ccyMY81M.s 			page 27


 1126 0130 C0F20003 		movt	r3, #:upper16:cPos
 1127 0134 1B88     		ldrh	r3, [r3, #0]
 1128 0136 DAB2     		uxtb	r2, r3
 1129 0138 40F20003 		movw	r3, #:lower16:player2_color
 1130 013c C0F20003 		movt	r3, #:upper16:player2_color
 1131 0140 1B78     		ldrb	r3, [r3, #0]	@ zero_extendqisi2
 1132 0142 0846     		mov	r0, r1
 1133 0144 1146     		mov	r1, r2
 1134 0146 1A46     		mov	r2, r3
 1135 0148 FFF7FEFF 		bl	matrix_illuminate
 1136              		.loc 1 335 0
 1137 014c 00E0     		b	.L70
 1138              	.L71:
 1139 014e 00BF     		nop
 1140              	.L70:
 336:.\main.c      ****     }
 337:.\main.c      **** }
 1141              		.loc 1 337 0
 1142 0150 07F10807 		add	r7, r7, #8
 1143 0154 BD46     		mov	sp, r7
 1144 0156 80BD     		pop	{r7, pc}
 1145              		.cfi_endproc
 1146              	.LFE37:
 1147              		.size	refresh, .-refresh
 1148              		.section	.rodata
 1149 0076 0000     		.align	2
 1150              	.LC12:
 1151 0078 436F6E6E 		.ascii	"Connect 4\000"
 1151      65637420 
 1151      3400
 1152 0082 0000     		.align	2
 1153              	.LC13:
 1154 0084 506C6179 		.ascii	"Player 1\000"
 1154      65722031 
 1154      00
 1155 008d 000000   		.align	2
 1156              	.LC14:
 1157 0090 506C6179 		.ascii	"Player 2\000"
 1157      65722032 
 1157      00
 1158              		.section	.text.main,"ax",%progbits
 1159              		.align	2
 1160              		.global	main
 1161              		.thumb
 1162              		.thumb_func
 1163              		.type	main, %function
 1164              	main:
 1165              	.LFB38:
 338:.\main.c      **** 
 339:.\main.c      **** 
 340:.\main.c      **** 
 341:.\main.c      **** 
 342:.\main.c      **** void main () {
 1166              		.loc 1 342 0
 1167              		.cfi_startproc
 1168              		@ args = 0, pretend = 0, frame = 8
 1169              		@ frame_needed = 1, uses_anonymous_args = 0
ARM GAS  C:\DOCUME~1\david\LOCALS~1\Temp\ccyMY81M.s 			page 28


 1170 0000 80B5     		push	{r7, lr}
 1171              	.LCFI26:
 1172              		.cfi_def_cfa_offset 8
 1173 0002 82B0     		sub	sp, sp, #8
 1174              	.LCFI27:
 1175              		.cfi_def_cfa_offset 16
 1176 0004 00AF     		add	r7, sp, #0
 1177              		.cfi_offset 14, -4
 1178              		.cfi_offset 7, -8
 1179              	.LCFI28:
 1180              		.cfi_def_cfa_register 7
 343:.\main.c      ****     initialize();
 1181              		.loc 1 343 0
 1182 0006 FFF7FEFF 		bl	initialize
 344:.\main.c      ****     LCD_UpdateStatus("Connect 4");
 1183              		.loc 1 344 0
 1184 000a 40F20000 		movw	r0, #:lower16:.LC12
 1185 000e C0F20000 		movt	r0, #:upper16:.LC12
 1186 0012 FFF7FEFF 		bl	LCD_UpdateStatus
 1187              	.L79:
 1188              	.LBB5:
 345:.\main.c      ****     while (true) {
 346:.\main.c      ****         uint8 row, col;
 347:.\main.c      ****         if (player1_turn || player2_local) {
 1189              		.loc 1 347 0
 1190 0016 40F20003 		movw	r3, #:lower16:player1_turn
 1191 001a C0F20003 		movt	r3, #:upper16:player1_turn
 1192 001e 1B78     		ldrb	r3, [r3, #0]	@ zero_extendqisi2
 1193 0020 002B     		cmp	r3, #0
 1194 0022 06D1     		bne	.L73
 1195 0024 40F20003 		movw	r3, #:lower16:player2_local
 1196 0028 C0F20003 		movt	r3, #:upper16:player2_local
 1197 002c 1B78     		ldrb	r3, [r3, #0]	@ zero_extendqisi2
 1198 002e 002B     		cmp	r3, #0
 1199 0030 33D0     		beq	.L74
 1200              	.L73:
 348:.\main.c      ****             LCD_UpdateStatus((player1_turn) ? "Player 1" : "Player 2");
 1201              		.loc 1 348 0
 1202 0032 40F20003 		movw	r3, #:lower16:player1_turn
 1203 0036 C0F20003 		movt	r3, #:upper16:player1_turn
 1204 003a 1B78     		ldrb	r3, [r3, #0]	@ zero_extendqisi2
 1205 003c 002B     		cmp	r3, #0
 1206 003e 04D0     		beq	.L75
 1207 0040 40F20003 		movw	r3, #:lower16:.LC13
 1208 0044 C0F20003 		movt	r3, #:upper16:.LC13
 1209 0048 03E0     		b	.L76
 1210              	.L75:
 1211 004a 40F20003 		movw	r3, #:lower16:.LC14
 1212 004e C0F20003 		movt	r3, #:upper16:.LC14
 1213              	.L76:
 1214 0052 1846     		mov	r0, r3
 1215 0054 FFF7FEFF 		bl	LCD_UpdateStatus
 349:.\main.c      ****             col = get_move();
 1216              		.loc 1 349 0
 1217 0058 FFF7FEFF 		bl	get_move
 1218 005c 0346     		mov	r3, r0
 1219 005e FB71     		strb	r3, [r7, #7]
ARM GAS  C:\DOCUME~1\david\LOCALS~1\Temp\ccyMY81M.s 			page 29


 350:.\main.c      ****             row = animate(col);
 1220              		.loc 1 350 0
 1221 0060 FB79     		ldrb	r3, [r7, #7]	@ zero_extendqisi2
 1222 0062 1846     		mov	r0, r3
 1223 0064 FFF7FEFF 		bl	animate
 1224 0068 0346     		mov	r3, r0
 1225 006a BB71     		strb	r3, [r7, #6]
 351:.\main.c      ****             if (!player2_local) send_move(MATRIX_ROWS-row,col+1);
 1226              		.loc 1 351 0
 1227 006c 40F20003 		movw	r3, #:lower16:player2_local
 1228 0070 C0F20003 		movt	r3, #:upper16:player2_local
 1229 0074 1B78     		ldrb	r3, [r3, #0]	@ zero_extendqisi2
 1230 0076 83F00103 		eor	r3, r3, #1
 1231 007a DBB2     		uxtb	r3, r3
 1232 007c 002B     		cmp	r3, #0
 1233 007e 1DD0     		beq	.L81
 1234 0080 BB79     		ldrb	r3, [r7, #6]
 1235 0082 C3F10803 		rsb	r3, r3, #8
 1236 0086 DAB2     		uxtb	r2, r3
 1237 0088 FB79     		ldrb	r3, [r7, #7]
 1238 008a 03F10103 		add	r3, r3, #1
 1239 008e DBB2     		uxtb	r3, r3
 1240 0090 1046     		mov	r0, r2
 1241 0092 1946     		mov	r1, r3
 1242 0094 FFF7FEFF 		bl	send_move
 1243              		.loc 1 347 0
 1244 0098 11E0     		b	.L78
 1245              	.L74:
 352:.\main.c      ****         }
 353:.\main.c      ****         else {
 354:.\main.c      ****             LCD_UpdateStatus("Player 2");
 1246              		.loc 1 354 0
 1247 009a 40F20000 		movw	r0, #:lower16:.LC14
 1248 009e C0F20000 		movt	r0, #:upper16:.LC14
 1249 00a2 FFF7FEFF 		bl	LCD_UpdateStatus
 355:.\main.c      ****             col = receive_move();
 1250              		.loc 1 355 0
 1251 00a6 FFF7FEFF 		bl	receive_move
 1252 00aa 0346     		mov	r3, r0
 1253 00ac FB71     		strb	r3, [r7, #7]
 356:.\main.c      ****             row = animate(col);
 1254              		.loc 1 356 0
 1255 00ae FB79     		ldrb	r3, [r7, #7]	@ zero_extendqisi2
 1256 00b0 1846     		mov	r0, r3
 1257 00b2 FFF7FEFF 		bl	animate
 1258 00b6 0346     		mov	r3, r0
 1259 00b8 BB71     		strb	r3, [r7, #6]
 1260 00ba 00E0     		b	.L78
 1261              	.L81:
 1262              		.loc 1 347 0
 1263 00bc 00BF     		nop
 1264              	.L78:
 357:.\main.c      ****         }
 358:.\main.c      ****         winner_check();
 1265              		.loc 1 358 0
 1266 00be FFF7FEFF 		bl	winner_check
 359:.\main.c      ****         player1_turn = !player1_turn;
ARM GAS  C:\DOCUME~1\david\LOCALS~1\Temp\ccyMY81M.s 			page 30


 1267              		.loc 1 359 0
 1268 00c2 40F20003 		movw	r3, #:lower16:player1_turn
 1269 00c6 C0F20003 		movt	r3, #:upper16:player1_turn
 1270 00ca 1B78     		ldrb	r3, [r3, #0]	@ zero_extendqisi2
 1271 00cc 83F00103 		eor	r3, r3, #1
 1272 00d0 DBB2     		uxtb	r3, r3
 1273 00d2 DAB2     		uxtb	r2, r3
 1274 00d4 40F20003 		movw	r3, #:lower16:player1_turn
 1275 00d8 C0F20003 		movt	r3, #:upper16:player1_turn
 1276 00dc 1A70     		strb	r2, [r3, #0]
 1277              	.LBE5:
 360:.\main.c      ****         
 361:.\main.c      ****         /*
 362:.\main.c      ****         if (channel_change) {
 363:.\main.c      ****             if (++XBee_channel > 0x1A) XBee_channel = 0x0B;
 364:.\main.c      ****             configure_XBee(XBee_channel);
 365:.\main.c      ****             channel_change = false;
 366:.\main.c      ****             LCD_UpdateStatus("Change Channel");
 367:.\main.c      ****             LCD_ClearLine(1);
 368:.\main.c      ****             LCD_PrintString("0x");
 369:.\main.c      ****             LCD_PrintInt8(XBee_channel);
 370:.\main.c      ****             CyDelay(500);
 371:.\main.c      ****         }
 372:.\main.c      ****         */
 373:.\main.c      ****     }
 1278              		.loc 1 373 0
 1279 00de 9AE7     		b	.L79
 1280              		.cfi_endproc
 1281              	.LFE38:
 1282              		.size	main, .-main
 1283              		.section	.rodata
 1284 0099 000000   		.align	2
 1285              	.LC15:
 1286 009c 696E6974 		.ascii	"initializing...\000"
 1286      69616C69 
 1286      7A696E67 
 1286      2E2E2E00 
 1287              		.align	2
 1288              	.LC16:
 1289 00ac 626F6172 		.ascii	"board\000"
 1289      6400
 1290 00b2 0000     		.align	2
 1291              	.LC17:
 1292 00b4 6D617472 		.ascii	"matrix\000"
 1292      697800
 1293 00bb 00       		.align	2
 1294              	.LC18:
 1295 00bc 696E7465 		.ascii	"interrupts\000"
 1295      72727570 
 1295      747300
 1296 00c7 00       		.align	2
 1297              	.LC19:
 1298 00c8 74696D65 		.ascii	"timer\000"
 1298      7200
 1299 00ce 0000     		.align	2
 1300              	.LC20:
 1301 00d0 43617053 		.ascii	"CapSense\000"
ARM GAS  C:\DOCUME~1\david\LOCALS~1\Temp\ccyMY81M.s 			page 31


 1301      656E7365 
 1301      00
 1302 00d9 000000   		.align	2
 1303              	.LC21:
 1304 00dc 6C6F6361 		.ascii	"locate opponent\000"
 1304      7465206F 
 1304      70706F6E 
 1304      656E7400 
 1305              		.align	2
 1306              	.LC22:
 1307 00ec 6C6F6361 		.ascii	"local\000"
 1307      6C00
 1308 00f2 0000     		.align	2
 1309              	.LC23:
 1310 00f4 72656D6F 		.ascii	"remote\000"
 1310      746500
 1311 00fb 00       		.align	2
 1312              	.LC24:
 1313 00fc 55415254 		.ascii	"UART\000"
 1313      00
 1314 0101 000000   		.align	2
 1315              	.LC25:
 1316 0104 58426565 		.ascii	"XBee\000"
 1316      00
 1317 0109 000000   		.align	2
 1318              	.LC26:
 1319 010c 64697370 		.ascii	"display\000"
 1319      6C617900 
 1320              		.section	.text.initialize,"ax",%progbits
 1321              		.align	2
 1322              		.global	initialize
 1323              		.thumb
 1324              		.thumb_func
 1325              		.type	initialize, %function
 1326              	initialize:
 1327              	.LFB39:
 374:.\main.c      ****     cleanup();
 375:.\main.c      **** }
 376:.\main.c      **** 
 377:.\main.c      **** 
 378:.\main.c      **** 
 379:.\main.c      **** 
 380:.\main.c      **** void initialize () {
 1328              		.loc 1 380 0
 1329              		.cfi_startproc
 1330              		@ args = 0, pretend = 0, frame = 8
 1331              		@ frame_needed = 1, uses_anonymous_args = 0
 1332 0000 80B5     		push	{r7, lr}
 1333              	.LCFI29:
 1334              		.cfi_def_cfa_offset 8
 1335 0002 82B0     		sub	sp, sp, #8
 1336              	.LCFI30:
 1337              		.cfi_def_cfa_offset 16
 1338 0004 00AF     		add	r7, sp, #0
 1339              		.cfi_offset 14, -4
 1340              		.cfi_offset 7, -8
 1341              	.LCFI31:
ARM GAS  C:\DOCUME~1\david\LOCALS~1\Temp\ccyMY81M.s 			page 32


 1342              		.cfi_def_cfa_register 7
 381:.\main.c      ****     LCD_Start();
 1343              		.loc 1 381 0
 1344 0006 FFF7FEFF 		bl	LCD_Start
 382:.\main.c      ****     LCD_UpdateStatus("initializing...");
 1345              		.loc 1 382 0
 1346 000a 40F20000 		movw	r0, #:lower16:.LC15
 1347 000e C0F20000 		movt	r0, #:upper16:.LC15
 1348 0012 FFF7FEFF 		bl	LCD_UpdateStatus
 383:.\main.c      ****     
 384:.\main.c      ****     LCD_UpdateMessage("board");
 1349              		.loc 1 384 0
 1350 0016 40F20000 		movw	r0, #:lower16:.LC16
 1351 001a C0F20000 		movt	r0, #:upper16:.LC16
 1352 001e FFF7FEFF 		bl	LCD_UpdateMessage
 385:.\main.c      ****     clear_board();
 1353              		.loc 1 385 0
 1354 0022 FFF7FEFF 		bl	clear_board
 386:.\main.c      ****     
 387:.\main.c      ****     LCD_UpdateMessage("matrix");
 1355              		.loc 1 387 0
 1356 0026 40F20000 		movw	r0, #:lower16:.LC17
 1357 002a C0F20000 		movt	r0, #:upper16:.LC17
 1358 002e FFF7FEFF 		bl	LCD_UpdateMessage
 388:.\main.c      ****     matrix_test(true,false);
 1359              		.loc 1 388 0
 1360 0032 4FF00100 		mov	r0, #1
 1361 0036 4FF00001 		mov	r1, #0
 1362 003a FFF7FEFF 		bl	matrix_test
 389:.\main.c      ****     matrix_deluminate();
 1363              		.loc 1 389 0
 1364 003e FFF7FEFF 		bl	matrix_deluminate
 390:.\main.c      ****     
 391:.\main.c      ****     LCD_UpdateMessage("interrupts");
 1365              		.loc 1 391 0
 1366 0042 40F20000 		movw	r0, #:lower16:.LC18
 1367 0046 C0F20000 		movt	r0, #:upper16:.LC18
 1368 004a FFF7FEFF 		bl	LCD_UpdateMessage
 392:.\main.c      ****     CyGlobalIntEnable;
 1369              		.loc 1 392 0
 1370              	@ 392 ".\main.c" 1
 1371 004e 62B6     		CPSIE   i
 1372              	@ 0 "" 2
 393:.\main.c      ****     
 394:.\main.c      ****     LCD_UpdateMessage("timer");
 1373              		.loc 1 394 0
 1374              		.thumb
 1375 0050 40F20000 		movw	r0, #:lower16:.LC19
 1376 0054 C0F20000 		movt	r0, #:upper16:.LC19
 1377 0058 FFF7FEFF 		bl	LCD_UpdateMessage
 395:.\main.c      ****     Timer_Start();
 1378              		.loc 1 395 0
 1379 005c FFF7FEFF 		bl	Timer_Start
 396:.\main.c      ****     Timer_WritePeriod(BUS_CLK_FREQ/(REFRESH_RATE*MATRIX_ROWS*MATRIX_COLS));
 1380              		.loc 1 396 0
 1381 0060 41F66A00 		movw	r0, #6250
 1382 0064 FFF7FEFF 		bl	Timer_WritePeriod
ARM GAS  C:\DOCUME~1\david\LOCALS~1\Temp\ccyMY81M.s 			page 33


 397:.\main.c      ****     
 398:.\main.c      ****     LCD_UpdateMessage("CapSense");
 1383              		.loc 1 398 0
 1384 0068 40F20000 		movw	r0, #:lower16:.LC20
 1385 006c C0F20000 		movt	r0, #:upper16:.LC20
 1386 0070 FFF7FEFF 		bl	LCD_UpdateMessage
 399:.\main.c      ****     CapSense_Start();
 1387              		.loc 1 399 0
 1388 0074 FFF7FEFF 		bl	CapSense_Start
 400:.\main.c      ****     CapSense_InitializeAllBaselines();
 1389              		.loc 1 400 0
 1390 0078 FFF7FEFF 		bl	CapSense_InitializeAllBaselines
 401:.\main.c      ****     
 402:.\main.c      ****     LCD_UpdateStatus("locate opponent");
 1391              		.loc 1 402 0
 1392 007c 40F20000 		movw	r0, #:lower16:.LC21
 1393 0080 C0F20000 		movt	r0, #:upper16:.LC21
 1394 0084 FFF7FEFF 		bl	LCD_UpdateStatus
 403:.\main.c      ****     ISR_StartEx(toggle);
 1395              		.loc 1 403 0
 1396 0088 40F20000 		movw	r0, #:lower16:toggle
 1397 008c C0F20000 		movt	r0, #:upper16:toggle
 1398 0090 FFF7FEFF 		bl	ISR_StartEx
 404:.\main.c      ****     locating = true;
 1399              		.loc 1 404 0
 1400 0094 40F20003 		movw	r3, #:lower16:locating
 1401 0098 C0F20003 		movt	r3, #:upper16:locating
 1402 009c 4FF00102 		mov	r2, #1
 1403 00a0 1A70     		strb	r2, [r3, #0]
 405:.\main.c      ****     uint8 t;
 406:.\main.c      ****     for (t=5; t > 0 ;--t) {
 1404              		.loc 1 406 0
 1405 00a2 4FF00503 		mov	r3, #5
 1406 00a6 FB71     		strb	r3, [r7, #7]
 1407 00a8 28E0     		b	.L83
 1408              	.L86:
 407:.\main.c      ****         LCD_UpdateMessage((player2_local) ? "local" : "remote");
 1409              		.loc 1 407 0
 1410 00aa 40F20003 		movw	r3, #:lower16:player2_local
 1411 00ae C0F20003 		movt	r3, #:upper16:player2_local
 1412 00b2 1B78     		ldrb	r3, [r3, #0]	@ zero_extendqisi2
 1413 00b4 002B     		cmp	r3, #0
 1414 00b6 04D0     		beq	.L84
 1415 00b8 40F20003 		movw	r3, #:lower16:.LC22
 1416 00bc C0F20003 		movt	r3, #:upper16:.LC22
 1417 00c0 03E0     		b	.L85
 1418              	.L84:
 1419 00c2 40F20003 		movw	r3, #:lower16:.LC23
 1420 00c6 C0F20003 		movt	r3, #:upper16:.LC23
 1421              	.L85:
 1422 00ca 1846     		mov	r0, r3
 1423 00cc FFF7FEFF 		bl	LCD_UpdateMessage
 408:.\main.c      ****         CyDelay(500);
 1424              		.loc 1 408 0
 1425 00d0 4FF4FA70 		mov	r0, #500
 1426 00d4 FFF7FEFF 		bl	CyDelay
 409:.\main.c      ****         LCD_Position(1,15);
ARM GAS  C:\DOCUME~1\david\LOCALS~1\Temp\ccyMY81M.s 			page 34


 1427              		.loc 1 409 0
 1428 00d8 4FF00100 		mov	r0, #1
 1429 00dc 4FF00F01 		mov	r1, #15
 1430 00e0 FFF7FEFF 		bl	LCD_Position
 410:.\main.c      ****         LCD_PrintNumber(t);
 1431              		.loc 1 410 0
 1432 00e4 FB79     		ldrb	r3, [r7, #7]	@ zero_extendqisi2
 1433 00e6 1846     		mov	r0, r3
 1434 00e8 FFF7FEFF 		bl	LCD_PrintNumber
 411:.\main.c      ****         CyDelay(500);
 1435              		.loc 1 411 0
 1436 00ec 4FF4FA70 		mov	r0, #500
 1437 00f0 FFF7FEFF 		bl	CyDelay
 1438              		.loc 1 406 0
 1439 00f4 FB79     		ldrb	r3, [r7, #7]
 1440 00f6 03F1FF33 		add	r3, r3, #-1
 1441 00fa FB71     		strb	r3, [r7, #7]
 1442              	.L83:
 1443 00fc FB79     		ldrb	r3, [r7, #7]	@ zero_extendqisi2
 1444 00fe 002B     		cmp	r3, #0
 1445 0100 D3D1     		bne	.L86
 412:.\main.c      ****     }
 413:.\main.c      ****     locating = false;
 1446              		.loc 1 413 0
 1447 0102 40F20003 		movw	r3, #:lower16:locating
 1448 0106 C0F20003 		movt	r3, #:upper16:locating
 1449 010a 4FF00002 		mov	r2, #0
 1450 010e 1A70     		strb	r2, [r3, #0]
 414:.\main.c      ****     ISR_Stop();
 1451              		.loc 1 414 0
 1452 0110 FFF7FEFF 		bl	ISR_Stop
 415:.\main.c      ****     if (!player2_local) {
 1453              		.loc 1 415 0
 1454 0114 40F20003 		movw	r3, #:lower16:player2_local
 1455 0118 C0F20003 		movt	r3, #:upper16:player2_local
 1456 011c 1B78     		ldrb	r3, [r3, #0]	@ zero_extendqisi2
 1457 011e 83F00103 		eor	r3, r3, #1
 1458 0122 DBB2     		uxtb	r3, r3
 1459 0124 002B     		cmp	r3, #0
 1460 0126 19D0     		beq	.L87
 416:.\main.c      ****         LCD_UpdateStatus("initializing...");
 1461              		.loc 1 416 0
 1462 0128 40F20000 		movw	r0, #:lower16:.LC15
 1463 012c C0F20000 		movt	r0, #:upper16:.LC15
 1464 0130 FFF7FEFF 		bl	LCD_UpdateStatus
 417:.\main.c      ****         LCD_UpdateMessage("UART");
 1465              		.loc 1 417 0
 1466 0134 40F20000 		movw	r0, #:lower16:.LC24
 1467 0138 C0F20000 		movt	r0, #:upper16:.LC24
 1468 013c FFF7FEFF 		bl	LCD_UpdateMessage
 418:.\main.c      ****         UART_Start();
 1469              		.loc 1 418 0
 1470 0140 FFF7FEFF 		bl	UART_Start
 419:.\main.c      ****         UART_ClearTxBuffer();
 1471              		.loc 1 419 0
 1472 0144 FFF7FEFF 		bl	UART_ClearTxBuffer
 420:.\main.c      ****         UART_ClearRxBuffer();
ARM GAS  C:\DOCUME~1\david\LOCALS~1\Temp\ccyMY81M.s 			page 35


 1473              		.loc 1 420 0
 1474 0148 FFF7FEFF 		bl	UART_ClearRxBuffer
 421:.\main.c      ****         LCD_UpdateMessage("XBee");
 1475              		.loc 1 421 0
 1476 014c 40F20000 		movw	r0, #:lower16:.LC25
 1477 0150 C0F20000 		movt	r0, #:upper16:.LC25
 1478 0154 FFF7FEFF 		bl	LCD_UpdateMessage
 422:.\main.c      ****         if (!XBEE_CONFIGURED) configure_XBee();//XBee_channel);
 1479              		.loc 1 422 0
 1480 0158 FFF7FEFF 		bl	configure_XBee
 1481              	.L87:
 423:.\main.c      ****     }
 424:.\main.c      ****     
 425:.\main.c      ****     LCD_UpdateMessage("display");
 1482              		.loc 1 425 0
 1483 015c 40F20000 		movw	r0, #:lower16:.LC26
 1484 0160 C0F20000 		movt	r0, #:upper16:.LC26
 1485 0164 FFF7FEFF 		bl	LCD_UpdateMessage
 426:.\main.c      ****     Beam_StartEx(refresh);
 1486              		.loc 1 426 0
 1487 0168 40F20000 		movw	r0, #:lower16:refresh
 1488 016c C0F20000 		movt	r0, #:upper16:refresh
 1489 0170 FFF7FEFF 		bl	Beam_StartEx
 427:.\main.c      **** }
 1490              		.loc 1 427 0
 1491 0174 07F10807 		add	r7, r7, #8
 1492 0178 BD46     		mov	sp, r7
 1493 017a 80BD     		pop	{r7, pc}
 1494              		.cfi_endproc
 1495              	.LFE39:
 1496              		.size	initialize, .-initialize
 1497              		.section	.text.clear_board,"ax",%progbits
 1498              		.align	2
 1499              		.global	clear_board
 1500              		.thumb
 1501              		.thumb_func
 1502              		.type	clear_board, %function
 1503              	clear_board:
 1504              	.LFB40:
 428:.\main.c      **** 
 429:.\main.c      **** 
 430:.\main.c      **** 
 431:.\main.c      **** 
 432:.\main.c      **** void clear_board () {
 1505              		.loc 1 432 0
 1506              		.cfi_startproc
 1507              		@ args = 0, pretend = 0, frame = 8
 1508              		@ frame_needed = 1, uses_anonymous_args = 0
 1509              		@ link register save eliminated.
 1510 0000 80B4     		push	{r7}
 1511              	.LCFI32:
 1512              		.cfi_def_cfa_offset 4
 1513 0002 83B0     		sub	sp, sp, #12
 1514              	.LCFI33:
 1515              		.cfi_def_cfa_offset 16
 1516 0004 00AF     		add	r7, sp, #0
 1517              		.cfi_offset 7, -4
ARM GAS  C:\DOCUME~1\david\LOCALS~1\Temp\ccyMY81M.s 			page 36


 1518              	.LCFI34:
 1519              		.cfi_def_cfa_register 7
 433:.\main.c      ****     uint8 row, col;
 434:.\main.c      ****     for (row=0; row < MATRIX_ROWS ;++row) {
 1520              		.loc 1 434 0
 1521 0006 4FF00003 		mov	r3, #0
 1522 000a BB71     		strb	r3, [r7, #6]
 1523 000c 28E0     		b	.L90
 1524              	.L93:
 435:.\main.c      ****         for (col=0; col < MATRIX_COLS ;++col) {
 1525              		.loc 1 435 0
 1526 000e 4FF00003 		mov	r3, #0
 1527 0012 FB71     		strb	r3, [r7, #7]
 1528 0014 1DE0     		b	.L91
 1529              	.L92:
 436:.\main.c      ****             player1[row][col] = false;
 1530              		.loc 1 436 0
 1531 0016 B979     		ldrb	r1, [r7, #6]	@ zero_extendqisi2
 1532 0018 FA79     		ldrb	r2, [r7, #7]	@ zero_extendqisi2
 1533 001a 40F20003 		movw	r3, #:lower16:player1
 1534 001e C0F20003 		movt	r3, #:upper16:player1
 1535 0022 4FEAC101 		lsl	r1, r1, #3
 1536 0026 0A44     		add	r2, r1, r2
 1537 0028 1344     		add	r3, r2, r3
 1538 002a 4FF00002 		mov	r2, #0
 1539 002e 1A70     		strb	r2, [r3, #0]
 437:.\main.c      ****             player2[row][col] = false;
 1540              		.loc 1 437 0
 1541 0030 B979     		ldrb	r1, [r7, #6]	@ zero_extendqisi2
 1542 0032 FA79     		ldrb	r2, [r7, #7]	@ zero_extendqisi2
 1543 0034 40F20003 		movw	r3, #:lower16:player2
 1544 0038 C0F20003 		movt	r3, #:upper16:player2
 1545 003c 4FEAC101 		lsl	r1, r1, #3
 1546 0040 0A44     		add	r2, r1, r2
 1547 0042 1344     		add	r3, r2, r3
 1548 0044 4FF00002 		mov	r2, #0
 1549 0048 1A70     		strb	r2, [r3, #0]
 1550              		.loc 1 435 0
 1551 004a FB79     		ldrb	r3, [r7, #7]
 1552 004c 03F10103 		add	r3, r3, #1
 1553 0050 FB71     		strb	r3, [r7, #7]
 1554              	.L91:
 1555 0052 FB79     		ldrb	r3, [r7, #7]	@ zero_extendqisi2
 1556 0054 072B     		cmp	r3, #7
 1557 0056 DED9     		bls	.L92
 1558              		.loc 1 434 0
 1559 0058 BB79     		ldrb	r3, [r7, #6]
 1560 005a 03F10103 		add	r3, r3, #1
 1561 005e BB71     		strb	r3, [r7, #6]
 1562              	.L90:
 1563 0060 BB79     		ldrb	r3, [r7, #6]	@ zero_extendqisi2
 1564 0062 072B     		cmp	r3, #7
 1565 0064 D3D9     		bls	.L93
 438:.\main.c      ****         }
 439:.\main.c      ****     }
 440:.\main.c      **** }
 1566              		.loc 1 440 0
ARM GAS  C:\DOCUME~1\david\LOCALS~1\Temp\ccyMY81M.s 			page 37


 1567 0066 07F10C07 		add	r7, r7, #12
 1568 006a BD46     		mov	sp, r7
 1569 006c 80BC     		pop	{r7}
 1570 006e 7047     		bx	lr
 1571              		.cfi_endproc
 1572              	.LFE40:
 1573              		.size	clear_board, .-clear_board
 1574              		.section	.rodata
 1575              		.align	2
 1576              	.LC27:
 1577 0114 436F6E66 		.ascii	"Config\000"
 1577      696700
 1578 011b 00       		.align	2
 1579              	.LC28:
 1580 011c 2B2B2B00 		.ascii	"+++\000"
 1581              		.align	2
 1582              	.LC29:
 1583 0120 41504920 		.ascii	"API Mode\000"
 1583      4D6F6465 
 1583      00
 1584 0129 000000   		.align	2
 1585              	.LC30:
 1586 012c 41544150 		.ascii	"ATAP1\015\000"
 1586      310D00
 1587 0133 00       		.align	2
 1588              	.LC31:
 1589 0134 4368616E 		.ascii	"Channel \000"
 1589      6E656C20 
 1589      00
 1590 013d 000000   		.align	2
 1591              	.LC32:
 1592 0140 41544348 		.ascii	"ATCH\000"
 1592      00
 1593 0145 000000   		.align	2
 1594              	.LC33:
 1595 0148 52656164 		.ascii	"Ready   \000"
 1595      79202020 
 1595      00
 1596 0151 000000   		.align	2
 1597              	.LC34:
 1598 0154 4154434E 		.ascii	"ATCN\015\000"
 1598      0D00
 1599              		.section	.text.configure_XBee,"ax",%progbits
 1600              		.align	2
 1601              		.global	configure_XBee
 1602              		.thumb
 1603              		.thumb_func
 1604              		.type	configure_XBee, %function
 1605              	configure_XBee:
 1606              	.LFB41:
 441:.\main.c      **** 
 442:.\main.c      **** 
 443:.\main.c      **** 
 444:.\main.c      **** 
 445:.\main.c      **** void configure_XBee () {//uint8 channel ) {
 1607              		.loc 1 445 0
 1608              		.cfi_startproc
ARM GAS  C:\DOCUME~1\david\LOCALS~1\Temp\ccyMY81M.s 			page 38


 1609              		@ args = 0, pretend = 0, frame = 0
 1610              		@ frame_needed = 1, uses_anonymous_args = 0
 1611 0000 80B5     		push	{r7, lr}
 1612              	.LCFI35:
 1613              		.cfi_def_cfa_offset 8
 1614 0002 00AF     		add	r7, sp, #0
 1615              		.cfi_offset 14, -4
 1616              		.cfi_offset 7, -8
 1617              	.LCFI36:
 1618              		.cfi_def_cfa_register 7
 446:.\main.c      ****     //if (!channel_change) {
 447:.\main.c      ****         LCD_Position(1,5);
 1619              		.loc 1 447 0
 1620 0004 4FF00100 		mov	r0, #1
 1621 0008 4FF00501 		mov	r1, #5
 1622 000c FFF7FEFF 		bl	LCD_Position
 448:.\main.c      ****         LCD_PrintString("Config");
 1623              		.loc 1 448 0
 1624 0010 40F20000 		movw	r0, #:lower16:.LC27
 1625 0014 C0F20000 		movt	r0, #:upper16:.LC27
 1626 0018 FFF7FEFF 		bl	LCD_PrintString
 449:.\main.c      ****     //}
 450:.\main.c      ****     CyDelay(XBEE_GUARD_TIME);
 1627              		.loc 1 450 0
 1628 001c 4FF47A70 		mov	r0, #1000
 1629 0020 FFF7FEFF 		bl	CyDelay
 451:.\main.c      ****     UART_PutString("+++");
 1630              		.loc 1 451 0
 1631 0024 40F20000 		movw	r0, #:lower16:.LC28
 1632 0028 C0F20000 		movt	r0, #:upper16:.LC28
 1633 002c FFF7FEFF 		bl	UART_PutString
 452:.\main.c      ****     CyDelay(XBEE_GUARD_TIME*3);
 1634              		.loc 1 452 0
 1635 0030 40F6B830 		movw	r0, #3000
 1636 0034 FFF7FEFF 		bl	CyDelay
 1637              	.L96:
 453:.\main.c      ****     if (XBEE_VERIFY) {
 454:.\main.c      ****         while (UART_GetRxBufferSize() < 3);
 1638              		.loc 1 454 0
 1639 0038 FFF7FEFF 		bl	UART_GetRxBufferSize
 1640 003c 0346     		mov	r3, r0
 1641 003e 022B     		cmp	r3, #2
 1642 0040 FAD9     		bls	.L96
 455:.\main.c      ****         if (UART_ReadRxData() != 'O'
 456:.\main.c      ****         ||  UART_ReadRxData() != 'K'
 1643              		.loc 1 456 0
 1644 0042 FFF7FEFF 		bl	UART_ReadRxData
 1645 0046 0346     		mov	r3, r0
 1646              		.loc 1 455 0
 1647 0048 4F2B     		cmp	r3, #79
 1648 004a 09D1     		bne	.L97
 457:.\main.c      ****         ||  UART_ReadRxData() != '\r') Error_Write(0x01);
 1649              		.loc 1 457 0
 1650 004c FFF7FEFF 		bl	UART_ReadRxData
 1651 0050 0346     		mov	r3, r0
 1652              		.loc 1 455 0
 1653 0052 4B2B     		cmp	r3, #75
ARM GAS  C:\DOCUME~1\david\LOCALS~1\Temp\ccyMY81M.s 			page 39


 1654 0054 04D1     		bne	.L97
 1655              		.loc 1 457 0
 1656 0056 FFF7FEFF 		bl	UART_ReadRxData
 1657 005a 0346     		mov	r3, r0
 1658              		.loc 1 455 0
 1659 005c 0D2B     		cmp	r3, #13
 1660 005e 03D0     		beq	.L98
 1661              	.L97:
 1662              		.loc 1 457 0
 1663 0060 4FF00100 		mov	r0, #1
 1664 0064 FFF7FEFF 		bl	Error_Write
 1665              	.L98:
 458:.\main.c      ****     }
 459:.\main.c      ****     
 460:.\main.c      ****     //if (!channel_change) {
 461:.\main.c      ****         LCD_Position(1,5);
 1666              		.loc 1 461 0
 1667 0068 4FF00100 		mov	r0, #1
 1668 006c 4FF00501 		mov	r1, #5
 1669 0070 FFF7FEFF 		bl	LCD_Position
 462:.\main.c      ****         LCD_PrintString("API Mode");
 1670              		.loc 1 462 0
 1671 0074 40F20000 		movw	r0, #:lower16:.LC29
 1672 0078 C0F20000 		movt	r0, #:upper16:.LC29
 1673 007c FFF7FEFF 		bl	LCD_PrintString
 463:.\main.c      ****     //}
 464:.\main.c      ****     UART_PutString("ATAP1\r");
 1674              		.loc 1 464 0
 1675 0080 40F20000 		movw	r0, #:lower16:.LC30
 1676 0084 C0F20000 		movt	r0, #:upper16:.LC30
 1677 0088 FFF7FEFF 		bl	UART_PutString
 1678              	.L99:
 465:.\main.c      ****     if (XBEE_VERIFY) {
 466:.\main.c      ****         while (UART_GetRxBufferSize() < 3);
 1679              		.loc 1 466 0
 1680 008c FFF7FEFF 		bl	UART_GetRxBufferSize
 1681 0090 0346     		mov	r3, r0
 1682 0092 022B     		cmp	r3, #2
 1683 0094 FAD9     		bls	.L99
 467:.\main.c      ****         if (UART_ReadRxData() != 'O'
 468:.\main.c      ****         ||  UART_ReadRxData() != 'K'
 1684              		.loc 1 468 0
 1685 0096 FFF7FEFF 		bl	UART_ReadRxData
 1686 009a 0346     		mov	r3, r0
 1687              		.loc 1 467 0
 1688 009c 4F2B     		cmp	r3, #79
 1689 009e 09D1     		bne	.L100
 469:.\main.c      ****         ||  UART_ReadRxData() != '\r') Error_Write(0x01);
 1690              		.loc 1 469 0
 1691 00a0 FFF7FEFF 		bl	UART_ReadRxData
 1692 00a4 0346     		mov	r3, r0
 1693              		.loc 1 467 0
 1694 00a6 4B2B     		cmp	r3, #75
 1695 00a8 04D1     		bne	.L100
 1696              		.loc 1 469 0
 1697 00aa FFF7FEFF 		bl	UART_ReadRxData
 1698 00ae 0346     		mov	r3, r0
ARM GAS  C:\DOCUME~1\david\LOCALS~1\Temp\ccyMY81M.s 			page 40


 1699              		.loc 1 467 0
 1700 00b0 0D2B     		cmp	r3, #13
 1701 00b2 03D0     		beq	.L101
 1702              	.L100:
 1703              		.loc 1 469 0
 1704 00b4 4FF00100 		mov	r0, #1
 1705 00b8 FFF7FEFF 		bl	Error_Write
 1706              	.L101:
 470:.\main.c      ****     }
 471:.\main.c      ****     
 472:.\main.c      ****     //if (!channel_change) {
 473:.\main.c      ****         LCD_Position(1,5);
 1707              		.loc 1 473 0
 1708 00bc 4FF00100 		mov	r0, #1
 1709 00c0 4FF00501 		mov	r1, #5
 1710 00c4 FFF7FEFF 		bl	LCD_Position
 474:.\main.c      ****         LCD_PrintString("Channel ");
 1711              		.loc 1 474 0
 1712 00c8 40F20000 		movw	r0, #:lower16:.LC31
 1713 00cc C0F20000 		movt	r0, #:upper16:.LC31
 1714 00d0 FFF7FEFF 		bl	LCD_PrintString
 475:.\main.c      ****     //}
 476:.\main.c      ****     UART_PutString("ATCH");
 1715              		.loc 1 476 0
 1716 00d4 40F20000 		movw	r0, #:lower16:.LC32
 1717 00d8 C0F20000 		movt	r0, #:upper16:.LC32
 1718 00dc FFF7FEFF 		bl	UART_PutString
 477:.\main.c      ****     UART_WriteTxData(XBEE_CHANNEL);//channel);
 1719              		.loc 1 477 0
 1720 00e0 4FF00C00 		mov	r0, #12
 1721 00e4 FFF7FEFF 		bl	UART_WriteTxData
 478:.\main.c      ****     UART_PutChar('\r');
 1722              		.loc 1 478 0
 1723 00e8 4FF00D00 		mov	r0, #13
 1724 00ec FFF7FEFF 		bl	UART_PutChar
 1725              	.L102:
 479:.\main.c      ****     if (XBEE_VERIFY) {
 480:.\main.c      ****         while (UART_GetRxBufferSize() < 3);
 1726              		.loc 1 480 0
 1727 00f0 FFF7FEFF 		bl	UART_GetRxBufferSize
 1728 00f4 0346     		mov	r3, r0
 1729 00f6 022B     		cmp	r3, #2
 1730 00f8 FAD9     		bls	.L102
 481:.\main.c      ****         if (UART_ReadRxData() != 'O'
 482:.\main.c      ****         ||  UART_ReadRxData() != 'K'
 1731              		.loc 1 482 0
 1732 00fa FFF7FEFF 		bl	UART_ReadRxData
 1733 00fe 0346     		mov	r3, r0
 1734              		.loc 1 481 0
 1735 0100 4F2B     		cmp	r3, #79
 1736 0102 09D1     		bne	.L103
 483:.\main.c      ****         ||  UART_ReadRxData() != '\r') Error_Write(0x01);
 1737              		.loc 1 483 0
 1738 0104 FFF7FEFF 		bl	UART_ReadRxData
 1739 0108 0346     		mov	r3, r0
 1740              		.loc 1 481 0
 1741 010a 4B2B     		cmp	r3, #75
ARM GAS  C:\DOCUME~1\david\LOCALS~1\Temp\ccyMY81M.s 			page 41


 1742 010c 04D1     		bne	.L103
 1743              		.loc 1 483 0
 1744 010e FFF7FEFF 		bl	UART_ReadRxData
 1745 0112 0346     		mov	r3, r0
 1746              		.loc 1 481 0
 1747 0114 0D2B     		cmp	r3, #13
 1748 0116 03D0     		beq	.L104
 1749              	.L103:
 1750              		.loc 1 483 0
 1751 0118 4FF00100 		mov	r0, #1
 1752 011c FFF7FEFF 		bl	Error_Write
 1753              	.L104:
 484:.\main.c      ****     }
 485:.\main.c      ****     
 486:.\main.c      ****     if (XBEE_REMEMBER) {
 487:.\main.c      ****         //if (!channel_change) {
 488:.\main.c      ****             LCD_Position(1,5);
 489:.\main.c      ****             LCD_PrintString("Write   ");
 490:.\main.c      ****         //}
 491:.\main.c      ****         UART_PutString("ATWR\r");
 492:.\main.c      ****         if (XBEE_VERIFY) {
 493:.\main.c      ****             while (UART_GetRxBufferSize() < 3);
 494:.\main.c      ****         if (UART_ReadRxData() != 'O'
 495:.\main.c      ****         ||  UART_ReadRxData() != 'K'
 496:.\main.c      ****         ||  UART_ReadRxData() != '\r') Error_Write(0x01);
 497:.\main.c      ****         }
 498:.\main.c      ****     }
 499:.\main.c      ****     
 500:.\main.c      ****     //if (!channel_change) {
 501:.\main.c      ****         LCD_Position(1,5);
 1754              		.loc 1 501 0
 1755 0120 4FF00100 		mov	r0, #1
 1756 0124 4FF00501 		mov	r1, #5
 1757 0128 FFF7FEFF 		bl	LCD_Position
 502:.\main.c      ****         LCD_PrintString("Ready   ");
 1758              		.loc 1 502 0
 1759 012c 40F20000 		movw	r0, #:lower16:.LC33
 1760 0130 C0F20000 		movt	r0, #:upper16:.LC33
 1761 0134 FFF7FEFF 		bl	LCD_PrintString
 503:.\main.c      ****     //}
 504:.\main.c      ****     UART_PutString("ATCN\r");
 1762              		.loc 1 504 0
 1763 0138 40F20000 		movw	r0, #:lower16:.LC34
 1764 013c C0F20000 		movt	r0, #:upper16:.LC34
 1765 0140 FFF7FEFF 		bl	UART_PutString
 1766              	.L105:
 505:.\main.c      ****     if (XBEE_VERIFY) {
 506:.\main.c      ****         while (UART_GetRxBufferSize() < 3);
 1767              		.loc 1 506 0
 1768 0144 FFF7FEFF 		bl	UART_GetRxBufferSize
 1769 0148 0346     		mov	r3, r0
 1770 014a 022B     		cmp	r3, #2
 1771 014c FAD9     		bls	.L105
 507:.\main.c      ****         if (UART_ReadRxData() != 'O'
 508:.\main.c      ****         ||  UART_ReadRxData() != 'K'
 1772              		.loc 1 508 0
 1773 014e FFF7FEFF 		bl	UART_ReadRxData
ARM GAS  C:\DOCUME~1\david\LOCALS~1\Temp\ccyMY81M.s 			page 42


 1774 0152 0346     		mov	r3, r0
 1775              		.loc 1 507 0
 1776 0154 4F2B     		cmp	r3, #79
 1777 0156 09D1     		bne	.L106
 509:.\main.c      ****         ||  UART_ReadRxData() != '\r') Error_Write(0x01);
 1778              		.loc 1 509 0
 1779 0158 FFF7FEFF 		bl	UART_ReadRxData
 1780 015c 0346     		mov	r3, r0
 1781              		.loc 1 507 0
 1782 015e 4B2B     		cmp	r3, #75
 1783 0160 04D1     		bne	.L106
 1784              		.loc 1 509 0
 1785 0162 FFF7FEFF 		bl	UART_ReadRxData
 1786 0166 0346     		mov	r3, r0
 1787              		.loc 1 507 0
 1788 0168 0D2B     		cmp	r3, #13
 1789 016a 03D0     		beq	.L107
 1790              	.L106:
 1791              		.loc 1 509 0
 1792 016c 4FF00100 		mov	r0, #1
 1793 0170 FFF7FEFF 		bl	Error_Write
 1794              	.L107:
 510:.\main.c      ****     }
 511:.\main.c      ****     
 512:.\main.c      ****     Remote_Write(0x01);
 1795              		.loc 1 512 0
 1796 0174 4FF00100 		mov	r0, #1
 1797 0178 FFF7FEFF 		bl	Remote_Write
 513:.\main.c      **** }
 1798              		.loc 1 513 0
 1799 017c 80BD     		pop	{r7, pc}
 1800              		.cfi_endproc
 1801              	.LFE41:
 1802              		.size	configure_XBee, .-configure_XBee
 1803 017e 00BF     		.section	.rodata
 1804 015a 0000     		.align	2
 1805              	.LC35:
 1806 015c 506C6163 		.ascii	"Place a disc!\000"
 1806      65206120 
 1806      64697363 
 1806      2100
 1807 016a 0000     		.align	2
 1808              	.LC36:
 1809 016c 47616D65 		.ascii	"Game Over\000"
 1809      204F7665 
 1809      7200
 1810 0176 0000     		.align	2
 1811              	.LC37:
 1812 0178 426F6172 		.ascii	"Board Full\000"
 1812      64204675 
 1812      6C6C00
 1813 0183 00       		.align	2
 1814              	.LC38:
 1815 0184 436F6C75 		.ascii	"Column Full\000"
 1815      6D6E2046 
 1815      756C6C00 
 1816              		.section	.text.get_move,"ax",%progbits
ARM GAS  C:\DOCUME~1\david\LOCALS~1\Temp\ccyMY81M.s 			page 43


 1817              		.align	2
 1818              		.global	get_move
 1819              		.thumb
 1820              		.thumb_func
 1821              		.type	get_move, %function
 1822              	get_move:
 1823              	.LFB42:
 514:.\main.c      **** 
 515:.\main.c      **** 
 516:.\main.c      **** 
 517:.\main.c      **** 
 518:.\main.c      **** uint8 get_move () {
 1824              		.loc 1 518 0
 1825              		.cfi_startproc
 1826              		@ args = 0, pretend = 0, frame = 16
 1827              		@ frame_needed = 1, uses_anonymous_args = 0
 1828 0000 80B5     		push	{r7, lr}
 1829              	.LCFI37:
 1830              		.cfi_def_cfa_offset 8
 1831 0002 84B0     		sub	sp, sp, #16
 1832              	.LCFI38:
 1833              		.cfi_def_cfa_offset 24
 1834 0004 00AF     		add	r7, sp, #0
 1835              		.cfi_offset 14, -4
 1836              		.cfi_offset 7, -8
 1837              	.LCFI39:
 1838              		.cfi_def_cfa_register 7
 519:.\main.c      ****     LCD_UpdateMessage("Place a disc!");
 1839              		.loc 1 519 0
 1840 0006 40F20000 		movw	r0, #:lower16:.LC35
 1841 000a C0F20000 		movt	r0, #:upper16:.LC35
 1842 000e FFF7FEFF 		bl	LCD_UpdateMessage
 520:.\main.c      ****     
 521:.\main.c      ****     //guide
 522:.\main.c      ****     uint8 disc = 0;
 1843              		.loc 1 522 0
 1844 0012 4FF00003 		mov	r3, #0
 1845 0016 FB71     		strb	r3, [r7, #7]
 523:.\main.c      ****     while (player1[1][disc] || player2[1][disc]) {
 1846              		.loc 1 523 0
 1847 0018 13E0     		b	.L110
 1848              	.L112:
 524:.\main.c      ****         if (++disc >= MATRIX_COLS) {
 1849              		.loc 1 524 0
 1850 001a FB79     		ldrb	r3, [r7, #7]
 1851 001c 03F10103 		add	r3, r3, #1
 1852 0020 FB71     		strb	r3, [r7, #7]
 1853 0022 FB79     		ldrb	r3, [r7, #7]	@ zero_extendqisi2
 1854 0024 072B     		cmp	r3, #7
 1855 0026 0CD9     		bls	.L110
 525:.\main.c      ****             LCD_UpdateStatus("Game Over");
 1856              		.loc 1 525 0
 1857 0028 40F20000 		movw	r0, #:lower16:.LC36
 1858 002c C0F20000 		movt	r0, #:upper16:.LC36
 1859 0030 FFF7FEFF 		bl	LCD_UpdateStatus
 526:.\main.c      ****             LCD_UpdateMessage("Board Full");
 1860              		.loc 1 526 0
ARM GAS  C:\DOCUME~1\david\LOCALS~1\Temp\ccyMY81M.s 			page 44


 1861 0034 40F20000 		movw	r0, #:lower16:.LC37
 1862 0038 C0F20000 		movt	r0, #:upper16:.LC37
 1863 003c FFF7FEFF 		bl	LCD_UpdateMessage
 1864              	.L111:
 527:.\main.c      ****             while (true);
 1865              		.loc 1 527 0
 1866 0040 FEE7     		b	.L111
 1867              	.L110:
 1868              		.loc 1 523 0
 1869 0042 FA79     		ldrb	r2, [r7, #7]	@ zero_extendqisi2
 1870 0044 40F20003 		movw	r3, #:lower16:player1
 1871 0048 C0F20003 		movt	r3, #:upper16:player1
 1872 004c 1344     		add	r3, r2, r3
 1873 004e 1B7A     		ldrb	r3, [r3, #8]	@ zero_extendqisi2
 1874 0050 002B     		cmp	r3, #0
 1875 0052 E2D1     		bne	.L112
 1876 0054 FA79     		ldrb	r2, [r7, #7]	@ zero_extendqisi2
 1877 0056 40F20003 		movw	r3, #:lower16:player2
 1878 005a C0F20003 		movt	r3, #:upper16:player2
 1879 005e 1344     		add	r3, r2, r3
 1880 0060 1B7A     		ldrb	r3, [r3, #8]	@ zero_extendqisi2
 1881 0062 002B     		cmp	r3, #0
 1882 0064 D9D1     		bne	.L112
 528:.\main.c      ****         }
 529:.\main.c      ****     }
 530:.\main.c      ****     
 531:.\main.c      ****     bool selected = false, dropped = false;
 1883              		.loc 1 531 0
 1884 0066 4FF00003 		mov	r3, #0
 1885 006a 3B72     		strb	r3, [r7, #8]
 1886 006c 4FF00003 		mov	r3, #0
 1887 0070 7B72     		strb	r3, [r7, #9]
 1888              	.L126:
 532:.\main.c      ****     do {
 533:.\main.c      ****         CapSense_UpdateEnabledBaselines();
 1889              		.loc 1 533 0
 1890 0072 FFF7FEFF 		bl	CapSense_UpdateEnabledBaselines
 534:.\main.c      ****         CapSense_ScanEnabledWidgets();
 1891              		.loc 1 534 0
 1892 0076 FFF7FEFF 		bl	CapSense_ScanEnabledWidgets
 1893              	.L113:
 535:.\main.c      ****         while (CapSense_IsBusy());
 1894              		.loc 1 535 0
 1895 007a FFF7FEFF 		bl	CapSense_IsBusy
 1896 007e 0346     		mov	r3, r0
 1897 0080 002B     		cmp	r3, #0
 1898 0082 FAD1     		bne	.L113
 536:.\main.c      ****         if (CapSense_CheckIsWidgetActive(CapSense_BUTTON0__BTN)) {
 1899              		.loc 1 536 0
 1900 0084 4FF00100 		mov	r0, #1
 1901 0088 FFF7FEFF 		bl	CapSense_CheckIsWidgetActive
 1902 008c 0346     		mov	r3, r0
 1903 008e 002B     		cmp	r3, #0
 1904 0090 1DD0     		beq	.L114
 537:.\main.c      ****             if (player1[1][disc] || player2[1][disc]) LCD_UpdateMessage("Column Full");
 1905              		.loc 1 537 0
 1906 0092 FA79     		ldrb	r2, [r7, #7]	@ zero_extendqisi2
ARM GAS  C:\DOCUME~1\david\LOCALS~1\Temp\ccyMY81M.s 			page 45


 1907 0094 40F20003 		movw	r3, #:lower16:player1
 1908 0098 C0F20003 		movt	r3, #:upper16:player1
 1909 009c 1344     		add	r3, r2, r3
 1910 009e 1B7A     		ldrb	r3, [r3, #8]	@ zero_extendqisi2
 1911 00a0 002B     		cmp	r3, #0
 1912 00a2 08D1     		bne	.L115
 1913 00a4 FA79     		ldrb	r2, [r7, #7]	@ zero_extendqisi2
 1914 00a6 40F20003 		movw	r3, #:lower16:player2
 1915 00aa C0F20003 		movt	r3, #:upper16:player2
 1916 00ae 1344     		add	r3, r2, r3
 1917 00b0 1B7A     		ldrb	r3, [r3, #8]	@ zero_extendqisi2
 1918 00b2 002B     		cmp	r3, #0
 1919 00b4 07D0     		beq	.L116
 1920              	.L115:
 1921 00b6 40F20000 		movw	r0, #:lower16:.LC38
 1922 00ba C0F20000 		movt	r0, #:upper16:.LC38
 1923 00be FFF7FEFF 		bl	LCD_UpdateMessage
 1924 00c2 00BF     		nop
 1925 00c4 7DE0     		b	.L118
 1926              	.L116:
 538:.\main.c      ****             else selected = true;
 1927              		.loc 1 538 0
 1928 00c6 4FF00103 		mov	r3, #1
 1929 00ca 3B72     		strb	r3, [r7, #8]
 1930 00cc 79E0     		b	.L118
 1931              	.L114:
 539:.\main.c      ****         }
 540:.\main.c      ****         else {
 541:.\main.c      ****             if (selected) dropped = true;
 1932              		.loc 1 541 0
 1933 00ce 3B7A     		ldrb	r3, [r7, #8]	@ zero_extendqisi2
 1934 00d0 002B     		cmp	r3, #0
 1935 00d2 03D0     		beq	.L119
 1936 00d4 4FF00103 		mov	r3, #1
 1937 00d8 7B72     		strb	r3, [r7, #9]
 1938 00da 72E0     		b	.L118
 1939              	.L119:
 1940              	.LBB6:
 542:.\main.c      ****             else {
 543:.\main.c      ****                 player1[0][disc] = player2[0][disc] = false;
 1941              		.loc 1 543 0
 1942 00dc F979     		ldrb	r1, [r7, #7]	@ zero_extendqisi2
 1943 00de FA79     		ldrb	r2, [r7, #7]	@ zero_extendqisi2
 1944 00e0 40F20003 		movw	r3, #:lower16:player2
 1945 00e4 C0F20003 		movt	r3, #:upper16:player2
 1946 00e8 4FF00000 		mov	r0, #0
 1947 00ec 9854     		strb	r0, [r3, r2]
 1948 00ee 40F20003 		movw	r3, #:lower16:player2
 1949 00f2 C0F20003 		movt	r3, #:upper16:player2
 1950 00f6 9A5C     		ldrb	r2, [r3, r2]	@ zero_extendqisi2
 1951 00f8 40F20003 		movw	r3, #:lower16:player1
 1952 00fc C0F20003 		movt	r3, #:upper16:player1
 1953 0100 5A54     		strb	r2, [r3, r1]
 544:.\main.c      ****                 uint16 reading = (CapSense_GetCentroidPos(CapSense_LINEARSLIDER0__LS)*(MATRIX_COLS-
 1954              		.loc 1 544 0
 1955 0102 4FF00000 		mov	r0, #0
 1956 0106 FFF7FEFF 		bl	CapSense_GetCentroidPos
ARM GAS  C:\DOCUME~1\david\LOCALS~1\Temp\ccyMY81M.s 			page 46


 1957 010a 0346     		mov	r3, r0
 1958 010c 1A46     		mov	r2, r3
 1959 010e 1346     		mov	r3, r2
 1960 0110 4FEAC303 		lsl	r3, r3, #3
 1961 0114 C2EB0302 		rsb	r2, r2, r3
 1962 0118 40F2EB73 		movw	r3, #:lower16:354224107
 1963 011c C1F21D53 		movt	r3, #:upper16:354224107
 1964 0120 83FB0213 		smull	r1, r3, r3, r2
 1965 0124 4FEAE301 		asr	r1, r3, #3
 1966 0128 4FEAE273 		asr	r3, r2, #31
 1967 012c C3EB0103 		rsb	r3, r3, r1
 1968 0130 7B81     		strh	r3, [r7, #10]	@ movhi
 545:.\main.c      ****                 if (reading < 8) disc = reading;
 1969              		.loc 1 545 0
 1970 0132 7B89     		ldrh	r3, [r7, #10]
 1971 0134 072B     		cmp	r3, #7
 1972 0136 01D8     		bhi	.L120
 1973 0138 7B89     		ldrh	r3, [r7, #10]	@ movhi
 1974 013a FB71     		strb	r3, [r7, #7]
 1975              	.L120:
 546:.\main.c      ****                 
 547:.\main.c      ****                 //guide
 548:.\main.c      ****                 int dir = 1;
 1976              		.loc 1 548 0
 1977 013c 4FF00103 		mov	r3, #1
 1978 0140 FB60     		str	r3, [r7, #12]
 549:.\main.c      ****                 while (player1[1][disc] || player2[1][disc]) {
 1979              		.loc 1 549 0
 1980 0142 14E0     		b	.L121
 1981              	.L124:
 550:.\main.c      ****                     if (disc >= MATRIX_COLS-1)  dir = -1;
 1982              		.loc 1 550 0
 1983 0144 FB79     		ldrb	r3, [r7, #7]	@ zero_extendqisi2
 1984 0146 062B     		cmp	r3, #6
 1985 0148 02D9     		bls	.L122
 1986 014a 4FF0FF33 		mov	r3, #-1
 1987 014e FB60     		str	r3, [r7, #12]
 1988              	.L122:
 551:.\main.c      ****                     if (disc == 0 && dir == -1) dir =  1; // DEBUG redundant?
 1989              		.loc 1 551 0
 1990 0150 FB79     		ldrb	r3, [r7, #7]	@ zero_extendqisi2
 1991 0152 002B     		cmp	r3, #0
 1992 0154 06D1     		bne	.L123
 1993 0156 FB68     		ldr	r3, [r7, #12]
 1994 0158 B3F1FF3F 		cmp	r3, #-1
 1995 015c 02D1     		bne	.L123
 1996 015e 4FF00103 		mov	r3, #1
 1997 0162 FB60     		str	r3, [r7, #12]
 1998              	.L123:
 552:.\main.c      ****                     disc += dir;
 1999              		.loc 1 552 0
 2000 0164 FB68     		ldr	r3, [r7, #12]
 2001 0166 DAB2     		uxtb	r2, r3
 2002 0168 FB79     		ldrb	r3, [r7, #7]
 2003 016a 1344     		add	r3, r2, r3
 2004 016c FB71     		strb	r3, [r7, #7]
 2005              	.L121:
ARM GAS  C:\DOCUME~1\david\LOCALS~1\Temp\ccyMY81M.s 			page 47


 2006              		.loc 1 549 0
 2007 016e FA79     		ldrb	r2, [r7, #7]	@ zero_extendqisi2
 2008 0170 40F20003 		movw	r3, #:lower16:player1
 2009 0174 C0F20003 		movt	r3, #:upper16:player1
 2010 0178 1344     		add	r3, r2, r3
 2011 017a 1B7A     		ldrb	r3, [r3, #8]	@ zero_extendqisi2
 2012 017c 002B     		cmp	r3, #0
 2013 017e E1D1     		bne	.L124
 2014 0180 FA79     		ldrb	r2, [r7, #7]	@ zero_extendqisi2
 2015 0182 40F20003 		movw	r3, #:lower16:player2
 2016 0186 C0F20003 		movt	r3, #:upper16:player2
 2017 018a 1344     		add	r3, r2, r3
 2018 018c 1B7A     		ldrb	r3, [r3, #8]	@ zero_extendqisi2
 2019 018e 002B     		cmp	r3, #0
 2020 0190 D8D1     		bne	.L124
 553:.\main.c      ****                 }
 554:.\main.c      ****                 if (player1_turn) player1[0][disc] = true;
 2021              		.loc 1 554 0
 2022 0192 40F20003 		movw	r3, #:lower16:player1_turn
 2023 0196 C0F20003 		movt	r3, #:upper16:player1_turn
 2024 019a 1B78     		ldrb	r3, [r3, #0]	@ zero_extendqisi2
 2025 019c 002B     		cmp	r3, #0
 2026 019e 08D0     		beq	.L125
 2027 01a0 FA79     		ldrb	r2, [r7, #7]	@ zero_extendqisi2
 2028 01a2 40F20003 		movw	r3, #:lower16:player1
 2029 01a6 C0F20003 		movt	r3, #:upper16:player1
 2030 01aa 4FF00101 		mov	r1, #1
 2031 01ae 9954     		strb	r1, [r3, r2]
 2032 01b0 07E0     		b	.L118
 2033              	.L125:
 555:.\main.c      ****                 else              player2[0][disc] = true;
 2034              		.loc 1 555 0
 2035 01b2 FA79     		ldrb	r2, [r7, #7]	@ zero_extendqisi2
 2036 01b4 40F20003 		movw	r3, #:lower16:player2
 2037 01b8 C0F20003 		movt	r3, #:upper16:player2
 2038 01bc 4FF00101 		mov	r1, #1
 2039 01c0 9954     		strb	r1, [r3, r2]
 2040              	.L118:
 2041              	.LBE6:
 556:.\main.c      ****             }
 557:.\main.c      ****         }
 558:.\main.c      ****     } while (!dropped);
 2042              		.loc 1 558 0
 2043 01c2 7B7A     		ldrb	r3, [r7, #9]
 2044 01c4 83F00103 		eor	r3, r3, #1
 2045 01c8 DBB2     		uxtb	r3, r3
 2046 01ca 002B     		cmp	r3, #0
 2047 01cc 7FF451AF 		bne	.L126
 559:.\main.c      ****     player1[0][disc] = player2[0][disc] = false;
 2048              		.loc 1 559 0
 2049 01d0 F979     		ldrb	r1, [r7, #7]	@ zero_extendqisi2
 2050 01d2 FA79     		ldrb	r2, [r7, #7]	@ zero_extendqisi2
 2051 01d4 40F20003 		movw	r3, #:lower16:player2
 2052 01d8 C0F20003 		movt	r3, #:upper16:player2
 2053 01dc 4FF00000 		mov	r0, #0
 2054 01e0 9854     		strb	r0, [r3, r2]
 2055 01e2 40F20003 		movw	r3, #:lower16:player2
ARM GAS  C:\DOCUME~1\david\LOCALS~1\Temp\ccyMY81M.s 			page 48


 2056 01e6 C0F20003 		movt	r3, #:upper16:player2
 2057 01ea 9A5C     		ldrb	r2, [r3, r2]	@ zero_extendqisi2
 2058 01ec 40F20003 		movw	r3, #:lower16:player1
 2059 01f0 C0F20003 		movt	r3, #:upper16:player1
 2060 01f4 5A54     		strb	r2, [r3, r1]
 560:.\main.c      ****     return disc;
 2061              		.loc 1 560 0
 2062 01f6 FB79     		ldrb	r3, [r7, #7]	@ zero_extendqisi2
 561:.\main.c      **** }
 2063              		.loc 1 561 0
 2064 01f8 1846     		mov	r0, r3
 2065 01fa 07F11007 		add	r7, r7, #16
 2066 01fe BD46     		mov	sp, r7
 2067 0200 80BD     		pop	{r7, pc}
 2068              		.cfi_endproc
 2069              	.LFE42:
 2070              		.size	get_move, .-get_move
 2071 0202 00BF     		.section	.text.receive_move,"ax",%progbits
 2072              		.align	2
 2073              		.global	receive_move
 2074              		.thumb
 2075              		.thumb_func
 2076              		.type	receive_move, %function
 2077              	receive_move:
 2078              	.LFB43:
 562:.\main.c      **** 
 563:.\main.c      **** 
 564:.\main.c      **** 
 565:.\main.c      **** 
 566:.\main.c      **** uint8 receive_move () {
 2079              		.loc 1 566 0
 2080              		.cfi_startproc
 2081              		@ args = 0, pretend = 0, frame = 8
 2082              		@ frame_needed = 1, uses_anonymous_args = 0
 2083 0000 80B5     		push	{r7, lr}
 2084              	.LCFI40:
 2085              		.cfi_def_cfa_offset 8
 2086 0002 82B0     		sub	sp, sp, #8
 2087              	.LCFI41:
 2088              		.cfi_def_cfa_offset 16
 2089 0004 00AF     		add	r7, sp, #0
 2090              		.cfi_offset 14, -4
 2091              		.cfi_offset 7, -8
 2092              	.LCFI42:
 2093              		.cfi_def_cfa_register 7
 2094              	.L130:
 567:.\main.c      ****     play_t move;
 568:.\main.c      ****     while (true) {
 569:.\main.c      ****         receive_packet(&move);
 2095              		.loc 1 569 0
 2096 0006 07F10403 		add	r3, r7, #4
 2097 000a 1846     		mov	r0, r3
 2098 000c FFF7FEFF 		bl	receive_packet
 570:.\main.c      ****         move.row = MATRIX_ROWS-move.row;
 2099              		.loc 1 570 0
 2100 0010 3B79     		ldrb	r3, [r7, #4]	@ zero_extendqisi2
 2101 0012 C3F10803 		rsb	r3, r3, #8
ARM GAS  C:\DOCUME~1\david\LOCALS~1\Temp\ccyMY81M.s 			page 49


 2102 0016 DBB2     		uxtb	r3, r3
 2103 0018 3B71     		strb	r3, [r7, #4]
 571:.\main.c      ****         --move.col;
 2104              		.loc 1 571 0
 2105 001a 7B79     		ldrb	r3, [r7, #5]	@ zero_extendqisi2
 2106 001c 03F1FF33 		add	r3, r3, #-1
 2107 0020 DBB2     		uxtb	r3, r3
 2108 0022 7B71     		strb	r3, [r7, #5]
 572:.\main.c      ****         if (player2[move.row][move.col]) send_packet(&last_move);
 2109              		.loc 1 572 0
 2110 0024 3B79     		ldrb	r3, [r7, #4]	@ zero_extendqisi2
 2111 0026 1946     		mov	r1, r3
 2112 0028 7B79     		ldrb	r3, [r7, #5]	@ zero_extendqisi2
 2113 002a 1A46     		mov	r2, r3
 2114 002c 40F20003 		movw	r3, #:lower16:player2
 2115 0030 C0F20003 		movt	r3, #:upper16:player2
 2116 0034 4FEAC101 		lsl	r1, r1, #3
 2117 0038 0A44     		add	r2, r1, r2
 2118 003a 1344     		add	r3, r2, r3
 2119 003c 1B78     		ldrb	r3, [r3, #0]	@ zero_extendqisi2
 2120 003e 002B     		cmp	r3, #0
 2121 0040 06D0     		beq	.L129
 2122 0042 40F20000 		movw	r0, #:lower16:last_move
 2123 0046 C0F20000 		movt	r0, #:upper16:last_move
 2124 004a FFF7FEFF 		bl	send_packet
 573:.\main.c      ****         else break;
 574:.\main.c      ****     }
 2125              		.loc 1 574 0
 2126 004e DAE7     		b	.L130
 2127              	.L129:
 575:.\main.c      ****     UART_ClearRxBuffer();
 2128              		.loc 1 575 0
 2129 0050 FFF7FEFF 		bl	UART_ClearRxBuffer
 576:.\main.c      ****     return move.col; 
 2130              		.loc 1 576 0
 2131 0054 7B79     		ldrb	r3, [r7, #5]	@ zero_extendqisi2
 577:.\main.c      **** }
 2132              		.loc 1 577 0
 2133 0056 1846     		mov	r0, r3
 2134 0058 07F10807 		add	r7, r7, #8
 2135 005c BD46     		mov	sp, r7
 2136 005e 80BD     		pop	{r7, pc}
 2137              		.cfi_endproc
 2138              	.LFE43:
 2139              		.size	receive_move, .-receive_move
 2140              		.section	.rodata
 2141              		.align	2
 2142              	.LC39:
 2143 0190 77616974 		.ascii	"waiting\000"
 2143      696E6700 
 2144              		.align	2
 2145              	.LC40:
 2146 0198 20202020 		.ascii	"         \000"
 2146      20202020 
 2146      2000
 2147              		.section	.text.receive_packet,"ax",%progbits
 2148              		.align	2
ARM GAS  C:\DOCUME~1\david\LOCALS~1\Temp\ccyMY81M.s 			page 50


 2149              		.global	receive_packet
 2150              		.thumb
 2151              		.thumb_func
 2152              		.type	receive_packet, %function
 2153              	receive_packet:
 2154              	.LFB44:
 578:.\main.c      **** 
 579:.\main.c      **** 
 580:.\main.c      **** 
 581:.\main.c      **** 
 582:.\main.c      **** void receive_packet ( play_t * move ) {
 2155              		.loc 1 582 0
 2156              		.cfi_startproc
 2157              		@ args = 0, pretend = 0, frame = 16
 2158              		@ frame_needed = 1, uses_anonymous_args = 0
 2159 0000 80B5     		push	{r7, lr}
 2160              	.LCFI43:
 2161              		.cfi_def_cfa_offset 8
 2162 0002 84B0     		sub	sp, sp, #16
 2163              	.LCFI44:
 2164              		.cfi_def_cfa_offset 24
 2165 0004 00AF     		add	r7, sp, #0
 2166              		.cfi_offset 14, -4
 2167              		.cfi_offset 7, -8
 2168              	.LCFI45:
 2169              		.cfi_def_cfa_register 7
 2170 0006 7860     		str	r0, [r7, #4]
 583:.\main.c      ****     UART_ClearRxBuffer();
 2171              		.loc 1 583 0
 2172 0008 FFF7FEFF 		bl	UART_ClearRxBuffer
 2173              	.L144:
 2174              	.LBB7:
 584:.\main.c      ****     while (true) {
 585:.\main.c      ****         LCD_UpdateMessage("waiting");
 2175              		.loc 1 585 0
 2176 000c 40F20000 		movw	r0, #:lower16:.LC39
 2177 0010 C0F20000 		movt	r0, #:upper16:.LC39
 2178 0014 FFF7FEFF 		bl	LCD_UpdateMessage
 586:.\main.c      ****         LCD_Position(1,7);
 2179              		.loc 1 586 0
 2180 0018 4FF00100 		mov	r0, #1
 2181 001c 4FF00701 		mov	r1, #7
 2182 0020 FFF7FEFF 		bl	LCD_Position
 587:.\main.c      ****         LCD_PrintString("         ");
 2183              		.loc 1 587 0
 2184 0024 40F20000 		movw	r0, #:lower16:.LC40
 2185 0028 C0F20000 		movt	r0, #:upper16:.LC40
 2186 002c FFF7FEFF 		bl	LCD_PrintString
 588:.\main.c      ****         LCD_Position(1,7);
 2187              		.loc 1 588 0
 2188 0030 4FF00100 		mov	r0, #1
 2189 0034 4FF00701 		mov	r1, #7
 2190 0038 FFF7FEFF 		bl	LCD_Position
 589:.\main.c      ****         uint8 vol;
 590:.\main.c      ****         for (vol=(UART_GetRxBufferSize()*8)/128; vol > 0 ;--vol) LCD_PutChar('.');
 2191              		.loc 1 590 0
 2192 003c FFF7FEFF 		bl	UART_GetRxBufferSize
ARM GAS  C:\DOCUME~1\david\LOCALS~1\Temp\ccyMY81M.s 			page 51


 2193 0040 0346     		mov	r3, r0
 2194 0042 4FEAC303 		lsl	r3, r3, #3
 2195 0046 03F17F02 		add	r2, r3, #127
 2196 004a 002B     		cmp	r3, #0
 2197 004c B8BF     		it	lt
 2198 004e 1346     		movlt	r3, r2
 2199 0050 4FEAE313 		asr	r3, r3, #7
 2200 0054 FB73     		strb	r3, [r7, #15]
 2201 0056 07E0     		b	.L133
 2202              	.L134:
 2203 0058 4FF02E00 		mov	r0, #46
 2204 005c FFF7FEFF 		bl	LCD_PutChar
 2205 0060 FB7B     		ldrb	r3, [r7, #15]
 2206 0062 03F1FF33 		add	r3, r3, #-1
 2207 0066 FB73     		strb	r3, [r7, #15]
 2208              	.L133:
 2209 0068 FB7B     		ldrb	r3, [r7, #15]	@ zero_extendqisi2
 2210 006a 002B     		cmp	r3, #0
 2211 006c F4D1     		bne	.L134
 2212              	.L136:
 591:.\main.c      ****         
 592:.\main.c      ****         do if (UART_GetTxBufferSize() == 0) {
 2213              		.loc 1 592 0
 2214 006e FFF7FEFF 		bl	UART_GetTxBufferSize
 2215 0072 0346     		mov	r3, r0
 2216 0074 002B     		cmp	r3, #0
 2217 0076 09D1     		bne	.L135
 593:.\main.c      ****             send_packet(&last_move);
 2218              		.loc 1 593 0
 2219 0078 40F20000 		movw	r0, #:lower16:last_move
 2220 007c C0F20000 		movt	r0, #:upper16:last_move
 2221 0080 FFF7FEFF 		bl	send_packet
 594:.\main.c      ****             CyDelay(50);
 2222              		.loc 1 594 0
 2223 0084 4FF03200 		mov	r0, #50
 2224 0088 FFF7FEFF 		bl	CyDelay
 2225              	.L135:
 595:.\main.c      ****         }
 596:.\main.c      ****         while (UART_GetRxBufferSize() < 4);
 2226              		.loc 1 596 0
 2227 008c FFF7FEFF 		bl	UART_GetRxBufferSize
 2228 0090 0346     		mov	r3, r0
 2229 0092 032B     		cmp	r3, #3
 2230 0094 EBD9     		bls	.L136
 597:.\main.c      ****         if (UART_ReadRxData() != PLAYER2_ID) continue;
 2231              		.loc 1 597 0
 2232 0096 FFF7FEFF 		bl	UART_ReadRxData
 2233 009a 0346     		mov	r3, r0
 2234 009c 852B     		cmp	r3, #133
 2235 009e 00D0     		beq	.L137
 2236 00a0 2EE0     		b	.L138
 2237              	.L137:
 598:.\main.c      ****         
 599:.\main.c      ****         while (UART_GetRxBufferSize() == 0);
 2238              		.loc 1 599 0
 2239 00a2 FFF7FEFF 		bl	UART_GetRxBufferSize
 2240 00a6 0346     		mov	r3, r0
ARM GAS  C:\DOCUME~1\david\LOCALS~1\Temp\ccyMY81M.s 			page 52


 2241 00a8 002B     		cmp	r3, #0
 2242 00aa FAD0     		beq	.L137
 600:.\main.c      ****         if (UART_ReadRxData() != PACKET_TYPE); // DEBUG newer?
 2243              		.loc 1 600 0
 2244 00ac FFF7FEFF 		bl	UART_ReadRxData
 2245              	.L139:
 601:.\main.c      ****         
 602:.\main.c      ****         while (UART_GetRxBufferSize() == 0);
 2246              		.loc 1 602 0
 2247 00b0 FFF7FEFF 		bl	UART_GetRxBufferSize
 2248 00b4 0346     		mov	r3, r0
 2249 00b6 002B     		cmp	r3, #0
 2250 00b8 FAD0     		beq	.L139
 603:.\main.c      ****         move->row = UART_ReadRxData();
 2251              		.loc 1 603 0
 2252 00ba FFF7FEFF 		bl	UART_ReadRxData
 2253 00be 0346     		mov	r3, r0
 2254 00c0 1A46     		mov	r2, r3
 2255 00c2 7B68     		ldr	r3, [r7, #4]
 2256 00c4 1A70     		strb	r2, [r3, #0]
 604:.\main.c      ****         if (move->row < 1 || move->row > MATRIX_ROWS-1) continue;
 2257              		.loc 1 604 0
 2258 00c6 7B68     		ldr	r3, [r7, #4]
 2259 00c8 1B78     		ldrb	r3, [r3, #0]	@ zero_extendqisi2
 2260 00ca 002B     		cmp	r3, #0
 2261 00cc 03D0     		beq	.L140
 2262 00ce 7B68     		ldr	r3, [r7, #4]
 2263 00d0 1B78     		ldrb	r3, [r3, #0]	@ zero_extendqisi2
 2264 00d2 072B     		cmp	r3, #7
 2265 00d4 00D9     		bls	.L141
 2266              	.L140:
 2267 00d6 13E0     		b	.L138
 2268              	.L141:
 605:.\main.c      ****         
 606:.\main.c      ****         while (UART_GetRxBufferSize() == 0);
 2269              		.loc 1 606 0
 2270 00d8 FFF7FEFF 		bl	UART_GetRxBufferSize
 2271 00dc 0346     		mov	r3, r0
 2272 00de 002B     		cmp	r3, #0
 2273 00e0 FAD0     		beq	.L141
 607:.\main.c      ****         move->col = UART_ReadRxData();
 2274              		.loc 1 607 0
 2275 00e2 FFF7FEFF 		bl	UART_ReadRxData
 2276 00e6 0346     		mov	r3, r0
 2277 00e8 1A46     		mov	r2, r3
 2278 00ea 7B68     		ldr	r3, [r7, #4]
 2279 00ec 5A70     		strb	r2, [r3, #1]
 608:.\main.c      ****         if (move->col < 1 || move->row > MATRIX_COLS) continue;
 2280              		.loc 1 608 0
 2281 00ee 7B68     		ldr	r3, [r7, #4]
 2282 00f0 5B78     		ldrb	r3, [r3, #1]	@ zero_extendqisi2
 2283 00f2 002B     		cmp	r3, #0
 2284 00f4 03D0     		beq	.L142
 2285 00f6 7B68     		ldr	r3, [r7, #4]
 2286 00f8 1B78     		ldrb	r3, [r3, #0]	@ zero_extendqisi2
 2287 00fa 082B     		cmp	r3, #8
 2288 00fc 01D9     		bls	.L146
ARM GAS  C:\DOCUME~1\david\LOCALS~1\Temp\ccyMY81M.s 			page 53


 2289              	.L142:
 2290 00fe 00BF     		nop
 2291              	.L138:
 2292              	.LBE7:
 609:.\main.c      ****         
 610:.\main.c      ****         break;
 611:.\main.c      ****     }
 2293              		.loc 1 611 0
 2294 0100 84E7     		b	.L144
 2295              	.L146:
 612:.\main.c      **** }
 2296              		.loc 1 612 0
 2297 0102 00BF     		nop
 2298              	.L145:
 2299 0104 07F11007 		add	r7, r7, #16
 2300 0108 BD46     		mov	sp, r7
 2301 010a 80BD     		pop	{r7, pc}
 2302              		.cfi_endproc
 2303              	.LFE44:
 2304              		.size	receive_packet, .-receive_packet
 2305              		.section	.text.send_packet,"ax",%progbits
 2306              		.align	2
 2307              		.global	send_packet
 2308              		.thumb
 2309              		.thumb_func
 2310              		.type	send_packet, %function
 2311              	send_packet:
 2312              	.LFB45:
 613:.\main.c      **** 
 614:.\main.c      **** 
 615:.\main.c      **** 
 616:.\main.c      **** 
 617:.\main.c      **** void send_packet ( play_t * move ) {
 2313              		.loc 1 617 0
 2314              		.cfi_startproc
 2315              		@ args = 0, pretend = 0, frame = 24
 2316              		@ frame_needed = 1, uses_anonymous_args = 0
 2317 0000 80B5     		push	{r7, lr}
 2318              	.LCFI46:
 2319              		.cfi_def_cfa_offset 8
 2320 0002 86B0     		sub	sp, sp, #24
 2321              	.LCFI47:
 2322              		.cfi_def_cfa_offset 32
 2323 0004 00AF     		add	r7, sp, #0
 2324              		.cfi_offset 14, -4
 2325              		.cfi_offset 7, -8
 2326              	.LCFI48:
 2327              		.cfi_def_cfa_register 7
 2328 0006 7860     		str	r0, [r7, #4]
 618:.\main.c      **** 
 619:.\main.c      ****     /**************************/
 620:.\main.c      ****     char   delimiter   = '~';
 2329              		.loc 1 620 0
 2330 0008 4FF07E03 		mov	r3, #126
 2331 000c 7B73     		strb	r3, [r7, #13]
 621:.\main.c      ****     uint8  api_id      = 0x01;
 2332              		.loc 1 621 0
ARM GAS  C:\DOCUME~1\david\LOCALS~1\Temp\ccyMY81M.s 			page 54


 2333 000e 4FF00103 		mov	r3, #1
 2334 0012 BB73     		strb	r3, [r7, #14]
 622:.\main.c      ****     uint8  frame_id    = 0x00;
 2335              		.loc 1 622 0
 2336 0014 4FF00003 		mov	r3, #0
 2337 0018 FB73     		strb	r3, [r7, #15]
 623:.\main.c      ****     uint16 destination = 0xFFFF; //broadcast
 2338              		.loc 1 623 0
 2339 001a 4FF6FF73 		movw	r3, #65535
 2340 001e 3B82     		strh	r3, [r7, #16]	@ movhi
 624:.\main.c      ****     uint8  disable_ack = 0x01;
 2341              		.loc 1 624 0
 2342 0020 4FF00103 		mov	r3, #1
 2343 0024 FB74     		strb	r3, [r7, #19]
 625:.\main.c      ****     /**************************/
 626:.\main.c      ****     
 627:.\main.c      ****     uint16 length = sizeof(destination) +
 628:.\main.c      ****                     sizeof(api_id) +
 629:.\main.c      ****                     sizeof(frame_id) +
 630:.\main.c      ****                     sizeof(disable_ack) +
 631:.\main.c      ****                     4; //Payload: Player ID, Packet Type, Row, Column
 2344              		.loc 1 631 0
 2345 0026 4FF00903 		mov	r3, #9
 2346 002a BB82     		strh	r3, [r7, #20]	@ movhi
 632:.\main.c      ****     
 633:.\main.c      ****     uint8 checksum = 0xFF - (uint8) (api_id +
 634:.\main.c      ****                                      frame_id +
 635:.\main.c      ****                                     ((uint8) (destination >> 8)) +
 636:.\main.c      ****                                     ((uint8)  destination) +
 637:.\main.c      ****                                      disable_ack +
 638:.\main.c      ****                                      PLAYER1_ID +
 639:.\main.c      ****                                      PACKET_TYPE +
 640:.\main.c      ****                                      move->row +
 641:.\main.c      ****                                      move->col);
 2347              		.loc 1 641 0
 2348 002c BA7B     		ldrb	r2, [r7, #14]
 2349 002e FB7B     		ldrb	r3, [r7, #15]
 2350 0030 1344     		add	r3, r2, r3
 2351 0032 DAB2     		uxtb	r2, r3
 2352              		.loc 1 635 0
 2353 0034 3B8A     		ldrh	r3, [r7, #16]
 2354 0036 4FEA1323 		lsr	r3, r3, #8
 2355 003a 9BB2     		uxth	r3, r3
 2356 003c DBB2     		uxtb	r3, r3
 2357              		.loc 1 641 0
 2358 003e 1344     		add	r3, r2, r3
 2359 0040 DAB2     		uxtb	r2, r3
 2360              		.loc 1 636 0
 2361 0042 3B8A     		ldrh	r3, [r7, #16]	@ movhi
 2362 0044 DBB2     		uxtb	r3, r3
 2363              		.loc 1 641 0
 2364 0046 1344     		add	r3, r2, r3
 2365 0048 DAB2     		uxtb	r2, r3
 2366 004a FB7C     		ldrb	r3, [r7, #19]
 2367 004c 1344     		add	r3, r2, r3
 2368 004e DAB2     		uxtb	r2, r3
 2369 0050 7B68     		ldr	r3, [r7, #4]
ARM GAS  C:\DOCUME~1\david\LOCALS~1\Temp\ccyMY81M.s 			page 55


 2370 0052 1B78     		ldrb	r3, [r3, #0]	@ zero_extendqisi2
 2371 0054 1344     		add	r3, r2, r3
 2372 0056 DAB2     		uxtb	r2, r3
 2373 0058 7B68     		ldr	r3, [r7, #4]
 2374 005a 5B78     		ldrb	r3, [r3, #1]	@ zero_extendqisi2
 2375 005c 1344     		add	r3, r2, r3
 2376 005e DBB2     		uxtb	r3, r3
 2377 0060 A3F12603 		sub	r3, r3, #38
 2378 0064 DBB2     		uxtb	r3, r3
 2379 0066 6FEA0303 		mvn	r3, r3
 2380 006a FB75     		strb	r3, [r7, #23]
 642:.\main.c      ****     
 643:.\main.c      ****     
 644:.\main.c      ****     /* DEBUG *
 645:.\main.c      ****     uint16 delay = 100;
 646:.\main.c      ****     
 647:.\main.c      ****     LCD_UpdateStatus("Delimiter");
 648:.\main.c      ****     LCD_ClearLine(1);
 649:.\main.c      ****     LCD_PutChar(delimiter);
 650:.\main.c      ****     LCD_Position(1,2);
 651:.\main.c      ****     LCD_PrintNumber(delimiter);
 652:.\main.c      ****     CyDelay(delay);
 653:.\main.c      ****     
 654:.\main.c      ****     LCD_UpdateStatus("Length");
 655:.\main.c      ****     LCD_ClearLine(1);
 656:.\main.c      ****     LCD_PrintNumber(length);
 657:.\main.c      ****     CyDelay(delay);
 658:.\main.c      ****     
 659:.\main.c      ****     LCD_UpdateStatus("API ID");
 660:.\main.c      ****     LCD_ClearLine(1);
 661:.\main.c      ****     LCD_PrintString("0x");
 662:.\main.c      ****     LCD_PrintInt8(api_id);
 663:.\main.c      ****     CyDelay(delay);
 664:.\main.c      ****     
 665:.\main.c      ****     LCD_UpdateStatus("Frame ID");
 666:.\main.c      ****     LCD_ClearLine(1);
 667:.\main.c      ****     LCD_PrintString("0x");
 668:.\main.c      ****     LCD_PrintInt8(frame_id);
 669:.\main.c      ****     CyDelay(delay);
 670:.\main.c      ****     
 671:.\main.c      ****     LCD_UpdateStatus("Destination");
 672:.\main.c      ****     LCD_ClearLine(1);
 673:.\main.c      ****     LCD_PrintString("0x");
 674:.\main.c      ****     LCD_PrintInt16(destination);
 675:.\main.c      ****     CyDelay(delay);
 676:.\main.c      ****     
 677:.\main.c      ****     LCD_UpdateStatus("Disable ACK");
 678:.\main.c      ****     LCD_ClearLine(1);
 679:.\main.c      ****     LCD_PrintString("0x");
 680:.\main.c      ****     LCD_PrintInt8(disable_ack);
 681:.\main.c      ****     CyDelay(delay);
 682:.\main.c      ****     
 683:.\main.c      ****     LCD_UpdateStatus("Player ID");
 684:.\main.c      ****     LCD_ClearLine(1);
 685:.\main.c      ****     LCD_PrintString("0x");
 686:.\main.c      ****     LCD_PrintInt8(PLAYER1_ID);
 687:.\main.c      ****     CyDelay(delay);
ARM GAS  C:\DOCUME~1\david\LOCALS~1\Temp\ccyMY81M.s 			page 56


 688:.\main.c      ****     
 689:.\main.c      ****     LCD_UpdateStatus("Packet Type");
 690:.\main.c      ****     LCD_ClearLine(1);
 691:.\main.c      ****     LCD_PrintString("0x");
 692:.\main.c      ****     LCD_PrintInt8(PACKET_TYPE);
 693:.\main.c      ****     CyDelay(delay);
 694:.\main.c      ****     
 695:.\main.c      ****     LCD_UpdateStatus("Row");
 696:.\main.c      ****     LCD_ClearLine(1);
 697:.\main.c      ****     LCD_PrintNumber(move->row);
 698:.\main.c      ****     CyDelay(delay);
 699:.\main.c      ****     
 700:.\main.c      ****     LCD_UpdateStatus("Column");
 701:.\main.c      ****     LCD_ClearLine(1);
 702:.\main.c      ****     LCD_PrintNumber(move->col);
 703:.\main.c      ****     CyDelay(delay);
 704:.\main.c      ****     
 705:.\main.c      ****     LCD_UpdateStatus("Checksum");
 706:.\main.c      ****     LCD_ClearLine(1);
 707:.\main.c      ****     LCD_PrintString("0x");
 708:.\main.c      ****     LCD_PrintInt8(checksum);
 709:.\main.c      ****     CyDelay(delay);
 710:.\main.c      ****     /**/
 711:.\main.c      ****     
 712:.\main.c      ****     
 713:.\main.c      ****     UART_ClearTxBuffer();
 2381              		.loc 1 713 0
 2382 006c FFF7FEFF 		bl	UART_ClearTxBuffer
 714:.\main.c      ****     UART_WriteTxData(delimiter);
 2383              		.loc 1 714 0
 2384 0070 7B7B     		ldrb	r3, [r7, #13]	@ zero_extendqisi2
 2385 0072 1846     		mov	r0, r3
 2386 0074 FFF7FEFF 		bl	UART_WriteTxData
 715:.\main.c      ****     UART_WriteTxData((uint8) (length >> 8));
 2387              		.loc 1 715 0
 2388 0078 BB8A     		ldrh	r3, [r7, #20]
 2389 007a 4FEA1323 		lsr	r3, r3, #8
 2390 007e 9BB2     		uxth	r3, r3
 2391 0080 DBB2     		uxtb	r3, r3
 2392 0082 1846     		mov	r0, r3
 2393 0084 FFF7FEFF 		bl	UART_WriteTxData
 716:.\main.c      ****     UART_WriteTxData((uint8)  length);
 2394              		.loc 1 716 0
 2395 0088 BB8A     		ldrh	r3, [r7, #20]	@ movhi
 2396 008a DBB2     		uxtb	r3, r3
 2397 008c 1846     		mov	r0, r3
 2398 008e FFF7FEFF 		bl	UART_WriteTxData
 717:.\main.c      ****     UART_WriteTxData(api_id);
 2399              		.loc 1 717 0
 2400 0092 BB7B     		ldrb	r3, [r7, #14]	@ zero_extendqisi2
 2401 0094 1846     		mov	r0, r3
 2402 0096 FFF7FEFF 		bl	UART_WriteTxData
 718:.\main.c      ****     UART_WriteTxData(frame_id);
 2403              		.loc 1 718 0
 2404 009a FB7B     		ldrb	r3, [r7, #15]	@ zero_extendqisi2
 2405 009c 1846     		mov	r0, r3
 2406 009e FFF7FEFF 		bl	UART_WriteTxData
ARM GAS  C:\DOCUME~1\david\LOCALS~1\Temp\ccyMY81M.s 			page 57


 719:.\main.c      ****     UART_WriteTxData((uint8) (destination >> 8));
 2407              		.loc 1 719 0
 2408 00a2 3B8A     		ldrh	r3, [r7, #16]
 2409 00a4 4FEA1323 		lsr	r3, r3, #8
 2410 00a8 9BB2     		uxth	r3, r3
 2411 00aa DBB2     		uxtb	r3, r3
 2412 00ac 1846     		mov	r0, r3
 2413 00ae FFF7FEFF 		bl	UART_WriteTxData
 720:.\main.c      ****     UART_WriteTxData((uint8)  destination);
 2414              		.loc 1 720 0
 2415 00b2 3B8A     		ldrh	r3, [r7, #16]	@ movhi
 2416 00b4 DBB2     		uxtb	r3, r3
 2417 00b6 1846     		mov	r0, r3
 2418 00b8 FFF7FEFF 		bl	UART_WriteTxData
 721:.\main.c      ****     UART_WriteTxData(disable_ack);
 2419              		.loc 1 721 0
 2420 00bc FB7C     		ldrb	r3, [r7, #19]	@ zero_extendqisi2
 2421 00be 1846     		mov	r0, r3
 2422 00c0 FFF7FEFF 		bl	UART_WriteTxData
 722:.\main.c      ****     UART_WriteTxData(PLAYER1_ID);
 2423              		.loc 1 722 0
 2424 00c4 4FF0DA00 		mov	r0, #218
 2425 00c8 FFF7FEFF 		bl	UART_WriteTxData
 723:.\main.c      ****     UART_WriteTxData(PACKET_TYPE);
 2426              		.loc 1 723 0
 2427 00cc 4FF00000 		mov	r0, #0
 2428 00d0 FFF7FEFF 		bl	UART_WriteTxData
 724:.\main.c      ****     UART_WriteTxData(move->row);
 2429              		.loc 1 724 0
 2430 00d4 7B68     		ldr	r3, [r7, #4]
 2431 00d6 1B78     		ldrb	r3, [r3, #0]	@ zero_extendqisi2
 2432 00d8 1846     		mov	r0, r3
 2433 00da FFF7FEFF 		bl	UART_WriteTxData
 725:.\main.c      ****     UART_WriteTxData(move->col);
 2434              		.loc 1 725 0
 2435 00de 7B68     		ldr	r3, [r7, #4]
 2436 00e0 5B78     		ldrb	r3, [r3, #1]	@ zero_extendqisi2
 2437 00e2 1846     		mov	r0, r3
 2438 00e4 FFF7FEFF 		bl	UART_WriteTxData
 726:.\main.c      ****     UART_WriteTxData(checksum);
 2439              		.loc 1 726 0
 2440 00e8 FB7D     		ldrb	r3, [r7, #23]	@ zero_extendqisi2
 2441 00ea 1846     		mov	r0, r3
 2442 00ec FFF7FEFF 		bl	UART_WriteTxData
 727:.\main.c      **** }
 2443              		.loc 1 727 0
 2444 00f0 07F11807 		add	r7, r7, #24
 2445 00f4 BD46     		mov	sp, r7
 2446 00f6 80BD     		pop	{r7, pc}
 2447              		.cfi_endproc
 2448              	.LFE45:
 2449              		.size	send_packet, .-send_packet
 2450              		.section	.text.send_move,"ax",%progbits
 2451              		.align	2
 2452              		.global	send_move
 2453              		.thumb
 2454              		.thumb_func
ARM GAS  C:\DOCUME~1\david\LOCALS~1\Temp\ccyMY81M.s 			page 58


 2455              		.type	send_move, %function
 2456              	send_move:
 2457              	.LFB46:
 728:.\main.c      **** 
 729:.\main.c      **** 
 730:.\main.c      **** 
 731:.\main.c      **** 
 732:.\main.c      **** void send_move ( uint8 row , uint8 col )  {
 2458              		.loc 1 732 0
 2459              		.cfi_startproc
 2460              		@ args = 0, pretend = 0, frame = 8
 2461              		@ frame_needed = 1, uses_anonymous_args = 0
 2462 0000 80B5     		push	{r7, lr}
 2463              	.LCFI49:
 2464              		.cfi_def_cfa_offset 8
 2465 0002 82B0     		sub	sp, sp, #8
 2466              	.LCFI50:
 2467              		.cfi_def_cfa_offset 16
 2468 0004 00AF     		add	r7, sp, #0
 2469              		.cfi_offset 14, -4
 2470              		.cfi_offset 7, -8
 2471              	.LCFI51:
 2472              		.cfi_def_cfa_register 7
 2473 0006 0246     		mov	r2, r0
 2474 0008 0B46     		mov	r3, r1
 2475 000a FA71     		strb	r2, [r7, #7]
 2476 000c BB71     		strb	r3, [r7, #6]
 733:.\main.c      ****     last_move.row = row;
 2477              		.loc 1 733 0
 2478 000e 40F20003 		movw	r3, #:lower16:last_move
 2479 0012 C0F20003 		movt	r3, #:upper16:last_move
 2480 0016 FA79     		ldrb	r2, [r7, #7]
 2481 0018 1A70     		strb	r2, [r3, #0]
 734:.\main.c      ****     last_move.col = col;
 2482              		.loc 1 734 0
 2483 001a 40F20003 		movw	r3, #:lower16:last_move
 2484 001e C0F20003 		movt	r3, #:upper16:last_move
 2485 0022 BA79     		ldrb	r2, [r7, #6]
 2486 0024 5A70     		strb	r2, [r3, #1]
 735:.\main.c      ****     send_packet(&last_move);
 2487              		.loc 1 735 0
 2488 0026 40F20000 		movw	r0, #:lower16:last_move
 2489 002a C0F20000 		movt	r0, #:upper16:last_move
 2490 002e FFF7FEFF 		bl	send_packet
 736:.\main.c      **** }
 2491              		.loc 1 736 0
 2492 0032 07F10807 		add	r7, r7, #8
 2493 0036 BD46     		mov	sp, r7
 2494 0038 80BD     		pop	{r7, pc}
 2495              		.cfi_endproc
 2496              	.LFE46:
 2497              		.size	send_move, .-send_move
 2498              		.section	.text.animate,"ax",%progbits
 2499              		.align	2
 2500              		.global	animate
 2501              		.thumb
 2502              		.thumb_func
ARM GAS  C:\DOCUME~1\david\LOCALS~1\Temp\ccyMY81M.s 			page 59


 2503              		.type	animate, %function
 2504              	animate:
 2505              	.LFB47:
 737:.\main.c      **** 
 738:.\main.c      **** 
 739:.\main.c      **** 
 740:.\main.c      **** 
 741:.\main.c      **** uint8 animate ( uint8 col ) {
 2506              		.loc 1 741 0
 2507              		.cfi_startproc
 2508              		@ args = 0, pretend = 0, frame = 16
 2509              		@ frame_needed = 1, uses_anonymous_args = 0
 2510 0000 80B5     		push	{r7, lr}
 2511              	.LCFI52:
 2512              		.cfi_def_cfa_offset 8
 2513 0002 84B0     		sub	sp, sp, #16
 2514              	.LCFI53:
 2515              		.cfi_def_cfa_offset 24
 2516 0004 00AF     		add	r7, sp, #0
 2517              		.cfi_offset 14, -4
 2518              		.cfi_offset 7, -8
 2519              	.LCFI54:
 2520              		.cfi_def_cfa_register 7
 2521 0006 0346     		mov	r3, r0
 2522 0008 FB71     		strb	r3, [r7, #7]
 742:.\main.c      ****     uint8 row;
 743:.\main.c      ****     for (row=1; row < MATRIX_ROWS ;++row) {
 2523              		.loc 1 743 0
 2524 000a 4FF00103 		mov	r3, #1
 2525 000e FB73     		strb	r3, [r7, #15]
 2526 0010 6CE0     		b	.L152
 2527              	.L158:
 744:.\main.c      ****         if (player1_turn) player1[row][col] = true;
 2528              		.loc 1 744 0
 2529 0012 40F20003 		movw	r3, #:lower16:player1_turn
 2530 0016 C0F20003 		movt	r3, #:upper16:player1_turn
 2531 001a 1B78     		ldrb	r3, [r3, #0]	@ zero_extendqisi2
 2532 001c 002B     		cmp	r3, #0
 2533 001e 0DD0     		beq	.L153
 2534 0020 F97B     		ldrb	r1, [r7, #15]	@ zero_extendqisi2
 2535 0022 FA79     		ldrb	r2, [r7, #7]	@ zero_extendqisi2
 2536 0024 40F20003 		movw	r3, #:lower16:player1
 2537 0028 C0F20003 		movt	r3, #:upper16:player1
 2538 002c 4FEAC101 		lsl	r1, r1, #3
 2539 0030 0A44     		add	r2, r1, r2
 2540 0032 1344     		add	r3, r2, r3
 2541 0034 4FF00102 		mov	r2, #1
 2542 0038 1A70     		strb	r2, [r3, #0]
 2543 003a 0CE0     		b	.L154
 2544              	.L153:
 745:.\main.c      ****         else              player2[row][col] = true;
 2545              		.loc 1 745 0
 2546 003c F97B     		ldrb	r1, [r7, #15]	@ zero_extendqisi2
 2547 003e FA79     		ldrb	r2, [r7, #7]	@ zero_extendqisi2
 2548 0040 40F20003 		movw	r3, #:lower16:player2
 2549 0044 C0F20003 		movt	r3, #:upper16:player2
 2550 0048 4FEAC101 		lsl	r1, r1, #3
ARM GAS  C:\DOCUME~1\david\LOCALS~1\Temp\ccyMY81M.s 			page 60


 2551 004c 0A44     		add	r2, r1, r2
 2552 004e 1344     		add	r3, r2, r3
 2553 0050 4FF00102 		mov	r2, #1
 2554 0054 1A70     		strb	r2, [r3, #0]
 2555              	.L154:
 746:.\main.c      ****         if (player1[row+1][col] || player2[row+1][col] || row+1 == MATRIX_ROWS) break;
 2556              		.loc 1 746 0
 2557 0056 FB7B     		ldrb	r3, [r7, #15]	@ zero_extendqisi2
 2558 0058 03F10101 		add	r1, r3, #1
 2559 005c FA79     		ldrb	r2, [r7, #7]	@ zero_extendqisi2
 2560 005e 40F20003 		movw	r3, #:lower16:player1
 2561 0062 C0F20003 		movt	r3, #:upper16:player1
 2562 0066 4FEAC101 		lsl	r1, r1, #3
 2563 006a 0A44     		add	r2, r1, r2
 2564 006c 1344     		add	r3, r2, r3
 2565 006e 1B78     		ldrb	r3, [r3, #0]	@ zero_extendqisi2
 2566 0070 002B     		cmp	r3, #0
 2567 0072 3ED1     		bne	.L155
 2568 0074 FB7B     		ldrb	r3, [r7, #15]	@ zero_extendqisi2
 2569 0076 03F10101 		add	r1, r3, #1
 2570 007a FA79     		ldrb	r2, [r7, #7]	@ zero_extendqisi2
 2571 007c 40F20003 		movw	r3, #:lower16:player2
 2572 0080 C0F20003 		movt	r3, #:upper16:player2
 2573 0084 4FEAC101 		lsl	r1, r1, #3
 2574 0088 0A44     		add	r2, r1, r2
 2575 008a 1344     		add	r3, r2, r3
 2576 008c 1B78     		ldrb	r3, [r3, #0]	@ zero_extendqisi2
 2577 008e 002B     		cmp	r3, #0
 2578 0090 2FD1     		bne	.L155
 2579 0092 FB7B     		ldrb	r3, [r7, #15]	@ zero_extendqisi2
 2580 0094 072B     		cmp	r3, #7
 2581 0096 2CD0     		beq	.L155
 747:.\main.c      ****         else CyDelay(20);
 2582              		.loc 1 747 0
 2583 0098 4FF01400 		mov	r0, #20
 2584 009c FFF7FEFF 		bl	CyDelay
 748:.\main.c      ****         if (player1_turn) player1[row][col] = false;
 2585              		.loc 1 748 0
 2586 00a0 40F20003 		movw	r3, #:lower16:player1_turn
 2587 00a4 C0F20003 		movt	r3, #:upper16:player1_turn
 2588 00a8 1B78     		ldrb	r3, [r3, #0]	@ zero_extendqisi2
 2589 00aa 002B     		cmp	r3, #0
 2590 00ac 0DD0     		beq	.L156
 2591 00ae F97B     		ldrb	r1, [r7, #15]	@ zero_extendqisi2
 2592 00b0 FA79     		ldrb	r2, [r7, #7]	@ zero_extendqisi2
 2593 00b2 40F20003 		movw	r3, #:lower16:player1
 2594 00b6 C0F20003 		movt	r3, #:upper16:player1
 2595 00ba 4FEAC101 		lsl	r1, r1, #3
 2596 00be 0A44     		add	r2, r1, r2
 2597 00c0 1344     		add	r3, r2, r3
 2598 00c2 4FF00002 		mov	r2, #0
 2599 00c6 1A70     		strb	r2, [r3, #0]
 2600 00c8 0CE0     		b	.L157
 2601              	.L156:
 749:.\main.c      ****         else              player2[row][col] = false;
 2602              		.loc 1 749 0
 2603 00ca F97B     		ldrb	r1, [r7, #15]	@ zero_extendqisi2
ARM GAS  C:\DOCUME~1\david\LOCALS~1\Temp\ccyMY81M.s 			page 61


 2604 00cc FA79     		ldrb	r2, [r7, #7]	@ zero_extendqisi2
 2605 00ce 40F20003 		movw	r3, #:lower16:player2
 2606 00d2 C0F20003 		movt	r3, #:upper16:player2
 2607 00d6 4FEAC101 		lsl	r1, r1, #3
 2608 00da 0A44     		add	r2, r1, r2
 2609 00dc 1344     		add	r3, r2, r3
 2610 00de 4FF00002 		mov	r2, #0
 2611 00e2 1A70     		strb	r2, [r3, #0]
 2612              	.L157:
 2613              		.loc 1 743 0
 2614 00e4 FB7B     		ldrb	r3, [r7, #15]
 2615 00e6 03F10103 		add	r3, r3, #1
 2616 00ea FB73     		strb	r3, [r7, #15]
 2617              	.L152:
 2618 00ec FB7B     		ldrb	r3, [r7, #15]	@ zero_extendqisi2
 2619 00ee 072B     		cmp	r3, #7
 2620 00f0 8FD9     		bls	.L158
 2621              	.L155:
 750:.\main.c      ****     }
 751:.\main.c      ****     return row;
 2622              		.loc 1 751 0
 2623 00f2 FB7B     		ldrb	r3, [r7, #15]	@ zero_extendqisi2
 752:.\main.c      **** }
 2624              		.loc 1 752 0
 2625 00f4 1846     		mov	r0, r3
 2626 00f6 07F11007 		add	r7, r7, #16
 2627 00fa BD46     		mov	sp, r7
 2628 00fc 80BD     		pop	{r7, pc}
 2629              		.cfi_endproc
 2630              	.LFE47:
 2631              		.size	animate, .-animate
 2632 00fe 00BF     		.section	.rodata
 2633 01a2 0000     		.align	2
 2634              	.LC41:
 2635 01a4 596F7520 		.ascii	"You win!\000"
 2635      77696E21 
 2635      00
 2636              		.section	.text.winner_check,"ax",%progbits
 2637              		.align	2
 2638              		.global	winner_check
 2639              		.thumb
 2640              		.thumb_func
 2641              		.type	winner_check, %function
 2642              	winner_check:
 2643              	.LFB48:
 753:.\main.c      **** 
 754:.\main.c      **** 
 755:.\main.c      **** 
 756:.\main.c      **** 
 757:.\main.c      **** void winner_check () {
 2644              		.loc 1 757 0
 2645              		.cfi_startproc
 2646              		@ args = 0, pretend = 0, frame = 16
 2647              		@ frame_needed = 1, uses_anonymous_args = 0
 2648 0000 80B5     		push	{r7, lr}
 2649              	.LCFI55:
 2650              		.cfi_def_cfa_offset 8
ARM GAS  C:\DOCUME~1\david\LOCALS~1\Temp\ccyMY81M.s 			page 62


 2651 0002 84B0     		sub	sp, sp, #16
 2652              	.LCFI56:
 2653              		.cfi_def_cfa_offset 24
 2654 0004 00AF     		add	r7, sp, #0
 2655              		.cfi_offset 14, -4
 2656              		.cfi_offset 7, -8
 2657              	.LCFI57:
 2658              		.cfi_def_cfa_register 7
 758:.\main.c      ****     uint8 row, col;
 759:.\main.c      ****     uint16 strobe = 100;
 2659              		.loc 1 759 0
 2660 0006 4FF06403 		mov	r3, #100
 2661 000a 7B80     		strh	r3, [r7, #2]	@ movhi
 760:.\main.c      ****     for (row=1; row < MATRIX_ROWS ;++row) {
 2662              		.loc 1 760 0
 2663 000c 4FF00103 		mov	r3, #1
 2664 0010 3B70     		strb	r3, [r7, #0]
 2665 0012 77E2     		b	.L161
 2666              	.L216:
 761:.\main.c      ****         for (col=0; col < MATRIX_COLS ;++col) {
 2667              		.loc 1 761 0
 2668 0014 4FF00003 		mov	r3, #0
 2669 0018 7B70     		strb	r3, [r7, #1]
 2670 001a 6BE2     		b	.L162
 2671              	.L215:
 2672              	.LBB8:
 762:.\main.c      ****             int offset;
 763:.\main.c      ****             
 764:.\main.c      ****             //vertical
 765:.\main.c      ****             if (row < MATRIX_ROWS-3) {
 2673              		.loc 1 765 0
 2674 001c 3B78     		ldrb	r3, [r7, #0]	@ zero_extendqisi2
 2675 001e 042B     		cmp	r3, #4
 2676 0020 00F29180 		bhi	.L163
 2677              	.LBB9:
 766:.\main.c      ****                 bool win = true;
 2678              		.loc 1 766 0
 2679 0024 4FF00103 		mov	r3, #1
 2680 0028 3B72     		strb	r3, [r7, #8]
 767:.\main.c      ****                 for (offset=0; win && offset < 4 ;++offset) {
 2681              		.loc 1 767 0
 2682 002a 4FF00003 		mov	r3, #0
 2683 002e 7B60     		str	r3, [r7, #4]
 2684 0030 39E0     		b	.L164
 2685              	.L169:
 768:.\main.c      ****                     if (player1_turn) { if (!player1[row+offset][col]) win = false; }
 2686              		.loc 1 768 0
 2687 0032 40F20003 		movw	r3, #:lower16:player1_turn
 2688 0036 C0F20003 		movt	r3, #:upper16:player1_turn
 2689 003a 1B78     		ldrb	r3, [r3, #0]	@ zero_extendqisi2
 2690 003c 002B     		cmp	r3, #0
 2691 003e 16D0     		beq	.L165
 2692 0040 3A78     		ldrb	r2, [r7, #0]	@ zero_extendqisi2
 2693 0042 7B68     		ldr	r3, [r7, #4]
 2694 0044 02EB0301 		add	r1, r2, r3
 2695 0048 7A78     		ldrb	r2, [r7, #1]	@ zero_extendqisi2
 2696 004a 40F20003 		movw	r3, #:lower16:player1
ARM GAS  C:\DOCUME~1\david\LOCALS~1\Temp\ccyMY81M.s 			page 63


 2697 004e C0F20003 		movt	r3, #:upper16:player1
 2698 0052 4FEAC101 		lsl	r1, r1, #3
 2699 0056 0A44     		add	r2, r1, r2
 2700 0058 1344     		add	r3, r2, r3
 2701 005a 1B78     		ldrb	r3, [r3, #0]	@ zero_extendqisi2
 2702 005c 83F00103 		eor	r3, r3, #1
 2703 0060 DBB2     		uxtb	r3, r3
 2704 0062 002B     		cmp	r3, #0
 2705 0064 1AD0     		beq	.L218
 2706 0066 4FF00003 		mov	r3, #0
 2707 006a 3B72     		strb	r3, [r7, #8]
 2708 006c 17E0     		b	.L167
 2709              	.L165:
 769:.\main.c      ****                     else              { if (!player2[row+offset][col]) win = false; }
 2710              		.loc 1 769 0
 2711 006e 3A78     		ldrb	r2, [r7, #0]	@ zero_extendqisi2
 2712 0070 7B68     		ldr	r3, [r7, #4]
 2713 0072 02EB0301 		add	r1, r2, r3
 2714 0076 7A78     		ldrb	r2, [r7, #1]	@ zero_extendqisi2
 2715 0078 40F20003 		movw	r3, #:lower16:player2
 2716 007c C0F20003 		movt	r3, #:upper16:player2
 2717 0080 4FEAC101 		lsl	r1, r1, #3
 2718 0084 0A44     		add	r2, r1, r2
 2719 0086 1344     		add	r3, r2, r3
 2720 0088 1B78     		ldrb	r3, [r3, #0]	@ zero_extendqisi2
 2721 008a 83F00103 		eor	r3, r3, #1
 2722 008e DBB2     		uxtb	r3, r3
 2723 0090 002B     		cmp	r3, #0
 2724 0092 04D0     		beq	.L167
 2725 0094 4FF00003 		mov	r3, #0
 2726 0098 3B72     		strb	r3, [r7, #8]
 2727 009a 00E0     		b	.L167
 2728              	.L218:
 2729              		.loc 1 768 0
 2730 009c 00BF     		nop
 2731              	.L167:
 2732              		.loc 1 767 0
 2733 009e 7B68     		ldr	r3, [r7, #4]
 2734 00a0 03F10103 		add	r3, r3, #1
 2735 00a4 7B60     		str	r3, [r7, #4]
 2736              	.L164:
 2737 00a6 3B7A     		ldrb	r3, [r7, #8]	@ zero_extendqisi2
 2738 00a8 002B     		cmp	r3, #0
 2739 00aa 02D0     		beq	.L168
 2740 00ac 7B68     		ldr	r3, [r7, #4]
 2741 00ae 032B     		cmp	r3, #3
 2742 00b0 BFDD     		ble	.L169
 2743              	.L168:
 770:.\main.c      ****                 }
 771:.\main.c      ****                 if (win) {
 2744              		.loc 1 771 0
 2745 00b2 3B7A     		ldrb	r3, [r7, #8]	@ zero_extendqisi2
 2746 00b4 002B     		cmp	r3, #0
 2747 00b6 46D0     		beq	.L163
 2748              	.LBB10:
 772:.\main.c      ****                     LCD_UpdateMessage("You win!");
 2749              		.loc 1 772 0
ARM GAS  C:\DOCUME~1\david\LOCALS~1\Temp\ccyMY81M.s 			page 64


 2750 00b8 40F20000 		movw	r0, #:lower16:.LC41
 2751 00bc C0F20000 		movt	r0, #:upper16:.LC41
 2752 00c0 FFF7FEFF 		bl	LCD_UpdateMessage
 773:.\main.c      ****                     bool blink = false;
 2753              		.loc 1 773 0
 2754 00c4 4FF00003 		mov	r3, #0
 2755 00c8 7B72     		strb	r3, [r7, #9]
 2756              	.L175:
 774:.\main.c      ****                     while (true) {
 775:.\main.c      ****                         for (offset=0; win && offset < 4 ;++offset) {
 2757              		.loc 1 775 0
 2758 00ca 4FF00003 		mov	r3, #0
 2759 00ce 7B60     		str	r3, [r7, #4]
 2760 00d0 29E0     		b	.L170
 2761              	.L174:
 776:.\main.c      ****                             if (player1_turn) player1[row+offset][col] = blink;
 2762              		.loc 1 776 0
 2763 00d2 40F20003 		movw	r3, #:lower16:player1_turn
 2764 00d6 C0F20003 		movt	r3, #:upper16:player1_turn
 2765 00da 1B78     		ldrb	r3, [r3, #0]	@ zero_extendqisi2
 2766 00dc 002B     		cmp	r3, #0
 2767 00de 0FD0     		beq	.L171
 2768 00e0 3A78     		ldrb	r2, [r7, #0]	@ zero_extendqisi2
 2769 00e2 7B68     		ldr	r3, [r7, #4]
 2770 00e4 02EB0301 		add	r1, r2, r3
 2771 00e8 7A78     		ldrb	r2, [r7, #1]	@ zero_extendqisi2
 2772 00ea 40F20003 		movw	r3, #:lower16:player1
 2773 00ee C0F20003 		movt	r3, #:upper16:player1
 2774 00f2 4FEAC101 		lsl	r1, r1, #3
 2775 00f6 0A44     		add	r2, r1, r2
 2776 00f8 1344     		add	r3, r2, r3
 2777 00fa 7A7A     		ldrb	r2, [r7, #9]
 2778 00fc 1A70     		strb	r2, [r3, #0]
 2779 00fe 0EE0     		b	.L172
 2780              	.L171:
 777:.\main.c      ****                             else              player2[row+offset][col] = blink;
 2781              		.loc 1 777 0
 2782 0100 3A78     		ldrb	r2, [r7, #0]	@ zero_extendqisi2
 2783 0102 7B68     		ldr	r3, [r7, #4]
 2784 0104 02EB0301 		add	r1, r2, r3
 2785 0108 7A78     		ldrb	r2, [r7, #1]	@ zero_extendqisi2
 2786 010a 40F20003 		movw	r3, #:lower16:player2
 2787 010e C0F20003 		movt	r3, #:upper16:player2
 2788 0112 4FEAC101 		lsl	r1, r1, #3
 2789 0116 0A44     		add	r2, r1, r2
 2790 0118 1344     		add	r3, r2, r3
 2791 011a 7A7A     		ldrb	r2, [r7, #9]
 2792 011c 1A70     		strb	r2, [r3, #0]
 2793              	.L172:
 2794              		.loc 1 775 0
 2795 011e 7B68     		ldr	r3, [r7, #4]
 2796 0120 03F10103 		add	r3, r3, #1
 2797 0124 7B60     		str	r3, [r7, #4]
 2798              	.L170:
 2799 0126 3B7A     		ldrb	r3, [r7, #8]	@ zero_extendqisi2
 2800 0128 002B     		cmp	r3, #0
 2801 012a 02D0     		beq	.L173
ARM GAS  C:\DOCUME~1\david\LOCALS~1\Temp\ccyMY81M.s 			page 65


 2802 012c 7B68     		ldr	r3, [r7, #4]
 2803 012e 032B     		cmp	r3, #3
 2804 0130 CFDD     		ble	.L174
 2805              	.L173:
 778:.\main.c      ****                         }
 779:.\main.c      ****                         CyDelay(strobe);
 2806              		.loc 1 779 0
 2807 0132 7B88     		ldrh	r3, [r7, #2]
 2808 0134 1846     		mov	r0, r3
 2809 0136 FFF7FEFF 		bl	CyDelay
 780:.\main.c      ****                         blink = !blink;
 2810              		.loc 1 780 0
 2811 013a 7B7A     		ldrb	r3, [r7, #9]
 2812 013c 83F00103 		eor	r3, r3, #1
 2813 0140 DBB2     		uxtb	r3, r3
 2814 0142 7B72     		strb	r3, [r7, #9]
 781:.\main.c      ****                     }
 2815              		.loc 1 781 0
 2816 0144 C1E7     		b	.L175
 2817              	.L163:
 2818              	.LBE10:
 2819              	.LBE9:
 782:.\main.c      ****                 }
 783:.\main.c      ****             }
 784:.\main.c      ****             
 785:.\main.c      ****             //lateral
 786:.\main.c      ****             if (col < MATRIX_COLS-3) {
 2820              		.loc 1 786 0
 2821 0146 7B78     		ldrb	r3, [r7, #1]	@ zero_extendqisi2
 2822 0148 042B     		cmp	r3, #4
 2823 014a 00F28D80 		bhi	.L176
 2824              	.LBB11:
 787:.\main.c      ****                 bool win = true;
 2825              		.loc 1 787 0
 2826 014e 4FF00103 		mov	r3, #1
 2827 0152 BB72     		strb	r3, [r7, #10]
 788:.\main.c      ****                 for (offset=0; win && offset < 4 ;++offset) {
 2828              		.loc 1 788 0
 2829 0154 4FF00003 		mov	r3, #0
 2830 0158 7B60     		str	r3, [r7, #4]
 2831 015a 37E0     		b	.L177
 2832              	.L182:
 789:.\main.c      ****                     if (player1_turn) { if (!player1[row][col+offset]) win = false; }
 2833              		.loc 1 789 0
 2834 015c 40F20003 		movw	r3, #:lower16:player1_turn
 2835 0160 C0F20003 		movt	r3, #:upper16:player1_turn
 2836 0164 1B78     		ldrb	r3, [r3, #0]	@ zero_extendqisi2
 2837 0166 002B     		cmp	r3, #0
 2838 0168 15D0     		beq	.L178
 2839 016a 3978     		ldrb	r1, [r7, #0]	@ zero_extendqisi2
 2840 016c 7A78     		ldrb	r2, [r7, #1]	@ zero_extendqisi2
 2841 016e 7B68     		ldr	r3, [r7, #4]
 2842 0170 1A44     		add	r2, r2, r3
 2843 0172 40F20003 		movw	r3, #:lower16:player1
 2844 0176 C0F20003 		movt	r3, #:upper16:player1
 2845 017a 4FEAC101 		lsl	r1, r1, #3
 2846 017e 0A44     		add	r2, r1, r2
ARM GAS  C:\DOCUME~1\david\LOCALS~1\Temp\ccyMY81M.s 			page 66


 2847 0180 1344     		add	r3, r2, r3
 2848 0182 1B78     		ldrb	r3, [r3, #0]	@ zero_extendqisi2
 2849 0184 83F00103 		eor	r3, r3, #1
 2850 0188 DBB2     		uxtb	r3, r3
 2851 018a 002B     		cmp	r3, #0
 2852 018c 19D0     		beq	.L219
 2853 018e 4FF00003 		mov	r3, #0
 2854 0192 BB72     		strb	r3, [r7, #10]
 2855 0194 16E0     		b	.L180
 2856              	.L178:
 790:.\main.c      ****                     else              { if (!player2[row][col+offset]) win = false; }
 2857              		.loc 1 790 0
 2858 0196 3978     		ldrb	r1, [r7, #0]	@ zero_extendqisi2
 2859 0198 7A78     		ldrb	r2, [r7, #1]	@ zero_extendqisi2
 2860 019a 7B68     		ldr	r3, [r7, #4]
 2861 019c 1A44     		add	r2, r2, r3
 2862 019e 40F20003 		movw	r3, #:lower16:player2
 2863 01a2 C0F20003 		movt	r3, #:upper16:player2
 2864 01a6 4FEAC101 		lsl	r1, r1, #3
 2865 01aa 0A44     		add	r2, r1, r2
 2866 01ac 1344     		add	r3, r2, r3
 2867 01ae 1B78     		ldrb	r3, [r3, #0]	@ zero_extendqisi2
 2868 01b0 83F00103 		eor	r3, r3, #1
 2869 01b4 DBB2     		uxtb	r3, r3
 2870 01b6 002B     		cmp	r3, #0
 2871 01b8 04D0     		beq	.L180
 2872 01ba 4FF00003 		mov	r3, #0
 2873 01be BB72     		strb	r3, [r7, #10]
 2874 01c0 00E0     		b	.L180
 2875              	.L219:
 2876              		.loc 1 789 0
 2877 01c2 00BF     		nop
 2878              	.L180:
 2879              		.loc 1 788 0
 2880 01c4 7B68     		ldr	r3, [r7, #4]
 2881 01c6 03F10103 		add	r3, r3, #1
 2882 01ca 7B60     		str	r3, [r7, #4]
 2883              	.L177:
 2884 01cc BB7A     		ldrb	r3, [r7, #10]	@ zero_extendqisi2
 2885 01ce 002B     		cmp	r3, #0
 2886 01d0 02D0     		beq	.L181
 2887 01d2 7B68     		ldr	r3, [r7, #4]
 2888 01d4 032B     		cmp	r3, #3
 2889 01d6 C1DD     		ble	.L182
 2890              	.L181:
 791:.\main.c      ****                 }
 792:.\main.c      ****                 if (win) {
 2891              		.loc 1 792 0
 2892 01d8 BB7A     		ldrb	r3, [r7, #10]	@ zero_extendqisi2
 2893 01da 002B     		cmp	r3, #0
 2894 01dc 44D0     		beq	.L176
 2895              	.LBB12:
 793:.\main.c      ****                     LCD_UpdateMessage("You win!");
 2896              		.loc 1 793 0
 2897 01de 40F20000 		movw	r0, #:lower16:.LC41
 2898 01e2 C0F20000 		movt	r0, #:upper16:.LC41
 2899 01e6 FFF7FEFF 		bl	LCD_UpdateMessage
ARM GAS  C:\DOCUME~1\david\LOCALS~1\Temp\ccyMY81M.s 			page 67


 794:.\main.c      ****                     bool blink = false;
 2900              		.loc 1 794 0
 2901 01ea 4FF00003 		mov	r3, #0
 2902 01ee FB72     		strb	r3, [r7, #11]
 2903              	.L188:
 795:.\main.c      ****                     while (true) {
 796:.\main.c      ****                         for (offset=0; win && offset < 4 ;++offset) {
 2904              		.loc 1 796 0
 2905 01f0 4FF00003 		mov	r3, #0
 2906 01f4 7B60     		str	r3, [r7, #4]
 2907 01f6 27E0     		b	.L183
 2908              	.L187:
 797:.\main.c      ****                             if (player1_turn) player1[row][col+offset] = blink;
 2909              		.loc 1 797 0
 2910 01f8 40F20003 		movw	r3, #:lower16:player1_turn
 2911 01fc C0F20003 		movt	r3, #:upper16:player1_turn
 2912 0200 1B78     		ldrb	r3, [r3, #0]	@ zero_extendqisi2
 2913 0202 002B     		cmp	r3, #0
 2914 0204 0ED0     		beq	.L184
 2915 0206 3978     		ldrb	r1, [r7, #0]	@ zero_extendqisi2
 2916 0208 7A78     		ldrb	r2, [r7, #1]	@ zero_extendqisi2
 2917 020a 7B68     		ldr	r3, [r7, #4]
 2918 020c 1A44     		add	r2, r2, r3
 2919 020e 40F20003 		movw	r3, #:lower16:player1
 2920 0212 C0F20003 		movt	r3, #:upper16:player1
 2921 0216 4FEAC101 		lsl	r1, r1, #3
 2922 021a 0A44     		add	r2, r1, r2
 2923 021c 1344     		add	r3, r2, r3
 2924 021e FA7A     		ldrb	r2, [r7, #11]
 2925 0220 1A70     		strb	r2, [r3, #0]
 2926 0222 0DE0     		b	.L185
 2927              	.L184:
 798:.\main.c      ****                             else              player2[row][col+offset] = blink;
 2928              		.loc 1 798 0
 2929 0224 3978     		ldrb	r1, [r7, #0]	@ zero_extendqisi2
 2930 0226 7A78     		ldrb	r2, [r7, #1]	@ zero_extendqisi2
 2931 0228 7B68     		ldr	r3, [r7, #4]
 2932 022a 1A44     		add	r2, r2, r3
 2933 022c 40F20003 		movw	r3, #:lower16:player2
 2934 0230 C0F20003 		movt	r3, #:upper16:player2
 2935 0234 4FEAC101 		lsl	r1, r1, #3
 2936 0238 0A44     		add	r2, r1, r2
 2937 023a 1344     		add	r3, r2, r3
 2938 023c FA7A     		ldrb	r2, [r7, #11]
 2939 023e 1A70     		strb	r2, [r3, #0]
 2940              	.L185:
 2941              		.loc 1 796 0
 2942 0240 7B68     		ldr	r3, [r7, #4]
 2943 0242 03F10103 		add	r3, r3, #1
 2944 0246 7B60     		str	r3, [r7, #4]
 2945              	.L183:
 2946 0248 BB7A     		ldrb	r3, [r7, #10]	@ zero_extendqisi2
 2947 024a 002B     		cmp	r3, #0
 2948 024c 02D0     		beq	.L186
 2949 024e 7B68     		ldr	r3, [r7, #4]
 2950 0250 032B     		cmp	r3, #3
 2951 0252 D1DD     		ble	.L187
ARM GAS  C:\DOCUME~1\david\LOCALS~1\Temp\ccyMY81M.s 			page 68


 2952              	.L186:
 799:.\main.c      ****                         }
 800:.\main.c      ****                         CyDelay(strobe);
 2953              		.loc 1 800 0
 2954 0254 7B88     		ldrh	r3, [r7, #2]
 2955 0256 1846     		mov	r0, r3
 2956 0258 FFF7FEFF 		bl	CyDelay
 801:.\main.c      ****                         blink = !blink;
 2957              		.loc 1 801 0
 2958 025c FB7A     		ldrb	r3, [r7, #11]
 2959 025e 83F00103 		eor	r3, r3, #1
 2960 0262 DBB2     		uxtb	r3, r3
 2961 0264 FB72     		strb	r3, [r7, #11]
 802:.\main.c      ****                     }
 2962              		.loc 1 802 0
 2963 0266 C3E7     		b	.L188
 2964              	.L176:
 2965              	.LBE12:
 2966              	.LBE11:
 803:.\main.c      ****                 }
 804:.\main.c      ****             }
 805:.\main.c      ****             
 806:.\main.c      ****             //down-diagonal
 807:.\main.c      ****             if (row < MATRIX_ROWS-3 && col < MATRIX_COLS-3) {
 2967              		.loc 1 807 0
 2968 0268 3B78     		ldrb	r3, [r7, #0]	@ zero_extendqisi2
 2969 026a 042B     		cmp	r3, #4
 2970 026c 00F29D80 		bhi	.L189
 2971 0270 7B78     		ldrb	r3, [r7, #1]	@ zero_extendqisi2
 2972 0272 042B     		cmp	r3, #4
 2973 0274 00F29980 		bhi	.L189
 2974              	.LBB13:
 808:.\main.c      ****                 bool win = true;
 2975              		.loc 1 808 0
 2976 0278 4FF00103 		mov	r3, #1
 2977 027c 3B73     		strb	r3, [r7, #12]
 809:.\main.c      ****                 for (offset=0; win && offset < 4 ;++offset) {
 2978              		.loc 1 809 0
 2979 027e 4FF00003 		mov	r3, #0
 2980 0282 7B60     		str	r3, [r7, #4]
 2981 0284 3DE0     		b	.L190
 2982              	.L195:
 810:.\main.c      ****                     if (player1_turn) { if (!player1[row+offset][col+offset]) win = false; }
 2983              		.loc 1 810 0
 2984 0286 40F20003 		movw	r3, #:lower16:player1_turn
 2985 028a C0F20003 		movt	r3, #:upper16:player1_turn
 2986 028e 1B78     		ldrb	r3, [r3, #0]	@ zero_extendqisi2
 2987 0290 002B     		cmp	r3, #0
 2988 0292 18D0     		beq	.L191
 2989 0294 3A78     		ldrb	r2, [r7, #0]	@ zero_extendqisi2
 2990 0296 7B68     		ldr	r3, [r7, #4]
 2991 0298 02EB0301 		add	r1, r2, r3
 2992 029c 7A78     		ldrb	r2, [r7, #1]	@ zero_extendqisi2
 2993 029e 7B68     		ldr	r3, [r7, #4]
 2994 02a0 1A44     		add	r2, r2, r3
 2995 02a2 40F20003 		movw	r3, #:lower16:player1
 2996 02a6 C0F20003 		movt	r3, #:upper16:player1
ARM GAS  C:\DOCUME~1\david\LOCALS~1\Temp\ccyMY81M.s 			page 69


 2997 02aa 4FEAC101 		lsl	r1, r1, #3
 2998 02ae 0A44     		add	r2, r1, r2
 2999 02b0 1344     		add	r3, r2, r3
 3000 02b2 1B78     		ldrb	r3, [r3, #0]	@ zero_extendqisi2
 3001 02b4 83F00103 		eor	r3, r3, #1
 3002 02b8 DBB2     		uxtb	r3, r3
 3003 02ba 002B     		cmp	r3, #0
 3004 02bc 1CD0     		beq	.L220
 3005 02be 4FF00003 		mov	r3, #0
 3006 02c2 3B73     		strb	r3, [r7, #12]
 3007 02c4 19E0     		b	.L193
 3008              	.L191:
 811:.\main.c      ****                     else              { if (!player2[row+offset][col+offset]) win = false; }
 3009              		.loc 1 811 0
 3010 02c6 3A78     		ldrb	r2, [r7, #0]	@ zero_extendqisi2
 3011 02c8 7B68     		ldr	r3, [r7, #4]
 3012 02ca 02EB0301 		add	r1, r2, r3
 3013 02ce 7A78     		ldrb	r2, [r7, #1]	@ zero_extendqisi2
 3014 02d0 7B68     		ldr	r3, [r7, #4]
 3015 02d2 1A44     		add	r2, r2, r3
 3016 02d4 40F20003 		movw	r3, #:lower16:player2
 3017 02d8 C0F20003 		movt	r3, #:upper16:player2
 3018 02dc 4FEAC101 		lsl	r1, r1, #3
 3019 02e0 0A44     		add	r2, r1, r2
 3020 02e2 1344     		add	r3, r2, r3
 3021 02e4 1B78     		ldrb	r3, [r3, #0]	@ zero_extendqisi2
 3022 02e6 83F00103 		eor	r3, r3, #1
 3023 02ea DBB2     		uxtb	r3, r3
 3024 02ec 002B     		cmp	r3, #0
 3025 02ee 04D0     		beq	.L193
 3026 02f0 4FF00003 		mov	r3, #0
 3027 02f4 3B73     		strb	r3, [r7, #12]
 3028 02f6 00E0     		b	.L193
 3029              	.L220:
 3030              		.loc 1 810 0
 3031 02f8 00BF     		nop
 3032              	.L193:
 3033              		.loc 1 809 0
 3034 02fa 7B68     		ldr	r3, [r7, #4]
 3035 02fc 03F10103 		add	r3, r3, #1
 3036 0300 7B60     		str	r3, [r7, #4]
 3037              	.L190:
 3038 0302 3B7B     		ldrb	r3, [r7, #12]	@ zero_extendqisi2
 3039 0304 002B     		cmp	r3, #0
 3040 0306 02D0     		beq	.L194
 3041 0308 7B68     		ldr	r3, [r7, #4]
 3042 030a 032B     		cmp	r3, #3
 3043 030c BBDD     		ble	.L195
 3044              	.L194:
 812:.\main.c      ****                 }
 813:.\main.c      ****                 if (win) {
 3045              		.loc 1 813 0
 3046 030e 3B7B     		ldrb	r3, [r7, #12]	@ zero_extendqisi2
 3047 0310 002B     		cmp	r3, #0
 3048 0312 4AD0     		beq	.L189
 3049              	.LBB14:
 814:.\main.c      ****                     LCD_UpdateMessage("You win!");
ARM GAS  C:\DOCUME~1\david\LOCALS~1\Temp\ccyMY81M.s 			page 70


 3050              		.loc 1 814 0
 3051 0314 40F20000 		movw	r0, #:lower16:.LC41
 3052 0318 C0F20000 		movt	r0, #:upper16:.LC41
 3053 031c FFF7FEFF 		bl	LCD_UpdateMessage
 815:.\main.c      ****                     bool blink = false;
 3054              		.loc 1 815 0
 3055 0320 4FF00003 		mov	r3, #0
 3056 0324 7B73     		strb	r3, [r7, #13]
 3057              	.L201:
 816:.\main.c      ****                     while (true) {
 817:.\main.c      ****                         for (offset=0; win && offset < 4 ;++offset) {
 3058              		.loc 1 817 0
 3059 0326 4FF00003 		mov	r3, #0
 3060 032a 7B60     		str	r3, [r7, #4]
 3061 032c 2DE0     		b	.L196
 3062              	.L200:
 818:.\main.c      ****                             if (player1_turn) player1[row+offset][col+offset] = blink;
 3063              		.loc 1 818 0
 3064 032e 40F20003 		movw	r3, #:lower16:player1_turn
 3065 0332 C0F20003 		movt	r3, #:upper16:player1_turn
 3066 0336 1B78     		ldrb	r3, [r3, #0]	@ zero_extendqisi2
 3067 0338 002B     		cmp	r3, #0
 3068 033a 11D0     		beq	.L197
 3069 033c 3A78     		ldrb	r2, [r7, #0]	@ zero_extendqisi2
 3070 033e 7B68     		ldr	r3, [r7, #4]
 3071 0340 02EB0301 		add	r1, r2, r3
 3072 0344 7A78     		ldrb	r2, [r7, #1]	@ zero_extendqisi2
 3073 0346 7B68     		ldr	r3, [r7, #4]
 3074 0348 1A44     		add	r2, r2, r3
 3075 034a 40F20003 		movw	r3, #:lower16:player1
 3076 034e C0F20003 		movt	r3, #:upper16:player1
 3077 0352 4FEAC101 		lsl	r1, r1, #3
 3078 0356 0A44     		add	r2, r1, r2
 3079 0358 1344     		add	r3, r2, r3
 3080 035a 7A7B     		ldrb	r2, [r7, #13]
 3081 035c 1A70     		strb	r2, [r3, #0]
 3082 035e 10E0     		b	.L198
 3083              	.L197:
 819:.\main.c      ****                             else              player2[row+offset][col+offset] = blink;
 3084              		.loc 1 819 0
 3085 0360 3A78     		ldrb	r2, [r7, #0]	@ zero_extendqisi2
 3086 0362 7B68     		ldr	r3, [r7, #4]
 3087 0364 02EB0301 		add	r1, r2, r3
 3088 0368 7A78     		ldrb	r2, [r7, #1]	@ zero_extendqisi2
 3089 036a 7B68     		ldr	r3, [r7, #4]
 3090 036c 1A44     		add	r2, r2, r3
 3091 036e 40F20003 		movw	r3, #:lower16:player2
 3092 0372 C0F20003 		movt	r3, #:upper16:player2
 3093 0376 4FEAC101 		lsl	r1, r1, #3
 3094 037a 0A44     		add	r2, r1, r2
 3095 037c 1344     		add	r3, r2, r3
 3096 037e 7A7B     		ldrb	r2, [r7, #13]
 3097 0380 1A70     		strb	r2, [r3, #0]
 3098              	.L198:
 3099              		.loc 1 817 0
 3100 0382 7B68     		ldr	r3, [r7, #4]
 3101 0384 03F10103 		add	r3, r3, #1
ARM GAS  C:\DOCUME~1\david\LOCALS~1\Temp\ccyMY81M.s 			page 71


 3102 0388 7B60     		str	r3, [r7, #4]
 3103              	.L196:
 3104 038a 3B7B     		ldrb	r3, [r7, #12]	@ zero_extendqisi2
 3105 038c 002B     		cmp	r3, #0
 3106 038e 02D0     		beq	.L199
 3107 0390 7B68     		ldr	r3, [r7, #4]
 3108 0392 032B     		cmp	r3, #3
 3109 0394 CBDD     		ble	.L200
 3110              	.L199:
 820:.\main.c      ****                         }
 821:.\main.c      ****                         CyDelay(strobe);
 3111              		.loc 1 821 0
 3112 0396 7B88     		ldrh	r3, [r7, #2]
 3113 0398 1846     		mov	r0, r3
 3114 039a FFF7FEFF 		bl	CyDelay
 822:.\main.c      ****                         blink = !blink;
 3115              		.loc 1 822 0
 3116 039e 7B7B     		ldrb	r3, [r7, #13]
 3117 03a0 83F00103 		eor	r3, r3, #1
 3118 03a4 DBB2     		uxtb	r3, r3
 3119 03a6 7B73     		strb	r3, [r7, #13]
 823:.\main.c      ****                     }
 3120              		.loc 1 823 0
 3121 03a8 BDE7     		b	.L201
 3122              	.L189:
 3123              	.LBE14:
 3124              	.LBE13:
 824:.\main.c      ****                 }
 825:.\main.c      ****             }
 826:.\main.c      ****             
 827:.\main.c      ****             //up-diagonal
 828:.\main.c      ****             if (row > 3 && col < MATRIX_COLS-3) {
 3125              		.loc 1 828 0
 3126 03aa 3B78     		ldrb	r3, [r7, #0]	@ zero_extendqisi2
 3127 03ac 032B     		cmp	r3, #3
 3128 03ae 40F29D80 		bls	.L202
 3129 03b2 7B78     		ldrb	r3, [r7, #1]	@ zero_extendqisi2
 3130 03b4 042B     		cmp	r3, #4
 3131 03b6 00F29980 		bhi	.L202
 3132              	.LBB15:
 829:.\main.c      ****                 bool win = true;
 3133              		.loc 1 829 0
 3134 03ba 4FF00103 		mov	r3, #1
 3135 03be BB73     		strb	r3, [r7, #14]
 830:.\main.c      ****                 for (offset=0; win && offset < 4 ;++offset) {
 3136              		.loc 1 830 0
 3137 03c0 4FF00003 		mov	r3, #0
 3138 03c4 7B60     		str	r3, [r7, #4]
 3139 03c6 3DE0     		b	.L203
 3140              	.L208:
 831:.\main.c      ****                     if (player1_turn) { if (!player1[row-offset][col+offset]) win = false; }
 3141              		.loc 1 831 0
 3142 03c8 40F20003 		movw	r3, #:lower16:player1_turn
 3143 03cc C0F20003 		movt	r3, #:upper16:player1_turn
 3144 03d0 1B78     		ldrb	r3, [r3, #0]	@ zero_extendqisi2
 3145 03d2 002B     		cmp	r3, #0
 3146 03d4 18D0     		beq	.L204
ARM GAS  C:\DOCUME~1\david\LOCALS~1\Temp\ccyMY81M.s 			page 72


 3147 03d6 3A78     		ldrb	r2, [r7, #0]	@ zero_extendqisi2
 3148 03d8 7B68     		ldr	r3, [r7, #4]
 3149 03da C3EB0201 		rsb	r1, r3, r2
 3150 03de 7A78     		ldrb	r2, [r7, #1]	@ zero_extendqisi2
 3151 03e0 7B68     		ldr	r3, [r7, #4]
 3152 03e2 1A44     		add	r2, r2, r3
 3153 03e4 40F20003 		movw	r3, #:lower16:player1
 3154 03e8 C0F20003 		movt	r3, #:upper16:player1
 3155 03ec 4FEAC101 		lsl	r1, r1, #3
 3156 03f0 0A44     		add	r2, r1, r2
 3157 03f2 1344     		add	r3, r2, r3
 3158 03f4 1B78     		ldrb	r3, [r3, #0]	@ zero_extendqisi2
 3159 03f6 83F00103 		eor	r3, r3, #1
 3160 03fa DBB2     		uxtb	r3, r3
 3161 03fc 002B     		cmp	r3, #0
 3162 03fe 1CD0     		beq	.L221
 3163 0400 4FF00003 		mov	r3, #0
 3164 0404 BB73     		strb	r3, [r7, #14]
 3165 0406 19E0     		b	.L206
 3166              	.L204:
 832:.\main.c      ****                     else              { if (!player2[row-offset][col+offset]) win = false; }
 3167              		.loc 1 832 0
 3168 0408 3A78     		ldrb	r2, [r7, #0]	@ zero_extendqisi2
 3169 040a 7B68     		ldr	r3, [r7, #4]
 3170 040c C3EB0201 		rsb	r1, r3, r2
 3171 0410 7A78     		ldrb	r2, [r7, #1]	@ zero_extendqisi2
 3172 0412 7B68     		ldr	r3, [r7, #4]
 3173 0414 1A44     		add	r2, r2, r3
 3174 0416 40F20003 		movw	r3, #:lower16:player2
 3175 041a C0F20003 		movt	r3, #:upper16:player2
 3176 041e 4FEAC101 		lsl	r1, r1, #3
 3177 0422 0A44     		add	r2, r1, r2
 3178 0424 1344     		add	r3, r2, r3
 3179 0426 1B78     		ldrb	r3, [r3, #0]	@ zero_extendqisi2
 3180 0428 83F00103 		eor	r3, r3, #1
 3181 042c DBB2     		uxtb	r3, r3
 3182 042e 002B     		cmp	r3, #0
 3183 0430 04D0     		beq	.L206
 3184 0432 4FF00003 		mov	r3, #0
 3185 0436 BB73     		strb	r3, [r7, #14]
 3186 0438 00E0     		b	.L206
 3187              	.L221:
 3188              		.loc 1 831 0
 3189 043a 00BF     		nop
 3190              	.L206:
 3191              		.loc 1 830 0
 3192 043c 7B68     		ldr	r3, [r7, #4]
 3193 043e 03F10103 		add	r3, r3, #1
 3194 0442 7B60     		str	r3, [r7, #4]
 3195              	.L203:
 3196 0444 BB7B     		ldrb	r3, [r7, #14]	@ zero_extendqisi2
 3197 0446 002B     		cmp	r3, #0
 3198 0448 02D0     		beq	.L207
 3199 044a 7B68     		ldr	r3, [r7, #4]
 3200 044c 032B     		cmp	r3, #3
 3201 044e BBDD     		ble	.L208
 3202              	.L207:
ARM GAS  C:\DOCUME~1\david\LOCALS~1\Temp\ccyMY81M.s 			page 73


 833:.\main.c      ****                 }
 834:.\main.c      ****                 if (win) {
 3203              		.loc 1 834 0
 3204 0450 BB7B     		ldrb	r3, [r7, #14]	@ zero_extendqisi2
 3205 0452 002B     		cmp	r3, #0
 3206 0454 4AD0     		beq	.L202
 3207              	.LBB16:
 835:.\main.c      ****                     LCD_UpdateMessage("You win!");
 3208              		.loc 1 835 0
 3209 0456 40F20000 		movw	r0, #:lower16:.LC41
 3210 045a C0F20000 		movt	r0, #:upper16:.LC41
 3211 045e FFF7FEFF 		bl	LCD_UpdateMessage
 836:.\main.c      ****                     bool blink = false;
 3212              		.loc 1 836 0
 3213 0462 4FF00003 		mov	r3, #0
 3214 0466 FB73     		strb	r3, [r7, #15]
 3215              	.L214:
 837:.\main.c      ****                     while (true) {
 838:.\main.c      ****                         for (offset=0; win && offset < 4 ;++offset) {
 3216              		.loc 1 838 0
 3217 0468 4FF00003 		mov	r3, #0
 3218 046c 7B60     		str	r3, [r7, #4]
 3219 046e 2DE0     		b	.L209
 3220              	.L213:
 839:.\main.c      ****                             if (player1_turn) player1[row-offset][col+offset] = blink;
 3221              		.loc 1 839 0
 3222 0470 40F20003 		movw	r3, #:lower16:player1_turn
 3223 0474 C0F20003 		movt	r3, #:upper16:player1_turn
 3224 0478 1B78     		ldrb	r3, [r3, #0]	@ zero_extendqisi2
 3225 047a 002B     		cmp	r3, #0
 3226 047c 11D0     		beq	.L210
 3227 047e 3A78     		ldrb	r2, [r7, #0]	@ zero_extendqisi2
 3228 0480 7B68     		ldr	r3, [r7, #4]
 3229 0482 C3EB0201 		rsb	r1, r3, r2
 3230 0486 7A78     		ldrb	r2, [r7, #1]	@ zero_extendqisi2
 3231 0488 7B68     		ldr	r3, [r7, #4]
 3232 048a 1A44     		add	r2, r2, r3
 3233 048c 40F20003 		movw	r3, #:lower16:player1
 3234 0490 C0F20003 		movt	r3, #:upper16:player1
 3235 0494 4FEAC101 		lsl	r1, r1, #3
 3236 0498 0A44     		add	r2, r1, r2
 3237 049a 1344     		add	r3, r2, r3
 3238 049c FA7B     		ldrb	r2, [r7, #15]
 3239 049e 1A70     		strb	r2, [r3, #0]
 3240 04a0 10E0     		b	.L211
 3241              	.L210:
 840:.\main.c      ****                             else              player2[row-offset][col+offset] = blink;
 3242              		.loc 1 840 0
 3243 04a2 3A78     		ldrb	r2, [r7, #0]	@ zero_extendqisi2
 3244 04a4 7B68     		ldr	r3, [r7, #4]
 3245 04a6 C3EB0201 		rsb	r1, r3, r2
 3246 04aa 7A78     		ldrb	r2, [r7, #1]	@ zero_extendqisi2
 3247 04ac 7B68     		ldr	r3, [r7, #4]
 3248 04ae 1A44     		add	r2, r2, r3
 3249 04b0 40F20003 		movw	r3, #:lower16:player2
 3250 04b4 C0F20003 		movt	r3, #:upper16:player2
 3251 04b8 4FEAC101 		lsl	r1, r1, #3
ARM GAS  C:\DOCUME~1\david\LOCALS~1\Temp\ccyMY81M.s 			page 74


 3252 04bc 0A44     		add	r2, r1, r2
 3253 04be 1344     		add	r3, r2, r3
 3254 04c0 FA7B     		ldrb	r2, [r7, #15]
 3255 04c2 1A70     		strb	r2, [r3, #0]
 3256              	.L211:
 3257              		.loc 1 838 0
 3258 04c4 7B68     		ldr	r3, [r7, #4]
 3259 04c6 03F10103 		add	r3, r3, #1
 3260 04ca 7B60     		str	r3, [r7, #4]
 3261              	.L209:
 3262 04cc BB7B     		ldrb	r3, [r7, #14]	@ zero_extendqisi2
 3263 04ce 002B     		cmp	r3, #0
 3264 04d0 02D0     		beq	.L212
 3265 04d2 7B68     		ldr	r3, [r7, #4]
 3266 04d4 032B     		cmp	r3, #3
 3267 04d6 CBDD     		ble	.L213
 3268              	.L212:
 841:.\main.c      ****                         }
 842:.\main.c      ****                         CyDelay(strobe);
 3269              		.loc 1 842 0
 3270 04d8 7B88     		ldrh	r3, [r7, #2]
 3271 04da 1846     		mov	r0, r3
 3272 04dc FFF7FEFF 		bl	CyDelay
 843:.\main.c      ****                         blink = !blink;
 3273              		.loc 1 843 0
 3274 04e0 FB7B     		ldrb	r3, [r7, #15]
 3275 04e2 83F00103 		eor	r3, r3, #1
 3276 04e6 DBB2     		uxtb	r3, r3
 3277 04e8 FB73     		strb	r3, [r7, #15]
 844:.\main.c      ****                     }
 3278              		.loc 1 844 0
 3279 04ea BDE7     		b	.L214
 3280              	.L202:
 3281              	.LBE16:
 3282              	.LBE15:
 3283              	.LBE8:
 3284              		.loc 1 761 0
 3285 04ec 7B78     		ldrb	r3, [r7, #1]
 3286 04ee 03F10103 		add	r3, r3, #1
 3287 04f2 7B70     		strb	r3, [r7, #1]
 3288              	.L162:
 3289 04f4 7B78     		ldrb	r3, [r7, #1]	@ zero_extendqisi2
 3290 04f6 072B     		cmp	r3, #7
 3291 04f8 7FF690AD 		bls	.L215
 3292              		.loc 1 760 0
 3293 04fc 3B78     		ldrb	r3, [r7, #0]
 3294 04fe 03F10103 		add	r3, r3, #1
 3295 0502 3B70     		strb	r3, [r7, #0]
 3296              	.L161:
 3297 0504 3B78     		ldrb	r3, [r7, #0]	@ zero_extendqisi2
 3298 0506 072B     		cmp	r3, #7
 3299 0508 7FF684AD 		bls	.L216
 845:.\main.c      ****                 }
 846:.\main.c      ****             }  
 847:.\main.c      ****         }
 848:.\main.c      ****     }
 849:.\main.c      **** }
ARM GAS  C:\DOCUME~1\david\LOCALS~1\Temp\ccyMY81M.s 			page 75


 3300              		.loc 1 849 0
 3301 050c 07F11007 		add	r7, r7, #16
 3302 0510 BD46     		mov	sp, r7
 3303 0512 80BD     		pop	{r7, pc}
 3304              		.cfi_endproc
 3305              	.LFE48:
 3306              		.size	winner_check, .-winner_check
 3307              		.section	.rodata
 3308 01ad 000000   		.align	2
 3309              	.LC42:
 3310 01b0 636C6561 		.ascii	"cleaning...\000"
 3310      6E696E67 
 3310      2E2E2E00 
 3311              		.section	.text.cleanup,"ax",%progbits
 3312              		.align	2
 3313              		.global	cleanup
 3314              		.thumb
 3315              		.thumb_func
 3316              		.type	cleanup, %function
 3317              	cleanup:
 3318              	.LFB49:
 850:.\main.c      **** 
 851:.\main.c      **** 
 852:.\main.c      **** 
 853:.\main.c      **** 
 854:.\main.c      **** void cleanup () {
 3319              		.loc 1 854 0
 3320              		.cfi_startproc
 3321              		@ args = 0, pretend = 0, frame = 0
 3322              		@ frame_needed = 1, uses_anonymous_args = 0
 3323 0000 80B5     		push	{r7, lr}
 3324              	.LCFI58:
 3325              		.cfi_def_cfa_offset 8
 3326 0002 00AF     		add	r7, sp, #0
 3327              		.cfi_offset 14, -4
 3328              		.cfi_offset 7, -8
 3329              	.LCFI59:
 3330              		.cfi_def_cfa_register 7
 855:.\main.c      ****     LCD_UpdateStatus("cleaning...");
 3331              		.loc 1 855 0
 3332 0004 40F20000 		movw	r0, #:lower16:.LC42
 3333 0008 C0F20000 		movt	r0, #:upper16:.LC42
 3334 000c FFF7FEFF 		bl	LCD_UpdateStatus
 856:.\main.c      ****     
 857:.\main.c      ****     LCD_UpdateMessage("display");
 3335              		.loc 1 857 0
 3336 0010 40F20000 		movw	r0, #:lower16:.LC26
 3337 0014 C0F20000 		movt	r0, #:upper16:.LC26
 3338 0018 FFF7FEFF 		bl	LCD_UpdateMessage
 858:.\main.c      ****     Beam_Stop();
 3339              		.loc 1 858 0
 3340 001c FFF7FEFF 		bl	Beam_Stop
 859:.\main.c      ****     
 860:.\main.c      ****     if (!player2_local) {
 3341              		.loc 1 860 0
 3342 0020 40F20003 		movw	r3, #:lower16:player2_local
 3343 0024 C0F20003 		movt	r3, #:upper16:player2_local
ARM GAS  C:\DOCUME~1\david\LOCALS~1\Temp\ccyMY81M.s 			page 76


 3344 0028 1B78     		ldrb	r3, [r3, #0]	@ zero_extendqisi2
 3345 002a 83F00103 		eor	r3, r3, #1
 3346 002e DBB2     		uxtb	r3, r3
 3347 0030 002B     		cmp	r3, #0
 3348 0032 07D0     		beq	.L223
 861:.\main.c      ****         LCD_UpdateMessage("UART");
 3349              		.loc 1 861 0
 3350 0034 40F20000 		movw	r0, #:lower16:.LC24
 3351 0038 C0F20000 		movt	r0, #:upper16:.LC24
 3352 003c FFF7FEFF 		bl	LCD_UpdateMessage
 862:.\main.c      ****         UART_Stop();
 3353              		.loc 1 862 0
 3354 0040 FFF7FEFF 		bl	UART_Stop
 3355              	.L223:
 863:.\main.c      ****     }
 864:.\main.c      ****     
 865:.\main.c      ****     LCD_UpdateMessage("CapSense");
 3356              		.loc 1 865 0
 3357 0044 40F20000 		movw	r0, #:lower16:.LC20
 3358 0048 C0F20000 		movt	r0, #:upper16:.LC20
 3359 004c FFF7FEFF 		bl	LCD_UpdateMessage
 866:.\main.c      ****     CapSense_Stop();
 3360              		.loc 1 866 0
 3361 0050 FFF7FEFF 		bl	CapSense_Stop
 867:.\main.c      ****     
 868:.\main.c      ****     LCD_UpdateMessage("timer");
 3362              		.loc 1 868 0
 3363 0054 40F20000 		movw	r0, #:lower16:.LC19
 3364 0058 C0F20000 		movt	r0, #:upper16:.LC19
 3365 005c FFF7FEFF 		bl	LCD_UpdateMessage
 869:.\main.c      ****     Timer_Stop();
 3366              		.loc 1 869 0
 3367 0060 FFF7FEFF 		bl	Timer_Stop
 870:.\main.c      ****     
 871:.\main.c      ****     LCD_UpdateMessage("matrix");
 3368              		.loc 1 871 0
 3369 0064 40F20000 		movw	r0, #:lower16:.LC17
 3370 0068 C0F20000 		movt	r0, #:upper16:.LC17
 3371 006c FFF7FEFF 		bl	LCD_UpdateMessage
 872:.\main.c      ****     matrix_deluminate();
 3372              		.loc 1 872 0
 3373 0070 FFF7FEFF 		bl	matrix_deluminate
 873:.\main.c      ****     
 874:.\main.c      ****     LCD_UpdateMessage("board");
 3374              		.loc 1 874 0
 3375 0074 40F20000 		movw	r0, #:lower16:.LC16
 3376 0078 C0F20000 		movt	r0, #:upper16:.LC16
 3377 007c FFF7FEFF 		bl	LCD_UpdateMessage
 875:.\main.c      ****     clear_board();
 3378              		.loc 1 875 0
 3379 0080 FFF7FEFF 		bl	clear_board
 876:.\main.c      ****     
 877:.\main.c      ****     LCD_Stop();
 3380              		.loc 1 877 0
 3381 0084 FFF7FEFF 		bl	LCD_Stop
 878:.\main.c      **** }
 3382              		.loc 1 878 0
ARM GAS  C:\DOCUME~1\david\LOCALS~1\Temp\ccyMY81M.s 			page 77


 3383 0088 80BD     		pop	{r7, pc}
 3384              		.cfi_endproc
 3385              	.LFE49:
 3386              		.size	cleanup, .-cleanup
 3387 008a 00BF     		.text
 3388              	.Letext0: