ARM GAS  C:\DOCUME~1\david\LOCALS~1\Temp\ccrGklkU.s 			page 1


   1              		.syntax unified
   2              		.cpu cortex-m3
   3              		.fpu softvfp
   4              		.eabi_attribute 20, 1
   5              		.eabi_attribute 21, 1
   6              		.eabi_attribute 23, 3
   7              		.eabi_attribute 24, 1
   8              		.eabi_attribute 25, 1
   9              		.eabi_attribute 26, 1
  10              		.eabi_attribute 30, 6
  11              		.eabi_attribute 18, 4
  12              		.thumb
  13              		.file	"matrix.c"
  14              		.section	.debug_abbrev,"",%progbits
  15              	.Ldebug_abbrev0:
  16              		.section	.debug_info,"",%progbits
  17              	.Ldebug_info0:
  18              		.section	.debug_line,"",%progbits
  19              	.Ldebug_line0:
  20 0000 F6000000 		.text
  20      02005500 
  20      00000201 
  20      FB0E0D00 
  20      01010101 
  21              	.Ltext0:
  22              		.cfi_sections	.debug_frame
  23              		.section	.rodata
  24              		.align	2
  25              	.LC0:
  26 0000 6572726F 		.ascii	"error\000"
  26      7200
  27 0006 0000     		.align	2
  28              	.LC1:
  29 0008 636F6C6F 		.ascii	"color mismatch\000"
  29      72206D69 
  29      736D6174 
  29      636800
  30              		.section	.text.matrix_illuminate,"ax",%progbits
  31              		.align	2
  32              		.global	matrix_illuminate
  33              		.thumb
  34              		.thumb_func
  35              		.type	matrix_illuminate, %function
  36              	matrix_illuminate:
  37              	.LFB29:
  38              		.file 1 ".\\matrix.c"
   1:.\matrix.c    **** #include <device.h>
   2:.\matrix.c    **** #include <stdbool.h>
   3:.\matrix.c    **** #include <display.h>
   4:.\matrix.c    **** #include <matrix.h>
   5:.\matrix.c    **** 
   6:.\matrix.c    **** 
   7:.\matrix.c    **** 
   8:.\matrix.c    **** 
   9:.\matrix.c    **** void matrix_illuminate ( int row , int col , uint8 color ) {
  39              		.loc 1 9 0
  40              		.cfi_startproc
ARM GAS  C:\DOCUME~1\david\LOCALS~1\Temp\ccrGklkU.s 			page 2


  41              		@ args = 0, pretend = 0, frame = 32
  42              		@ frame_needed = 1, uses_anonymous_args = 0
  43 0000 80B5     		push	{r7, lr}
  44              	.LCFI0:
  45              		.cfi_def_cfa_offset 8
  46 0002 88B0     		sub	sp, sp, #32
  47              	.LCFI1:
  48              		.cfi_def_cfa_offset 40
  49 0004 00AF     		add	r7, sp, #0
  50              		.cfi_offset 14, -4
  51              		.cfi_offset 7, -8
  52              	.LCFI2:
  53              		.cfi_def_cfa_register 7
  54 0006 F860     		str	r0, [r7, #12]
  55 0008 B960     		str	r1, [r7, #8]
  56 000a 1346     		mov	r3, r2
  57 000c FB71     		strb	r3, [r7, #7]
  10:.\matrix.c    ****     uint8 off = 0x00, on = 0x01;
  58              		.loc 1 10 0
  59 000e 4FF00003 		mov	r3, #0
  60 0012 BB74     		strb	r3, [r7, #18]
  61 0014 4FF00103 		mov	r3, #1
  62 0018 FB74     		strb	r3, [r7, #19]
  63              	.LBB2:
  11:.\matrix.c    ****     if (SERIAL) {
  12:.\matrix.c    ****         uint8 rows = 0b00000001 << row;
  64              		.loc 1 12 0
  65 001a 4FF00102 		mov	r2, #1
  66 001e FB68     		ldr	r3, [r7, #12]
  67 0020 02FA03F3 		lsl	r3, r2, r3
  68 0024 3B75     		strb	r3, [r7, #20]
  13:.\matrix.c    ****         uint8 reds = 0b00000001;
  69              		.loc 1 13 0
  70 0026 4FF00103 		mov	r3, #1
  71 002a 7B75     		strb	r3, [r7, #21]
  14:.\matrix.c    ****         uint8 grns = 0b00000001;
  72              		.loc 1 14 0
  73 002c 4FF00103 		mov	r3, #1
  74 0030 BB75     		strb	r3, [r7, #22]
  15:.\matrix.c    ****         uint8 blus = 0b00000001;
  75              		.loc 1 15 0
  76 0032 4FF00103 		mov	r3, #1
  77 0036 FB75     		strb	r3, [r7, #23]
  16:.\matrix.c    ****         switch (color) {
  78              		.loc 1 16 0
  79 0038 FB79     		ldrb	r3, [r7, #7]	@ zero_extendqisi2
  80 003a 03F1FF33 		add	r3, r3, #-1
  81 003e 062B     		cmp	r3, #6
  82 0040 65D8     		bhi	.L2
  83 0042 01A2     		adr	r2, .L10
  84 0044 52F823F0 		ldr	pc, [r2, r3, lsl #2]
  85              		.align	2
  86              	.L10:
  87 0048 65000000 		.word	.L3+1
  88 004c 79000000 		.word	.L4+1
  89 0050 8D000000 		.word	.L5+1
  90 0054 A7000000 		.word	.L6+1
ARM GAS  C:\DOCUME~1\david\LOCALS~1\Temp\ccrGklkU.s 			page 3


  91 0058 BB000000 		.word	.L7+1
  92 005c D5000000 		.word	.L8+1
  93 0060 EF000000 		.word	.L9+1
  94              	.L3:
  17:.\matrix.c    ****             case RED:     reds <<= col;
  95              		.loc 1 17 0
  96 0064 7A7D     		ldrb	r2, [r7, #21]	@ zero_extendqisi2
  97 0066 BB68     		ldr	r3, [r7, #8]
  98 0068 02FA03F3 		lsl	r3, r2, r3
  99 006c 7B75     		strb	r3, [r7, #21]
  18:.\matrix.c    ****                           grns   = off;
 100              		.loc 1 18 0
 101 006e BB7C     		ldrb	r3, [r7, #18]
 102 0070 BB75     		strb	r3, [r7, #22]
  19:.\matrix.c    ****                           blus   = off; break;
 103              		.loc 1 19 0
 104 0072 BB7C     		ldrb	r3, [r7, #18]
 105 0074 FB75     		strb	r3, [r7, #23]
 106 0076 56E0     		b	.L11
 107              	.L4:
  20:.\matrix.c    ****             case GREEN:   reds   = off;
 108              		.loc 1 20 0
 109 0078 BB7C     		ldrb	r3, [r7, #18]
 110 007a 7B75     		strb	r3, [r7, #21]
  21:.\matrix.c    ****                           grns <<= col;
 111              		.loc 1 21 0
 112 007c BA7D     		ldrb	r2, [r7, #22]	@ zero_extendqisi2
 113 007e BB68     		ldr	r3, [r7, #8]
 114 0080 02FA03F3 		lsl	r3, r2, r3
 115 0084 BB75     		strb	r3, [r7, #22]
  22:.\matrix.c    ****                           blus   = off; break;
 116              		.loc 1 22 0
 117 0086 BB7C     		ldrb	r3, [r7, #18]
 118 0088 FB75     		strb	r3, [r7, #23]
 119 008a 4CE0     		b	.L11
 120              	.L5:
  23:.\matrix.c    ****             case YELLOW:  reds <<= col;
 121              		.loc 1 23 0
 122 008c 7A7D     		ldrb	r2, [r7, #21]	@ zero_extendqisi2
 123 008e BB68     		ldr	r3, [r7, #8]
 124 0090 02FA03F3 		lsl	r3, r2, r3
 125 0094 7B75     		strb	r3, [r7, #21]
  24:.\matrix.c    ****                           grns <<= col;
 126              		.loc 1 24 0
 127 0096 BA7D     		ldrb	r2, [r7, #22]	@ zero_extendqisi2
 128 0098 BB68     		ldr	r3, [r7, #8]
 129 009a 02FA03F3 		lsl	r3, r2, r3
 130 009e BB75     		strb	r3, [r7, #22]
  25:.\matrix.c    ****                           blus   = off; break;
 131              		.loc 1 25 0
 132 00a0 BB7C     		ldrb	r3, [r7, #18]
 133 00a2 FB75     		strb	r3, [r7, #23]
 134 00a4 3FE0     		b	.L11
 135              	.L6:
  26:.\matrix.c    ****             case BLUE:    reds   = off;
 136              		.loc 1 26 0
 137 00a6 BB7C     		ldrb	r3, [r7, #18]
ARM GAS  C:\DOCUME~1\david\LOCALS~1\Temp\ccrGklkU.s 			page 4


 138 00a8 7B75     		strb	r3, [r7, #21]
  27:.\matrix.c    ****                           grns   = off;
 139              		.loc 1 27 0
 140 00aa BB7C     		ldrb	r3, [r7, #18]
 141 00ac BB75     		strb	r3, [r7, #22]
  28:.\matrix.c    ****                           blus <<= col; break;
 142              		.loc 1 28 0
 143 00ae FA7D     		ldrb	r2, [r7, #23]	@ zero_extendqisi2
 144 00b0 BB68     		ldr	r3, [r7, #8]
 145 00b2 02FA03F3 		lsl	r3, r2, r3
 146 00b6 FB75     		strb	r3, [r7, #23]
 147 00b8 35E0     		b	.L11
 148              	.L7:
  29:.\matrix.c    ****             case MAGENTA: reds <<= col;
 149              		.loc 1 29 0
 150 00ba 7A7D     		ldrb	r2, [r7, #21]	@ zero_extendqisi2
 151 00bc BB68     		ldr	r3, [r7, #8]
 152 00be 02FA03F3 		lsl	r3, r2, r3
 153 00c2 7B75     		strb	r3, [r7, #21]
  30:.\matrix.c    ****                           grns   = off;
 154              		.loc 1 30 0
 155 00c4 BB7C     		ldrb	r3, [r7, #18]
 156 00c6 BB75     		strb	r3, [r7, #22]
  31:.\matrix.c    ****                           blus <<= col; break;
 157              		.loc 1 31 0
 158 00c8 FA7D     		ldrb	r2, [r7, #23]	@ zero_extendqisi2
 159 00ca BB68     		ldr	r3, [r7, #8]
 160 00cc 02FA03F3 		lsl	r3, r2, r3
 161 00d0 FB75     		strb	r3, [r7, #23]
 162 00d2 28E0     		b	.L11
 163              	.L8:
  32:.\matrix.c    ****             case CYAN:    reds   = off;
 164              		.loc 1 32 0
 165 00d4 BB7C     		ldrb	r3, [r7, #18]
 166 00d6 7B75     		strb	r3, [r7, #21]
  33:.\matrix.c    ****                           grns <<= col;
 167              		.loc 1 33 0
 168 00d8 BA7D     		ldrb	r2, [r7, #22]	@ zero_extendqisi2
 169 00da BB68     		ldr	r3, [r7, #8]
 170 00dc 02FA03F3 		lsl	r3, r2, r3
 171 00e0 BB75     		strb	r3, [r7, #22]
  34:.\matrix.c    ****                           blus <<= col; break;
 172              		.loc 1 34 0
 173 00e2 FA7D     		ldrb	r2, [r7, #23]	@ zero_extendqisi2
 174 00e4 BB68     		ldr	r3, [r7, #8]
 175 00e6 02FA03F3 		lsl	r3, r2, r3
 176 00ea FB75     		strb	r3, [r7, #23]
 177 00ec 1BE0     		b	.L11
 178              	.L9:
  35:.\matrix.c    ****             case WHITE:   reds <<= col;
 179              		.loc 1 35 0
 180 00ee 7A7D     		ldrb	r2, [r7, #21]	@ zero_extendqisi2
 181 00f0 BB68     		ldr	r3, [r7, #8]
 182 00f2 02FA03F3 		lsl	r3, r2, r3
 183 00f6 7B75     		strb	r3, [r7, #21]
  36:.\matrix.c    ****                           grns <<= col;
 184              		.loc 1 36 0
ARM GAS  C:\DOCUME~1\david\LOCALS~1\Temp\ccrGklkU.s 			page 5


 185 00f8 BA7D     		ldrb	r2, [r7, #22]	@ zero_extendqisi2
 186 00fa BB68     		ldr	r3, [r7, #8]
 187 00fc 02FA03F3 		lsl	r3, r2, r3
 188 0100 BB75     		strb	r3, [r7, #22]
  37:.\matrix.c    ****                           blus <<= col; break;
 189              		.loc 1 37 0
 190 0102 FA7D     		ldrb	r2, [r7, #23]	@ zero_extendqisi2
 191 0104 BB68     		ldr	r3, [r7, #8]
 192 0106 02FA03F3 		lsl	r3, r2, r3
 193 010a FB75     		strb	r3, [r7, #23]
 194 010c 0BE0     		b	.L11
 195              	.L2:
  38:.\matrix.c    ****             
  39:.\matrix.c    ****             default: LCD_UpdateStatus("error");
 196              		.loc 1 39 0
 197 010e 40F20000 		movw	r0, #:lower16:.LC0
 198 0112 C0F20000 		movt	r0, #:upper16:.LC0
 199 0116 FFF7FEFF 		bl	LCD_UpdateStatus
  40:.\matrix.c    ****                      LCD_UpdateMessage("color mismatch");
 200              		.loc 1 40 0
 201 011a 40F20000 		movw	r0, #:lower16:.LC1
 202 011e C0F20000 		movt	r0, #:upper16:.LC1
 203 0122 FFF7FEFF 		bl	LCD_UpdateMessage
 204              	.L11:
  41:.\matrix.c    ****         }
  42:.\matrix.c    ****         
  43:.\matrix.c    ****         rows = ~rows;
 205              		.loc 1 43 0
 206 0126 3B7D     		ldrb	r3, [r7, #20]
 207 0128 6FEA0303 		mvn	r3, r3
 208 012c 3B75     		strb	r3, [r7, #20]
  44:.\matrix.c    ****         reds = ~reds;
 209              		.loc 1 44 0
 210 012e 7B7D     		ldrb	r3, [r7, #21]
 211 0130 6FEA0303 		mvn	r3, r3
 212 0134 7B75     		strb	r3, [r7, #21]
  45:.\matrix.c    ****         grns = ~grns;
 213              		.loc 1 45 0
 214 0136 BB7D     		ldrb	r3, [r7, #22]
 215 0138 6FEA0303 		mvn	r3, r3
 216 013c BB75     		strb	r3, [r7, #22]
  46:.\matrix.c    ****         blus = ~blus;
 217              		.loc 1 46 0
 218 013e FB7D     		ldrb	r3, [r7, #23]
 219 0140 6FEA0303 		mvn	r3, r3
 220 0144 FB75     		strb	r3, [r7, #23]
  47:.\matrix.c    ****         
  48:.\matrix.c    ****         Colors_Write(off);
 221              		.loc 1 48 0
 222 0146 BB7C     		ldrb	r3, [r7, #18]	@ zero_extendqisi2
 223 0148 1846     		mov	r0, r3
 224 014a FFF7FEFF 		bl	Colors_Write
  49:.\matrix.c    ****         int i;
  50:.\matrix.c    ****         for (i=0; i < 8 ;++i) {
 225              		.loc 1 50 0
 226 014e 4FF00003 		mov	r3, #0
 227 0152 BB61     		str	r3, [r7, #24]
ARM GAS  C:\DOCUME~1\david\LOCALS~1\Temp\ccrGklkU.s 			page 6


 228 0154 4BE0     		b	.L12
 229              	.L21:
  51:.\matrix.c    ****             Row_Write(  (rows & (0b10000000 >> i)) ? on : off);
 230              		.loc 1 51 0
 231 0156 3A7D     		ldrb	r2, [r7, #20]	@ zero_extendqisi2
 232 0158 4FF08001 		mov	r1, #128
 233 015c BB69     		ldr	r3, [r7, #24]
 234 015e 41FA03F3 		asr	r3, r1, r3
 235 0162 02EA0303 		and	r3, r2, r3
 236 0166 002B     		cmp	r3, #0
 237 0168 01D0     		beq	.L13
 238 016a FB7C     		ldrb	r3, [r7, #19]	@ zero_extendqisi2
 239 016c 00E0     		b	.L14
 240              	.L13:
 241 016e BB7C     		ldrb	r3, [r7, #18]	@ zero_extendqisi2
 242              	.L14:
 243 0170 1846     		mov	r0, r3
 244 0172 FFF7FEFF 		bl	Row_Write
  52:.\matrix.c    ****             Red_Write(  (reds & (0b10000000 >> i)) ? on : off);
 245              		.loc 1 52 0
 246 0176 7A7D     		ldrb	r2, [r7, #21]	@ zero_extendqisi2
 247 0178 4FF08001 		mov	r1, #128
 248 017c BB69     		ldr	r3, [r7, #24]
 249 017e 41FA03F3 		asr	r3, r1, r3
 250 0182 02EA0303 		and	r3, r2, r3
 251 0186 002B     		cmp	r3, #0
 252 0188 01D0     		beq	.L15
 253 018a FB7C     		ldrb	r3, [r7, #19]	@ zero_extendqisi2
 254 018c 00E0     		b	.L16
 255              	.L15:
 256 018e BB7C     		ldrb	r3, [r7, #18]	@ zero_extendqisi2
 257              	.L16:
 258 0190 1846     		mov	r0, r3
 259 0192 FFF7FEFF 		bl	Red_Write
  53:.\matrix.c    ****             Green_Write((grns & (0b10000000 >> i)) ? on : off);
 260              		.loc 1 53 0
 261 0196 BA7D     		ldrb	r2, [r7, #22]	@ zero_extendqisi2
 262 0198 4FF08001 		mov	r1, #128
 263 019c BB69     		ldr	r3, [r7, #24]
 264 019e 41FA03F3 		asr	r3, r1, r3
 265 01a2 02EA0303 		and	r3, r2, r3
 266 01a6 002B     		cmp	r3, #0
 267 01a8 01D0     		beq	.L17
 268 01aa FB7C     		ldrb	r3, [r7, #19]	@ zero_extendqisi2
 269 01ac 00E0     		b	.L18
 270              	.L17:
 271 01ae BB7C     		ldrb	r3, [r7, #18]	@ zero_extendqisi2
 272              	.L18:
 273 01b0 1846     		mov	r0, r3
 274 01b2 FFF7FEFF 		bl	Green_Write
  54:.\matrix.c    ****             Blue_Write( (blus & (0b10000000 >> i)) ? on : off);
 275              		.loc 1 54 0
 276 01b6 FA7D     		ldrb	r2, [r7, #23]	@ zero_extendqisi2
 277 01b8 4FF08001 		mov	r1, #128
 278 01bc BB69     		ldr	r3, [r7, #24]
 279 01be 41FA03F3 		asr	r3, r1, r3
 280 01c2 02EA0303 		and	r3, r2, r3
ARM GAS  C:\DOCUME~1\david\LOCALS~1\Temp\ccrGklkU.s 			page 7


 281 01c6 002B     		cmp	r3, #0
 282 01c8 01D0     		beq	.L19
 283 01ca FB7C     		ldrb	r3, [r7, #19]	@ zero_extendqisi2
 284 01cc 00E0     		b	.L20
 285              	.L19:
 286 01ce BB7C     		ldrb	r3, [r7, #18]	@ zero_extendqisi2
 287              	.L20:
 288 01d0 1846     		mov	r0, r3
 289 01d2 FFF7FEFF 		bl	Blue_Write
  55:.\matrix.c    ****             
  56:.\matrix.c    ****             //generate a rising edge
  57:.\matrix.c    ****             Shifter_Write(on);
 290              		.loc 1 57 0
 291 01d6 FB7C     		ldrb	r3, [r7, #19]	@ zero_extendqisi2
 292 01d8 1846     		mov	r0, r3
 293 01da FFF7FEFF 		bl	Shifter_Write
  58:.\matrix.c    ****             Shifter_Write(off);
 294              		.loc 1 58 0
 295 01de BB7C     		ldrb	r3, [r7, #18]	@ zero_extendqisi2
 296 01e0 1846     		mov	r0, r3
 297 01e2 FFF7FEFF 		bl	Shifter_Write
 298              		.loc 1 50 0
 299 01e6 BB69     		ldr	r3, [r7, #24]
 300 01e8 03F10103 		add	r3, r3, #1
 301 01ec BB61     		str	r3, [r7, #24]
 302              	.L12:
 303 01ee BB69     		ldr	r3, [r7, #24]
 304 01f0 072B     		cmp	r3, #7
 305 01f2 B0DD     		ble	.L21
  59:.\matrix.c    ****         }
  60:.\matrix.c    ****         Colors_Write(on);
 306              		.loc 1 60 0
 307 01f4 FB7C     		ldrb	r3, [r7, #19]	@ zero_extendqisi2
 308 01f6 1846     		mov	r0, r3
 309 01f8 FFF7FEFF 		bl	Colors_Write
 310              	.LBE2:
  61:.\matrix.c    ****     }
  62:.\matrix.c    ****     else {
  63:.\matrix.c    ****         uint8 r = on, c = on;
  64:.\matrix.c    ****         while (row-- > 0) r *= 2;
  65:.\matrix.c    ****         Row_Write(r);
  66:.\matrix.c    ****         while (col-- > 0) c *= 2;
  67:.\matrix.c    ****         switch (color) {
  68:.\matrix.c    ****             case RED:       Red_Write(c); break;
  69:.\matrix.c    ****             case GREEN:   Green_Write(c); break;
  70:.\matrix.c    ****             case YELLOW:    Red_Write(c);
  71:.\matrix.c    ****                           Green_Write(c); break;
  72:.\matrix.c    ****             case BLUE:     Blue_Write(c); break;
  73:.\matrix.c    ****             case MAGENTA:   Red_Write(c);
  74:.\matrix.c    ****                            Blue_Write(c); break;
  75:.\matrix.c    ****             case CYAN:    Green_Write(c);
  76:.\matrix.c    ****                            Blue_Write(c); break;
  77:.\matrix.c    ****             case WHITE:     Red_Write(c);
  78:.\matrix.c    ****                           Green_Write(c);
  79:.\matrix.c    ****                            Blue_Write(c); break;
  80:.\matrix.c    ****             
  81:.\matrix.c    ****             default: LCD_UpdateStatus("error");
ARM GAS  C:\DOCUME~1\david\LOCALS~1\Temp\ccrGklkU.s 			page 8


  82:.\matrix.c    ****                      LCD_UpdateMessage("color mismatch");
  83:.\matrix.c    ****                      while(true);
  84:.\matrix.c    ****                      break;
  85:.\matrix.c    ****         }
  86:.\matrix.c    ****     }
  87:.\matrix.c    **** }
 311              		.loc 1 87 0
 312 01fc 07F12007 		add	r7, r7, #32
 313 0200 BD46     		mov	sp, r7
 314 0202 80BD     		pop	{r7, pc}
 315              		.cfi_endproc
 316              	.LFE29:
 317              		.size	matrix_illuminate, .-matrix_illuminate
 318              		.section	.text.matrix_deluminate,"ax",%progbits
 319              		.align	2
 320              		.global	matrix_deluminate
 321              		.thumb
 322              		.thumb_func
 323              		.type	matrix_deluminate, %function
 324              	matrix_deluminate:
 325              	.LFB30:
  88:.\matrix.c    **** 
  89:.\matrix.c    **** 
  90:.\matrix.c    **** 
  91:.\matrix.c    **** 
  92:.\matrix.c    **** void matrix_deluminate () {
 326              		.loc 1 92 0
 327              		.cfi_startproc
 328              		@ args = 0, pretend = 0, frame = 8
 329              		@ frame_needed = 1, uses_anonymous_args = 0
 330 0000 80B5     		push	{r7, lr}
 331              	.LCFI3:
 332              		.cfi_def_cfa_offset 8
 333 0002 82B0     		sub	sp, sp, #8
 334              	.LCFI4:
 335              		.cfi_def_cfa_offset 16
 336 0004 00AF     		add	r7, sp, #0
 337              		.cfi_offset 14, -4
 338              		.cfi_offset 7, -8
 339              	.LCFI5:
 340              		.cfi_def_cfa_register 7
  93:.\matrix.c    ****     uint8 off = 0x00, on = 0x01;
 341              		.loc 1 93 0
 342 0006 4FF00003 		mov	r3, #0
 343 000a BB70     		strb	r3, [r7, #2]
 344 000c 4FF00103 		mov	r3, #1
 345 0010 FB70     		strb	r3, [r7, #3]
 346              	.LBB3:
  94:.\matrix.c    ****     if (SERIAL) {
  95:.\matrix.c    ****         Colors_Write(off);
 347              		.loc 1 95 0
 348 0012 BB78     		ldrb	r3, [r7, #2]	@ zero_extendqisi2
 349 0014 1846     		mov	r0, r3
 350 0016 FFF7FEFF 		bl	Colors_Write
  96:.\matrix.c    ****         int i;
  97:.\matrix.c    ****         for (i=0; i < 8 ;++i) {
 351              		.loc 1 97 0
ARM GAS  C:\DOCUME~1\david\LOCALS~1\Temp\ccrGklkU.s 			page 9


 352 001a 4FF00003 		mov	r3, #0
 353 001e 7B60     		str	r3, [r7, #4]
 354 0020 1BE0     		b	.L24
 355              	.L25:
  98:.\matrix.c    ****             Row_Write(0xFF);
 356              		.loc 1 98 0
 357 0022 4FF0FF00 		mov	r0, #255
 358 0026 FFF7FEFF 		bl	Row_Write
  99:.\matrix.c    ****             Red_Write(0xFF);
 359              		.loc 1 99 0
 360 002a 4FF0FF00 		mov	r0, #255
 361 002e FFF7FEFF 		bl	Red_Write
 100:.\matrix.c    ****             Green_Write(0xFF);
 362              		.loc 1 100 0
 363 0032 4FF0FF00 		mov	r0, #255
 364 0036 FFF7FEFF 		bl	Green_Write
 101:.\matrix.c    ****             Blue_Write(0xFF);
 365              		.loc 1 101 0
 366 003a 4FF0FF00 		mov	r0, #255
 367 003e FFF7FEFF 		bl	Blue_Write
 102:.\matrix.c    ****             
 103:.\matrix.c    ****             //generate a rising edge
 104:.\matrix.c    ****             Shifter_Write(on);
 368              		.loc 1 104 0
 369 0042 FB78     		ldrb	r3, [r7, #3]	@ zero_extendqisi2
 370 0044 1846     		mov	r0, r3
 371 0046 FFF7FEFF 		bl	Shifter_Write
 105:.\matrix.c    ****             Shifter_Write(off);
 372              		.loc 1 105 0
 373 004a BB78     		ldrb	r3, [r7, #2]	@ zero_extendqisi2
 374 004c 1846     		mov	r0, r3
 375 004e FFF7FEFF 		bl	Shifter_Write
 376              		.loc 1 97 0
 377 0052 7B68     		ldr	r3, [r7, #4]
 378 0054 03F10103 		add	r3, r3, #1
 379 0058 7B60     		str	r3, [r7, #4]
 380              	.L24:
 381 005a 7B68     		ldr	r3, [r7, #4]
 382 005c 072B     		cmp	r3, #7
 383 005e E0DD     		ble	.L25
 106:.\matrix.c    ****         }
 107:.\matrix.c    ****         Colors_Write(on);
 384              		.loc 1 107 0
 385 0060 FB78     		ldrb	r3, [r7, #3]	@ zero_extendqisi2
 386 0062 1846     		mov	r0, r3
 387 0064 FFF7FEFF 		bl	Colors_Write
 388              	.LBE3:
 108:.\matrix.c    ****     }
 109:.\matrix.c    ****     else {
 110:.\matrix.c    ****         Row_Write(off);
 111:.\matrix.c    ****         Red_Write(off);
 112:.\matrix.c    ****         Green_Write(off);
 113:.\matrix.c    ****         Blue_Write(off);
 114:.\matrix.c    ****     }
 115:.\matrix.c    **** }
 389              		.loc 1 115 0
 390 0068 07F10807 		add	r7, r7, #8
ARM GAS  C:\DOCUME~1\david\LOCALS~1\Temp\ccrGklkU.s 			page 10


 391 006c BD46     		mov	sp, r7
 392 006e 80BD     		pop	{r7, pc}
 393              		.cfi_endproc
 394              	.LFE30:
 395              		.size	matrix_deluminate, .-matrix_deluminate
 396              		.section	.rodata
 397 0017 00       		.align	2
 398              	.LC2:
 399 0018 20202020 		.ascii	"       \000"
 399      20202000 
 400              		.align	2
 401              	.LC3:
 402 0020 52656400 		.ascii	"Red\000"
 403              		.align	2
 404              	.LC4:
 405 0024 47726565 		.ascii	"Green\000"
 405      6E00
 406 002a 0000     		.align	2
 407              	.LC5:
 408 002c 59656C6C 		.ascii	"Yellow\000"
 408      6F7700
 409 0033 00       		.align	2
 410              	.LC6:
 411 0034 426C7565 		.ascii	"Blue\000"
 411      00
 412 0039 000000   		.align	2
 413              	.LC7:
 414 003c 4D616765 		.ascii	"Magenta\000"
 414      6E746100 
 415              		.align	2
 416              	.LC8:
 417 0044 4379616E 		.ascii	"Cyan\000"
 417      00
 418 0049 000000   		.align	2
 419              	.LC9:
 420 004c 57686974 		.ascii	"White\000"
 420      6500
 421 0052 0000     		.section	.text.matrix_test,"ax",%progbits
 422              		.align	2
 423              		.global	matrix_test
 424              		.thumb
 425              		.thumb_func
 426              		.type	matrix_test, %function
 427              	matrix_test:
 428              	.LFB31:
 116:.\matrix.c    **** 
 117:.\matrix.c    **** 
 118:.\matrix.c    **** 
 119:.\matrix.c    **** 
 120:.\matrix.c    **** void matrix_test ( bool extended , bool slow ) {
 429              		.loc 1 120 0
 430              		.cfi_startproc
 431              		@ args = 0, pretend = 0, frame = 16
 432              		@ frame_needed = 1, uses_anonymous_args = 0
 433 0000 80B5     		push	{r7, lr}
 434              	.LCFI6:
 435              		.cfi_def_cfa_offset 8
ARM GAS  C:\DOCUME~1\david\LOCALS~1\Temp\ccrGklkU.s 			page 11


 436 0002 84B0     		sub	sp, sp, #16
 437              	.LCFI7:
 438              		.cfi_def_cfa_offset 24
 439 0004 00AF     		add	r7, sp, #0
 440              		.cfi_offset 14, -4
 441              		.cfi_offset 7, -8
 442              	.LCFI8:
 443              		.cfi_def_cfa_register 7
 444 0006 0246     		mov	r2, r0
 445 0008 0B46     		mov	r3, r1
 446 000a FA71     		strb	r2, [r7, #7]
 447 000c BB71     		strb	r3, [r7, #6]
 121:.\matrix.c    ****     matrix_deluminate();
 448              		.loc 1 121 0
 449 000e FFF7FEFF 		bl	matrix_deluminate
 122:.\matrix.c    ****     uint8 color = 0x01;
 450              		.loc 1 122 0
 451 0012 4FF00103 		mov	r3, #1
 452 0016 7B73     		strb	r3, [r7, #13]
 123:.\matrix.c    ****     while (color < 0x08) {
 453              		.loc 1 123 0
 454 0018 C5E0     		b	.L28
 455              	.L48:
 456              	.LBB4:
 124:.\matrix.c    ****         uint8 i, j;
 125:.\matrix.c    ****         for (i=0; i < MATRIX_ROWS ;++i) {
 457              		.loc 1 125 0
 458 001a 4FF00003 		mov	r3, #0
 459 001e BB73     		strb	r3, [r7, #14]
 460 0020 B0E0     		b	.L29
 461              	.L45:
 126:.\matrix.c    ****             for (j=0; j < MATRIX_COLS ;++j) {
 462              		.loc 1 126 0
 463 0022 4FF00003 		mov	r3, #0
 464 0026 FB73     		strb	r3, [r7, #15]
 465 0028 A4E0     		b	.L30
 466              	.L44:
 127:.\matrix.c    ****                 LCD_ClearLine(1);
 467              		.loc 1 127 0
 468 002a 4FF00100 		mov	r0, #1
 469 002e FFF7FEFF 		bl	LCD_ClearLine
 128:.\matrix.c    ****                 LCD_Position(1,0);
 470              		.loc 1 128 0
 471 0032 4FF00100 		mov	r0, #1
 472 0036 4FF00001 		mov	r1, #0
 473 003a FFF7FEFF 		bl	LCD_Position
 129:.\matrix.c    ****                 LCD_PrintNumber(i);
 474              		.loc 1 129 0
 475 003e BB7B     		ldrb	r3, [r7, #14]	@ zero_extendqisi2
 476 0040 1846     		mov	r0, r3
 477 0042 FFF7FEFF 		bl	LCD_PrintNumber
 130:.\matrix.c    ****                 LCD_Position(1,1);
 478              		.loc 1 130 0
 479 0046 4FF00100 		mov	r0, #1
 480 004a 4FF00101 		mov	r1, #1
 481 004e FFF7FEFF 		bl	LCD_Position
 131:.\matrix.c    ****                 LCD_PutChar(',');
ARM GAS  C:\DOCUME~1\david\LOCALS~1\Temp\ccrGklkU.s 			page 12


 482              		.loc 1 131 0
 483 0052 4FF02C00 		mov	r0, #44
 484 0056 FFF7FEFF 		bl	LCD_PutChar
 132:.\matrix.c    ****                 LCD_Position(1,2);
 485              		.loc 1 132 0
 486 005a 4FF00100 		mov	r0, #1
 487 005e 4FF00201 		mov	r1, #2
 488 0062 FFF7FEFF 		bl	LCD_Position
 133:.\matrix.c    ****                 LCD_PrintNumber(j);
 489              		.loc 1 133 0
 490 0066 FB7B     		ldrb	r3, [r7, #15]	@ zero_extendqisi2
 491 0068 1846     		mov	r0, r3
 492 006a FFF7FEFF 		bl	LCD_PrintNumber
 134:.\matrix.c    ****                 LCD_Position(1,4);
 493              		.loc 1 134 0
 494 006e 4FF00100 		mov	r0, #1
 495 0072 4FF00401 		mov	r1, #4
 496 0076 FFF7FEFF 		bl	LCD_Position
 135:.\matrix.c    ****                 LCD_PrintString("       ");
 497              		.loc 1 135 0
 498 007a 40F20000 		movw	r0, #:lower16:.LC2
 499 007e C0F20000 		movt	r0, #:upper16:.LC2
 500 0082 FFF7FEFF 		bl	LCD_PrintString
 136:.\matrix.c    ****                 LCD_Position(1,4);
 501              		.loc 1 136 0
 502 0086 4FF00100 		mov	r0, #1
 503 008a 4FF00401 		mov	r1, #4
 504 008e FFF7FEFF 		bl	LCD_Position
 137:.\matrix.c    ****                 switch (color) {
 505              		.loc 1 137 0
 506 0092 7B7B     		ldrb	r3, [r7, #13]	@ zero_extendqisi2
 507 0094 03F1FF33 		add	r3, r3, #-1
 508 0098 062B     		cmp	r3, #6
 509 009a 42D8     		bhi	.L31
 510 009c 01A2     		adr	r2, .L39
 511 009e 52F823F0 		ldr	pc, [r2, r3, lsl #2]
 512 00a2 00BF     		.align	2
 513              	.L39:
 514 00a4 C1000000 		.word	.L32+1
 515 00a8 CF000000 		.word	.L33+1
 516 00ac DD000000 		.word	.L34+1
 517 00b0 EB000000 		.word	.L35+1
 518 00b4 F9000000 		.word	.L36+1
 519 00b8 07010000 		.word	.L37+1
 520 00bc 15010000 		.word	.L38+1
 521              	.L32:
 138:.\matrix.c    ****                     case RED:     LCD_PrintString("Red");     break;
 522              		.loc 1 138 0
 523 00c0 40F20000 		movw	r0, #:lower16:.LC3
 524 00c4 C0F20000 		movt	r0, #:upper16:.LC3
 525 00c8 FFF7FEFF 		bl	LCD_PrintString
 526 00cc 36E0     		b	.L40
 527              	.L33:
 139:.\matrix.c    ****                     case GREEN:   LCD_PrintString("Green");   break;
 528              		.loc 1 139 0
 529 00ce 40F20000 		movw	r0, #:lower16:.LC4
 530 00d2 C0F20000 		movt	r0, #:upper16:.LC4
ARM GAS  C:\DOCUME~1\david\LOCALS~1\Temp\ccrGklkU.s 			page 13


 531 00d6 FFF7FEFF 		bl	LCD_PrintString
 532 00da 2FE0     		b	.L40
 533              	.L34:
 140:.\matrix.c    ****                     case YELLOW:  LCD_PrintString("Yellow");  break;
 534              		.loc 1 140 0
 535 00dc 40F20000 		movw	r0, #:lower16:.LC5
 536 00e0 C0F20000 		movt	r0, #:upper16:.LC5
 537 00e4 FFF7FEFF 		bl	LCD_PrintString
 538 00e8 28E0     		b	.L40
 539              	.L35:
 141:.\matrix.c    ****                     case BLUE:    LCD_PrintString("Blue");    break;
 540              		.loc 1 141 0
 541 00ea 40F20000 		movw	r0, #:lower16:.LC6
 542 00ee C0F20000 		movt	r0, #:upper16:.LC6
 543 00f2 FFF7FEFF 		bl	LCD_PrintString
 544 00f6 21E0     		b	.L40
 545              	.L36:
 142:.\matrix.c    ****                     case MAGENTA: LCD_PrintString("Magenta"); break;
 546              		.loc 1 142 0
 547 00f8 40F20000 		movw	r0, #:lower16:.LC7
 548 00fc C0F20000 		movt	r0, #:upper16:.LC7
 549 0100 FFF7FEFF 		bl	LCD_PrintString
 550 0104 1AE0     		b	.L40
 551              	.L37:
 143:.\matrix.c    ****                     case CYAN:    LCD_PrintString("Cyan");    break;
 552              		.loc 1 143 0
 553 0106 40F20000 		movw	r0, #:lower16:.LC8
 554 010a C0F20000 		movt	r0, #:upper16:.LC8
 555 010e FFF7FEFF 		bl	LCD_PrintString
 556 0112 13E0     		b	.L40
 557              	.L38:
 144:.\matrix.c    ****                     case WHITE:   LCD_PrintString("White");   break;
 558              		.loc 1 144 0
 559 0114 40F20000 		movw	r0, #:lower16:.LC9
 560 0118 C0F20000 		movt	r0, #:upper16:.LC9
 561 011c FFF7FEFF 		bl	LCD_PrintString
 562 0120 0CE0     		b	.L40
 563              	.L31:
 145:.\matrix.c    ****                     
 146:.\matrix.c    ****                     default: LCD_UpdateStatus("error");
 564              		.loc 1 146 0
 565 0122 40F20000 		movw	r0, #:lower16:.LC0
 566 0126 C0F20000 		movt	r0, #:upper16:.LC0
 567 012a FFF7FEFF 		bl	LCD_UpdateStatus
 147:.\matrix.c    ****                              LCD_UpdateMessage("color mismatch");
 568              		.loc 1 147 0
 569 012e 40F20000 		movw	r0, #:lower16:.LC1
 570 0132 C0F20000 		movt	r0, #:upper16:.LC1
 571 0136 FFF7FEFF 		bl	LCD_UpdateMessage
 572              	.L41:
 148:.\matrix.c    ****                              while(true);
 573              		.loc 1 148 0
 574 013a FEE7     		b	.L41
 575              	.L40:
 149:.\matrix.c    ****                              break;
 150:.\matrix.c    ****                 }
 151:.\matrix.c    ****                 matrix_illuminate(i,j,color);
ARM GAS  C:\DOCUME~1\david\LOCALS~1\Temp\ccrGklkU.s 			page 14


 576              		.loc 1 151 0
 577 013c B97B     		ldrb	r1, [r7, #14]	@ zero_extendqisi2
 578 013e FA7B     		ldrb	r2, [r7, #15]	@ zero_extendqisi2
 579 0140 7B7B     		ldrb	r3, [r7, #13]	@ zero_extendqisi2
 580 0142 0846     		mov	r0, r1
 581 0144 1146     		mov	r1, r2
 582 0146 1A46     		mov	r2, r3
 583 0148 FFF7FEFF 		bl	matrix_illuminate
 152:.\matrix.c    ****                 //CyDelay((slow) ? 1000/MATRIX_COLS : 5);
 153:.\matrix.c    ****                 CyDelay((color == WHITE && j > 5) ? 1000 : 5);
 584              		.loc 1 153 0
 585 014c 7B7B     		ldrb	r3, [r7, #13]	@ zero_extendqisi2
 586 014e 072B     		cmp	r3, #7
 587 0150 05D1     		bne	.L42
 588 0152 FB7B     		ldrb	r3, [r7, #15]	@ zero_extendqisi2
 589 0154 052B     		cmp	r3, #5
 590 0156 02D9     		bls	.L42
 591 0158 4FF47A73 		mov	r3, #1000
 592 015c 01E0     		b	.L43
 593              	.L42:
 594 015e 4FF00503 		mov	r3, #5
 595              	.L43:
 596 0162 1846     		mov	r0, r3
 597 0164 FFF7FEFF 		bl	CyDelay
 154:.\matrix.c    ****                 matrix_deluminate();
 598              		.loc 1 154 0
 599 0168 FFF7FEFF 		bl	matrix_deluminate
 600              		.loc 1 126 0
 601 016c FB7B     		ldrb	r3, [r7, #15]
 602 016e 03F10103 		add	r3, r3, #1
 603 0172 FB73     		strb	r3, [r7, #15]
 604              	.L30:
 605 0174 FB7B     		ldrb	r3, [r7, #15]	@ zero_extendqisi2
 606 0176 072B     		cmp	r3, #7
 607 0178 7FF657AF 		bls	.L44
 608              		.loc 1 125 0
 609 017c BB7B     		ldrb	r3, [r7, #14]
 610 017e 03F10103 		add	r3, r3, #1
 611 0182 BB73     		strb	r3, [r7, #14]
 612              	.L29:
 613 0184 BB7B     		ldrb	r3, [r7, #14]	@ zero_extendqisi2
 614 0186 072B     		cmp	r3, #7
 615 0188 7FF64BAF 		bls	.L45
 155:.\matrix.c    ****             }
 156:.\matrix.c    ****         }
 157:.\matrix.c    ****         color = (extended) ? color+1 : color*2;
 616              		.loc 1 157 0
 617 018c FB79     		ldrb	r3, [r7, #7]	@ zero_extendqisi2
 618 018e 002B     		cmp	r3, #0
 619 0190 04D0     		beq	.L46
 620 0192 7B7B     		ldrb	r3, [r7, #13]
 621 0194 03F10103 		add	r3, r3, #1
 622 0198 DBB2     		uxtb	r3, r3
 623 019a 03E0     		b	.L47
 624              	.L46:
 625 019c 7B7B     		ldrb	r3, [r7, #13]
 626 019e 4FEA4303 		lsl	r3, r3, #1
ARM GAS  C:\DOCUME~1\david\LOCALS~1\Temp\ccrGklkU.s 			page 15


 627 01a2 DBB2     		uxtb	r3, r3
 628              	.L47:
 629 01a4 7B73     		strb	r3, [r7, #13]
 630              	.L28:
 631              	.LBE4:
 632              		.loc 1 123 0
 633 01a6 7B7B     		ldrb	r3, [r7, #13]	@ zero_extendqisi2
 634 01a8 072B     		cmp	r3, #7
 635 01aa 7FF636AF 		bls	.L48
 158:.\matrix.c    ****     }
 159:.\matrix.c    **** }
 636              		.loc 1 159 0
 637 01ae 07F11007 		add	r7, r7, #16
 638 01b2 BD46     		mov	sp, r7
 639 01b4 80BD     		pop	{r7, pc}
 640              		.cfi_endproc
 641              	.LFE31:
 642              		.size	matrix_test, .-matrix_test
 643 01b6 00BF     		.text
 644              	.Letext0:
 645              		.section	.debug_loc,"",%progbits
 646              	.Ldebug_loc0:
 647              	.LLST0:
 648 0000 00000000 		.4byte	.LFB29
 649 0004 02000000 		.4byte	.LCFI0
 650 0008 0100     		.2byte	0x1
 651 000a 5D       		.byte	0x5d
 652 000b 02000000 		.4byte	.LCFI0
 653 000f 04000000 		.4byte	.LCFI1
 654 0013 0200     		.2byte	0x2
 655 0015 7D       		.byte	0x7d
 656 0016 08       		.sleb128 8
 657 0017 04000000 		.4byte	.LCFI1
 658 001b 06000000 		.4byte	.LCFI2
 659 001f 0200     		.2byte	0x2
 660 0021 7D       		.byte	0x7d
 661 0022 28       		.sleb128 40
 662 0023 06000000 		.4byte	.LCFI2
 663 0027 04020000 		.4byte	.LFE29
 664 002b 0200     		.2byte	0x2
 665 002d 77       		.byte	0x77
 666 002e 28       		.sleb128 40
 667 002f 00000000 		.4byte	0x0
 668 0033 00000000 		.4byte	0x0
 669              	.LLST1:
 670 0037 00000000 		.4byte	.LFB30
 671 003b 02000000 		.4byte	.LCFI3
 672 003f 0100     		.2byte	0x1
 673 0041 5D       		.byte	0x5d
 674 0042 02000000 		.4byte	.LCFI3
 675 0046 04000000 		.4byte	.LCFI4
 676 004a 0200     		.2byte	0x2
 677 004c 7D       		.byte	0x7d
 678 004d 08       		.sleb128 8
 679 004e 04000000 		.4byte	.LCFI4
 680 0052 06000000 		.4byte	.LCFI5
 681 0056 0200     		.2byte	0x2
ARM GAS  C:\DOCUME~1\david\LOCALS~1\Temp\ccrGklkU.s 			page 16


 682 0058 7D       		.byte	0x7d
 683 0059 10       		.sleb128 16
 684 005a 06000000 		.4byte	.LCFI5
 685 005e 70000000 		.4byte	.LFE30
 686 0062 0200     		.2byte	0x2
 687 0064 77       		.byte	0x77
 688 0065 10       		.sleb128 16
 689 0066 00000000 		.4byte	0x0
 690 006a 00000000 		.4byte	0x0
 691              	.LLST2:
 692 006e 00000000 		.4byte	.LFB31
 693 0072 02000000 		.4byte	.LCFI6
 694 0076 0100     		.2byte	0x1
 695 0078 5D       		.byte	0x5d
 696 0079 02000000 		.4byte	.LCFI6
 697 007d 04000000 		.4byte	.LCFI7
 698 0081 0200     		.2byte	0x2
 699 0083 7D       		.byte	0x7d
 700 0084 08       		.sleb128 8
 701 0085 04000000 		.4byte	.LCFI7
 702 0089 06000000 		.4byte	.LCFI8
 703 008d 0200     		.2byte	0x2
 704 008f 7D       		.byte	0x7d
 705 0090 18       		.sleb128 24
 706 0091 06000000 		.4byte	.LCFI8
 707 0095 B6010000 		.4byte	.LFE31
 708 0099 0200     		.2byte	0x2
 709 009b 77       		.byte	0x77
 710 009c 18       		.sleb128 24
 711 009d 00000000 		.4byte	0x0
 712 00a1 00000000 		.4byte	0x0
 713              		.file 2 "./Generated_Source/PSoC5/cytypes.h"
 714              		.file 3 "./Generated_Source/PSoC5/core_cm3.h"
 715              		.section	.debug_info
 716 0000 06020000 		.4byte	0x206
 717 0004 0200     		.2byte	0x2
 718 0006 00000000 		.4byte	.Ldebug_abbrev0
 719 000a 04       		.byte	0x4
 720 000b 01       		.uleb128 0x1
 721 000c F9000000 		.4byte	.LASF22
 722 0010 01       		.byte	0x1
 723 0011 BA000000 		.4byte	.LASF23
 724 0015 61000000 		.4byte	.LASF24
 725 0019 00000000 		.4byte	0x0
 726 001d 00000000 		.4byte	0x0
 727 0021 00000000 		.4byte	.Ldebug_ranges0+0x0
 728 0025 00000000 		.4byte	.Ldebug_line0
 729 0029 02       		.uleb128 0x2
 730 002a 01       		.byte	0x1
 731 002b 06       		.byte	0x6
 732 002c 22010000 		.4byte	.LASF0
 733 0030 02       		.uleb128 0x2
 734 0031 01       		.byte	0x1
 735 0032 08       		.byte	0x8
 736 0033 45000000 		.4byte	.LASF1
 737 0037 02       		.uleb128 0x2
 738 0038 02       		.byte	0x2
ARM GAS  C:\DOCUME~1\david\LOCALS~1\Temp\ccrGklkU.s 			page 17


 739 0039 05       		.byte	0x5
 740 003a 0F010000 		.4byte	.LASF2
 741 003e 02       		.uleb128 0x2
 742 003f 02       		.byte	0x2
 743 0040 07       		.byte	0x7
 744 0041 20000000 		.4byte	.LASF3
 745 0045 02       		.uleb128 0x2
 746 0046 04       		.byte	0x4
 747 0047 05       		.byte	0x5
 748 0048 19010000 		.4byte	.LASF4
 749 004c 02       		.uleb128 0x2
 750 004d 04       		.byte	0x4
 751 004e 07       		.byte	0x7
 752 004f 89000000 		.4byte	.LASF5
 753 0053 02       		.uleb128 0x2
 754 0054 08       		.byte	0x8
 755 0055 05       		.byte	0x5
 756 0056 00000000 		.4byte	.LASF6
 757 005a 02       		.uleb128 0x2
 758 005b 08       		.byte	0x8
 759 005c 07       		.byte	0x7
 760 005d D8000000 		.4byte	.LASF7
 761 0061 03       		.uleb128 0x3
 762 0062 04       		.byte	0x4
 763 0063 05       		.byte	0x5
 764 0064 696E7400 		.ascii	"int\000"
 765 0068 02       		.uleb128 0x2
 766 0069 04       		.byte	0x4
 767 006a 07       		.byte	0x7
 768 006b CB000000 		.4byte	.LASF8
 769 006f 04       		.uleb128 0x4
 770 0070 9B000000 		.4byte	.LASF25
 771 0074 02       		.byte	0x2
 772 0075 4C       		.byte	0x4c
 773 0076 30000000 		.4byte	0x30
 774 007a 02       		.uleb128 0x2
 775 007b 04       		.byte	0x4
 776 007c 04       		.byte	0x4
 777 007d 3F000000 		.4byte	.LASF9
 778 0081 02       		.uleb128 0x2
 779 0082 08       		.byte	0x8
 780 0083 04       		.byte	0x4
 781 0084 B3000000 		.4byte	.LASF10
 782 0088 02       		.uleb128 0x2
 783 0089 01       		.byte	0x1
 784 008a 08       		.byte	0x8
 785 008b 05010000 		.4byte	.LASF11
 786 008f 05       		.uleb128 0x5
 787 0090 04       		.byte	0x4
 788 0091 07       		.byte	0x7
 789 0092 06       		.uleb128 0x6
 790 0093 01       		.byte	0x1
 791 0094 34010000 		.4byte	.LASF17
 792 0098 01       		.byte	0x1
 793 0099 09       		.byte	0x9
 794 009a 01       		.byte	0x1
 795 009b 00000000 		.4byte	.LFB29
ARM GAS  C:\DOCUME~1\david\LOCALS~1\Temp\ccrGklkU.s 			page 18


 796 009f 04020000 		.4byte	.LFE29
 797 00a3 00000000 		.4byte	.LLST0
 798 00a7 3F010000 		.4byte	0x13f
 799 00ab 07       		.uleb128 0x7
 800 00ac 726F7700 		.ascii	"row\000"
 801 00b0 01       		.byte	0x1
 802 00b1 09       		.byte	0x9
 803 00b2 61000000 		.4byte	0x61
 804 00b6 02       		.byte	0x2
 805 00b7 91       		.byte	0x91
 806 00b8 64       		.sleb128 -28
 807 00b9 07       		.uleb128 0x7
 808 00ba 636F6C00 		.ascii	"col\000"
 809 00be 01       		.byte	0x1
 810 00bf 09       		.byte	0x9
 811 00c0 61000000 		.4byte	0x61
 812 00c4 02       		.byte	0x2
 813 00c5 91       		.byte	0x91
 814 00c6 60       		.sleb128 -32
 815 00c7 08       		.uleb128 0x8
 816 00c8 C5000000 		.4byte	.LASF12
 817 00cc 01       		.byte	0x1
 818 00cd 09       		.byte	0x9
 819 00ce 6F000000 		.4byte	0x6f
 820 00d2 02       		.byte	0x2
 821 00d3 91       		.byte	0x91
 822 00d4 5F       		.sleb128 -33
 823 00d5 09       		.uleb128 0x9
 824 00d6 6F666600 		.ascii	"off\000"
 825 00da 01       		.byte	0x1
 826 00db 0A       		.byte	0xa
 827 00dc 6F000000 		.4byte	0x6f
 828 00e0 02       		.byte	0x2
 829 00e1 91       		.byte	0x91
 830 00e2 6A       		.sleb128 -22
 831 00e3 09       		.uleb128 0x9
 832 00e4 6F6E00   		.ascii	"on\000"
 833 00e7 01       		.byte	0x1
 834 00e8 0A       		.byte	0xa
 835 00e9 6F000000 		.4byte	0x6f
 836 00ed 02       		.byte	0x2
 837 00ee 91       		.byte	0x91
 838 00ef 6B       		.sleb128 -21
 839 00f0 0A       		.uleb128 0xa
 840 00f1 1A000000 		.4byte	.LBB2
 841 00f5 FC010000 		.4byte	.LBE2
 842 00f9 0B       		.uleb128 0xb
 843 00fa F4000000 		.4byte	.LASF13
 844 00fe 01       		.byte	0x1
 845 00ff 0C       		.byte	0xc
 846 0100 6F000000 		.4byte	0x6f
 847 0104 02       		.byte	0x2
 848 0105 91       		.byte	0x91
 849 0106 6C       		.sleb128 -20
 850 0107 0B       		.uleb128 0xb
 851 0108 AE000000 		.4byte	.LASF14
 852 010c 01       		.byte	0x1
ARM GAS  C:\DOCUME~1\david\LOCALS~1\Temp\ccrGklkU.s 			page 19


 853 010d 0D       		.byte	0xd
 854 010e 6F000000 		.4byte	0x6f
 855 0112 02       		.byte	0x2
 856 0113 91       		.byte	0x91
 857 0114 6D       		.sleb128 -19
 858 0115 0B       		.uleb128 0xb
 859 0116 0A010000 		.4byte	.LASF15
 860 011a 01       		.byte	0x1
 861 011b 0E       		.byte	0xe
 862 011c 6F000000 		.4byte	0x6f
 863 0120 02       		.byte	0x2
 864 0121 91       		.byte	0x91
 865 0122 6E       		.sleb128 -18
 866 0123 0B       		.uleb128 0xb
 867 0124 5C000000 		.4byte	.LASF16
 868 0128 01       		.byte	0x1
 869 0129 0F       		.byte	0xf
 870 012a 6F000000 		.4byte	0x6f
 871 012e 02       		.byte	0x2
 872 012f 91       		.byte	0x91
 873 0130 6F       		.sleb128 -17
 874 0131 09       		.uleb128 0x9
 875 0132 6900     		.ascii	"i\000"
 876 0134 01       		.byte	0x1
 877 0135 31       		.byte	0x31
 878 0136 61000000 		.4byte	0x61
 879 013a 02       		.byte	0x2
 880 013b 91       		.byte	0x91
 881 013c 70       		.sleb128 -16
 882 013d 00       		.byte	0x0
 883 013e 00       		.byte	0x0
 884 013f 0C       		.uleb128 0xc
 885 0140 01       		.byte	0x1
 886 0141 0E000000 		.4byte	.LASF26
 887 0145 01       		.byte	0x1
 888 0146 5C       		.byte	0x5c
 889 0147 00000000 		.4byte	.LFB30
 890 014b 70000000 		.4byte	.LFE30
 891 014f 37000000 		.4byte	.LLST1
 892 0153 89010000 		.4byte	0x189
 893 0157 09       		.uleb128 0x9
 894 0158 6F666600 		.ascii	"off\000"
 895 015c 01       		.byte	0x1
 896 015d 5D       		.byte	0x5d
 897 015e 6F000000 		.4byte	0x6f
 898 0162 02       		.byte	0x2
 899 0163 91       		.byte	0x91
 900 0164 72       		.sleb128 -14
 901 0165 09       		.uleb128 0x9
 902 0166 6F6E00   		.ascii	"on\000"
 903 0169 01       		.byte	0x1
 904 016a 5D       		.byte	0x5d
 905 016b 6F000000 		.4byte	0x6f
 906 016f 02       		.byte	0x2
 907 0170 91       		.byte	0x91
 908 0171 73       		.sleb128 -13
 909 0172 0A       		.uleb128 0xa
ARM GAS  C:\DOCUME~1\david\LOCALS~1\Temp\ccrGklkU.s 			page 20


 910 0173 12000000 		.4byte	.LBB3
 911 0177 68000000 		.4byte	.LBE3
 912 017b 09       		.uleb128 0x9
 913 017c 6900     		.ascii	"i\000"
 914 017e 01       		.byte	0x1
 915 017f 60       		.byte	0x60
 916 0180 61000000 		.4byte	0x61
 917 0184 02       		.byte	0x2
 918 0185 91       		.byte	0x91
 919 0186 74       		.sleb128 -12
 920 0187 00       		.byte	0x0
 921 0188 00       		.byte	0x0
 922 0189 06       		.uleb128 0x6
 923 018a 01       		.byte	0x1
 924 018b 33000000 		.4byte	.LASF18
 925 018f 01       		.byte	0x1
 926 0190 78       		.byte	0x78
 927 0191 01       		.byte	0x1
 928 0192 00000000 		.4byte	.LFB31
 929 0196 B6010000 		.4byte	.LFE31
 930 019a 6E000000 		.4byte	.LLST2
 931 019e EF010000 		.4byte	0x1ef
 932 01a2 08       		.uleb128 0x8
 933 01a3 53000000 		.4byte	.LASF19
 934 01a7 01       		.byte	0x1
 935 01a8 78       		.byte	0x78
 936 01a9 EF010000 		.4byte	0x1ef
 937 01ad 02       		.byte	0x2
 938 01ae 91       		.byte	0x91
 939 01af 6F       		.sleb128 -17
 940 01b0 08       		.uleb128 0x8
 941 01b1 EF000000 		.4byte	.LASF20
 942 01b5 01       		.byte	0x1
 943 01b6 78       		.byte	0x78
 944 01b7 EF010000 		.4byte	0x1ef
 945 01bb 02       		.byte	0x2
 946 01bc 91       		.byte	0x91
 947 01bd 6E       		.sleb128 -18
 948 01be 0B       		.uleb128 0xb
 949 01bf C5000000 		.4byte	.LASF12
 950 01c3 01       		.byte	0x1
 951 01c4 7A       		.byte	0x7a
 952 01c5 6F000000 		.4byte	0x6f
 953 01c9 02       		.byte	0x2
 954 01ca 91       		.byte	0x91
 955 01cb 75       		.sleb128 -11
 956 01cc 0A       		.uleb128 0xa
 957 01cd 1A000000 		.4byte	.LBB4
 958 01d1 A6010000 		.4byte	.LBE4
 959 01d5 09       		.uleb128 0x9
 960 01d6 6900     		.ascii	"i\000"
 961 01d8 01       		.byte	0x1
 962 01d9 7C       		.byte	0x7c
 963 01da 6F000000 		.4byte	0x6f
 964 01de 02       		.byte	0x2
 965 01df 91       		.byte	0x91
 966 01e0 76       		.sleb128 -10
ARM GAS  C:\DOCUME~1\david\LOCALS~1\Temp\ccrGklkU.s 			page 21


 967 01e1 09       		.uleb128 0x9
 968 01e2 6A00     		.ascii	"j\000"
 969 01e4 01       		.byte	0x1
 970 01e5 7C       		.byte	0x7c
 971 01e6 6F000000 		.4byte	0x6f
 972 01ea 02       		.byte	0x2
 973 01eb 91       		.byte	0x91
 974 01ec 77       		.sleb128 -9
 975 01ed 00       		.byte	0x0
 976 01ee 00       		.byte	0x0
 977 01ef 02       		.uleb128 0x2
 978 01f0 01       		.byte	0x1
 979 01f1 02       		.byte	0x2
 980 01f2 2E010000 		.4byte	.LASF21
 981 01f6 0D       		.uleb128 0xd
 982 01f7 A1000000 		.4byte	.LASF27
 983 01fb 03       		.byte	0x3
 984 01fc CE06     		.2byte	0x6ce
 985 01fe 04020000 		.4byte	0x204
 986 0202 01       		.byte	0x1
 987 0203 01       		.byte	0x1
 988 0204 0E       		.uleb128 0xe
 989 0205 61000000 		.4byte	0x61
 990 0209 00       		.byte	0x0
 991              		.section	.debug_abbrev
 992 0000 01       		.uleb128 0x1
 993 0001 11       		.uleb128 0x11
 994 0002 01       		.byte	0x1
 995 0003 25       		.uleb128 0x25
 996 0004 0E       		.uleb128 0xe
 997 0005 13       		.uleb128 0x13
 998 0006 0B       		.uleb128 0xb
 999 0007 03       		.uleb128 0x3
 1000 0008 0E       		.uleb128 0xe
 1001 0009 1B       		.uleb128 0x1b
 1002 000a 0E       		.uleb128 0xe
 1003 000b 11       		.uleb128 0x11
 1004 000c 01       		.uleb128 0x1
 1005 000d 52       		.uleb128 0x52
 1006 000e 01       		.uleb128 0x1
 1007 000f 55       		.uleb128 0x55
 1008 0010 06       		.uleb128 0x6
 1009 0011 10       		.uleb128 0x10
 1010 0012 06       		.uleb128 0x6
 1011 0013 00       		.byte	0x0
 1012 0014 00       		.byte	0x0
 1013 0015 02       		.uleb128 0x2
 1014 0016 24       		.uleb128 0x24
 1015 0017 00       		.byte	0x0
 1016 0018 0B       		.uleb128 0xb
 1017 0019 0B       		.uleb128 0xb
 1018 001a 3E       		.uleb128 0x3e
 1019 001b 0B       		.uleb128 0xb
 1020 001c 03       		.uleb128 0x3
 1021 001d 0E       		.uleb128 0xe
 1022 001e 00       		.byte	0x0
 1023 001f 00       		.byte	0x0
ARM GAS  C:\DOCUME~1\david\LOCALS~1\Temp\ccrGklkU.s 			page 22


 1024 0020 03       		.uleb128 0x3
 1025 0021 24       		.uleb128 0x24
 1026 0022 00       		.byte	0x0
 1027 0023 0B       		.uleb128 0xb
 1028 0024 0B       		.uleb128 0xb
 1029 0025 3E       		.uleb128 0x3e
 1030 0026 0B       		.uleb128 0xb
 1031 0027 03       		.uleb128 0x3
 1032 0028 08       		.uleb128 0x8
 1033 0029 00       		.byte	0x0
 1034 002a 00       		.byte	0x0
 1035 002b 04       		.uleb128 0x4
 1036 002c 16       		.uleb128 0x16
 1037 002d 00       		.byte	0x0
 1038 002e 03       		.uleb128 0x3
 1039 002f 0E       		.uleb128 0xe
 1040 0030 3A       		.uleb128 0x3a
 1041 0031 0B       		.uleb128 0xb
 1042 0032 3B       		.uleb128 0x3b
 1043 0033 0B       		.uleb128 0xb
 1044 0034 49       		.uleb128 0x49
 1045 0035 13       		.uleb128 0x13
 1046 0036 00       		.byte	0x0
 1047 0037 00       		.byte	0x0
 1048 0038 05       		.uleb128 0x5
 1049 0039 24       		.uleb128 0x24
 1050 003a 00       		.byte	0x0
 1051 003b 0B       		.uleb128 0xb
 1052 003c 0B       		.uleb128 0xb
 1053 003d 3E       		.uleb128 0x3e
 1054 003e 0B       		.uleb128 0xb
 1055 003f 00       		.byte	0x0
 1056 0040 00       		.byte	0x0
 1057 0041 06       		.uleb128 0x6
 1058 0042 2E       		.uleb128 0x2e
 1059 0043 01       		.byte	0x1
 1060 0044 3F       		.uleb128 0x3f
 1061 0045 0C       		.uleb128 0xc
 1062 0046 03       		.uleb128 0x3
 1063 0047 0E       		.uleb128 0xe
 1064 0048 3A       		.uleb128 0x3a
 1065 0049 0B       		.uleb128 0xb
 1066 004a 3B       		.uleb128 0x3b
 1067 004b 0B       		.uleb128 0xb
 1068 004c 27       		.uleb128 0x27
 1069 004d 0C       		.uleb128 0xc
 1070 004e 11       		.uleb128 0x11
 1071 004f 01       		.uleb128 0x1
 1072 0050 12       		.uleb128 0x12
 1073 0051 01       		.uleb128 0x1
 1074 0052 40       		.uleb128 0x40
 1075 0053 06       		.uleb128 0x6
 1076 0054 01       		.uleb128 0x1
 1077 0055 13       		.uleb128 0x13
 1078 0056 00       		.byte	0x0
 1079 0057 00       		.byte	0x0
 1080 0058 07       		.uleb128 0x7
ARM GAS  C:\DOCUME~1\david\LOCALS~1\Temp\ccrGklkU.s 			page 23


 1081 0059 05       		.uleb128 0x5
 1082 005a 00       		.byte	0x0
 1083 005b 03       		.uleb128 0x3
 1084 005c 08       		.uleb128 0x8
 1085 005d 3A       		.uleb128 0x3a
 1086 005e 0B       		.uleb128 0xb
 1087 005f 3B       		.uleb128 0x3b
 1088 0060 0B       		.uleb128 0xb
 1089 0061 49       		.uleb128 0x49
 1090 0062 13       		.uleb128 0x13
 1091 0063 02       		.uleb128 0x2
 1092 0064 0A       		.uleb128 0xa
 1093 0065 00       		.byte	0x0
 1094 0066 00       		.byte	0x0
 1095 0067 08       		.uleb128 0x8
 1096 0068 05       		.uleb128 0x5
 1097 0069 00       		.byte	0x0
 1098 006a 03       		.uleb128 0x3
 1099 006b 0E       		.uleb128 0xe
 1100 006c 3A       		.uleb128 0x3a
 1101 006d 0B       		.uleb128 0xb
 1102 006e 3B       		.uleb128 0x3b
 1103 006f 0B       		.uleb128 0xb
 1104 0070 49       		.uleb128 0x49
 1105 0071 13       		.uleb128 0x13
 1106 0072 02       		.uleb128 0x2
 1107 0073 0A       		.uleb128 0xa
 1108 0074 00       		.byte	0x0
 1109 0075 00       		.byte	0x0
 1110 0076 09       		.uleb128 0x9
 1111 0077 34       		.uleb128 0x34
 1112 0078 00       		.byte	0x0
 1113 0079 03       		.uleb128 0x3
 1114 007a 08       		.uleb128 0x8
 1115 007b 3A       		.uleb128 0x3a
 1116 007c 0B       		.uleb128 0xb
 1117 007d 3B       		.uleb128 0x3b
 1118 007e 0B       		.uleb128 0xb
 1119 007f 49       		.uleb128 0x49
 1120 0080 13       		.uleb128 0x13
 1121 0081 02       		.uleb128 0x2
 1122 0082 0A       		.uleb128 0xa
 1123 0083 00       		.byte	0x0
 1124 0084 00       		.byte	0x0
 1125 0085 0A       		.uleb128 0xa
 1126 0086 0B       		.uleb128 0xb
 1127 0087 01       		.byte	0x1
 1128 0088 11       		.uleb128 0x11
 1129 0089 01       		.uleb128 0x1
 1130 008a 12       		.uleb128 0x12
 1131 008b 01       		.uleb128 0x1
 1132 008c 00       		.byte	0x0
 1133 008d 00       		.byte	0x0
 1134 008e 0B       		.uleb128 0xb
 1135 008f 34       		.uleb128 0x34
 1136 0090 00       		.byte	0x0
 1137 0091 03       		.uleb128 0x3
ARM GAS  C:\DOCUME~1\david\LOCALS~1\Temp\ccrGklkU.s 			page 24


 1138 0092 0E       		.uleb128 0xe
 1139 0093 3A       		.uleb128 0x3a
 1140 0094 0B       		.uleb128 0xb
 1141 0095 3B       		.uleb128 0x3b
 1142 0096 0B       		.uleb128 0xb
 1143 0097 49       		.uleb128 0x49
 1144 0098 13       		.uleb128 0x13
 1145 0099 02       		.uleb128 0x2
 1146 009a 0A       		.uleb128 0xa
 1147 009b 00       		.byte	0x0
 1148 009c 00       		.byte	0x0
 1149 009d 0C       		.uleb128 0xc
 1150 009e 2E       		.uleb128 0x2e
 1151 009f 01       		.byte	0x1
 1152 00a0 3F       		.uleb128 0x3f
 1153 00a1 0C       		.uleb128 0xc
 1154 00a2 03       		.uleb128 0x3
 1155 00a3 0E       		.uleb128 0xe
 1156 00a4 3A       		.uleb128 0x3a
 1157 00a5 0B       		.uleb128 0xb
 1158 00a6 3B       		.uleb128 0x3b
 1159 00a7 0B       		.uleb128 0xb
 1160 00a8 11       		.uleb128 0x11
 1161 00a9 01       		.uleb128 0x1
 1162 00aa 12       		.uleb128 0x12
 1163 00ab 01       		.uleb128 0x1
 1164 00ac 40       		.uleb128 0x40
 1165 00ad 06       		.uleb128 0x6
 1166 00ae 01       		.uleb128 0x1
 1167 00af 13       		.uleb128 0x13
 1168 00b0 00       		.byte	0x0
 1169 00b1 00       		.byte	0x0
 1170 00b2 0D       		.uleb128 0xd
 1171 00b3 34       		.uleb128 0x34
 1172 00b4 00       		.byte	0x0
 1173 00b5 03       		.uleb128 0x3
 1174 00b6 0E       		.uleb128 0xe
 1175 00b7 3A       		.uleb128 0x3a
 1176 00b8 0B       		.uleb128 0xb
 1177 00b9 3B       		.uleb128 0x3b
 1178 00ba 05       		.uleb128 0x5
 1179 00bb 49       		.uleb128 0x49
 1180 00bc 13       		.uleb128 0x13
 1181 00bd 3F       		.uleb128 0x3f
 1182 00be 0C       		.uleb128 0xc
 1183 00bf 3C       		.uleb128 0x3c
 1184 00c0 0C       		.uleb128 0xc
 1185 00c1 00       		.byte	0x0
 1186 00c2 00       		.byte	0x0
 1187 00c3 0E       		.uleb128 0xe
 1188 00c4 35       		.uleb128 0x35
 1189 00c5 00       		.byte	0x0
 1190 00c6 49       		.uleb128 0x49
 1191 00c7 13       		.uleb128 0x13
 1192 00c8 00       		.byte	0x0
 1193 00c9 00       		.byte	0x0
 1194 00ca 00       		.byte	0x0
ARM GAS  C:\DOCUME~1\david\LOCALS~1\Temp\ccrGklkU.s 			page 25


 1195              		.section	.debug_pubnames,"",%progbits
 1196 0000 4A000000 		.4byte	0x4a
 1197 0004 0200     		.2byte	0x2
 1198 0006 00000000 		.4byte	.Ldebug_info0
 1199 000a 0A020000 		.4byte	0x20a
 1200 000e 92000000 		.4byte	0x92
 1201 0012 6D617472 		.ascii	"matrix_illuminate\000"
 1201      69785F69 
 1201      6C6C756D 
 1201      696E6174 
 1201      6500
 1202 0024 3F010000 		.4byte	0x13f
 1203 0028 6D617472 		.ascii	"matrix_deluminate\000"
 1203      69785F64 
 1203      656C756D 
 1203      696E6174 
 1203      6500
 1204 003a 89010000 		.4byte	0x189
 1205 003e 6D617472 		.ascii	"matrix_test\000"
 1205      69785F74 
 1205      65737400 
 1206 004a 00000000 		.4byte	0x0
 1207              		.section	.debug_aranges,"",%progbits
 1208 0000 2C000000 		.4byte	0x2c
 1209 0004 0200     		.2byte	0x2
 1210 0006 00000000 		.4byte	.Ldebug_info0
 1211 000a 04       		.byte	0x4
 1212 000b 00       		.byte	0x0
 1213 000c 0000     		.2byte	0x0
 1214 000e 0000     		.2byte	0x0
 1215 0010 00000000 		.4byte	.LFB29
 1216 0014 04020000 		.4byte	.LFE29-.LFB29
 1217 0018 00000000 		.4byte	.LFB30
 1218 001c 70000000 		.4byte	.LFE30-.LFB30
 1219 0020 00000000 		.4byte	.LFB31
 1220 0024 B6010000 		.4byte	.LFE31-.LFB31
 1221 0028 00000000 		.4byte	0x0
 1222 002c 00000000 		.4byte	0x0
 1223              		.section	.debug_ranges,"",%progbits
 1224              	.Ldebug_ranges0:
 1225 0000 00000000 		.4byte	.Ltext0
 1226 0004 00000000 		.4byte	.Letext0
 1227 0008 00000000 		.4byte	.LFB29
 1228 000c 04020000 		.4byte	.LFE29
 1229 0010 00000000 		.4byte	.LFB30
 1230 0014 70000000 		.4byte	.LFE30
 1231 0018 00000000 		.4byte	.LFB31
 1232 001c B6010000 		.4byte	.LFE31
 1233 0020 00000000 		.4byte	0x0
 1234 0024 00000000 		.4byte	0x0
 1235              		.section	.debug_str,"MS",%progbits,1
 1236              	.LASF6:
 1237 0000 6C6F6E67 		.ascii	"long long int\000"
 1237      206C6F6E 
 1237      6720696E 
 1237      7400
 1238              	.LASF26:
ARM GAS  C:\DOCUME~1\david\LOCALS~1\Temp\ccrGklkU.s 			page 26


 1239 000e 6D617472 		.ascii	"matrix_deluminate\000"
 1239      69785F64 
 1239      656C756D 
 1239      696E6174 
 1239      6500
 1240              	.LASF3:
 1241 0020 73686F72 		.ascii	"short unsigned int\000"
 1241      7420756E 
 1241      7369676E 
 1241      65642069 
 1241      6E7400
 1242              	.LASF18:
 1243 0033 6D617472 		.ascii	"matrix_test\000"
 1243      69785F74 
 1243      65737400 
 1244              	.LASF9:
 1245 003f 666C6F61 		.ascii	"float\000"
 1245      7400
 1246              	.LASF1:
 1247 0045 756E7369 		.ascii	"unsigned char\000"
 1247      676E6564 
 1247      20636861 
 1247      7200
 1248              	.LASF19:
 1249 0053 65787465 		.ascii	"extended\000"
 1249      6E646564 
 1249      00
 1250              	.LASF16:
 1251 005c 626C7573 		.ascii	"blus\000"
 1251      00
 1252              	.LASF24:
 1253 0061 453A5C50 		.ascii	"E:\\PSoC Creator\\connect4\\connect4.cydsn\000"
 1253      536F4320 
 1253      43726561 
 1253      746F725C 
 1253      636F6E6E 
 1254              	.LASF5:
 1255 0089 6C6F6E67 		.ascii	"long unsigned int\000"
 1255      20756E73 
 1255      69676E65 
 1255      6420696E 
 1255      7400
 1256              	.LASF25:
 1257 009b 75696E74 		.ascii	"uint8\000"
 1257      3800
 1258              	.LASF27:
 1259 00a1 49544D5F 		.ascii	"ITM_RxBuffer\000"
 1259      52784275 
 1259      66666572 
 1259      00
 1260              	.LASF14:
 1261 00ae 72656473 		.ascii	"reds\000"
 1261      00
 1262              	.LASF10:
 1263 00b3 646F7562 		.ascii	"double\000"
 1263      6C6500
 1264              	.LASF23:
ARM GAS  C:\DOCUME~1\david\LOCALS~1\Temp\ccrGklkU.s 			page 27


 1265 00ba 2E5C6D61 		.ascii	".\\matrix.c\000"
 1265      74726978 
 1265      2E6300
 1266              	.LASF12:
 1267 00c5 636F6C6F 		.ascii	"color\000"
 1267      7200
 1268              	.LASF8:
 1269 00cb 756E7369 		.ascii	"unsigned int\000"
 1269      676E6564 
 1269      20696E74 
 1269      00
 1270              	.LASF7:
 1271 00d8 6C6F6E67 		.ascii	"long long unsigned int\000"
 1271      206C6F6E 
 1271      6720756E 
 1271      7369676E 
 1271      65642069 
 1272              	.LASF20:
 1273 00ef 736C6F77 		.ascii	"slow\000"
 1273      00
 1274              	.LASF13:
 1275 00f4 726F7773 		.ascii	"rows\000"
 1275      00
 1276              	.LASF22:
 1277 00f9 474E5520 		.ascii	"GNU C 4.4.1\000"
 1277      4320342E 
 1277      342E3100 
 1278              	.LASF11:
 1279 0105 63686172 		.ascii	"char\000"
 1279      00
 1280              	.LASF15:
 1281 010a 67726E73 		.ascii	"grns\000"
 1281      00
 1282              	.LASF2:
 1283 010f 73686F72 		.ascii	"short int\000"
 1283      7420696E 
 1283      7400
 1284              	.LASF4:
 1285 0119 6C6F6E67 		.ascii	"long int\000"
 1285      20696E74 
 1285      00
 1286              	.LASF0:
 1287 0122 7369676E 		.ascii	"signed char\000"
 1287      65642063 
 1287      68617200 
 1288              	.LASF21:
 1289 012e 5F426F6F 		.ascii	"_Bool\000"
 1289      6C00
 1290              	.LASF17:
 1291 0134 6D617472 		.ascii	"matrix_illuminate\000"
 1291      69785F69 
 1291      6C6C756D 
 1291      696E6174 
 1291      6500
 1292              		.ident	"GCC: (Sourcery G++ Lite 2010q1-188) 4.4.1"
