ARM GAS  C:\DOCUME~1\david\LOCALS~1\Temp\ccrGklkU.s 			page 1


   1              		.syntax unified
   2              		.cpu cortex-m3
   3              		.fpu softvfp
   4              		.eabi_attribute 20, 1
   5              		.eabi_attribute 21, 1
   6              		.eabi_attribute 23, 3
   7              		.eabi_attribute 24, 1
   8              		.eabi_attribute 25, 1
   9              		.eabi_attribute 26, 1
  10              		.eabi_attribute 30, 6
  11              		.eabi_attribute 18, 4
  12              		.thumb
  13              		.file	"matrix.c"
  20 0000 F6000000 		.text
  20      02005500 
  20      00000201 
  20      FB0E0D00 
  20      01010101 
  21              	.Ltext0:
  22              		.cfi_sections	.debug_frame
  23              		.section	.rodata
  24              		.align	2
  25              	.LC0:
  26 0000 6572726F 		.ascii	"error\000"
  26      7200
  27 0006 0000     		.align	2
  28              	.LC1:
  29 0008 636F6C6F 		.ascii	"color mismatch\000"
  29      72206D69 
  29      736D6174 
  29      636800
  30              		.section	.text.matrix_illuminate,"ax",%progbits
  31              		.align	2
  32              		.global	matrix_illuminate
  33              		.thumb
  34              		.thumb_func
  35              		.type	matrix_illuminate, %function
  36              	matrix_illuminate:
  37              	.LFB29:
  38              		.file 1 ".\\matrix.c"
   1:.\matrix.c    **** #include <device.h>
   2:.\matrix.c    **** #include <stdbool.h>
   3:.\matrix.c    **** #include <display.h>
   4:.\matrix.c    **** #include <matrix.h>
   5:.\matrix.c    **** 
   6:.\matrix.c    **** 
   7:.\matrix.c    **** 
   8:.\matrix.c    **** 
   9:.\matrix.c    **** void matrix_illuminate ( int row , int col , uint8 color ) {
  39              		.loc 1 9 0
  40              		.cfi_startproc
ARM GAS  C:\DOCUME~1\david\LOCALS~1\Temp\ccrGklkU.s 			page 2


  41              		@ args = 0, pretend = 0, frame = 32
  42              		@ frame_needed = 1, uses_anonymous_args = 0
  43 0000 80B5     		push	{r7, lr}
  44              	.LCFI0:
  45              		.cfi_def_cfa_offset 8
  46 0002 88B0     		sub	sp, sp, #32
  47              	.LCFI1:
  48              		.cfi_def_cfa_offset 40
  49 0004 00AF     		add	r7, sp, #0
  50              		.cfi_offset 14, -4
  51              		.cfi_offset 7, -8
  52              	.LCFI2:
  53              		.cfi_def_cfa_register 7
  54 0006 F860     		str	r0, [r7, #12]
  55 0008 B960     		str	r1, [r7, #8]
  56 000a 1346     		mov	r3, r2
  57 000c FB71     		strb	r3, [r7, #7]
  10:.\matrix.c    ****     uint8 off = 0x00, on = 0x01;
  58              		.loc 1 10 0
  59 000e 4FF00003 		mov	r3, #0
  60 0012 BB74     		strb	r3, [r7, #18]
  61 0014 4FF00103 		mov	r3, #1
  62 0018 FB74     		strb	r3, [r7, #19]
  63              	.LBB2:
  11:.\matrix.c    ****     if (SERIAL) {
  12:.\matrix.c    ****         uint8 rows = 0b00000001 << row;
  64              		.loc 1 12 0
  65 001a 4FF00102 		mov	r2, #1
  66 001e FB68     		ldr	r3, [r7, #12]
  67 0020 02FA03F3 		lsl	r3, r2, r3
  68 0024 3B75     		strb	r3, [r7, #20]
  13:.\matrix.c    ****         uint8 reds = 0b00000001;
  69              		.loc 1 13 0
  70 0026 4FF00103 		mov	r3, #1
  71 002a 7B75     		strb	r3, [r7, #21]
  14:.\matrix.c    ****         uint8 grns = 0b00000001;
  72              		.loc 1 14 0
  73 002c 4FF00103 		mov	r3, #1
  74 0030 BB75     		strb	r3, [r7, #22]
  15:.\matrix.c    ****         uint8 blus = 0b00000001;
  75              		.loc 1 15 0
  76 0032 4FF00103 		mov	r3, #1
  77 0036 FB75     		strb	r3, [r7, #23]
  16:.\matrix.c    ****         switch (color) {
  78              		.loc 1 16 0
  79 0038 FB79     		ldrb	r3, [r7, #7]	@ zero_extendqisi2
  80 003a 03F1FF33 		add	r3, r3, #-1
  81 003e 062B     		cmp	r3, #6
  82 0040 65D8     		bhi	.L2
  83 0042 01A2     		adr	r2, .L10
  84 0044 52F823F0 		ldr	pc, [r2, r3, lsl #2]
  85              		.align	2
  86              	.L10:
  87 0048 65000000 		.word	.L3+1
  88 004c 79000000 		.word	.L4+1
  89 0050 8D000000 		.word	.L5+1
  90 0054 A7000000 		.word	.L6+1
ARM GAS  C:\DOCUME~1\david\LOCALS~1\Temp\ccrGklkU.s 			page 3


  91 0058 BB000000 		.word	.L7+1
  92 005c D5000000 		.word	.L8+1
  93 0060 EF000000 		.word	.L9+1
  94              	.L3:
  17:.\matrix.c    ****             case RED:     reds <<= col;
  95              		.loc 1 17 0
  96 0064 7A7D     		ldrb	r2, [r7, #21]	@ zero_extendqisi2
  97 0066 BB68     		ldr	r3, [r7, #8]
  98 0068 02FA03F3 		lsl	r3, r2, r3
  99 006c 7B75     		strb	r3, [r7, #21]
  18:.\matrix.c    ****                           grns   = off;
 100              		.loc 1 18 0
 101 006e BB7C     		ldrb	r3, [r7, #18]
 102 0070 BB75     		strb	r3, [r7, #22]
  19:.\matrix.c    ****                           blus   = off; break;
 103              		.loc 1 19 0
 104 0072 BB7C     		ldrb	r3, [r7, #18]
 105 0074 FB75     		strb	r3, [r7, #23]
 106 0076 56E0     		b	.L11
 107              	.L4:
  20:.\matrix.c    ****             case GREEN:   reds   = off;
 108              		.loc 1 20 0
 109 0078 BB7C     		ldrb	r3, [r7, #18]
 110 007a 7B75     		strb	r3, [r7, #21]
  21:.\matrix.c    ****                           grns <<= col;
 111              		.loc 1 21 0
 112 007c BA7D     		ldrb	r2, [r7, #22]	@ zero_extendqisi2
 113 007e BB68     		ldr	r3, [r7, #8]
 114 0080 02FA03F3 		lsl	r3, r2, r3
 115 0084 BB75     		strb	r3, [r7, #22]
  22:.\matrix.c    ****                           blus   = off; break;
 116              		.loc 1 22 0
 117 0086 BB7C     		ldrb	r3, [r7, #18]
 118 0088 FB75     		strb	r3, [r7, #23]
 119 008a 4CE0     		b	.L11
 120              	.L5:
  23:.\matrix.c    ****             case YELLOW:  reds <<= col;
 121              		.loc 1 23 0
 122 008c 7A7D     		ldrb	r2, [r7, #21]	@ zero_extendqisi2
 123 008e BB68     		ldr	r3, [r7, #8]
 124 0090 02FA03F3 		lsl	r3, r2, r3
 125 0094 7B75     		strb	r3, [r7, #21]
  24:.\matrix.c    ****                           grns <<= col;
 126              		.loc 1 24 0
 127 0096 BA7D     		ldrb	r2, [r7, #22]	@ zero_extendqisi2
 128 0098 BB68     		ldr	r3, [r7, #8]
 129 009a 02FA03F3 		lsl	r3, r2, r3
 130 009e BB75     		strb	r3, [r7, #22]
  25:.\matrix.c    ****                           blus   = off; break;
 131              		.loc 1 25 0
 132 00a0 BB7C     		ldrb	r3, [r7, #18]
 133 00a2 FB75     		strb	r3, [r7, #23]
 134 00a4 3FE0     		b	.L11
 135              	.L6:
  26:.\matrix.c    ****             case BLUE:    reds   = off;
 136              		.loc 1 26 0
 137 00a6 BB7C     		ldrb	r3, [r7, #18]
ARM GAS  C:\DOCUME~1\david\LOCALS~1\Temp\ccrGklkU.s 			page 4


 138 00a8 7B75     		strb	r3, [r7, #21]
  27:.\matrix.c    ****                           grns   = off;
 139              		.loc 1 27 0
 140 00aa BB7C     		ldrb	r3, [r7, #18]
 141 00ac BB75     		strb	r3, [r7, #22]
  28:.\matrix.c    ****                           blus <<= col; break;
 142              		.loc 1 28 0
 143 00ae FA7D     		ldrb	r2, [r7, #23]	@ zero_extendqisi2
 144 00b0 BB68     		ldr	r3, [r7, #8]
 145 00b2 02FA03F3 		lsl	r3, r2, r3
 146 00b6 FB75     		strb	r3, [r7, #23]
 147 00b8 35E0     		b	.L11
 148              	.L7:
  29:.\matrix.c    ****             case MAGENTA: reds <<= col;
 149              		.loc 1 29 0
 150 00ba 7A7D     		ldrb	r2, [r7, #21]	@ zero_extendqisi2
 151 00bc BB68     		ldr	r3, [r7, #8]
 152 00be 02FA03F3 		lsl	r3, r2, r3
 153 00c2 7B75     		strb	r3, [r7, #21]
  30:.\matrix.c    ****                           grns   = off;
 154              		.loc 1 30 0
 155 00c4 BB7C     		ldrb	r3, [r7, #18]
 156 00c6 BB75     		strb	r3, [r7, #22]
  31:.\matrix.c    ****                           blus <<= col; break;
 157              		.loc 1 31 0
 158 00c8 FA7D     		ldrb	r2, [r7, #23]	@ zero_extendqisi2
 159 00ca BB68     		ldr	r3, [r7, #8]
 160 00cc 02FA03F3 		lsl	r3, r2, r3
 161 00d0 FB75     		strb	r3, [r7, #23]
 162 00d2 28E0     		b	.L11
 163              	.L8:
  32:.\matrix.c    ****             case CYAN:    reds   = off;
 164              		.loc 1 32 0
 165 00d4 BB7C     		ldrb	r3, [r7, #18]
 166 00d6 7B75     		strb	r3, [r7, #21]
  33:.\matrix.c    ****                           grns <<= col;
 167              		.loc 1 33 0
 168 00d8 BA7D     		ldrb	r2, [r7, #22]	@ zero_extendqisi2
 169 00da BB68     		ldr	r3, [r7, #8]
 170 00dc 02FA03F3 		lsl	r3, r2, r3
 171 00e0 BB75     		strb	r3, [r7, #22]
  34:.\matrix.c    ****                           blus <<= col; break;
 172              		.loc 1 34 0
 173 00e2 FA7D     		ldrb	r2, [r7, #23]	@ zero_extendqisi2
 174 00e4 BB68     		ldr	r3, [r7, #8]
 175 00e6 02FA03F3 		lsl	r3, r2, r3
 176 00ea FB75     		strb	r3, [r7, #23]
 177 00ec 1BE0     		b	.L11
 178              	.L9:
  35:.\matrix.c    ****             case WHITE:   reds <<= col;
 179              		.loc 1 35 0
 180 00ee 7A7D     		ldrb	r2, [r7, #21]	@ zero_extendqisi2
 181 00f0 BB68     		ldr	r3, [r7, #8]
 182 00f2 02FA03F3 		lsl	r3, r2, r3
 183 00f6 7B75     		strb	r3, [r7, #21]
  36:.\matrix.c    ****                           grns <<= col;
 184              		.loc 1 36 0
ARM GAS  C:\DOCUME~1\david\LOCALS~1\Temp\ccrGklkU.s 			page 5


 185 00f8 BA7D     		ldrb	r2, [r7, #22]	@ zero_extendqisi2
 186 00fa BB68     		ldr	r3, [r7, #8]
 187 00fc 02FA03F3 		lsl	r3, r2, r3
 188 0100 BB75     		strb	r3, [r7, #22]
  37:.\matrix.c    ****                           blus <<= col; break;
 189              		.loc 1 37 0
 190 0102 FA7D     		ldrb	r2, [r7, #23]	@ zero_extendqisi2
 191 0104 BB68     		ldr	r3, [r7, #8]
 192 0106 02FA03F3 		lsl	r3, r2, r3
 193 010a FB75     		strb	r3, [r7, #23]
 194 010c 0BE0     		b	.L11
 195              	.L2:
  38:.\matrix.c    ****             
  39:.\matrix.c    ****             default: LCD_UpdateStatus("error");
 196              		.loc 1 39 0
 197 010e 40F20000 		movw	r0, #:lower16:.LC0
 198 0112 C0F20000 		movt	r0, #:upper16:.LC0
 199 0116 FFF7FEFF 		bl	LCD_UpdateStatus
  40:.\matrix.c    ****                      LCD_UpdateMessage("color mismatch");
 200              		.loc 1 40 0
 201 011a 40F20000 		movw	r0, #:lower16:.LC1
 202 011e C0F20000 		movt	r0, #:upper16:.LC1
 203 0122 FFF7FEFF 		bl	LCD_UpdateMessage
 204              	.L11:
  41:.\matrix.c    ****         }
  42:.\matrix.c    ****         
  43:.\matrix.c    ****         rows = ~rows;
 205              		.loc 1 43 0
 206 0126 3B7D     		ldrb	r3, [r7, #20]
 207 0128 6FEA0303 		mvn	r3, r3
 208 012c 3B75     		strb	r3, [r7, #20]
  44:.\matrix.c    ****         reds = ~reds;
 209              		.loc 1 44 0
 210 012e 7B7D     		ldrb	r3, [r7, #21]
 211 0130 6FEA0303 		mvn	r3, r3
 212 0134 7B75     		strb	r3, [r7, #21]
  45:.\matrix.c    ****         grns = ~grns;
 213              		.loc 1 45 0
 214 0136 BB7D     		ldrb	r3, [r7, #22]
 215 0138 6FEA0303 		mvn	r3, r3
 216 013c BB75     		strb	r3, [r7, #22]
  46:.\matrix.c    ****         blus = ~blus;
 217              		.loc 1 46 0
 218 013e FB7D     		ldrb	r3, [r7, #23]
 219 0140 6FEA0303 		mvn	r3, r3
 220 0144 FB75     		strb	r3, [r7, #23]
  47:.\matrix.c    ****         
  48:.\matrix.c    ****         Colors_Write(off);
 221              		.loc 1 48 0
 222 0146 BB7C     		ldrb	r3, [r7, #18]	@ zero_extendqisi2
 223 0148 1846     		mov	r0, r3
 224 014a FFF7FEFF 		bl	Colors_Write
  49:.\matrix.c    ****         int i;
  50:.\matrix.c    ****         for (i=0; i < 8 ;++i) {
 225              		.loc 1 50 0
 226 014e 4FF00003 		mov	r3, #0
 227 0152 BB61     		str	r3, [r7, #24]
ARM GAS  C:\DOCUME~1\david\LOCALS~1\Temp\ccrGklkU.s 			page 6


 228 0154 4BE0     		b	.L12
 229              	.L21:
  51:.\matrix.c    ****             Row_Write(  (rows & (0b10000000 >> i)) ? on : off);
 230              		.loc 1 51 0
 231 0156 3A7D     		ldrb	r2, [r7, #20]	@ zero_extendqisi2
 232 0158 4FF08001 		mov	r1, #128
 233 015c BB69     		ldr	r3, [r7, #24]
 234 015e 41FA03F3 		asr	r3, r1, r3
 235 0162 02EA0303 		and	r3, r2, r3
 236 0166 002B     		cmp	r3, #0
 237 0168 01D0     		beq	.L13
 238 016a FB7C     		ldrb	r3, [r7, #19]	@ zero_extendqisi2
 239 016c 00E0     		b	.L14
 240              	.L13:
 241 016e BB7C     		ldrb	r3, [r7, #18]	@ zero_extendqisi2
 242              	.L14:
 243 0170 1846     		mov	r0, r3
 244 0172 FFF7FEFF 		bl	Row_Write
  52:.\matrix.c    ****             Red_Write(  (reds & (0b10000000 >> i)) ? on : off);
 245              		.loc 1 52 0
 246 0176 7A7D     		ldrb	r2, [r7, #21]	@ zero_extendqisi2
 247 0178 4FF08001 		mov	r1, #128
 248 017c BB69     		ldr	r3, [r7, #24]
 249 017e 41FA03F3 		asr	r3, r1, r3
 250 0182 02EA0303 		and	r3, r2, r3
 251 0186 002B     		cmp	r3, #0
 252 0188 01D0     		beq	.L15
 253 018a FB7C     		ldrb	r3, [r7, #19]	@ zero_extendqisi2
 254 018c 00E0     		b	.L16
 255              	.L15:
 256 018e BB7C     		ldrb	r3, [r7, #18]	@ zero_extendqisi2
 257              	.L16:
 258 0190 1846     		mov	r0, r3
 259 0192 FFF7FEFF 		bl	Red_Write
  53:.\matrix.c    ****             Green_Write((grns & (0b10000000 >> i)) ? on : off);
 260              		.loc 1 53 0
 261 0196 BA7D     		ldrb	r2, [r7, #22]	@ zero_extendqisi2
 262 0198 4FF08001 		mov	r1, #128
 263 019c BB69     		ldr	r3, [r7, #24]
 264 019e 41FA03F3 		asr	r3, r1, r3
 265 01a2 02EA0303 		and	r3, r2, r3
 266 01a6 002B     		cmp	r3, #0
 267 01a8 01D0     		beq	.L17
 268 01aa FB7C     		ldrb	r3, [r7, #19]	@ zero_extendqisi2
 269 01ac 00E0     		b	.L18
 270              	.L17:
 271 01ae BB7C     		ldrb	r3, [r7, #18]	@ zero_extendqisi2
 272              	.L18:
 273 01b0 1846     		mov	r0, r3
 274 01b2 FFF7FEFF 		bl	Green_Write
  54:.\matrix.c    ****             Blue_Write( (blus & (0b10000000 >> i)) ? on : off);
 275              		.loc 1 54 0
 276 01b6 FA7D     		ldrb	r2, [r7, #23]	@ zero_extendqisi2
 277 01b8 4FF08001 		mov	r1, #128
 278 01bc BB69     		ldr	r3, [r7, #24]
 279 01be 41FA03F3 		asr	r3, r1, r3
 280 01c2 02EA0303 		and	r3, r2, r3
ARM GAS  C:\DOCUME~1\david\LOCALS~1\Temp\ccrGklkU.s 			page 7


 281 01c6 002B     		cmp	r3, #0
 282 01c8 01D0     		beq	.L19
 283 01ca FB7C     		ldrb	r3, [r7, #19]	@ zero_extendqisi2
 284 01cc 00E0     		b	.L20
 285              	.L19:
 286 01ce BB7C     		ldrb	r3, [r7, #18]	@ zero_extendqisi2
 287              	.L20:
 288 01d0 1846     		mov	r0, r3
 289 01d2 FFF7FEFF 		bl	Blue_Write
  55:.\matrix.c    ****             
  56:.\matrix.c    ****             //generate a rising edge
  57:.\matrix.c    ****             Shifter_Write(on);
 290              		.loc 1 57 0
 291 01d6 FB7C     		ldrb	r3, [r7, #19]	@ zero_extendqisi2
 292 01d8 1846     		mov	r0, r3
 293 01da FFF7FEFF 		bl	Shifter_Write
  58:.\matrix.c    ****             Shifter_Write(off);
 294              		.loc 1 58 0
 295 01de BB7C     		ldrb	r3, [r7, #18]	@ zero_extendqisi2
 296 01e0 1846     		mov	r0, r3
 297 01e2 FFF7FEFF 		bl	Shifter_Write
 298              		.loc 1 50 0
 299 01e6 BB69     		ldr	r3, [r7, #24]
 300 01e8 03F10103 		add	r3, r3, #1
 301 01ec BB61     		str	r3, [r7, #24]
 302              	.L12:
 303 01ee BB69     		ldr	r3, [r7, #24]
 304 01f0 072B     		cmp	r3, #7
 305 01f2 B0DD     		ble	.L21
  59:.\matrix.c    ****         }
  60:.\matrix.c    ****         Colors_Write(on);
 306              		.loc 1 60 0
 307 01f4 FB7C     		ldrb	r3, [r7, #19]	@ zero_extendqisi2
 308 01f6 1846     		mov	r0, r3
 309 01f8 FFF7FEFF 		bl	Colors_Write
 310              	.LBE2:
  61:.\matrix.c    ****     }
  62:.\matrix.c    ****     else {
  63:.\matrix.c    ****         uint8 r = on, c = on;
  64:.\matrix.c    ****         while (row-- > 0) r *= 2;
  65:.\matrix.c    ****         Row_Write(r);
  66:.\matrix.c    ****         while (col-- > 0) c *= 2;
  67:.\matrix.c    ****         switch (color) {
  68:.\matrix.c    ****             case RED:       Red_Write(c); break;
  69:.\matrix.c    ****             case GREEN:   Green_Write(c); break;
  70:.\matrix.c    ****             case YELLOW:    Red_Write(c);
  71:.\matrix.c    ****                           Green_Write(c); break;
  72:.\matrix.c    ****             case BLUE:     Blue_Write(c); break;
  73:.\matrix.c    ****             case MAGENTA:   Red_Write(c);
  74:.\matrix.c    ****                            Blue_Write(c); break;
  75:.\matrix.c    ****             case CYAN:    Green_Write(c);
  76:.\matrix.c    ****                            Blue_Write(c); break;
  77:.\matrix.c    ****             case WHITE:     Red_Write(c);
  78:.\matrix.c    ****                           Green_Write(c);
  79:.\matrix.c    ****                            Blue_Write(c); break;
  80:.\matrix.c    ****             
  81:.\matrix.c    ****             default: LCD_UpdateStatus("error");
ARM GAS  C:\DOCUME~1\david\LOCALS~1\Temp\ccrGklkU.s 			page 8


  82:.\matrix.c    ****                      LCD_UpdateMessage("color mismatch");
  83:.\matrix.c    ****                      while(true);
  84:.\matrix.c    ****                      break;
  85:.\matrix.c    ****         }
  86:.\matrix.c    ****     }
  87:.\matrix.c    **** }
 311              		.loc 1 87 0
 312 01fc 07F12007 		add	r7, r7, #32
 313 0200 BD46     		mov	sp, r7
 314 0202 80BD     		pop	{r7, pc}
 315              		.cfi_endproc
 316              	.LFE29:
 317              		.size	matrix_illuminate, .-matrix_illuminate
 318              		.section	.text.matrix_deluminate,"ax",%progbits
 319              		.align	2
 320              		.global	matrix_deluminate
 321              		.thumb
 322              		.thumb_func
 323              		.type	matrix_deluminate, %function
 324              	matrix_deluminate:
 325              	.LFB30:
  88:.\matrix.c    **** 
  89:.\matrix.c    **** 
  90:.\matrix.c    **** 
  91:.\matrix.c    **** 
  92:.\matrix.c    **** void matrix_deluminate () {
 326              		.loc 1 92 0
 327              		.cfi_startproc
 328              		@ args = 0, pretend = 0, frame = 8
 329              		@ frame_needed = 1, uses_anonymous_args = 0
 330 0000 80B5     		push	{r7, lr}
 331              	.LCFI3:
 332              		.cfi_def_cfa_offset 8
 333 0002 82B0     		sub	sp, sp, #8
 334              	.LCFI4:
 335              		.cfi_def_cfa_offset 16
 336 0004 00AF     		add	r7, sp, #0
 337              		.cfi_offset 14, -4
 338              		.cfi_offset 7, -8
 339              	.LCFI5:
 340              		.cfi_def_cfa_register 7
  93:.\matrix.c    ****     uint8 off = 0x00, on = 0x01;
 341              		.loc 1 93 0
 342 0006 4FF00003 		mov	r3, #0
 343 000a BB70     		strb	r3, [r7, #2]
 344 000c 4FF00103 		mov	r3, #1
 345 0010 FB70     		strb	r3, [r7, #3]
 346              	.LBB3:
  94:.\matrix.c    ****     if (SERIAL) {
  95:.\matrix.c    ****         Colors_Write(off);
 347              		.loc 1 95 0
 348 0012 BB78     		ldrb	r3, [r7, #2]	@ zero_extendqisi2
 349 0014 1846     		mov	r0, r3
 350 0016 FFF7FEFF 		bl	Colors_Write
  96:.\matrix.c    ****         int i;
  97:.\matrix.c    ****         for (i=0; i < 8 ;++i) {
 351              		.loc 1 97 0
ARM GAS  C:\DOCUME~1\david\LOCALS~1\Temp\ccrGklkU.s 			page 9


 352 001a 4FF00003 		mov	r3, #0
 353 001e 7B60     		str	r3, [r7, #4]
 354 0020 1BE0     		b	.L24
 355              	.L25:
  98:.\matrix.c    ****             Row_Write(0xFF);
 356              		.loc 1 98 0
 357 0022 4FF0FF00 		mov	r0, #255
 358 0026 FFF7FEFF 		bl	Row_Write
  99:.\matrix.c    ****             Red_Write(0xFF);
 359              		.loc 1 99 0
 360 002a 4FF0FF00 		mov	r0, #255
 361 002e FFF7FEFF 		bl	Red_Write
 100:.\matrix.c    ****             Green_Write(0xFF);
 362              		.loc 1 100 0
 363 0032 4FF0FF00 		mov	r0, #255
 364 0036 FFF7FEFF 		bl	Green_Write
 101:.\matrix.c    ****             Blue_Write(0xFF);
 365              		.loc 1 101 0
 366 003a 4FF0FF00 		mov	r0, #255
 367 003e FFF7FEFF 		bl	Blue_Write
 102:.\matrix.c    ****             
 103:.\matrix.c    ****             //generate a rising edge
 104:.\matrix.c    ****             Shifter_Write(on);
 368              		.loc 1 104 0
 369 0042 FB78     		ldrb	r3, [r7, #3]	@ zero_extendqisi2
 370 0044 1846     		mov	r0, r3
 371 0046 FFF7FEFF 		bl	Shifter_Write
 105:.\matrix.c    ****             Shifter_Write(off);
 372              		.loc 1 105 0
 373 004a BB78     		ldrb	r3, [r7, #2]	@ zero_extendqisi2
 374 004c 1846     		mov	r0, r3
 375 004e FFF7FEFF 		bl	Shifter_Write
 376              		.loc 1 97 0
 377 0052 7B68     		ldr	r3, [r7, #4]
 378 0054 03F10103 		add	r3, r3, #1
 379 0058 7B60     		str	r3, [r7, #4]
 380              	.L24:
 381 005a 7B68     		ldr	r3, [r7, #4]
 382 005c 072B     		cmp	r3, #7
 383 005e E0DD     		ble	.L25
 106:.\matrix.c    ****         }
 107:.\matrix.c    ****         Colors_Write(on);
 384              		.loc 1 107 0
 385 0060 FB78     		ldrb	r3, [r7, #3]	@ zero_extendqisi2
 386 0062 1846     		mov	r0, r3
 387 0064 FFF7FEFF 		bl	Colors_Write
 388              	.LBE3:
 108:.\matrix.c    ****     }
 109:.\matrix.c    ****     else {
 110:.\matrix.c    ****         Row_Write(off);
 111:.\matrix.c    ****         Red_Write(off);
 112:.\matrix.c    ****         Green_Write(off);
 113:.\matrix.c    ****         Blue_Write(off);
 114:.\matrix.c    ****     }
 115:.\matrix.c    **** }
 389              		.loc 1 115 0
 390 0068 07F10807 		add	r7, r7, #8
ARM GAS  C:\DOCUME~1\david\LOCALS~1\Temp\ccrGklkU.s 			page 10


 391 006c BD46     		mov	sp, r7
 392 006e 80BD     		pop	{r7, pc}
 393              		.cfi_endproc
 394              	.LFE30:
 395              		.size	matrix_deluminate, .-matrix_deluminate
 396              		.section	.rodata
 397 0017 00       		.align	2
 398              	.LC2:
 399 0018 20202020 		.ascii	"       \000"
 399      20202000 
 400              		.align	2
 401              	.LC3:
 402 0020 52656400 		.ascii	"Red\000"
 403              		.align	2
 404              	.LC4:
 405 0024 47726565 		.ascii	"Green\000"
 405      6E00
 406 002a 0000     		.align	2
 407              	.LC5:
 408 002c 59656C6C 		.ascii	"Yellow\000"
 408      6F7700
 409 0033 00       		.align	2
 410              	.LC6:
 411 0034 426C7565 		.ascii	"Blue\000"
 411      00
 412 0039 000000   		.align	2
 413              	.LC7:
 414 003c 4D616765 		.ascii	"Magenta\000"
 414      6E746100 
 415              		.align	2
 416              	.LC8:
 417 0044 4379616E 		.ascii	"Cyan\000"
 417      00
 418 0049 000000   		.align	2
 419              	.LC9:
 420 004c 57686974 		.ascii	"White\000"
 420      6500
 421 0052 0000     		.section	.text.matrix_test,"ax",%progbits
 422              		.align	2
 423              		.global	matrix_test
 424              		.thumb
 425              		.thumb_func
 426              		.type	matrix_test, %function
 427              	matrix_test:
 428              	.LFB31:
 116:.\matrix.c    **** 
 117:.\matrix.c    **** 
 118:.\matrix.c    **** 
 119:.\matrix.c    **** 
 120:.\matrix.c    **** void matrix_test ( bool extended , bool slow ) {
 429              		.loc 1 120 0
 430              		.cfi_startproc
 431              		@ args = 0, pretend = 0, frame = 16
 432              		@ frame_needed = 1, uses_anonymous_args = 0
 433 0000 80B5     		push	{r7, lr}
 434              	.LCFI6:
 435              		.cfi_def_cfa_offset 8
ARM GAS  C:\DOCUME~1\david\LOCALS~1\Temp\ccrGklkU.s 			page 11


 436 0002 84B0     		sub	sp, sp, #16
 437              	.LCFI7:
 438              		.cfi_def_cfa_offset 24
 439 0004 00AF     		add	r7, sp, #0
 440              		.cfi_offset 14, -4
 441              		.cfi_offset 7, -8
 442              	.LCFI8:
 443              		.cfi_def_cfa_register 7
 444 0006 0246     		mov	r2, r0
 445 0008 0B46     		mov	r3, r1
 446 000a FA71     		strb	r2, [r7, #7]
 447 000c BB71     		strb	r3, [r7, #6]
 121:.\matrix.c    ****     matrix_deluminate();
 448              		.loc 1 121 0
 449 000e FFF7FEFF 		bl	matrix_deluminate
 122:.\matrix.c    ****     uint8 color = 0x01;
 450              		.loc 1 122 0
 451 0012 4FF00103 		mov	r3, #1
 452 0016 7B73     		strb	r3, [r7, #13]
 123:.\matrix.c    ****     while (color < 0x08) {
 453              		.loc 1 123 0
 454 0018 C5E0     		b	.L28
 455              	.L48:
 456              	.LBB4:
 124:.\matrix.c    ****         uint8 i, j;
 125:.\matrix.c    ****         for (i=0; i < MATRIX_ROWS ;++i) {
 457              		.loc 1 125 0
 458 001a 4FF00003 		mov	r3, #0
 459 001e BB73     		strb	r3, [r7, #14]
 460 0020 B0E0     		b	.L29
 461              	.L45:
 126:.\matrix.c    ****             for (j=0; j < MATRIX_COLS ;++j) {
 462              		.loc 1 126 0
 463 0022 4FF00003 		mov	r3, #0
 464 0026 FB73     		strb	r3, [r7, #15]
 465 0028 A4E0     		b	.L30
 466              	.L44:
 127:.\matrix.c    ****                 LCD_ClearLine(1);
 467              		.loc 1 127 0
 468 002a 4FF00100 		mov	r0, #1
 469 002e FFF7FEFF 		bl	LCD_ClearLine
 128:.\matrix.c    ****                 LCD_Position(1,0);
 470              		.loc 1 128 0
 471 0032 4FF00100 		mov	r0, #1
 472 0036 4FF00001 		mov	r1, #0
 473 003a FFF7FEFF 		bl	LCD_Position
 129:.\matrix.c    ****                 LCD_PrintNumber(i);
 474              		.loc 1 129 0
 475 003e BB7B     		ldrb	r3, [r7, #14]	@ zero_extendqisi2
 476 0040 1846     		mov	r0, r3
 477 0042 FFF7FEFF 		bl	LCD_PrintNumber
 130:.\matrix.c    ****                 LCD_Position(1,1);
 478              		.loc 1 130 0
 479 0046 4FF00100 		mov	r0, #1
 480 004a 4FF00101 		mov	r1, #1
 481 004e FFF7FEFF 		bl	LCD_Position
 131:.\matrix.c    ****                 LCD_PutChar(',');
ARM GAS  C:\DOCUME~1\david\LOCALS~1\Temp\ccrGklkU.s 			page 12


 482              		.loc 1 131 0
 483 0052 4FF02C00 		mov	r0, #44
 484 0056 FFF7FEFF 		bl	LCD_PutChar
 132:.\matrix.c    ****                 LCD_Position(1,2);
 485              		.loc 1 132 0
 486 005a 4FF00100 		mov	r0, #1
 487 005e 4FF00201 		mov	r1, #2
 488 0062 FFF7FEFF 		bl	LCD_Position
 133:.\matrix.c    ****                 LCD_PrintNumber(j);
 489              		.loc 1 133 0
 490 0066 FB7B     		ldrb	r3, [r7, #15]	@ zero_extendqisi2
 491 0068 1846     		mov	r0, r3
 492 006a FFF7FEFF 		bl	LCD_PrintNumber
 134:.\matrix.c    ****                 LCD_Position(1,4);
 493              		.loc 1 134 0
 494 006e 4FF00100 		mov	r0, #1
 495 0072 4FF00401 		mov	r1, #4
 496 0076 FFF7FEFF 		bl	LCD_Position
 135:.\matrix.c    ****                 LCD_PrintString("       ");
 497              		.loc 1 135 0
 498 007a 40F20000 		movw	r0, #:lower16:.LC2
 499 007e C0F20000 		movt	r0, #:upper16:.LC2
 500 0082 FFF7FEFF 		bl	LCD_PrintString
 136:.\matrix.c    ****                 LCD_Position(1,4);
 501              		.loc 1 136 0
 502 0086 4FF00100 		mov	r0, #1
 503 008a 4FF00401 		mov	r1, #4
 504 008e FFF7FEFF 		bl	LCD_Position
 137:.\matrix.c    ****                 switch (color) {
 505              		.loc 1 137 0
 506 0092 7B7B     		ldrb	r3, [r7, #13]	@ zero_extendqisi2
 507 0094 03F1FF33 		add	r3, r3, #-1
 508 0098 062B     		cmp	r3, #6
 509 009a 42D8     		bhi	.L31
 510 009c 01A2     		adr	r2, .L39
 511 009e 52F823F0 		ldr	pc, [r2, r3, lsl #2]
 512 00a2 00BF     		.align	2
 513              	.L39:
 514 00a4 C1000000 		.word	.L32+1
 515 00a8 CF000000 		.word	.L33+1
 516 00ac DD000000 		.word	.L34+1
 517 00b0 EB000000 		.word	.L35+1
 518 00b4 F9000000 		.word	.L36+1
 519 00b8 07010000 		.word	.L37+1
 520 00bc 15010000 		.word	.L38+1
 521              	.L32:
 138:.\matrix.c    ****                     case RED:     LCD_PrintString("Red");     break;
 522              		.loc 1 138 0
 523 00c0 40F20000 		movw	r0, #:lower16:.LC3
 524 00c4 C0F20000 		movt	r0, #:upper16:.LC3
 525 00c8 FFF7FEFF 		bl	LCD_PrintString
 526 00cc 36E0     		b	.L40
 527              	.L33:
 139:.\matrix.c    ****                     case GREEN:   LCD_PrintString("Green");   break;
 528              		.loc 1 139 0
 529 00ce 40F20000 		movw	r0, #:lower16:.LC4
 530 00d2 C0F20000 		movt	r0, #:upper16:.LC4
ARM GAS  C:\DOCUME~1\david\LOCALS~1\Temp\ccrGklkU.s 			page 13


 531 00d6 FFF7FEFF 		bl	LCD_PrintString
 532 00da 2FE0     		b	.L40
 533              	.L34:
 140:.\matrix.c    ****                     case YELLOW:  LCD_PrintString("Yellow");  break;
 534              		.loc 1 140 0
 535 00dc 40F20000 		movw	r0, #:lower16:.LC5
 536 00e0 C0F20000 		movt	r0, #:upper16:.LC5
 537 00e4 FFF7FEFF 		bl	LCD_PrintString
 538 00e8 28E0     		b	.L40
 539              	.L35:
 141:.\matrix.c    ****                     case BLUE:    LCD_PrintString("Blue");    break;
 540              		.loc 1 141 0
 541 00ea 40F20000 		movw	r0, #:lower16:.LC6
 542 00ee C0F20000 		movt	r0, #:upper16:.LC6
 543 00f2 FFF7FEFF 		bl	LCD_PrintString
 544 00f6 21E0     		b	.L40
 545              	.L36:
 142:.\matrix.c    ****                     case MAGENTA: LCD_PrintString("Magenta"); break;
 546              		.loc 1 142 0
 547 00f8 40F20000 		movw	r0, #:lower16:.LC7
 548 00fc C0F20000 		movt	r0, #:upper16:.LC7
 549 0100 FFF7FEFF 		bl	LCD_PrintString
 550 0104 1AE0     		b	.L40
 551              	.L37:
 143:.\matrix.c    ****                     case CYAN:    LCD_PrintString("Cyan");    break;
 552              		.loc 1 143 0
 553 0106 40F20000 		movw	r0, #:lower16:.LC8
 554 010a C0F20000 		movt	r0, #:upper16:.LC8
 555 010e FFF7FEFF 		bl	LCD_PrintString
 556 0112 13E0     		b	.L40
 557              	.L38:
 144:.\matrix.c    ****                     case WHITE:   LCD_PrintString("White");   break;
 558              		.loc 1 144 0
 559 0114 40F20000 		movw	r0, #:lower16:.LC9
 560 0118 C0F20000 		movt	r0, #:upper16:.LC9
 561 011c FFF7FEFF 		bl	LCD_PrintString
 562 0120 0CE0     		b	.L40
 563              	.L31:
 145:.\matrix.c    ****                     
 146:.\matrix.c    ****                     default: LCD_UpdateStatus("error");
 564              		.loc 1 146 0
 565 0122 40F20000 		movw	r0, #:lower16:.LC0
 566 0126 C0F20000 		movt	r0, #:upper16:.LC0
 567 012a FFF7FEFF 		bl	LCD_UpdateStatus
 147:.\matrix.c    ****                              LCD_UpdateMessage("color mismatch");
 568              		.loc 1 147 0
 569 012e 40F20000 		movw	r0, #:lower16:.LC1
 570 0132 C0F20000 		movt	r0, #:upper16:.LC1
 571 0136 FFF7FEFF 		bl	LCD_UpdateMessage
 572              	.L41:
 148:.\matrix.c    ****                              while(true);
 573              		.loc 1 148 0
 574 013a FEE7     		b	.L41
 575              	.L40:
 149:.\matrix.c    ****                              break;
 150:.\matrix.c    ****                 }
 151:.\matrix.c    ****                 matrix_illuminate(i,j,color);
ARM GAS  C:\DOCUME~1\david\LOCALS~1\Temp\ccrGklkU.s 			page 14


 576              		.loc 1 151 0
 577 013c B97B     		ldrb	r1, [r7, #14]	@ zero_extendqisi2
 578 013e FA7B     		ldrb	r2, [r7, #15]	@ zero_extendqisi2
 579 0140 7B7B     		ldrb	r3, [r7, #13]	@ zero_extendqisi2
 580 0142 0846     		mov	r0, r1
 581 0144 1146     		mov	r1, r2
 582 0146 1A46     		mov	r2, r3
 583 0148 FFF7FEFF 		bl	matrix_illuminate
 152:.\matrix.c    ****                 //CyDelay((slow) ? 1000/MATRIX_COLS : 5);
 153:.\matrix.c    ****                 CyDelay((color == WHITE && j > 5) ? 1000 : 5);
 584              		.loc 1 153 0
 585 014c 7B7B     		ldrb	r3, [r7, #13]	@ zero_extendqisi2
 586 014e 072B     		cmp	r3, #7
 587 0150 05D1     		bne	.L42
 588 0152 FB7B     		ldrb	r3, [r7, #15]	@ zero_extendqisi2
 589 0154 052B     		cmp	r3, #5
 590 0156 02D9     		bls	.L42
 591 0158 4FF47A73 		mov	r3, #1000
 592 015c 01E0     		b	.L43
 593              	.L42:
 594 015e 4FF00503 		mov	r3, #5
 595              	.L43:
 596 0162 1846     		mov	r0, r3
 597 0164 FFF7FEFF 		bl	CyDelay
 154:.\matrix.c    ****                 matrix_deluminate();
 598              		.loc 1 154 0
 599 0168 FFF7FEFF 		bl	matrix_deluminate
 600              		.loc 1 126 0
 601 016c FB7B     		ldrb	r3, [r7, #15]
 602 016e 03F10103 		add	r3, r3, #1
 603 0172 FB73     		strb	r3, [r7, #15]
 604              	.L30:
 605 0174 FB7B     		ldrb	r3, [r7, #15]	@ zero_extendqisi2
 606 0176 072B     		cmp	r3, #7
 607 0178 7FF657AF 		bls	.L44
 608              		.loc 1 125 0
 609 017c BB7B     		ldrb	r3, [r7, #14]
 610 017e 03F10103 		add	r3, r3, #1
 611 0182 BB73     		strb	r3, [r7, #14]
 612              	.L29:
 613 0184 BB7B     		ldrb	r3, [r7, #14]	@ zero_extendqisi2
 614 0186 072B     		cmp	r3, #7
 615 0188 7FF64BAF 		bls	.L45
 155:.\matrix.c    ****             }
 156:.\matrix.c    ****         }
 157:.\matrix.c    ****         color = (extended) ? color+1 : color*2;
 616              		.loc 1 157 0
 617 018c FB79     		ldrb	r3, [r7, #7]	@ zero_extendqisi2
 618 018e 002B     		cmp	r3, #0
 619 0190 04D0     		beq	.L46
 620 0192 7B7B     		ldrb	r3, [r7, #13]
 621 0194 03F10103 		add	r3, r3, #1
 622 0198 DBB2     		uxtb	r3, r3
 623 019a 03E0     		b	.L47
 624              	.L46:
 625 019c 7B7B     		ldrb	r3, [r7, #13]
 626 019e 4FEA4303 		lsl	r3, r3, #1
ARM GAS  C:\DOCUME~1\david\LOCALS~1\Temp\ccrGklkU.s 			page 15


 627 01a2 DBB2     		uxtb	r3, r3
 628              	.L47:
 629 01a4 7B73     		strb	r3, [r7, #13]
 630              	.L28:
 631              	.LBE4:
 632              		.loc 1 123 0
 633 01a6 7B7B     		ldrb	r3, [r7, #13]	@ zero_extendqisi2
 634 01a8 072B     		cmp	r3, #7
 635 01aa 7FF636AF 		bls	.L48
 158:.\matrix.c    ****     }
 159:.\matrix.c    **** }
 636              		.loc 1 159 0
 637 01ae 07F11007 		add	r7, r7, #16
 638 01b2 BD46     		mov	sp, r7
 639 01b4 80BD     		pop	{r7, pc}
 640              		.cfi_endproc
 641              	.LFE31:
 642              		.size	matrix_test, .-matrix_test
 643 01b6 00BF     		.text
 644              	.Letext0: