ARM GAS  C:\DOCUME~1\dtucker\LOCALS~1\Temp\ccqptpxk.s 			page 1


   1              		.syntax unified
   2              		.cpu cortex-m3
   3              		.fpu softvfp
   4              		.eabi_attribute 20, 1
   5              		.eabi_attribute 21, 1
   6              		.eabi_attribute 23, 3
   7              		.eabi_attribute 24, 1
   8              		.eabi_attribute 25, 1
   9              		.eabi_attribute 26, 1
  10              		.eabi_attribute 30, 6
  11              		.eabi_attribute 18, 4
  12              		.thumb
  13              		.file	"main.c"
  20 0000 ED000000 		.text
  20      02005300 
  20      00000201 
  20      FB0E0D00 
  20      01010101 
  21              	.Ltext0:
  22              		.cfi_sections	.debug_frame
  23              		.section	.rodata
  24              		.align	1
  25              		.type	POST, %object
  26              		.size	POST, 2
  27              	POST:
  28 0000 E803     		.short	1000
  29              		.section	.text.LCD_Spin,"ax",%progbits
  30              		.align	2
  31              		.global	LCD_Spin
  32              		.thumb
  33              		.thumb_func
  34              		.type	LCD_Spin, %function
  35              	LCD_Spin:
  36              	.LFB29:
  37              		.file 1 ".\\main.c"
   1:.\main.c      **** #define SIZE 4096
   2:.\main.c      **** #define VERBOSE false
   3:.\main.c      **** 
   4:.\main.c      **** #include <device.h>
   5:.\main.c      **** #include <stdbool.h>
   6:.\main.c      **** 
   7:.\main.c      **** 
   8:.\main.c      **** 
   9:.\main.c      **** 
  10:.\main.c      **** static const uint16 POST = 1000;
  11:.\main.c      **** 
  12:.\main.c      **** 
  13:.\main.c      **** 
  14:.\main.c      **** 
  15:.\main.c      **** void LCD_Spin (int row, int col, int speed, int count) {
  38              		.loc 1 15 0
ARM GAS  C:\DOCUME~1\dtucker\LOCALS~1\Temp\ccqptpxk.s 			page 2


  39              		.cfi_startproc
  40              		@ args = 0, pretend = 0, frame = 16
  41              		@ frame_needed = 1, uses_anonymous_args = 0
  42 0000 80B5     		push	{r7, lr}
  43              	.LCFI0:
  44              		.cfi_def_cfa_offset 8
  45 0002 84B0     		sub	sp, sp, #16
  46              	.LCFI1:
  47              		.cfi_def_cfa_offset 24
  48 0004 00AF     		add	r7, sp, #0
  49              		.cfi_offset 14, -4
  50              		.cfi_offset 7, -8
  51              	.LCFI2:
  52              		.cfi_def_cfa_register 7
  53 0006 F860     		str	r0, [r7, #12]
  54 0008 B960     		str	r1, [r7, #8]
  55 000a 7A60     		str	r2, [r7, #4]
  56 000c 3B60     		str	r3, [r7, #0]
  16:.\main.c      ****     for (; count > 0 ;--count) {
  57              		.loc 1 16 0
  58 000e 50E0     		b	.L2
  59              	.L3:
  17:.\main.c      ****         LCD_Position(row,col);
  60              		.loc 1 17 0
  61 0010 FB68     		ldr	r3, [r7, #12]
  62 0012 DAB2     		uxtb	r2, r3
  63 0014 BB68     		ldr	r3, [r7, #8]
  64 0016 DBB2     		uxtb	r3, r3
  65 0018 1046     		mov	r0, r2
  66 001a 1946     		mov	r1, r3
  67 001c FFF7FEFF 		bl	LCD_Position
  18:.\main.c      ****         LCD_PutChar('|');
  68              		.loc 1 18 0
  69 0020 4FF07C00 		mov	r0, #124
  70 0024 FFF7FEFF 		bl	LCD_PutChar
  19:.\main.c      ****         CyDelay(speed*3/8);
  71              		.loc 1 19 0
  72 0028 7A68     		ldr	r2, [r7, #4]
  73 002a 1346     		mov	r3, r2
  74 002c 4FEA4303 		lsl	r3, r3, #1
  75 0030 1344     		add	r3, r3, r2
  76 0032 03F10702 		add	r2, r3, #7
  77 0036 002B     		cmp	r3, #0
  78 0038 B8BF     		it	lt
  79 003a 1346     		movlt	r3, r2
  80 003c 4FEAE303 		asr	r3, r3, #3
  81 0040 1846     		mov	r0, r3
  82 0042 FFF7FEFF 		bl	CyDelay
  20:.\main.c      ****         LCD_Position(row,col);
  83              		.loc 1 20 0
  84 0046 FB68     		ldr	r3, [r7, #12]
  85 0048 DAB2     		uxtb	r2, r3
  86 004a BB68     		ldr	r3, [r7, #8]
  87 004c DBB2     		uxtb	r3, r3
  88 004e 1046     		mov	r0, r2
  89 0050 1946     		mov	r1, r3
  90 0052 FFF7FEFF 		bl	LCD_Position
ARM GAS  C:\DOCUME~1\dtucker\LOCALS~1\Temp\ccqptpxk.s 			page 3


  21:.\main.c      ****         LCD_PutChar('/');
  91              		.loc 1 21 0
  92 0056 4FF02F00 		mov	r0, #47
  93 005a FFF7FEFF 		bl	LCD_PutChar
  22:.\main.c      ****         CyDelay(speed/4);
  94              		.loc 1 22 0
  95 005e 7B68     		ldr	r3, [r7, #4]
  96 0060 03F10302 		add	r2, r3, #3
  97 0064 002B     		cmp	r3, #0
  98 0066 B8BF     		it	lt
  99 0068 1346     		movlt	r3, r2
 100 006a 4FEAA303 		asr	r3, r3, #2
 101 006e 1846     		mov	r0, r3
 102 0070 FFF7FEFF 		bl	CyDelay
  23:.\main.c      ****         LCD_Position(row,col);
 103              		.loc 1 23 0
 104 0074 FB68     		ldr	r3, [r7, #12]
 105 0076 DAB2     		uxtb	r2, r3
 106 0078 BB68     		ldr	r3, [r7, #8]
 107 007a DBB2     		uxtb	r3, r3
 108 007c 1046     		mov	r0, r2
 109 007e 1946     		mov	r1, r3
 110 0080 FFF7FEFF 		bl	LCD_Position
  24:.\main.c      ****         LCD_PutChar('-');
 111              		.loc 1 24 0
 112 0084 4FF02D00 		mov	r0, #45
 113 0088 FFF7FEFF 		bl	LCD_PutChar
  25:.\main.c      ****         CyDelay(speed*3/8);
 114              		.loc 1 25 0
 115 008c 7A68     		ldr	r2, [r7, #4]
 116 008e 1346     		mov	r3, r2
 117 0090 4FEA4303 		lsl	r3, r3, #1
 118 0094 1344     		add	r3, r3, r2
 119 0096 03F10702 		add	r2, r3, #7
 120 009a 002B     		cmp	r3, #0
 121 009c B8BF     		it	lt
 122 009e 1346     		movlt	r3, r2
 123 00a0 4FEAE303 		asr	r3, r3, #3
 124 00a4 1846     		mov	r0, r3
 125 00a6 FFF7FEFF 		bl	CyDelay
 126              		.loc 1 16 0
 127 00aa 3B68     		ldr	r3, [r7, #0]
 128 00ac 03F1FF33 		add	r3, r3, #-1
 129 00b0 3B60     		str	r3, [r7, #0]
 130              	.L2:
 131 00b2 3B68     		ldr	r3, [r7, #0]
 132 00b4 002B     		cmp	r3, #0
 133 00b6 ABDC     		bgt	.L3
  26:.\main.c      ****         //LCD_Position(row,col);
  27:.\main.c      ****         //LCD_PutChar('\\');
  28:.\main.c      ****         //CyDelay(speed/4);
  29:.\main.c      ****     }
  30:.\main.c      **** }
 134              		.loc 1 30 0
 135 00b8 07F11007 		add	r7, r7, #16
 136 00bc BD46     		mov	sp, r7
 137 00be 80BD     		pop	{r7, pc}
ARM GAS  C:\DOCUME~1\dtucker\LOCALS~1\Temp\ccqptpxk.s 			page 4


 138              		.cfi_endproc
 139              	.LFE29:
 140              		.size	LCD_Spin, .-LCD_Spin
 141              		.section	.rodata
 142 0002 0000     		.align	2
 143              	.LC0:
 144 0004 20202020 		.ascii	"                \000"
 144      20202020 
 144      20202020 
 144      20202020 
 144      00
 145              		.section	.text.LCD_ClearLine,"ax",%progbits
 146              		.align	2
 147              		.global	LCD_ClearLine
 148              		.thumb
 149              		.thumb_func
 150              		.type	LCD_ClearLine, %function
 151              	LCD_ClearLine:
 152              	.LFB30:
  31:.\main.c      **** 
  32:.\main.c      **** 
  33:.\main.c      **** 
  34:.\main.c      **** void LCD_ClearLine (int line) {
 153              		.loc 1 34 0
 154              		.cfi_startproc
 155              		@ args = 0, pretend = 0, frame = 8
 156              		@ frame_needed = 1, uses_anonymous_args = 0
 157 0000 80B5     		push	{r7, lr}
 158              	.LCFI3:
 159              		.cfi_def_cfa_offset 8
 160 0002 82B0     		sub	sp, sp, #8
 161              	.LCFI4:
 162              		.cfi_def_cfa_offset 16
 163 0004 00AF     		add	r7, sp, #0
 164              		.cfi_offset 14, -4
 165              		.cfi_offset 7, -8
 166              	.LCFI5:
 167              		.cfi_def_cfa_register 7
 168 0006 7860     		str	r0, [r7, #4]
  35:.\main.c      ****     LCD_Position(line,0);
 169              		.loc 1 35 0
 170 0008 7B68     		ldr	r3, [r7, #4]
 171 000a DBB2     		uxtb	r3, r3
 172 000c 1846     		mov	r0, r3
 173 000e 4FF00001 		mov	r1, #0
 174 0012 FFF7FEFF 		bl	LCD_Position
  36:.\main.c      ****     LCD_PrintString("                ");
 175              		.loc 1 36 0
 176 0016 40F20000 		movw	r0, #:lower16:.LC0
 177 001a C0F20000 		movt	r0, #:upper16:.LC0
 178 001e FFF7FEFF 		bl	LCD_PrintString
  37:.\main.c      **** }
 179              		.loc 1 37 0
 180 0022 07F10807 		add	r7, r7, #8
 181 0026 BD46     		mov	sp, r7
 182 0028 80BD     		pop	{r7, pc}
 183              		.cfi_endproc
ARM GAS  C:\DOCUME~1\dtucker\LOCALS~1\Temp\ccqptpxk.s 			page 5


 184              	.LFE30:
 185              		.size	LCD_ClearLine, .-LCD_ClearLine
 186 002a 00BF     		.section	.text.LCD_UpdateStatus,"ax",%progbits
 187              		.align	2
 188              		.global	LCD_UpdateStatus
 189              		.thumb
 190              		.thumb_func
 191              		.type	LCD_UpdateStatus, %function
 192              	LCD_UpdateStatus:
 193              	.LFB31:
  38:.\main.c      **** 
  39:.\main.c      **** 
  40:.\main.c      **** 
  41:.\main.c      **** 
  42:.\main.c      **** void LCD_UpdateStatus (const char string[]) {
 194              		.loc 1 42 0
 195              		.cfi_startproc
 196              		@ args = 0, pretend = 0, frame = 8
 197              		@ frame_needed = 1, uses_anonymous_args = 0
 198 0000 80B5     		push	{r7, lr}
 199              	.LCFI6:
 200              		.cfi_def_cfa_offset 8
 201 0002 82B0     		sub	sp, sp, #8
 202              	.LCFI7:
 203              		.cfi_def_cfa_offset 16
 204 0004 00AF     		add	r7, sp, #0
 205              		.cfi_offset 14, -4
 206              		.cfi_offset 7, -8
 207              	.LCFI8:
 208              		.cfi_def_cfa_register 7
 209 0006 7860     		str	r0, [r7, #4]
  43:.\main.c      ****     LCD_ClearDisplay();
 210              		.loc 1 43 0
 211 0008 4FF00100 		mov	r0, #1
 212 000c FFF7FEFF 		bl	LCD_WriteControl
  44:.\main.c      ****     LCD_Position(0,0);
 213              		.loc 1 44 0
 214 0010 4FF00000 		mov	r0, #0
 215 0014 4FF00001 		mov	r1, #0
 216 0018 FFF7FEFF 		bl	LCD_Position
  45:.\main.c      ****     LCD_PrintString(string);
 217              		.loc 1 45 0
 218 001c 7868     		ldr	r0, [r7, #4]
 219 001e FFF7FEFF 		bl	LCD_PrintString
  46:.\main.c      **** }
 220              		.loc 1 46 0
 221 0022 07F10807 		add	r7, r7, #8
 222 0026 BD46     		mov	sp, r7
 223 0028 80BD     		pop	{r7, pc}
 224              		.cfi_endproc
 225              	.LFE31:
 226              		.size	LCD_UpdateStatus, .-LCD_UpdateStatus
 227 002a 00BF     		.section	.text.LCD_UpdateMessage,"ax",%progbits
 228              		.align	2
 229              		.global	LCD_UpdateMessage
 230              		.thumb
 231              		.thumb_func
ARM GAS  C:\DOCUME~1\dtucker\LOCALS~1\Temp\ccqptpxk.s 			page 6


 232              		.type	LCD_UpdateMessage, %function
 233              	LCD_UpdateMessage:
 234              	.LFB32:
  47:.\main.c      **** 
  48:.\main.c      **** 
  49:.\main.c      **** 
  50:.\main.c      **** 
  51:.\main.c      **** void LCD_UpdateMessage (const char string[]) {
 235              		.loc 1 51 0
 236              		.cfi_startproc
 237              		@ args = 0, pretend = 0, frame = 8
 238              		@ frame_needed = 1, uses_anonymous_args = 0
 239 0000 80B5     		push	{r7, lr}
 240              	.LCFI9:
 241              		.cfi_def_cfa_offset 8
 242 0002 82B0     		sub	sp, sp, #8
 243              	.LCFI10:
 244              		.cfi_def_cfa_offset 16
 245 0004 00AF     		add	r7, sp, #0
 246              		.cfi_offset 14, -4
 247              		.cfi_offset 7, -8
 248              	.LCFI11:
 249              		.cfi_def_cfa_register 7
 250 0006 7860     		str	r0, [r7, #4]
  52:.\main.c      ****     LCD_ClearLine(1);
 251              		.loc 1 52 0
 252 0008 4FF00100 		mov	r0, #1
 253 000c FFF7FEFF 		bl	LCD_ClearLine
  53:.\main.c      ****     LCD_Position(1,0);
 254              		.loc 1 53 0
 255 0010 4FF00100 		mov	r0, #1
 256 0014 4FF00001 		mov	r1, #0
 257 0018 FFF7FEFF 		bl	LCD_Position
  54:.\main.c      ****     LCD_PrintString(string);
 258              		.loc 1 54 0
 259 001c 7868     		ldr	r0, [r7, #4]
 260 001e FFF7FEFF 		bl	LCD_PrintString
  55:.\main.c      **** }
 261              		.loc 1 55 0
 262 0022 07F10807 		add	r7, r7, #8
 263 0026 BD46     		mov	sp, r7
 264 0028 80BD     		pop	{r7, pc}
 265              		.cfi_endproc
 266              	.LFE32:
 267              		.size	LCD_UpdateMessage, .-LCD_UpdateMessage
 268 002a 00BF     		.section	.rodata
 269 0015 000000   		.align	2
 270              	.LC1:
 271 0018 696E6974 		.ascii	"initializing...\000"
 271      69616C69 
 271      7A696E67 
 271      2E2E2E00 
 272              		.align	2
 273              	.LC2:
 274 0028 55415254 		.ascii	"UART\000"
 274      00
 275 002d 000000   		.align	2
ARM GAS  C:\DOCUME~1\dtucker\LOCALS~1\Temp\ccqptpxk.s 			page 7


 276              	.LC3:
 277 0030 7061636B 		.ascii	"packets\000"
 277      65747300 
 278              		.align	2
 279              	.LC4:
 280 0038 72756E6E 		.ascii	"running...\000"
 280      696E672E 
 280      2E2E00
 281 0043 00       		.align	2
 282              	.LC5:
 283 0044 7472616E 		.ascii	"transferring\000"
 283      73666572 
 283      72696E67 
 283      00
 284 0051 000000   		.align	2
 285              	.LC6:
 286 0054 6572726F 		.ascii	"error\000"
 286      7200
 287 005a 0000     		.align	2
 288              	.LC7:
 289 005c 7472616E 		.ascii	"transfer done\000"
 289      73666572 
 289      20646F6E 
 289      6500
 290 006a 0000     		.align	2
 291              	.LC8:
 292 006c 6E6F00   		.ascii	"no\000"
 293 006f 00       		.align	2
 294              	.LC9:
 295 0070 6572726F 		.ascii	"errors\000"
 295      727300
 296 0077 00       		.section	.text.main,"ax",%progbits
 297              		.align	2
 298              		.global	main
 299              		.thumb
 300              		.thumb_func
 301              		.type	main, %function
 302              	main:
 303              	.LFB33:
  56:.\main.c      **** 
  57:.\main.c      **** 
  58:.\main.c      **** 
  59:.\main.c      **** 
  60:.\main.c      **** void main () {
 304              		.loc 1 60 0
 305              		.cfi_startproc
 306              		@ args = 0, pretend = 0, frame = 8200
 307              		@ frame_needed = 1, uses_anonymous_args = 0
 308 0000 90B5     		push	{r4, r7, lr}
 309              	.LCFI12:
 310              		.cfi_def_cfa_offset 12
 311 0002 ADF5005D 		sub	sp, sp, #8192
 312              	.LCFI13:
 313              		.cfi_def_cfa_offset 8204
 314 0006 83B0     		sub	sp, sp, #12
 315              	.LCFI14:
 316              		.cfi_def_cfa_offset 8216
ARM GAS  C:\DOCUME~1\dtucker\LOCALS~1\Temp\ccqptpxk.s 			page 8


 317 0008 00AF     		add	r7, sp, #0
 318              		.cfi_offset 14, -4
 319              		.cfi_offset 7, -8
 320              		.cfi_offset 4, -12
 321              	.LCFI15:
 322              		.cfi_def_cfa_register 7
  61:.\main.c      ****     LCD_Start();
 323              		.loc 1 61 0
 324 000a FFF7FEFF 		bl	LCD_Start
  62:.\main.c      ****     
  63:.\main.c      ****     LCD_UpdateStatus("initializing...");
 325              		.loc 1 63 0
 326 000e 40F20000 		movw	r0, #:lower16:.LC1
 327 0012 C0F20000 		movt	r0, #:upper16:.LC1
 328 0016 FFF7FEFF 		bl	LCD_UpdateStatus
  64:.\main.c      ****     LCD_UpdateMessage("UART");
 329              		.loc 1 64 0
 330 001a 40F20000 		movw	r0, #:lower16:.LC2
 331 001e C0F20000 		movt	r0, #:upper16:.LC2
 332 0022 FFF7FEFF 		bl	LCD_UpdateMessage
  65:.\main.c      ****     if (VERBOSE) CyDelay(500);
  66:.\main.c      ****     UART_Start();
 333              		.loc 1 66 0
 334 0026 FFF7FEFF 		bl	UART_Start
  67:.\main.c      ****     UART_ClearTxBuffer();
 335              		.loc 1 67 0
 336 002a FFF7FEFF 		bl	UART_ClearTxBuffer
  68:.\main.c      ****     UART_ClearRxBuffer();
 337              		.loc 1 68 0
 338 002e FFF7FEFF 		bl	UART_ClearRxBuffer
  69:.\main.c      ****     LCD_UpdateMessage("packets");
 339              		.loc 1 69 0
 340 0032 40F20000 		movw	r0, #:lower16:.LC3
 341 0036 C0F20000 		movt	r0, #:upper16:.LC3
 342 003a FFF7FEFF 		bl	LCD_UpdateMessage
  70:.\main.c      ****     if (VERBOSE) CyDelay(500);
  71:.\main.c      ****     uint8 outgoing[SIZE];
  72:.\main.c      ****     uint8 incoming[SIZE];
  73:.\main.c      ****     uint16 i;
  74:.\main.c      ****     for (i=0; i < SIZE ;++i) {
 343              		.loc 1 74 0
 344 003e 4FF00003 		mov	r3, #0
 345 0042 07F50051 		add	r1, r7, #8192
 346 0046 01F10401 		add	r1, r1, #4
 347 004a 0B80     		strh	r3, [r1, #0]	@ movhi
 348 004c 29E0     		b	.L12
 349              	.L13:
  75:.\main.c      ****         outgoing[i] = (uint8) i;
 350              		.loc 1 75 0
 351 004e 07F50053 		add	r3, r7, #8192
 352 0052 03F10403 		add	r3, r3, #4
 353 0056 1A88     		ldrh	r2, [r3, #0]
 354 0058 07F50051 		add	r1, r7, #8192
 355 005c 01F10401 		add	r1, r1, #4
 356 0060 0B88     		ldrh	r3, [r1, #0]	@ movhi
 357 0062 D9B2     		uxtb	r1, r3
 358 0064 07F58053 		add	r3, r7, #4096
ARM GAS  C:\DOCUME~1\dtucker\LOCALS~1\Temp\ccqptpxk.s 			page 9


 359 0068 03F10803 		add	r3, r3, #8
 360 006c A3F10403 		sub	r3, r3, #4
 361 0070 9954     		strb	r1, [r3, r2]
  76:.\main.c      ****         incoming[i] = 0;
 362              		.loc 1 76 0
 363 0072 07F50053 		add	r3, r7, #8192
 364 0076 03F10403 		add	r3, r3, #4
 365 007a 1A88     		ldrh	r2, [r3, #0]
 366 007c 07F10803 		add	r3, r7, #8
 367 0080 A3F10403 		sub	r3, r3, #4
 368 0084 4FF00001 		mov	r1, #0
 369 0088 9954     		strb	r1, [r3, r2]
 370              		.loc 1 74 0
 371 008a 07F50051 		add	r1, r7, #8192
 372 008e 01F10401 		add	r1, r1, #4
 373 0092 0B88     		ldrh	r3, [r1, #0]	@ movhi
 374 0094 03F10103 		add	r3, r3, #1
 375 0098 07F50052 		add	r2, r7, #8192
 376 009c 02F10402 		add	r2, r2, #4
 377 00a0 1380     		strh	r3, [r2, #0]	@ movhi
 378              	.L12:
 379 00a2 07F50053 		add	r3, r7, #8192
 380 00a6 03F10403 		add	r3, r3, #4
 381 00aa 1A88     		ldrh	r2, [r3, #0]
 382 00ac 40F6FF73 		movw	r3, #4095
 383 00b0 9A42     		cmp	r2, r3
 384 00b2 CCD9     		bls	.L13
  77:.\main.c      ****     }
  78:.\main.c      ****     
  79:.\main.c      ****     
  80:.\main.c      ****     LCD_UpdateStatus("running...");
 385              		.loc 1 80 0
 386 00b4 40F20000 		movw	r0, #:lower16:.LC4
 387 00b8 C0F20000 		movt	r0, #:upper16:.LC4
 388 00bc FFF7FEFF 		bl	LCD_UpdateStatus
 389              	.L21:
 390              	.LBB2:
  81:.\main.c      ****     while (true) {
  82:.\main.c      ****         uint16 errors = 0;
 391              		.loc 1 82 0
 392 00c0 4FF00003 		mov	r3, #0
 393 00c4 07F50051 		add	r1, r7, #8192
 394 00c8 01F10601 		add	r1, r1, #6
 395 00cc 0B80     		strh	r3, [r1, #0]	@ movhi
  83:.\main.c      ****         for (i=0; i < SIZE ;++i) {
 396              		.loc 1 83 0
 397 00ce 4FF00003 		mov	r3, #0
 398 00d2 07F50052 		add	r2, r7, #8192
 399 00d6 02F10402 		add	r2, r2, #4
 400 00da 1380     		strh	r3, [r2, #0]	@ movhi
 401 00dc 74E0     		b	.L14
 402              	.L18:
  84:.\main.c      ****             UART_WriteTxData(outgoing[i]);
 403              		.loc 1 84 0
 404 00de 07F50053 		add	r3, r7, #8192
 405 00e2 03F10403 		add	r3, r3, #4
 406 00e6 1A88     		ldrh	r2, [r3, #0]
ARM GAS  C:\DOCUME~1\dtucker\LOCALS~1\Temp\ccqptpxk.s 			page 10


 407 00e8 07F58053 		add	r3, r7, #4096
 408 00ec 03F10803 		add	r3, r3, #8
 409 00f0 A3F10403 		sub	r3, r3, #4
 410 00f4 9B5C     		ldrb	r3, [r3, r2]	@ zero_extendqisi2
 411 00f6 1846     		mov	r0, r3
 412 00f8 FFF7FEFF 		bl	UART_WriteTxData
 413              	.L15:
  85:.\main.c      ****             while (!(UART_ReadRxStatus() & UART_RX_STS_FIFO_NOTEMPTY));
 414              		.loc 1 85 0
 415 00fc FFF7FEFF 		bl	UART_ReadRxStatus
 416 0100 0346     		mov	r3, r0
 417 0102 03F02003 		and	r3, r3, #32
 418 0106 002B     		cmp	r3, #0
 419 0108 F8D0     		beq	.L15
  86:.\main.c      ****             incoming[i] = UART_ReadRxData();
 420              		.loc 1 86 0
 421 010a 07F50051 		add	r1, r7, #8192
 422 010e 01F10401 		add	r1, r1, #4
 423 0112 0C88     		ldrh	r4, [r1, #0]
 424 0114 FFF7FEFF 		bl	UART_ReadRxData
 425 0118 0346     		mov	r3, r0
 426 011a 1A46     		mov	r2, r3
 427 011c 07F10803 		add	r3, r7, #8
 428 0120 A3F10403 		sub	r3, r3, #4
 429 0124 1A55     		strb	r2, [r3, r4]
  87:.\main.c      ****             if (i == 0) LCD_UpdateMessage("transferring");
 430              		.loc 1 87 0
 431 0126 07F50052 		add	r2, r7, #8192
 432 012a 02F10402 		add	r2, r2, #4
 433 012e 1388     		ldrh	r3, [r2, #0]
 434 0130 002B     		cmp	r3, #0
 435 0132 05D1     		bne	.L16
 436 0134 40F20000 		movw	r0, #:lower16:.LC5
 437 0138 C0F20000 		movt	r0, #:upper16:.LC5
 438 013c FFF7FEFF 		bl	LCD_UpdateMessage
 439              	.L16:
  88:.\main.c      ****             if (VERBOSE) {
  89:.\main.c      ****                 if (i == 0) {
  90:.\main.c      ****                     LCD_Position(1,9);
  91:.\main.c      ****                     LCD_PrintString("ed ");
  92:.\main.c      ****                 }
  93:.\main.c      ****                 LCD_Position(1,12);
  94:.\main.c      ****                 LCD_PrintInt16(i);
  95:.\main.c      ****             }
  96:.\main.c      ****             if (incoming[i] != outgoing[i]) {
 440              		.loc 1 96 0
 441 0140 07F50053 		add	r3, r7, #8192
 442 0144 03F10403 		add	r3, r3, #4
 443 0148 1A88     		ldrh	r2, [r3, #0]
 444 014a 07F10803 		add	r3, r7, #8
 445 014e A3F10403 		sub	r3, r3, #4
 446 0152 9A5C     		ldrb	r2, [r3, r2]	@ zero_extendqisi2
 447 0154 07F50053 		add	r3, r7, #8192
 448 0158 03F10403 		add	r3, r3, #4
 449 015c 1988     		ldrh	r1, [r3, #0]
 450 015e 07F58053 		add	r3, r7, #4096
 451 0162 03F10803 		add	r3, r3, #8
ARM GAS  C:\DOCUME~1\dtucker\LOCALS~1\Temp\ccqptpxk.s 			page 11


 452 0166 A3F10403 		sub	r3, r3, #4
 453 016a 5B5C     		ldrb	r3, [r3, r1]	@ zero_extendqisi2
 454 016c 9A42     		cmp	r2, r3
 455 016e 1FD0     		beq	.L17
  97:.\main.c      ****                 LCD_UpdateMessage("error");
 456              		.loc 1 97 0
 457 0170 40F20000 		movw	r0, #:lower16:.LC6
 458 0174 C0F20000 		movt	r0, #:upper16:.LC6
 459 0178 FFF7FEFF 		bl	LCD_UpdateMessage
  98:.\main.c      ****                 ++errors;
 460              		.loc 1 98 0
 461 017c 07F50051 		add	r1, r7, #8192
 462 0180 01F10601 		add	r1, r1, #6
 463 0184 0B88     		ldrh	r3, [r1, #0]	@ movhi
 464 0186 03F10103 		add	r3, r3, #1
 465 018a 07F50052 		add	r2, r7, #8192
 466 018e 02F10602 		add	r2, r2, #6
 467 0192 1380     		strh	r3, [r2, #0]	@ movhi
  99:.\main.c      ****                 CyDelay(POST);
 468              		.loc 1 99 0
 469 0194 40F20003 		movw	r3, #:lower16:POST
 470 0198 C0F20003 		movt	r3, #:upper16:POST
 471 019c 1B88     		ldrh	r3, [r3, #0]
 472 019e 1846     		mov	r0, r3
 473 01a0 FFF7FEFF 		bl	CyDelay
 100:.\main.c      ****                 if (VERBOSE) LCD_UpdateMessage("transferred");
 101:.\main.c      ****                 else LCD_UpdateMessage("transferring");
 474              		.loc 1 101 0
 475 01a4 40F20000 		movw	r0, #:lower16:.LC5
 476 01a8 C0F20000 		movt	r0, #:upper16:.LC5
 477 01ac FFF7FEFF 		bl	LCD_UpdateMessage
 478              	.L17:
 479              		.loc 1 83 0
 480 01b0 07F50051 		add	r1, r7, #8192
 481 01b4 01F10401 		add	r1, r1, #4
 482 01b8 0B88     		ldrh	r3, [r1, #0]	@ movhi
 483 01ba 03F10103 		add	r3, r3, #1
 484 01be 07F50052 		add	r2, r7, #8192
 485 01c2 02F10402 		add	r2, r2, #4
 486 01c6 1380     		strh	r3, [r2, #0]	@ movhi
 487              	.L14:
 488 01c8 07F50053 		add	r3, r7, #8192
 489 01cc 03F10403 		add	r3, r3, #4
 490 01d0 1A88     		ldrh	r2, [r3, #0]
 491 01d2 40F6FF73 		movw	r3, #4095
 492 01d6 9A42     		cmp	r2, r3
 493 01d8 81D9     		bls	.L18
 102:.\main.c      ****             }
 103:.\main.c      ****         }
 104:.\main.c      ****         LCD_UpdateMessage("transfer done");
 494              		.loc 1 104 0
 495 01da 40F20000 		movw	r0, #:lower16:.LC7
 496 01de C0F20000 		movt	r0, #:upper16:.LC7
 497 01e2 FFF7FEFF 		bl	LCD_UpdateMessage
 105:.\main.c      ****         CyDelay(POST);
 498              		.loc 1 105 0
 499 01e6 40F20003 		movw	r3, #:lower16:POST
ARM GAS  C:\DOCUME~1\dtucker\LOCALS~1\Temp\ccqptpxk.s 			page 12


 500 01ea C0F20003 		movt	r3, #:upper16:POST
 501 01ee 1B88     		ldrh	r3, [r3, #0]
 502 01f0 1846     		mov	r0, r3
 503 01f2 FFF7FEFF 		bl	CyDelay
 106:.\main.c      ****         LCD_ClearLine(1);
 504              		.loc 1 106 0
 505 01f6 4FF00100 		mov	r0, #1
 506 01fa FFF7FEFF 		bl	LCD_ClearLine
 107:.\main.c      ****         LCD_Position(1,0);
 507              		.loc 1 107 0
 508 01fe 4FF00100 		mov	r0, #1
 509 0202 4FF00001 		mov	r1, #0
 510 0206 FFF7FEFF 		bl	LCD_Position
 108:.\main.c      ****         if (errors == 0) {
 511              		.loc 1 108 0
 512 020a 07F50051 		add	r1, r7, #8192
 513 020e 01F10601 		add	r1, r1, #6
 514 0212 0B88     		ldrh	r3, [r1, #0]
 515 0214 002B     		cmp	r3, #0
 516 0216 0CD1     		bne	.L19
 109:.\main.c      ****             LCD_PrintString("no");
 517              		.loc 1 109 0
 518 0218 40F20000 		movw	r0, #:lower16:.LC8
 519 021c C0F20000 		movt	r0, #:upper16:.LC8
 520 0220 FFF7FEFF 		bl	LCD_PrintString
 110:.\main.c      ****             LCD_Position(1,3);
 521              		.loc 1 110 0
 522 0224 4FF00100 		mov	r0, #1
 523 0228 4FF00301 		mov	r1, #3
 524 022c FFF7FEFF 		bl	LCD_Position
 525 0230 0DE0     		b	.L20
 526              	.L19:
 111:.\main.c      ****         }
 112:.\main.c      ****         else {
 113:.\main.c      ****             LCD_PrintInt16(errors);
 527              		.loc 1 113 0
 528 0232 07F50052 		add	r2, r7, #8192
 529 0236 02F10602 		add	r2, r2, #6
 530 023a 1388     		ldrh	r3, [r2, #0]
 531 023c 1846     		mov	r0, r3
 532 023e FFF7FEFF 		bl	LCD_PrintInt16
 114:.\main.c      ****             LCD_Position(1,5);
 533              		.loc 1 114 0
 534 0242 4FF00100 		mov	r0, #1
 535 0246 4FF00501 		mov	r1, #5
 536 024a FFF7FEFF 		bl	LCD_Position
 537              	.L20:
 115:.\main.c      ****         }
 116:.\main.c      ****         LCD_PrintString("errors");
 538              		.loc 1 116 0
 539 024e 40F20000 		movw	r0, #:lower16:.LC9
 540 0252 C0F20000 		movt	r0, #:upper16:.LC9
 541 0256 FFF7FEFF 		bl	LCD_PrintString
 117:.\main.c      ****         CyDelay(POST);
 542              		.loc 1 117 0
 543 025a 40F20003 		movw	r3, #:lower16:POST
 544 025e C0F20003 		movt	r3, #:upper16:POST
ARM GAS  C:\DOCUME~1\dtucker\LOCALS~1\Temp\ccqptpxk.s 			page 13


 545 0262 1B88     		ldrh	r3, [r3, #0]
 546 0264 1846     		mov	r0, r3
 547 0266 FFF7FEFF 		bl	CyDelay
 548              	.LBE2:
 118:.\main.c      ****     }
 549              		.loc 1 118 0
 550 026a 29E7     		b	.L21
 551              		.cfi_endproc
 552              	.LFE33:
 553              		.size	main, .-main
 554              		.text
 555              	.Letext0: