ARM GAS  C:\DOCUME~1\dtucker\LOCALS~1\Temp\ccqptpxk.s 			page 1


   1              		.syntax unified
   2              		.cpu cortex-m3
   3              		.fpu softvfp
   4              		.eabi_attribute 20, 1
   5              		.eabi_attribute 21, 1
   6              		.eabi_attribute 23, 3
   7              		.eabi_attribute 24, 1
   8              		.eabi_attribute 25, 1
   9              		.eabi_attribute 26, 1
  10              		.eabi_attribute 30, 6
  11              		.eabi_attribute 18, 4
  12              		.thumb
  13              		.file	"main.c"
  14              		.section	.debug_abbrev,"",%progbits
  15              	.Ldebug_abbrev0:
  16              		.section	.debug_info,"",%progbits
  17              	.Ldebug_info0:
  18              		.section	.debug_line,"",%progbits
  19              	.Ldebug_line0:
  20 0000 ED000000 		.text
  20      02005300 
  20      00000201 
  20      FB0E0D00 
  20      01010101 
  21              	.Ltext0:
  22              		.cfi_sections	.debug_frame
  23              		.section	.rodata
  24              		.align	1
  25              		.type	POST, %object
  26              		.size	POST, 2
  27              	POST:
  28 0000 E803     		.short	1000
  29              		.section	.text.LCD_Spin,"ax",%progbits
  30              		.align	2
  31              		.global	LCD_Spin
  32              		.thumb
  33              		.thumb_func
  34              		.type	LCD_Spin, %function
  35              	LCD_Spin:
  36              	.LFB29:
  37              		.file 1 ".\\main.c"
   1:.\main.c      **** #define SIZE 4096
   2:.\main.c      **** #define VERBOSE false
   3:.\main.c      **** 
   4:.\main.c      **** #include <device.h>
   5:.\main.c      **** #include <stdbool.h>
   6:.\main.c      **** 
   7:.\main.c      **** 
   8:.\main.c      **** 
   9:.\main.c      **** 
  10:.\main.c      **** static const uint16 POST = 1000;
  11:.\main.c      **** 
  12:.\main.c      **** 
  13:.\main.c      **** 
  14:.\main.c      **** 
  15:.\main.c      **** void LCD_Spin (int row, int col, int speed, int count) {
  38              		.loc 1 15 0
ARM GAS  C:\DOCUME~1\dtucker\LOCALS~1\Temp\ccqptpxk.s 			page 2


  39              		.cfi_startproc
  40              		@ args = 0, pretend = 0, frame = 16
  41              		@ frame_needed = 1, uses_anonymous_args = 0
  42 0000 80B5     		push	{r7, lr}
  43              	.LCFI0:
  44              		.cfi_def_cfa_offset 8
  45 0002 84B0     		sub	sp, sp, #16
  46              	.LCFI1:
  47              		.cfi_def_cfa_offset 24
  48 0004 00AF     		add	r7, sp, #0
  49              		.cfi_offset 14, -4
  50              		.cfi_offset 7, -8
  51              	.LCFI2:
  52              		.cfi_def_cfa_register 7
  53 0006 F860     		str	r0, [r7, #12]
  54 0008 B960     		str	r1, [r7, #8]
  55 000a 7A60     		str	r2, [r7, #4]
  56 000c 3B60     		str	r3, [r7, #0]
  16:.\main.c      ****     for (; count > 0 ;--count) {
  57              		.loc 1 16 0
  58 000e 50E0     		b	.L2
  59              	.L3:
  17:.\main.c      ****         LCD_Position(row,col);
  60              		.loc 1 17 0
  61 0010 FB68     		ldr	r3, [r7, #12]
  62 0012 DAB2     		uxtb	r2, r3
  63 0014 BB68     		ldr	r3, [r7, #8]
  64 0016 DBB2     		uxtb	r3, r3
  65 0018 1046     		mov	r0, r2
  66 001a 1946     		mov	r1, r3
  67 001c FFF7FEFF 		bl	LCD_Position
  18:.\main.c      ****         LCD_PutChar('|');
  68              		.loc 1 18 0
  69 0020 4FF07C00 		mov	r0, #124
  70 0024 FFF7FEFF 		bl	LCD_PutChar
  19:.\main.c      ****         CyDelay(speed*3/8);
  71              		.loc 1 19 0
  72 0028 7A68     		ldr	r2, [r7, #4]
  73 002a 1346     		mov	r3, r2
  74 002c 4FEA4303 		lsl	r3, r3, #1
  75 0030 1344     		add	r3, r3, r2
  76 0032 03F10702 		add	r2, r3, #7
  77 0036 002B     		cmp	r3, #0
  78 0038 B8BF     		it	lt
  79 003a 1346     		movlt	r3, r2
  80 003c 4FEAE303 		asr	r3, r3, #3
  81 0040 1846     		mov	r0, r3
  82 0042 FFF7FEFF 		bl	CyDelay
  20:.\main.c      ****         LCD_Position(row,col);
  83              		.loc 1 20 0
  84 0046 FB68     		ldr	r3, [r7, #12]
  85 0048 DAB2     		uxtb	r2, r3
  86 004a BB68     		ldr	r3, [r7, #8]
  87 004c DBB2     		uxtb	r3, r3
  88 004e 1046     		mov	r0, r2
  89 0050 1946     		mov	r1, r3
  90 0052 FFF7FEFF 		bl	LCD_Position
ARM GAS  C:\DOCUME~1\dtucker\LOCALS~1\Temp\ccqptpxk.s 			page 3


  21:.\main.c      ****         LCD_PutChar('/');
  91              		.loc 1 21 0
  92 0056 4FF02F00 		mov	r0, #47
  93 005a FFF7FEFF 		bl	LCD_PutChar
  22:.\main.c      ****         CyDelay(speed/4);
  94              		.loc 1 22 0
  95 005e 7B68     		ldr	r3, [r7, #4]
  96 0060 03F10302 		add	r2, r3, #3
  97 0064 002B     		cmp	r3, #0
  98 0066 B8BF     		it	lt
  99 0068 1346     		movlt	r3, r2
 100 006a 4FEAA303 		asr	r3, r3, #2
 101 006e 1846     		mov	r0, r3
 102 0070 FFF7FEFF 		bl	CyDelay
  23:.\main.c      ****         LCD_Position(row,col);
 103              		.loc 1 23 0
 104 0074 FB68     		ldr	r3, [r7, #12]
 105 0076 DAB2     		uxtb	r2, r3
 106 0078 BB68     		ldr	r3, [r7, #8]
 107 007a DBB2     		uxtb	r3, r3
 108 007c 1046     		mov	r0, r2
 109 007e 1946     		mov	r1, r3
 110 0080 FFF7FEFF 		bl	LCD_Position
  24:.\main.c      ****         LCD_PutChar('-');
 111              		.loc 1 24 0
 112 0084 4FF02D00 		mov	r0, #45
 113 0088 FFF7FEFF 		bl	LCD_PutChar
  25:.\main.c      ****         CyDelay(speed*3/8);
 114              		.loc 1 25 0
 115 008c 7A68     		ldr	r2, [r7, #4]
 116 008e 1346     		mov	r3, r2
 117 0090 4FEA4303 		lsl	r3, r3, #1
 118 0094 1344     		add	r3, r3, r2
 119 0096 03F10702 		add	r2, r3, #7
 120 009a 002B     		cmp	r3, #0
 121 009c B8BF     		it	lt
 122 009e 1346     		movlt	r3, r2
 123 00a0 4FEAE303 		asr	r3, r3, #3
 124 00a4 1846     		mov	r0, r3
 125 00a6 FFF7FEFF 		bl	CyDelay
 126              		.loc 1 16 0
 127 00aa 3B68     		ldr	r3, [r7, #0]
 128 00ac 03F1FF33 		add	r3, r3, #-1
 129 00b0 3B60     		str	r3, [r7, #0]
 130              	.L2:
 131 00b2 3B68     		ldr	r3, [r7, #0]
 132 00b4 002B     		cmp	r3, #0
 133 00b6 ABDC     		bgt	.L3
  26:.\main.c      ****         //LCD_Position(row,col);
  27:.\main.c      ****         //LCD_PutChar('\\');
  28:.\main.c      ****         //CyDelay(speed/4);
  29:.\main.c      ****     }
  30:.\main.c      **** }
 134              		.loc 1 30 0
 135 00b8 07F11007 		add	r7, r7, #16
 136 00bc BD46     		mov	sp, r7
 137 00be 80BD     		pop	{r7, pc}
ARM GAS  C:\DOCUME~1\dtucker\LOCALS~1\Temp\ccqptpxk.s 			page 4


 138              		.cfi_endproc
 139              	.LFE29:
 140              		.size	LCD_Spin, .-LCD_Spin
 141              		.section	.rodata
 142 0002 0000     		.align	2
 143              	.LC0:
 144 0004 20202020 		.ascii	"                \000"
 144      20202020 
 144      20202020 
 144      20202020 
 144      00
 145              		.section	.text.LCD_ClearLine,"ax",%progbits
 146              		.align	2
 147              		.global	LCD_ClearLine
 148              		.thumb
 149              		.thumb_func
 150              		.type	LCD_ClearLine, %function
 151              	LCD_ClearLine:
 152              	.LFB30:
  31:.\main.c      **** 
  32:.\main.c      **** 
  33:.\main.c      **** 
  34:.\main.c      **** void LCD_ClearLine (int line) {
 153              		.loc 1 34 0
 154              		.cfi_startproc
 155              		@ args = 0, pretend = 0, frame = 8
 156              		@ frame_needed = 1, uses_anonymous_args = 0
 157 0000 80B5     		push	{r7, lr}
 158              	.LCFI3:
 159              		.cfi_def_cfa_offset 8
 160 0002 82B0     		sub	sp, sp, #8
 161              	.LCFI4:
 162              		.cfi_def_cfa_offset 16
 163 0004 00AF     		add	r7, sp, #0
 164              		.cfi_offset 14, -4
 165              		.cfi_offset 7, -8
 166              	.LCFI5:
 167              		.cfi_def_cfa_register 7
 168 0006 7860     		str	r0, [r7, #4]
  35:.\main.c      ****     LCD_Position(line,0);
 169              		.loc 1 35 0
 170 0008 7B68     		ldr	r3, [r7, #4]
 171 000a DBB2     		uxtb	r3, r3
 172 000c 1846     		mov	r0, r3
 173 000e 4FF00001 		mov	r1, #0
 174 0012 FFF7FEFF 		bl	LCD_Position
  36:.\main.c      ****     LCD_PrintString("                ");
 175              		.loc 1 36 0
 176 0016 40F20000 		movw	r0, #:lower16:.LC0
 177 001a C0F20000 		movt	r0, #:upper16:.LC0
 178 001e FFF7FEFF 		bl	LCD_PrintString
  37:.\main.c      **** }
 179              		.loc 1 37 0
 180 0022 07F10807 		add	r7, r7, #8
 181 0026 BD46     		mov	sp, r7
 182 0028 80BD     		pop	{r7, pc}
 183              		.cfi_endproc
ARM GAS  C:\DOCUME~1\dtucker\LOCALS~1\Temp\ccqptpxk.s 			page 5


 184              	.LFE30:
 185              		.size	LCD_ClearLine, .-LCD_ClearLine
 186 002a 00BF     		.section	.text.LCD_UpdateStatus,"ax",%progbits
 187              		.align	2
 188              		.global	LCD_UpdateStatus
 189              		.thumb
 190              		.thumb_func
 191              		.type	LCD_UpdateStatus, %function
 192              	LCD_UpdateStatus:
 193              	.LFB31:
  38:.\main.c      **** 
  39:.\main.c      **** 
  40:.\main.c      **** 
  41:.\main.c      **** 
  42:.\main.c      **** void LCD_UpdateStatus (const char string[]) {
 194              		.loc 1 42 0
 195              		.cfi_startproc
 196              		@ args = 0, pretend = 0, frame = 8
 197              		@ frame_needed = 1, uses_anonymous_args = 0
 198 0000 80B5     		push	{r7, lr}
 199              	.LCFI6:
 200              		.cfi_def_cfa_offset 8
 201 0002 82B0     		sub	sp, sp, #8
 202              	.LCFI7:
 203              		.cfi_def_cfa_offset 16
 204 0004 00AF     		add	r7, sp, #0
 205              		.cfi_offset 14, -4
 206              		.cfi_offset 7, -8
 207              	.LCFI8:
 208              		.cfi_def_cfa_register 7
 209 0006 7860     		str	r0, [r7, #4]
  43:.\main.c      ****     LCD_ClearDisplay();
 210              		.loc 1 43 0
 211 0008 4FF00100 		mov	r0, #1
 212 000c FFF7FEFF 		bl	LCD_WriteControl
  44:.\main.c      ****     LCD_Position(0,0);
 213              		.loc 1 44 0
 214 0010 4FF00000 		mov	r0, #0
 215 0014 4FF00001 		mov	r1, #0
 216 0018 FFF7FEFF 		bl	LCD_Position
  45:.\main.c      ****     LCD_PrintString(string);
 217              		.loc 1 45 0
 218 001c 7868     		ldr	r0, [r7, #4]
 219 001e FFF7FEFF 		bl	LCD_PrintString
  46:.\main.c      **** }
 220              		.loc 1 46 0
 221 0022 07F10807 		add	r7, r7, #8
 222 0026 BD46     		mov	sp, r7
 223 0028 80BD     		pop	{r7, pc}
 224              		.cfi_endproc
 225              	.LFE31:
 226              		.size	LCD_UpdateStatus, .-LCD_UpdateStatus
 227 002a 00BF     		.section	.text.LCD_UpdateMessage,"ax",%progbits
 228              		.align	2
 229              		.global	LCD_UpdateMessage
 230              		.thumb
 231              		.thumb_func
ARM GAS  C:\DOCUME~1\dtucker\LOCALS~1\Temp\ccqptpxk.s 			page 6


 232              		.type	LCD_UpdateMessage, %function
 233              	LCD_UpdateMessage:
 234              	.LFB32:
  47:.\main.c      **** 
  48:.\main.c      **** 
  49:.\main.c      **** 
  50:.\main.c      **** 
  51:.\main.c      **** void LCD_UpdateMessage (const char string[]) {
 235              		.loc 1 51 0
 236              		.cfi_startproc
 237              		@ args = 0, pretend = 0, frame = 8
 238              		@ frame_needed = 1, uses_anonymous_args = 0
 239 0000 80B5     		push	{r7, lr}
 240              	.LCFI9:
 241              		.cfi_def_cfa_offset 8
 242 0002 82B0     		sub	sp, sp, #8
 243              	.LCFI10:
 244              		.cfi_def_cfa_offset 16
 245 0004 00AF     		add	r7, sp, #0
 246              		.cfi_offset 14, -4
 247              		.cfi_offset 7, -8
 248              	.LCFI11:
 249              		.cfi_def_cfa_register 7
 250 0006 7860     		str	r0, [r7, #4]
  52:.\main.c      ****     LCD_ClearLine(1);
 251              		.loc 1 52 0
 252 0008 4FF00100 		mov	r0, #1
 253 000c FFF7FEFF 		bl	LCD_ClearLine
  53:.\main.c      ****     LCD_Position(1,0);
 254              		.loc 1 53 0
 255 0010 4FF00100 		mov	r0, #1
 256 0014 4FF00001 		mov	r1, #0
 257 0018 FFF7FEFF 		bl	LCD_Position
  54:.\main.c      ****     LCD_PrintString(string);
 258              		.loc 1 54 0
 259 001c 7868     		ldr	r0, [r7, #4]
 260 001e FFF7FEFF 		bl	LCD_PrintString
  55:.\main.c      **** }
 261              		.loc 1 55 0
 262 0022 07F10807 		add	r7, r7, #8
 263 0026 BD46     		mov	sp, r7
 264 0028 80BD     		pop	{r7, pc}
 265              		.cfi_endproc
 266              	.LFE32:
 267              		.size	LCD_UpdateMessage, .-LCD_UpdateMessage
 268 002a 00BF     		.section	.rodata
 269 0015 000000   		.align	2
 270              	.LC1:
 271 0018 696E6974 		.ascii	"initializing...\000"
 271      69616C69 
 271      7A696E67 
 271      2E2E2E00 
 272              		.align	2
 273              	.LC2:
 274 0028 55415254 		.ascii	"UART\000"
 274      00
 275 002d 000000   		.align	2
ARM GAS  C:\DOCUME~1\dtucker\LOCALS~1\Temp\ccqptpxk.s 			page 7


 276              	.LC3:
 277 0030 7061636B 		.ascii	"packets\000"
 277      65747300 
 278              		.align	2
 279              	.LC4:
 280 0038 72756E6E 		.ascii	"running...\000"
 280      696E672E 
 280      2E2E00
 281 0043 00       		.align	2
 282              	.LC5:
 283 0044 7472616E 		.ascii	"transferring\000"
 283      73666572 
 283      72696E67 
 283      00
 284 0051 000000   		.align	2
 285              	.LC6:
 286 0054 6572726F 		.ascii	"error\000"
 286      7200
 287 005a 0000     		.align	2
 288              	.LC7:
 289 005c 7472616E 		.ascii	"transfer done\000"
 289      73666572 
 289      20646F6E 
 289      6500
 290 006a 0000     		.align	2
 291              	.LC8:
 292 006c 6E6F00   		.ascii	"no\000"
 293 006f 00       		.align	2
 294              	.LC9:
 295 0070 6572726F 		.ascii	"errors\000"
 295      727300
 296 0077 00       		.section	.text.main,"ax",%progbits
 297              		.align	2
 298              		.global	main
 299              		.thumb
 300              		.thumb_func
 301              		.type	main, %function
 302              	main:
 303              	.LFB33:
  56:.\main.c      **** 
  57:.\main.c      **** 
  58:.\main.c      **** 
  59:.\main.c      **** 
  60:.\main.c      **** void main () {
 304              		.loc 1 60 0
 305              		.cfi_startproc
 306              		@ args = 0, pretend = 0, frame = 8200
 307              		@ frame_needed = 1, uses_anonymous_args = 0
 308 0000 90B5     		push	{r4, r7, lr}
 309              	.LCFI12:
 310              		.cfi_def_cfa_offset 12
 311 0002 ADF5005D 		sub	sp, sp, #8192
 312              	.LCFI13:
 313              		.cfi_def_cfa_offset 8204
 314 0006 83B0     		sub	sp, sp, #12
 315              	.LCFI14:
 316              		.cfi_def_cfa_offset 8216
ARM GAS  C:\DOCUME~1\dtucker\LOCALS~1\Temp\ccqptpxk.s 			page 8


 317 0008 00AF     		add	r7, sp, #0
 318              		.cfi_offset 14, -4
 319              		.cfi_offset 7, -8
 320              		.cfi_offset 4, -12
 321              	.LCFI15:
 322              		.cfi_def_cfa_register 7
  61:.\main.c      ****     LCD_Start();
 323              		.loc 1 61 0
 324 000a FFF7FEFF 		bl	LCD_Start
  62:.\main.c      ****     
  63:.\main.c      ****     LCD_UpdateStatus("initializing...");
 325              		.loc 1 63 0
 326 000e 40F20000 		movw	r0, #:lower16:.LC1
 327 0012 C0F20000 		movt	r0, #:upper16:.LC1
 328 0016 FFF7FEFF 		bl	LCD_UpdateStatus
  64:.\main.c      ****     LCD_UpdateMessage("UART");
 329              		.loc 1 64 0
 330 001a 40F20000 		movw	r0, #:lower16:.LC2
 331 001e C0F20000 		movt	r0, #:upper16:.LC2
 332 0022 FFF7FEFF 		bl	LCD_UpdateMessage
  65:.\main.c      ****     if (VERBOSE) CyDelay(500);
  66:.\main.c      ****     UART_Start();
 333              		.loc 1 66 0
 334 0026 FFF7FEFF 		bl	UART_Start
  67:.\main.c      ****     UART_ClearTxBuffer();
 335              		.loc 1 67 0
 336 002a FFF7FEFF 		bl	UART_ClearTxBuffer
  68:.\main.c      ****     UART_ClearRxBuffer();
 337              		.loc 1 68 0
 338 002e FFF7FEFF 		bl	UART_ClearRxBuffer
  69:.\main.c      ****     LCD_UpdateMessage("packets");
 339              		.loc 1 69 0
 340 0032 40F20000 		movw	r0, #:lower16:.LC3
 341 0036 C0F20000 		movt	r0, #:upper16:.LC3
 342 003a FFF7FEFF 		bl	LCD_UpdateMessage
  70:.\main.c      ****     if (VERBOSE) CyDelay(500);
  71:.\main.c      ****     uint8 outgoing[SIZE];
  72:.\main.c      ****     uint8 incoming[SIZE];
  73:.\main.c      ****     uint16 i;
  74:.\main.c      ****     for (i=0; i < SIZE ;++i) {
 343              		.loc 1 74 0
 344 003e 4FF00003 		mov	r3, #0
 345 0042 07F50051 		add	r1, r7, #8192
 346 0046 01F10401 		add	r1, r1, #4
 347 004a 0B80     		strh	r3, [r1, #0]	@ movhi
 348 004c 29E0     		b	.L12
 349              	.L13:
  75:.\main.c      ****         outgoing[i] = (uint8) i;
 350              		.loc 1 75 0
 351 004e 07F50053 		add	r3, r7, #8192
 352 0052 03F10403 		add	r3, r3, #4
 353 0056 1A88     		ldrh	r2, [r3, #0]
 354 0058 07F50051 		add	r1, r7, #8192
 355 005c 01F10401 		add	r1, r1, #4
 356 0060 0B88     		ldrh	r3, [r1, #0]	@ movhi
 357 0062 D9B2     		uxtb	r1, r3
 358 0064 07F58053 		add	r3, r7, #4096
ARM GAS  C:\DOCUME~1\dtucker\LOCALS~1\Temp\ccqptpxk.s 			page 9


 359 0068 03F10803 		add	r3, r3, #8
 360 006c A3F10403 		sub	r3, r3, #4
 361 0070 9954     		strb	r1, [r3, r2]
  76:.\main.c      ****         incoming[i] = 0;
 362              		.loc 1 76 0
 363 0072 07F50053 		add	r3, r7, #8192
 364 0076 03F10403 		add	r3, r3, #4
 365 007a 1A88     		ldrh	r2, [r3, #0]
 366 007c 07F10803 		add	r3, r7, #8
 367 0080 A3F10403 		sub	r3, r3, #4
 368 0084 4FF00001 		mov	r1, #0
 369 0088 9954     		strb	r1, [r3, r2]
 370              		.loc 1 74 0
 371 008a 07F50051 		add	r1, r7, #8192
 372 008e 01F10401 		add	r1, r1, #4
 373 0092 0B88     		ldrh	r3, [r1, #0]	@ movhi
 374 0094 03F10103 		add	r3, r3, #1
 375 0098 07F50052 		add	r2, r7, #8192
 376 009c 02F10402 		add	r2, r2, #4
 377 00a0 1380     		strh	r3, [r2, #0]	@ movhi
 378              	.L12:
 379 00a2 07F50053 		add	r3, r7, #8192
 380 00a6 03F10403 		add	r3, r3, #4
 381 00aa 1A88     		ldrh	r2, [r3, #0]
 382 00ac 40F6FF73 		movw	r3, #4095
 383 00b0 9A42     		cmp	r2, r3
 384 00b2 CCD9     		bls	.L13
  77:.\main.c      ****     }
  78:.\main.c      ****     
  79:.\main.c      ****     
  80:.\main.c      ****     LCD_UpdateStatus("running...");
 385              		.loc 1 80 0
 386 00b4 40F20000 		movw	r0, #:lower16:.LC4
 387 00b8 C0F20000 		movt	r0, #:upper16:.LC4
 388 00bc FFF7FEFF 		bl	LCD_UpdateStatus
 389              	.L21:
 390              	.LBB2:
  81:.\main.c      ****     while (true) {
  82:.\main.c      ****         uint16 errors = 0;
 391              		.loc 1 82 0
 392 00c0 4FF00003 		mov	r3, #0
 393 00c4 07F50051 		add	r1, r7, #8192
 394 00c8 01F10601 		add	r1, r1, #6
 395 00cc 0B80     		strh	r3, [r1, #0]	@ movhi
  83:.\main.c      ****         for (i=0; i < SIZE ;++i) {
 396              		.loc 1 83 0
 397 00ce 4FF00003 		mov	r3, #0
 398 00d2 07F50052 		add	r2, r7, #8192
 399 00d6 02F10402 		add	r2, r2, #4
 400 00da 1380     		strh	r3, [r2, #0]	@ movhi
 401 00dc 74E0     		b	.L14
 402              	.L18:
  84:.\main.c      ****             UART_WriteTxData(outgoing[i]);
 403              		.loc 1 84 0
 404 00de 07F50053 		add	r3, r7, #8192
 405 00e2 03F10403 		add	r3, r3, #4
 406 00e6 1A88     		ldrh	r2, [r3, #0]
ARM GAS  C:\DOCUME~1\dtucker\LOCALS~1\Temp\ccqptpxk.s 			page 10


 407 00e8 07F58053 		add	r3, r7, #4096
 408 00ec 03F10803 		add	r3, r3, #8
 409 00f0 A3F10403 		sub	r3, r3, #4
 410 00f4 9B5C     		ldrb	r3, [r3, r2]	@ zero_extendqisi2
 411 00f6 1846     		mov	r0, r3
 412 00f8 FFF7FEFF 		bl	UART_WriteTxData
 413              	.L15:
  85:.\main.c      ****             while (!(UART_ReadRxStatus() & UART_RX_STS_FIFO_NOTEMPTY));
 414              		.loc 1 85 0
 415 00fc FFF7FEFF 		bl	UART_ReadRxStatus
 416 0100 0346     		mov	r3, r0
 417 0102 03F02003 		and	r3, r3, #32
 418 0106 002B     		cmp	r3, #0
 419 0108 F8D0     		beq	.L15
  86:.\main.c      ****             incoming[i] = UART_ReadRxData();
 420              		.loc 1 86 0
 421 010a 07F50051 		add	r1, r7, #8192
 422 010e 01F10401 		add	r1, r1, #4
 423 0112 0C88     		ldrh	r4, [r1, #0]
 424 0114 FFF7FEFF 		bl	UART_ReadRxData
 425 0118 0346     		mov	r3, r0
 426 011a 1A46     		mov	r2, r3
 427 011c 07F10803 		add	r3, r7, #8
 428 0120 A3F10403 		sub	r3, r3, #4
 429 0124 1A55     		strb	r2, [r3, r4]
  87:.\main.c      ****             if (i == 0) LCD_UpdateMessage("transferring");
 430              		.loc 1 87 0
 431 0126 07F50052 		add	r2, r7, #8192
 432 012a 02F10402 		add	r2, r2, #4
 433 012e 1388     		ldrh	r3, [r2, #0]
 434 0130 002B     		cmp	r3, #0
 435 0132 05D1     		bne	.L16
 436 0134 40F20000 		movw	r0, #:lower16:.LC5
 437 0138 C0F20000 		movt	r0, #:upper16:.LC5
 438 013c FFF7FEFF 		bl	LCD_UpdateMessage
 439              	.L16:
  88:.\main.c      ****             if (VERBOSE) {
  89:.\main.c      ****                 if (i == 0) {
  90:.\main.c      ****                     LCD_Position(1,9);
  91:.\main.c      ****                     LCD_PrintString("ed ");
  92:.\main.c      ****                 }
  93:.\main.c      ****                 LCD_Position(1,12);
  94:.\main.c      ****                 LCD_PrintInt16(i);
  95:.\main.c      ****             }
  96:.\main.c      ****             if (incoming[i] != outgoing[i]) {
 440              		.loc 1 96 0
 441 0140 07F50053 		add	r3, r7, #8192
 442 0144 03F10403 		add	r3, r3, #4
 443 0148 1A88     		ldrh	r2, [r3, #0]
 444 014a 07F10803 		add	r3, r7, #8
 445 014e A3F10403 		sub	r3, r3, #4
 446 0152 9A5C     		ldrb	r2, [r3, r2]	@ zero_extendqisi2
 447 0154 07F50053 		add	r3, r7, #8192
 448 0158 03F10403 		add	r3, r3, #4
 449 015c 1988     		ldrh	r1, [r3, #0]
 450 015e 07F58053 		add	r3, r7, #4096
 451 0162 03F10803 		add	r3, r3, #8
ARM GAS  C:\DOCUME~1\dtucker\LOCALS~1\Temp\ccqptpxk.s 			page 11


 452 0166 A3F10403 		sub	r3, r3, #4
 453 016a 5B5C     		ldrb	r3, [r3, r1]	@ zero_extendqisi2
 454 016c 9A42     		cmp	r2, r3
 455 016e 1FD0     		beq	.L17
  97:.\main.c      ****                 LCD_UpdateMessage("error");
 456              		.loc 1 97 0
 457 0170 40F20000 		movw	r0, #:lower16:.LC6
 458 0174 C0F20000 		movt	r0, #:upper16:.LC6
 459 0178 FFF7FEFF 		bl	LCD_UpdateMessage
  98:.\main.c      ****                 ++errors;
 460              		.loc 1 98 0
 461 017c 07F50051 		add	r1, r7, #8192
 462 0180 01F10601 		add	r1, r1, #6
 463 0184 0B88     		ldrh	r3, [r1, #0]	@ movhi
 464 0186 03F10103 		add	r3, r3, #1
 465 018a 07F50052 		add	r2, r7, #8192
 466 018e 02F10602 		add	r2, r2, #6
 467 0192 1380     		strh	r3, [r2, #0]	@ movhi
  99:.\main.c      ****                 CyDelay(POST);
 468              		.loc 1 99 0
 469 0194 40F20003 		movw	r3, #:lower16:POST
 470 0198 C0F20003 		movt	r3, #:upper16:POST
 471 019c 1B88     		ldrh	r3, [r3, #0]
 472 019e 1846     		mov	r0, r3
 473 01a0 FFF7FEFF 		bl	CyDelay
 100:.\main.c      ****                 if (VERBOSE) LCD_UpdateMessage("transferred");
 101:.\main.c      ****                 else LCD_UpdateMessage("transferring");
 474              		.loc 1 101 0
 475 01a4 40F20000 		movw	r0, #:lower16:.LC5
 476 01a8 C0F20000 		movt	r0, #:upper16:.LC5
 477 01ac FFF7FEFF 		bl	LCD_UpdateMessage
 478              	.L17:
 479              		.loc 1 83 0
 480 01b0 07F50051 		add	r1, r7, #8192
 481 01b4 01F10401 		add	r1, r1, #4
 482 01b8 0B88     		ldrh	r3, [r1, #0]	@ movhi
 483 01ba 03F10103 		add	r3, r3, #1
 484 01be 07F50052 		add	r2, r7, #8192
 485 01c2 02F10402 		add	r2, r2, #4
 486 01c6 1380     		strh	r3, [r2, #0]	@ movhi
 487              	.L14:
 488 01c8 07F50053 		add	r3, r7, #8192
 489 01cc 03F10403 		add	r3, r3, #4
 490 01d0 1A88     		ldrh	r2, [r3, #0]
 491 01d2 40F6FF73 		movw	r3, #4095
 492 01d6 9A42     		cmp	r2, r3
 493 01d8 81D9     		bls	.L18
 102:.\main.c      ****             }
 103:.\main.c      ****         }
 104:.\main.c      ****         LCD_UpdateMessage("transfer done");
 494              		.loc 1 104 0
 495 01da 40F20000 		movw	r0, #:lower16:.LC7
 496 01de C0F20000 		movt	r0, #:upper16:.LC7
 497 01e2 FFF7FEFF 		bl	LCD_UpdateMessage
 105:.\main.c      ****         CyDelay(POST);
 498              		.loc 1 105 0
 499 01e6 40F20003 		movw	r3, #:lower16:POST
ARM GAS  C:\DOCUME~1\dtucker\LOCALS~1\Temp\ccqptpxk.s 			page 12


 500 01ea C0F20003 		movt	r3, #:upper16:POST
 501 01ee 1B88     		ldrh	r3, [r3, #0]
 502 01f0 1846     		mov	r0, r3
 503 01f2 FFF7FEFF 		bl	CyDelay
 106:.\main.c      ****         LCD_ClearLine(1);
 504              		.loc 1 106 0
 505 01f6 4FF00100 		mov	r0, #1
 506 01fa FFF7FEFF 		bl	LCD_ClearLine
 107:.\main.c      ****         LCD_Position(1,0);
 507              		.loc 1 107 0
 508 01fe 4FF00100 		mov	r0, #1
 509 0202 4FF00001 		mov	r1, #0
 510 0206 FFF7FEFF 		bl	LCD_Position
 108:.\main.c      ****         if (errors == 0) {
 511              		.loc 1 108 0
 512 020a 07F50051 		add	r1, r7, #8192
 513 020e 01F10601 		add	r1, r1, #6
 514 0212 0B88     		ldrh	r3, [r1, #0]
 515 0214 002B     		cmp	r3, #0
 516 0216 0CD1     		bne	.L19
 109:.\main.c      ****             LCD_PrintString("no");
 517              		.loc 1 109 0
 518 0218 40F20000 		movw	r0, #:lower16:.LC8
 519 021c C0F20000 		movt	r0, #:upper16:.LC8
 520 0220 FFF7FEFF 		bl	LCD_PrintString
 110:.\main.c      ****             LCD_Position(1,3);
 521              		.loc 1 110 0
 522 0224 4FF00100 		mov	r0, #1
 523 0228 4FF00301 		mov	r1, #3
 524 022c FFF7FEFF 		bl	LCD_Position
 525 0230 0DE0     		b	.L20
 526              	.L19:
 111:.\main.c      ****         }
 112:.\main.c      ****         else {
 113:.\main.c      ****             LCD_PrintInt16(errors);
 527              		.loc 1 113 0
 528 0232 07F50052 		add	r2, r7, #8192
 529 0236 02F10602 		add	r2, r2, #6
 530 023a 1388     		ldrh	r3, [r2, #0]
 531 023c 1846     		mov	r0, r3
 532 023e FFF7FEFF 		bl	LCD_PrintInt16
 114:.\main.c      ****             LCD_Position(1,5);
 533              		.loc 1 114 0
 534 0242 4FF00100 		mov	r0, #1
 535 0246 4FF00501 		mov	r1, #5
 536 024a FFF7FEFF 		bl	LCD_Position
 537              	.L20:
 115:.\main.c      ****         }
 116:.\main.c      ****         LCD_PrintString("errors");
 538              		.loc 1 116 0
 539 024e 40F20000 		movw	r0, #:lower16:.LC9
 540 0252 C0F20000 		movt	r0, #:upper16:.LC9
 541 0256 FFF7FEFF 		bl	LCD_PrintString
 117:.\main.c      ****         CyDelay(POST);
 542              		.loc 1 117 0
 543 025a 40F20003 		movw	r3, #:lower16:POST
 544 025e C0F20003 		movt	r3, #:upper16:POST
ARM GAS  C:\DOCUME~1\dtucker\LOCALS~1\Temp\ccqptpxk.s 			page 13


 545 0262 1B88     		ldrh	r3, [r3, #0]
 546 0264 1846     		mov	r0, r3
 547 0266 FFF7FEFF 		bl	CyDelay
 548              	.LBE2:
 118:.\main.c      ****     }
 549              		.loc 1 118 0
 550 026a 29E7     		b	.L21
 551              		.cfi_endproc
 552              	.LFE33:
 553              		.size	main, .-main
 554              		.text
 555              	.Letext0:
 556              		.section	.debug_loc,"",%progbits
 557              	.Ldebug_loc0:
 558              	.LLST0:
 559 0000 00000000 		.4byte	.LFB29
 560 0004 02000000 		.4byte	.LCFI0
 561 0008 0100     		.2byte	0x1
 562 000a 5D       		.byte	0x5d
 563 000b 02000000 		.4byte	.LCFI0
 564 000f 04000000 		.4byte	.LCFI1
 565 0013 0200     		.2byte	0x2
 566 0015 7D       		.byte	0x7d
 567 0016 08       		.sleb128 8
 568 0017 04000000 		.4byte	.LCFI1
 569 001b 06000000 		.4byte	.LCFI2
 570 001f 0200     		.2byte	0x2
 571 0021 7D       		.byte	0x7d
 572 0022 18       		.sleb128 24
 573 0023 06000000 		.4byte	.LCFI2
 574 0027 C0000000 		.4byte	.LFE29
 575 002b 0200     		.2byte	0x2
 576 002d 77       		.byte	0x77
 577 002e 18       		.sleb128 24
 578 002f 00000000 		.4byte	0x0
 579 0033 00000000 		.4byte	0x0
 580              	.LLST1:
 581 0037 00000000 		.4byte	.LFB30
 582 003b 02000000 		.4byte	.LCFI3
 583 003f 0100     		.2byte	0x1
 584 0041 5D       		.byte	0x5d
 585 0042 02000000 		.4byte	.LCFI3
 586 0046 04000000 		.4byte	.LCFI4
 587 004a 0200     		.2byte	0x2
 588 004c 7D       		.byte	0x7d
 589 004d 08       		.sleb128 8
 590 004e 04000000 		.4byte	.LCFI4
 591 0052 06000000 		.4byte	.LCFI5
 592 0056 0200     		.2byte	0x2
 593 0058 7D       		.byte	0x7d
 594 0059 10       		.sleb128 16
 595 005a 06000000 		.4byte	.LCFI5
 596 005e 2A000000 		.4byte	.LFE30
 597 0062 0200     		.2byte	0x2
 598 0064 77       		.byte	0x77
 599 0065 10       		.sleb128 16
 600 0066 00000000 		.4byte	0x0
ARM GAS  C:\DOCUME~1\dtucker\LOCALS~1\Temp\ccqptpxk.s 			page 14


 601 006a 00000000 		.4byte	0x0
 602              	.LLST2:
 603 006e 00000000 		.4byte	.LFB31
 604 0072 02000000 		.4byte	.LCFI6
 605 0076 0100     		.2byte	0x1
 606 0078 5D       		.byte	0x5d
 607 0079 02000000 		.4byte	.LCFI6
 608 007d 04000000 		.4byte	.LCFI7
 609 0081 0200     		.2byte	0x2
 610 0083 7D       		.byte	0x7d
 611 0084 08       		.sleb128 8
 612 0085 04000000 		.4byte	.LCFI7
 613 0089 06000000 		.4byte	.LCFI8
 614 008d 0200     		.2byte	0x2
 615 008f 7D       		.byte	0x7d
 616 0090 10       		.sleb128 16
 617 0091 06000000 		.4byte	.LCFI8
 618 0095 2A000000 		.4byte	.LFE31
 619 0099 0200     		.2byte	0x2
 620 009b 77       		.byte	0x77
 621 009c 10       		.sleb128 16
 622 009d 00000000 		.4byte	0x0
 623 00a1 00000000 		.4byte	0x0
 624              	.LLST3:
 625 00a5 00000000 		.4byte	.LFB32
 626 00a9 02000000 		.4byte	.LCFI9
 627 00ad 0100     		.2byte	0x1
 628 00af 5D       		.byte	0x5d
 629 00b0 02000000 		.4byte	.LCFI9
 630 00b4 04000000 		.4byte	.LCFI10
 631 00b8 0200     		.2byte	0x2
 632 00ba 7D       		.byte	0x7d
 633 00bb 08       		.sleb128 8
 634 00bc 04000000 		.4byte	.LCFI10
 635 00c0 06000000 		.4byte	.LCFI11
 636 00c4 0200     		.2byte	0x2
 637 00c6 7D       		.byte	0x7d
 638 00c7 10       		.sleb128 16
 639 00c8 06000000 		.4byte	.LCFI11
 640 00cc 2A000000 		.4byte	.LFE32
 641 00d0 0200     		.2byte	0x2
 642 00d2 77       		.byte	0x77
 643 00d3 10       		.sleb128 16
 644 00d4 00000000 		.4byte	0x0
 645 00d8 00000000 		.4byte	0x0
 646              	.LLST4:
 647 00dc 00000000 		.4byte	.LFB33
 648 00e0 02000000 		.4byte	.LCFI12
 649 00e4 0100     		.2byte	0x1
 650 00e6 5D       		.byte	0x5d
 651 00e7 02000000 		.4byte	.LCFI12
 652 00eb 06000000 		.4byte	.LCFI13
 653 00ef 0200     		.2byte	0x2
 654 00f1 7D       		.byte	0x7d
 655 00f2 0C       		.sleb128 12
 656 00f3 06000000 		.4byte	.LCFI13
 657 00f7 08000000 		.4byte	.LCFI14
ARM GAS  C:\DOCUME~1\dtucker\LOCALS~1\Temp\ccqptpxk.s 			page 15


 658 00fb 0400     		.2byte	0x4
 659 00fd 7D       		.byte	0x7d
 660 00fe 8CC000   		.sleb128 8204
 661 0101 08000000 		.4byte	.LCFI14
 662 0105 0A000000 		.4byte	.LCFI15
 663 0109 0400     		.2byte	0x4
 664 010b 7D       		.byte	0x7d
 665 010c 98C000   		.sleb128 8216
 666 010f 0A000000 		.4byte	.LCFI15
 667 0113 6C020000 		.4byte	.LFE33
 668 0117 0400     		.2byte	0x4
 669 0119 77       		.byte	0x77
 670 011a 98C000   		.sleb128 8216
 671 011d 00000000 		.4byte	0x0
 672 0121 00000000 		.4byte	0x0
 673              		.file 2 "./Generated_Source/PSoC5/cytypes.h"
 674              		.file 3 "./Generated_Source/PSoC5/core_cm3.h"
 675              		.section	.debug_info
 676 0000 05020000 		.4byte	0x205
 677 0004 0200     		.2byte	0x2
 678 0006 00000000 		.4byte	.Ldebug_abbrev0
 679 000a 04       		.byte	0x4
 680 000b 01       		.uleb128 0x1
 681 000c 0C010000 		.4byte	.LASF26
 682 0010 01       		.byte	0x1
 683 0011 B8000000 		.4byte	.LASF27
 684 0015 5D000000 		.4byte	.LASF28
 685 0019 00000000 		.4byte	0x0
 686 001d 00000000 		.4byte	0x0
 687 0021 00000000 		.4byte	.Ldebug_ranges0+0x0
 688 0025 00000000 		.4byte	.Ldebug_line0
 689 0029 02       		.uleb128 0x2
 690 002a 01       		.byte	0x1
 691 002b 06       		.byte	0x6
 692 002c 4F010000 		.4byte	.LASF0
 693 0030 02       		.uleb128 0x2
 694 0031 01       		.byte	0x1
 695 0032 08       		.byte	0x8
 696 0033 7E000000 		.4byte	.LASF1
 697 0037 02       		.uleb128 0x2
 698 0038 02       		.byte	0x2
 699 0039 05       		.byte	0x5
 700 003a 1D010000 		.4byte	.LASF2
 701 003e 02       		.uleb128 0x2
 702 003f 02       		.byte	0x2
 703 0040 07       		.byte	0x7
 704 0041 26000000 		.4byte	.LASF3
 705 0045 02       		.uleb128 0x2
 706 0046 04       		.byte	0x4
 707 0047 05       		.byte	0x5
 708 0048 38010000 		.4byte	.LASF4
 709 004c 02       		.uleb128 0x2
 710 004d 04       		.byte	0x4
 711 004e 07       		.byte	0x7
 712 004f 8C000000 		.4byte	.LASF5
 713 0053 02       		.uleb128 0x2
 714 0054 08       		.byte	0x8
ARM GAS  C:\DOCUME~1\dtucker\LOCALS~1\Temp\ccqptpxk.s 			page 16


 715 0055 05       		.byte	0x5
 716 0056 00000000 		.4byte	.LASF6
 717 005a 02       		.uleb128 0x2
 718 005b 08       		.byte	0x8
 719 005c 07       		.byte	0x7
 720 005d EA000000 		.4byte	.LASF7
 721 0061 03       		.uleb128 0x3
 722 0062 04       		.byte	0x4
 723 0063 05       		.byte	0x5
 724 0064 696E7400 		.ascii	"int\000"
 725 0068 02       		.uleb128 0x2
 726 0069 04       		.byte	0x4
 727 006a 07       		.byte	0x7
 728 006b DD000000 		.4byte	.LASF8
 729 006f 04       		.uleb128 0x4
 730 0070 9E000000 		.4byte	.LASF9
 731 0074 02       		.byte	0x2
 732 0075 4C       		.byte	0x4c
 733 0076 30000000 		.4byte	0x30
 734 007a 04       		.uleb128 0x4
 735 007b C1000000 		.4byte	.LASF10
 736 007f 02       		.byte	0x2
 737 0080 4D       		.byte	0x4d
 738 0081 3E000000 		.4byte	0x3e
 739 0085 02       		.uleb128 0x2
 740 0086 04       		.byte	0x4
 741 0087 04       		.byte	0x4
 742 0088 52000000 		.4byte	.LASF11
 743 008c 02       		.uleb128 0x2
 744 008d 08       		.byte	0x8
 745 008e 04       		.byte	0x4
 746 008f B1000000 		.4byte	.LASF12
 747 0093 02       		.uleb128 0x2
 748 0094 01       		.byte	0x1
 749 0095 08       		.byte	0x8
 750 0096 18010000 		.4byte	.LASF13
 751 009a 05       		.uleb128 0x5
 752 009b 04       		.byte	0x4
 753 009c 07       		.byte	0x7
 754 009d 06       		.uleb128 0x6
 755 009e 04       		.byte	0x4
 756 009f A3000000 		.4byte	0xa3
 757 00a3 07       		.uleb128 0x7
 758 00a4 93000000 		.4byte	0x93
 759 00a8 08       		.uleb128 0x8
 760 00a9 01       		.byte	0x1
 761 00aa C8000000 		.4byte	.LASF16
 762 00ae 01       		.byte	0x1
 763 00af 0F       		.byte	0xf
 764 00b0 01       		.byte	0x1
 765 00b1 00000000 		.4byte	.LFB29
 766 00b5 C0000000 		.4byte	.LFE29
 767 00b9 00000000 		.4byte	.LLST0
 768 00bd FA000000 		.4byte	0xfa
 769 00c1 09       		.uleb128 0x9
 770 00c2 726F7700 		.ascii	"row\000"
 771 00c6 01       		.byte	0x1
ARM GAS  C:\DOCUME~1\dtucker\LOCALS~1\Temp\ccqptpxk.s 			page 17


 772 00c7 0F       		.byte	0xf
 773 00c8 61000000 		.4byte	0x61
 774 00cc 02       		.byte	0x2
 775 00cd 91       		.byte	0x91
 776 00ce 74       		.sleb128 -12
 777 00cf 09       		.uleb128 0x9
 778 00d0 636F6C00 		.ascii	"col\000"
 779 00d4 01       		.byte	0x1
 780 00d5 0F       		.byte	0xf
 781 00d6 61000000 		.4byte	0x61
 782 00da 02       		.byte	0x2
 783 00db 91       		.byte	0x91
 784 00dc 70       		.sleb128 -16
 785 00dd 0A       		.uleb128 0xa
 786 00de 06010000 		.4byte	.LASF14
 787 00e2 01       		.byte	0x1
 788 00e3 0F       		.byte	0xf
 789 00e4 61000000 		.4byte	0x61
 790 00e8 02       		.byte	0x2
 791 00e9 91       		.byte	0x91
 792 00ea 6C       		.sleb128 -20
 793 00eb 0A       		.uleb128 0xa
 794 00ec 17000000 		.4byte	.LASF15
 795 00f0 01       		.byte	0x1
 796 00f1 0F       		.byte	0xf
 797 00f2 61000000 		.4byte	0x61
 798 00f6 02       		.byte	0x2
 799 00f7 91       		.byte	0x91
 800 00f8 68       		.sleb128 -24
 801 00f9 00       		.byte	0x0
 802 00fa 08       		.uleb128 0x8
 803 00fb 01       		.byte	0x1
 804 00fc 41010000 		.4byte	.LASF17
 805 0100 01       		.byte	0x1
 806 0101 22       		.byte	0x22
 807 0102 01       		.byte	0x1
 808 0103 00000000 		.4byte	.LFB30
 809 0107 2A000000 		.4byte	.LFE30
 810 010b 37000000 		.4byte	.LLST1
 811 010f 22010000 		.4byte	0x122
 812 0113 0A       		.uleb128 0xa
 813 0114 01010000 		.4byte	.LASF18
 814 0118 01       		.byte	0x1
 815 0119 22       		.byte	0x22
 816 011a 61000000 		.4byte	0x61
 817 011e 02       		.byte	0x2
 818 011f 91       		.byte	0x91
 819 0120 74       		.sleb128 -12
 820 0121 00       		.byte	0x0
 821 0122 08       		.uleb128 0x8
 822 0123 01       		.byte	0x1
 823 0124 27010000 		.4byte	.LASF19
 824 0128 01       		.byte	0x1
 825 0129 2A       		.byte	0x2a
 826 012a 01       		.byte	0x1
 827 012b 00000000 		.4byte	.LFB31
 828 012f 2A000000 		.4byte	.LFE31
ARM GAS  C:\DOCUME~1\dtucker\LOCALS~1\Temp\ccqptpxk.s 			page 18


 829 0133 6E000000 		.4byte	.LLST2
 830 0137 4A010000 		.4byte	0x14a
 831 013b 0A       		.uleb128 0xa
 832 013c 39000000 		.4byte	.LASF20
 833 0140 01       		.byte	0x1
 834 0141 2A       		.byte	0x2a
 835 0142 9D000000 		.4byte	0x9d
 836 0146 02       		.byte	0x2
 837 0147 91       		.byte	0x91
 838 0148 74       		.sleb128 -12
 839 0149 00       		.byte	0x0
 840 014a 08       		.uleb128 0x8
 841 014b 01       		.byte	0x1
 842 014c 40000000 		.4byte	.LASF21
 843 0150 01       		.byte	0x1
 844 0151 33       		.byte	0x33
 845 0152 01       		.byte	0x1
 846 0153 00000000 		.4byte	.LFB32
 847 0157 2A000000 		.4byte	.LFE32
 848 015b A5000000 		.4byte	.LLST3
 849 015f 72010000 		.4byte	0x172
 850 0163 0A       		.uleb128 0xa
 851 0164 39000000 		.4byte	.LASF20
 852 0168 01       		.byte	0x1
 853 0169 33       		.byte	0x33
 854 016a 9D000000 		.4byte	0x9d
 855 016e 02       		.byte	0x2
 856 016f 91       		.byte	0x91
 857 0170 74       		.sleb128 -12
 858 0171 00       		.byte	0x0
 859 0172 0B       		.uleb128 0xb
 860 0173 01       		.byte	0x1
 861 0174 D1000000 		.4byte	.LASF29
 862 0178 01       		.byte	0x1
 863 0179 3C       		.byte	0x3c
 864 017a 00000000 		.4byte	.LFB33
 865 017e 6C020000 		.4byte	.LFE33
 866 0182 DC000000 		.4byte	.LLST4
 867 0186 CE010000 		.4byte	0x1ce
 868 018a 0C       		.uleb128 0xc
 869 018b 0E000000 		.4byte	.LASF22
 870 018f 01       		.byte	0x1
 871 0190 47       		.byte	0x47
 872 0191 CE010000 		.4byte	0x1ce
 873 0195 03       		.byte	0x3
 874 0196 91       		.byte	0x91
 875 0197 EC5F     		.sleb128 -4116
 876 0199 0C       		.uleb128 0xc
 877 019a 1D000000 		.4byte	.LASF23
 878 019e 01       		.byte	0x1
 879 019f 48       		.byte	0x48
 880 01a0 CE010000 		.4byte	0x1ce
 881 01a4 04       		.byte	0x4
 882 01a5 91       		.byte	0x91
 883 01a6 ECBF7F   		.sleb128 -8212
 884 01a9 0D       		.uleb128 0xd
 885 01aa 6900     		.ascii	"i\000"
ARM GAS  C:\DOCUME~1\dtucker\LOCALS~1\Temp\ccqptpxk.s 			page 19


 886 01ac 01       		.byte	0x1
 887 01ad 49       		.byte	0x49
 888 01ae 7A000000 		.4byte	0x7a
 889 01b2 02       		.byte	0x2
 890 01b3 91       		.byte	0x91
 891 01b4 6C       		.sleb128 -20
 892 01b5 0E       		.uleb128 0xe
 893 01b6 C0000000 		.4byte	.LBB2
 894 01ba 6A020000 		.4byte	.LBE2
 895 01be 0C       		.uleb128 0xc
 896 01bf D6000000 		.4byte	.LASF24
 897 01c3 01       		.byte	0x1
 898 01c4 52       		.byte	0x52
 899 01c5 7A000000 		.4byte	0x7a
 900 01c9 02       		.byte	0x2
 901 01ca 91       		.byte	0x91
 902 01cb 6E       		.sleb128 -18
 903 01cc 00       		.byte	0x0
 904 01cd 00       		.byte	0x0
 905 01ce 0F       		.uleb128 0xf
 906 01cf 6F000000 		.4byte	0x6f
 907 01d3 DF010000 		.4byte	0x1df
 908 01d7 10       		.uleb128 0x10
 909 01d8 9A000000 		.4byte	0x9a
 910 01dc FF0F     		.2byte	0xfff
 911 01de 00       		.byte	0x0
 912 01df 0C       		.uleb128 0xc
 913 01e0 58000000 		.4byte	.LASF25
 914 01e4 01       		.byte	0x1
 915 01e5 0A       		.byte	0xa
 916 01e6 F0010000 		.4byte	0x1f0
 917 01ea 05       		.byte	0x5
 918 01eb 03       		.byte	0x3
 919 01ec 00000000 		.4byte	POST
 920 01f0 07       		.uleb128 0x7
 921 01f1 7A000000 		.4byte	0x7a
 922 01f5 11       		.uleb128 0x11
 923 01f6 A4000000 		.4byte	.LASF30
 924 01fa 03       		.byte	0x3
 925 01fb CE06     		.2byte	0x6ce
 926 01fd 03020000 		.4byte	0x203
 927 0201 01       		.byte	0x1
 928 0202 01       		.byte	0x1
 929 0203 12       		.uleb128 0x12
 930 0204 61000000 		.4byte	0x61
 931 0208 00       		.byte	0x0
 932              		.section	.debug_abbrev
 933 0000 01       		.uleb128 0x1
 934 0001 11       		.uleb128 0x11
 935 0002 01       		.byte	0x1
 936 0003 25       		.uleb128 0x25
 937 0004 0E       		.uleb128 0xe
 938 0005 13       		.uleb128 0x13
 939 0006 0B       		.uleb128 0xb
 940 0007 03       		.uleb128 0x3
 941 0008 0E       		.uleb128 0xe
 942 0009 1B       		.uleb128 0x1b
ARM GAS  C:\DOCUME~1\dtucker\LOCALS~1\Temp\ccqptpxk.s 			page 20


 943 000a 0E       		.uleb128 0xe
 944 000b 11       		.uleb128 0x11
 945 000c 01       		.uleb128 0x1
 946 000d 52       		.uleb128 0x52
 947 000e 01       		.uleb128 0x1
 948 000f 55       		.uleb128 0x55
 949 0010 06       		.uleb128 0x6
 950 0011 10       		.uleb128 0x10
 951 0012 06       		.uleb128 0x6
 952 0013 00       		.byte	0x0
 953 0014 00       		.byte	0x0
 954 0015 02       		.uleb128 0x2
 955 0016 24       		.uleb128 0x24
 956 0017 00       		.byte	0x0
 957 0018 0B       		.uleb128 0xb
 958 0019 0B       		.uleb128 0xb
 959 001a 3E       		.uleb128 0x3e
 960 001b 0B       		.uleb128 0xb
 961 001c 03       		.uleb128 0x3
 962 001d 0E       		.uleb128 0xe
 963 001e 00       		.byte	0x0
 964 001f 00       		.byte	0x0
 965 0020 03       		.uleb128 0x3
 966 0021 24       		.uleb128 0x24
 967 0022 00       		.byte	0x0
 968 0023 0B       		.uleb128 0xb
 969 0024 0B       		.uleb128 0xb
 970 0025 3E       		.uleb128 0x3e
 971 0026 0B       		.uleb128 0xb
 972 0027 03       		.uleb128 0x3
 973 0028 08       		.uleb128 0x8
 974 0029 00       		.byte	0x0
 975 002a 00       		.byte	0x0
 976 002b 04       		.uleb128 0x4
 977 002c 16       		.uleb128 0x16
 978 002d 00       		.byte	0x0
 979 002e 03       		.uleb128 0x3
 980 002f 0E       		.uleb128 0xe
 981 0030 3A       		.uleb128 0x3a
 982 0031 0B       		.uleb128 0xb
 983 0032 3B       		.uleb128 0x3b
 984 0033 0B       		.uleb128 0xb
 985 0034 49       		.uleb128 0x49
 986 0035 13       		.uleb128 0x13
 987 0036 00       		.byte	0x0
 988 0037 00       		.byte	0x0
 989 0038 05       		.uleb128 0x5
 990 0039 24       		.uleb128 0x24
 991 003a 00       		.byte	0x0
 992 003b 0B       		.uleb128 0xb
 993 003c 0B       		.uleb128 0xb
 994 003d 3E       		.uleb128 0x3e
 995 003e 0B       		.uleb128 0xb
 996 003f 00       		.byte	0x0
 997 0040 00       		.byte	0x0
 998 0041 06       		.uleb128 0x6
 999 0042 0F       		.uleb128 0xf
ARM GAS  C:\DOCUME~1\dtucker\LOCALS~1\Temp\ccqptpxk.s 			page 21


 1000 0043 00       		.byte	0x0
 1001 0044 0B       		.uleb128 0xb
 1002 0045 0B       		.uleb128 0xb
 1003 0046 49       		.uleb128 0x49
 1004 0047 13       		.uleb128 0x13
 1005 0048 00       		.byte	0x0
 1006 0049 00       		.byte	0x0
 1007 004a 07       		.uleb128 0x7
 1008 004b 26       		.uleb128 0x26
 1009 004c 00       		.byte	0x0
 1010 004d 49       		.uleb128 0x49
 1011 004e 13       		.uleb128 0x13
 1012 004f 00       		.byte	0x0
 1013 0050 00       		.byte	0x0
 1014 0051 08       		.uleb128 0x8
 1015 0052 2E       		.uleb128 0x2e
 1016 0053 01       		.byte	0x1
 1017 0054 3F       		.uleb128 0x3f
 1018 0055 0C       		.uleb128 0xc
 1019 0056 03       		.uleb128 0x3
 1020 0057 0E       		.uleb128 0xe
 1021 0058 3A       		.uleb128 0x3a
 1022 0059 0B       		.uleb128 0xb
 1023 005a 3B       		.uleb128 0x3b
 1024 005b 0B       		.uleb128 0xb
 1025 005c 27       		.uleb128 0x27
 1026 005d 0C       		.uleb128 0xc
 1027 005e 11       		.uleb128 0x11
 1028 005f 01       		.uleb128 0x1
 1029 0060 12       		.uleb128 0x12
 1030 0061 01       		.uleb128 0x1
 1031 0062 40       		.uleb128 0x40
 1032 0063 06       		.uleb128 0x6
 1033 0064 01       		.uleb128 0x1
 1034 0065 13       		.uleb128 0x13
 1035 0066 00       		.byte	0x0
 1036 0067 00       		.byte	0x0
 1037 0068 09       		.uleb128 0x9
 1038 0069 05       		.uleb128 0x5
 1039 006a 00       		.byte	0x0
 1040 006b 03       		.uleb128 0x3
 1041 006c 08       		.uleb128 0x8
 1042 006d 3A       		.uleb128 0x3a
 1043 006e 0B       		.uleb128 0xb
 1044 006f 3B       		.uleb128 0x3b
 1045 0070 0B       		.uleb128 0xb
 1046 0071 49       		.uleb128 0x49
 1047 0072 13       		.uleb128 0x13
 1048 0073 02       		.uleb128 0x2
 1049 0074 0A       		.uleb128 0xa
 1050 0075 00       		.byte	0x0
 1051 0076 00       		.byte	0x0
 1052 0077 0A       		.uleb128 0xa
 1053 0078 05       		.uleb128 0x5
 1054 0079 00       		.byte	0x0
 1055 007a 03       		.uleb128 0x3
 1056 007b 0E       		.uleb128 0xe
ARM GAS  C:\DOCUME~1\dtucker\LOCALS~1\Temp\ccqptpxk.s 			page 22


 1057 007c 3A       		.uleb128 0x3a
 1058 007d 0B       		.uleb128 0xb
 1059 007e 3B       		.uleb128 0x3b
 1060 007f 0B       		.uleb128 0xb
 1061 0080 49       		.uleb128 0x49
 1062 0081 13       		.uleb128 0x13
 1063 0082 02       		.uleb128 0x2
 1064 0083 0A       		.uleb128 0xa
 1065 0084 00       		.byte	0x0
 1066 0085 00       		.byte	0x0
 1067 0086 0B       		.uleb128 0xb
 1068 0087 2E       		.uleb128 0x2e
 1069 0088 01       		.byte	0x1
 1070 0089 3F       		.uleb128 0x3f
 1071 008a 0C       		.uleb128 0xc
 1072 008b 03       		.uleb128 0x3
 1073 008c 0E       		.uleb128 0xe
 1074 008d 3A       		.uleb128 0x3a
 1075 008e 0B       		.uleb128 0xb
 1076 008f 3B       		.uleb128 0x3b
 1077 0090 0B       		.uleb128 0xb
 1078 0091 11       		.uleb128 0x11
 1079 0092 01       		.uleb128 0x1
 1080 0093 12       		.uleb128 0x12
 1081 0094 01       		.uleb128 0x1
 1082 0095 40       		.uleb128 0x40
 1083 0096 06       		.uleb128 0x6
 1084 0097 01       		.uleb128 0x1
 1085 0098 13       		.uleb128 0x13
 1086 0099 00       		.byte	0x0
 1087 009a 00       		.byte	0x0
 1088 009b 0C       		.uleb128 0xc
 1089 009c 34       		.uleb128 0x34
 1090 009d 00       		.byte	0x0
 1091 009e 03       		.uleb128 0x3
 1092 009f 0E       		.uleb128 0xe
 1093 00a0 3A       		.uleb128 0x3a
 1094 00a1 0B       		.uleb128 0xb
 1095 00a2 3B       		.uleb128 0x3b
 1096 00a3 0B       		.uleb128 0xb
 1097 00a4 49       		.uleb128 0x49
 1098 00a5 13       		.uleb128 0x13
 1099 00a6 02       		.uleb128 0x2
 1100 00a7 0A       		.uleb128 0xa
 1101 00a8 00       		.byte	0x0
 1102 00a9 00       		.byte	0x0
 1103 00aa 0D       		.uleb128 0xd
 1104 00ab 34       		.uleb128 0x34
 1105 00ac 00       		.byte	0x0
 1106 00ad 03       		.uleb128 0x3
 1107 00ae 08       		.uleb128 0x8
 1108 00af 3A       		.uleb128 0x3a
 1109 00b0 0B       		.uleb128 0xb
 1110 00b1 3B       		.uleb128 0x3b
 1111 00b2 0B       		.uleb128 0xb
 1112 00b3 49       		.uleb128 0x49
 1113 00b4 13       		.uleb128 0x13
ARM GAS  C:\DOCUME~1\dtucker\LOCALS~1\Temp\ccqptpxk.s 			page 23


 1114 00b5 02       		.uleb128 0x2
 1115 00b6 0A       		.uleb128 0xa
 1116 00b7 00       		.byte	0x0
 1117 00b8 00       		.byte	0x0
 1118 00b9 0E       		.uleb128 0xe
 1119 00ba 0B       		.uleb128 0xb
 1120 00bb 01       		.byte	0x1
 1121 00bc 11       		.uleb128 0x11
 1122 00bd 01       		.uleb128 0x1
 1123 00be 12       		.uleb128 0x12
 1124 00bf 01       		.uleb128 0x1
 1125 00c0 00       		.byte	0x0
 1126 00c1 00       		.byte	0x0
 1127 00c2 0F       		.uleb128 0xf
 1128 00c3 01       		.uleb128 0x1
 1129 00c4 01       		.byte	0x1
 1130 00c5 49       		.uleb128 0x49
 1131 00c6 13       		.uleb128 0x13
 1132 00c7 01       		.uleb128 0x1
 1133 00c8 13       		.uleb128 0x13
 1134 00c9 00       		.byte	0x0
 1135 00ca 00       		.byte	0x0
 1136 00cb 10       		.uleb128 0x10
 1137 00cc 21       		.uleb128 0x21
 1138 00cd 00       		.byte	0x0
 1139 00ce 49       		.uleb128 0x49
 1140 00cf 13       		.uleb128 0x13
 1141 00d0 2F       		.uleb128 0x2f
 1142 00d1 05       		.uleb128 0x5
 1143 00d2 00       		.byte	0x0
 1144 00d3 00       		.byte	0x0
 1145 00d4 11       		.uleb128 0x11
 1146 00d5 34       		.uleb128 0x34
 1147 00d6 00       		.byte	0x0
 1148 00d7 03       		.uleb128 0x3
 1149 00d8 0E       		.uleb128 0xe
 1150 00d9 3A       		.uleb128 0x3a
 1151 00da 0B       		.uleb128 0xb
 1152 00db 3B       		.uleb128 0x3b
 1153 00dc 05       		.uleb128 0x5
 1154 00dd 49       		.uleb128 0x49
 1155 00de 13       		.uleb128 0x13
 1156 00df 3F       		.uleb128 0x3f
 1157 00e0 0C       		.uleb128 0xc
 1158 00e1 3C       		.uleb128 0x3c
 1159 00e2 0C       		.uleb128 0xc
 1160 00e3 00       		.byte	0x0
 1161 00e4 00       		.byte	0x0
 1162 00e5 12       		.uleb128 0x12
 1163 00e6 35       		.uleb128 0x35
 1164 00e7 00       		.byte	0x0
 1165 00e8 49       		.uleb128 0x49
 1166 00e9 13       		.uleb128 0x13
 1167 00ea 00       		.byte	0x0
 1168 00eb 00       		.byte	0x0
 1169 00ec 00       		.byte	0x0
 1170              		.section	.debug_pubnames,"",%progbits
ARM GAS  C:\DOCUME~1\dtucker\LOCALS~1\Temp\ccqptpxk.s 			page 24


 1171 0000 61000000 		.4byte	0x61
 1172 0004 0200     		.2byte	0x2
 1173 0006 00000000 		.4byte	.Ldebug_info0
 1174 000a 09020000 		.4byte	0x209
 1175 000e A8000000 		.4byte	0xa8
 1176 0012 4C43445F 		.ascii	"LCD_Spin\000"
 1176      5370696E 
 1176      00
 1177 001b FA000000 		.4byte	0xfa
 1178 001f 4C43445F 		.ascii	"LCD_ClearLine\000"
 1178      436C6561 
 1178      724C696E 
 1178      6500
 1179 002d 22010000 		.4byte	0x122
 1180 0031 4C43445F 		.ascii	"LCD_UpdateStatus\000"
 1180      55706461 
 1180      74655374 
 1180      61747573 
 1180      00
 1181 0042 4A010000 		.4byte	0x14a
 1182 0046 4C43445F 		.ascii	"LCD_UpdateMessage\000"
 1182      55706461 
 1182      74654D65 
 1182      73736167 
 1182      6500
 1183 0058 72010000 		.4byte	0x172
 1184 005c 6D61696E 		.ascii	"main\000"
 1184      00
 1185 0061 00000000 		.4byte	0x0
 1186              		.section	.debug_aranges,"",%progbits
 1187 0000 3C000000 		.4byte	0x3c
 1188 0004 0200     		.2byte	0x2
 1189 0006 00000000 		.4byte	.Ldebug_info0
 1190 000a 04       		.byte	0x4
 1191 000b 00       		.byte	0x0
 1192 000c 0000     		.2byte	0x0
 1193 000e 0000     		.2byte	0x0
 1194 0010 00000000 		.4byte	.LFB29
 1195 0014 C0000000 		.4byte	.LFE29-.LFB29
 1196 0018 00000000 		.4byte	.LFB30
 1197 001c 2A000000 		.4byte	.LFE30-.LFB30
 1198 0020 00000000 		.4byte	.LFB31
 1199 0024 2A000000 		.4byte	.LFE31-.LFB31
 1200 0028 00000000 		.4byte	.LFB32
 1201 002c 2A000000 		.4byte	.LFE32-.LFB32
 1202 0030 00000000 		.4byte	.LFB33
 1203 0034 6C020000 		.4byte	.LFE33-.LFB33
 1204 0038 00000000 		.4byte	0x0
 1205 003c 00000000 		.4byte	0x0
 1206              		.section	.debug_ranges,"",%progbits
 1207              	.Ldebug_ranges0:
 1208 0000 00000000 		.4byte	.Ltext0
 1209 0004 00000000 		.4byte	.Letext0
 1210 0008 00000000 		.4byte	.LFB29
 1211 000c C0000000 		.4byte	.LFE29
 1212 0010 00000000 		.4byte	.LFB30
 1213 0014 2A000000 		.4byte	.LFE30
ARM GAS  C:\DOCUME~1\dtucker\LOCALS~1\Temp\ccqptpxk.s 			page 25


 1214 0018 00000000 		.4byte	.LFB31
 1215 001c 2A000000 		.4byte	.LFE31
 1216 0020 00000000 		.4byte	.LFB32
 1217 0024 2A000000 		.4byte	.LFE32
 1218 0028 00000000 		.4byte	.LFB33
 1219 002c 6C020000 		.4byte	.LFE33
 1220 0030 00000000 		.4byte	0x0
 1221 0034 00000000 		.4byte	0x0
 1222              		.section	.debug_str,"MS",%progbits,1
 1223              	.LASF6:
 1224 0000 6C6F6E67 		.ascii	"long long int\000"
 1224      206C6F6E 
 1224      6720696E 
 1224      7400
 1225              	.LASF22:
 1226 000e 6F757467 		.ascii	"outgoing\000"
 1226      6F696E67 
 1226      00
 1227              	.LASF15:
 1228 0017 636F756E 		.ascii	"count\000"
 1228      7400
 1229              	.LASF23:
 1230 001d 696E636F 		.ascii	"incoming\000"
 1230      6D696E67 
 1230      00
 1231              	.LASF3:
 1232 0026 73686F72 		.ascii	"short unsigned int\000"
 1232      7420756E 
 1232      7369676E 
 1232      65642069 
 1232      6E7400
 1233              	.LASF20:
 1234 0039 73747269 		.ascii	"string\000"
 1234      6E6700
 1235              	.LASF21:
 1236 0040 4C43445F 		.ascii	"LCD_UpdateMessage\000"
 1236      55706461 
 1236      74654D65 
 1236      73736167 
 1236      6500
 1237              	.LASF11:
 1238 0052 666C6F61 		.ascii	"float\000"
 1238      7400
 1239              	.LASF25:
 1240 0058 504F5354 		.ascii	"POST\000"
 1240      00
 1241              	.LASF28:
 1242 005d 463A5C50 		.ascii	"F:\\PSoC Creator\\lab3\\part1.cydsn\000"
 1242      536F4320 
 1242      43726561 
 1242      746F725C 
 1242      6C616233 
 1243              	.LASF1:
 1244 007e 756E7369 		.ascii	"unsigned char\000"
 1244      676E6564 
 1244      20636861 
 1244      7200
ARM GAS  C:\DOCUME~1\dtucker\LOCALS~1\Temp\ccqptpxk.s 			page 26


 1245              	.LASF5:
 1246 008c 6C6F6E67 		.ascii	"long unsigned int\000"
 1246      20756E73 
 1246      69676E65 
 1246      6420696E 
 1246      7400
 1247              	.LASF9:
 1248 009e 75696E74 		.ascii	"uint8\000"
 1248      3800
 1249              	.LASF30:
 1250 00a4 49544D5F 		.ascii	"ITM_RxBuffer\000"
 1250      52784275 
 1250      66666572 
 1250      00
 1251              	.LASF12:
 1252 00b1 646F7562 		.ascii	"double\000"
 1252      6C6500
 1253              	.LASF27:
 1254 00b8 2E5C6D61 		.ascii	".\\main.c\000"
 1254      696E2E63 
 1254      00
 1255              	.LASF10:
 1256 00c1 75696E74 		.ascii	"uint16\000"
 1256      313600
 1257              	.LASF16:
 1258 00c8 4C43445F 		.ascii	"LCD_Spin\000"
 1258      5370696E 
 1258      00
 1259              	.LASF29:
 1260 00d1 6D61696E 		.ascii	"main\000"
 1260      00
 1261              	.LASF24:
 1262 00d6 6572726F 		.ascii	"errors\000"
 1262      727300
 1263              	.LASF8:
 1264 00dd 756E7369 		.ascii	"unsigned int\000"
 1264      676E6564 
 1264      20696E74 
 1264      00
 1265              	.LASF7:
 1266 00ea 6C6F6E67 		.ascii	"long long unsigned int\000"
 1266      206C6F6E 
 1266      6720756E 
 1266      7369676E 
 1266      65642069 
 1267              	.LASF18:
 1268 0101 6C696E65 		.ascii	"line\000"
 1268      00
 1269              	.LASF14:
 1270 0106 73706565 		.ascii	"speed\000"
 1270      6400
 1271              	.LASF26:
 1272 010c 474E5520 		.ascii	"GNU C 4.4.1\000"
 1272      4320342E 
 1272      342E3100 
 1273              	.LASF13:
 1274 0118 63686172 		.ascii	"char\000"
ARM GAS  C:\DOCUME~1\dtucker\LOCALS~1\Temp\ccqptpxk.s 			page 27


 1274      00
 1275              	.LASF2:
 1276 011d 73686F72 		.ascii	"short int\000"
 1276      7420696E 
 1276      7400
 1277              	.LASF19:
 1278 0127 4C43445F 		.ascii	"LCD_UpdateStatus\000"
 1278      55706461 
 1278      74655374 
 1278      61747573 
 1278      00
 1279              	.LASF4:
 1280 0138 6C6F6E67 		.ascii	"long int\000"
 1280      20696E74 
 1280      00
 1281              	.LASF17:
 1282 0141 4C43445F 		.ascii	"LCD_ClearLine\000"
 1282      436C6561 
 1282      724C696E 
 1282      6500
 1283              	.LASF0:
 1284 014f 7369676E 		.ascii	"signed char\000"
 1284      65642063 
 1284      68617200 
 1285              		.ident	"GCC: (Sourcery G++ Lite 2010q1-188) 4.4.1"
