ARM GAS  C:\Users\dmtucker\AppData\Local\Temp\ccE6jVLi.s 			page 1


   1              		.syntax unified
   2              		.cpu cortex-m3
   3              		.fpu softvfp
   4              		.eabi_attribute 20, 1
   5              		.eabi_attribute 21, 1
   6              		.eabi_attribute 23, 3
   7              		.eabi_attribute 24, 1
   8              		.eabi_attribute 25, 1
   9              		.eabi_attribute 26, 1
  10              		.eabi_attribute 30, 6
  11              		.eabi_attribute 18, 4
  12              		.thumb
  13              		.file	"UART.c"
  14              		.section	.debug_abbrev,"",%progbits
  15              	.Ldebug_abbrev0:
  16              		.section	.debug_info,"",%progbits
  17              	.Ldebug_info0:
  18              		.section	.debug_line,"",%progbits
  19              	.Ldebug_line0:
  20 0000 56030000 		.text
  20      02005D00 
  20      00000201 
  20      FB0E0D00 
  20      01010101 
  21              	.Ltext0:
  22              		.cfi_sections	.debug_frame
  23              		.global	UART_initVar
  24              		.bss
  25              		.type	UART_initVar, %object
  26              		.size	UART_initVar, 1
  27              	UART_initVar:
  28 0000 00       		.space	1
  29              		.comm	UART_txBuffer,64,4
  30              		.global	UART_txBufferRead
  31              		.type	UART_txBufferRead, %object
  32              		.size	UART_txBufferRead, 1
  33              	UART_txBufferRead:
  34 0001 00       		.space	1
  35              		.global	UART_txBufferWrite
  36              		.type	UART_txBufferWrite, %object
  37              		.size	UART_txBufferWrite, 1
  38              	UART_txBufferWrite:
  39 0002 00       		.space	1
  40              		.comm	UART_rxBuffer,64,4
  41              		.global	UART_rxBufferRead
  42              		.type	UART_rxBufferRead, %object
  43              		.size	UART_rxBufferRead, 1
  44              	UART_rxBufferRead:
  45 0003 00       		.space	1
  46              		.global	UART_rxBufferWrite
  47              		.type	UART_rxBufferWrite, %object
  48              		.size	UART_rxBufferWrite, 1
  49              	UART_rxBufferWrite:
  50 0004 00       		.space	1
  51              		.global	UART_rxBufferLoopDetect
  52              		.type	UART_rxBufferLoopDetect, %object
  53              		.size	UART_rxBufferLoopDetect, 1
ARM GAS  C:\Users\dmtucker\AppData\Local\Temp\ccE6jVLi.s 			page 2


  54              	UART_rxBufferLoopDetect:
  55 0005 00       		.space	1
  56              		.global	UART_rxBufferOverflow
  57              		.type	UART_rxBufferOverflow, %object
  58              		.size	UART_rxBufferOverflow, 1
  59              	UART_rxBufferOverflow:
  60 0006 00       		.space	1
  61              		.section	.text.UART_Start,"ax",%progbits
  62              		.align	2
  63              		.global	UART_Start
  64              		.thumb
  65              		.thumb_func
  66              		.type	UART_Start, %function
  67              	UART_Start:
  68              	.LFB0:
  69              		.file 1 ".\\Generated_Source\\PSoC5\\UART.c"
   1:.\Generated_Source\PSoC5/UART.c **** /*******************************************************************************
   2:.\Generated_Source\PSoC5/UART.c **** * File Name: UART.c
   3:.\Generated_Source\PSoC5/UART.c **** * Version 2.30
   4:.\Generated_Source\PSoC5/UART.c **** *
   5:.\Generated_Source\PSoC5/UART.c **** * Description:
   6:.\Generated_Source\PSoC5/UART.c **** *  This file provides all API functionality of the UART component
   7:.\Generated_Source\PSoC5/UART.c **** *
   8:.\Generated_Source\PSoC5/UART.c **** * Note:
   9:.\Generated_Source\PSoC5/UART.c **** *
  10:.\Generated_Source\PSoC5/UART.c **** ********************************************************************************
  11:.\Generated_Source\PSoC5/UART.c **** * Copyright 2008-2012, Cypress Semiconductor Corporation.  All rights reserved.
  12:.\Generated_Source\PSoC5/UART.c **** * You may use this file only in accordance with the license, terms, conditions,
  13:.\Generated_Source\PSoC5/UART.c **** * disclaimers, and limitations in the end user license agreement accompanying
  14:.\Generated_Source\PSoC5/UART.c **** * the software package with which this file was provided.
  15:.\Generated_Source\PSoC5/UART.c **** *******************************************************************************/
  16:.\Generated_Source\PSoC5/UART.c **** 
  17:.\Generated_Source\PSoC5/UART.c **** #include "UART.h"
  18:.\Generated_Source\PSoC5/UART.c **** #include "CyLib.h"
  19:.\Generated_Source\PSoC5/UART.c **** #if(UART_INTERNAL_CLOCK_USED)
  20:.\Generated_Source\PSoC5/UART.c ****     #include "UART_IntClock.h"
  21:.\Generated_Source\PSoC5/UART.c **** #endif /* End UART_INTERNAL_CLOCK_USED */
  22:.\Generated_Source\PSoC5/UART.c **** 
  23:.\Generated_Source\PSoC5/UART.c **** 
  24:.\Generated_Source\PSoC5/UART.c **** /***************************************
  25:.\Generated_Source\PSoC5/UART.c **** * Global data allocation
  26:.\Generated_Source\PSoC5/UART.c **** ***************************************/
  27:.\Generated_Source\PSoC5/UART.c **** 
  28:.\Generated_Source\PSoC5/UART.c **** uint8 UART_initVar = 0u;
  29:.\Generated_Source\PSoC5/UART.c **** #if( UART_TX_ENABLED && (UART_TXBUFFERSIZE > UART_FIFO_LENGTH))
  30:.\Generated_Source\PSoC5/UART.c ****     volatile uint8 UART_txBuffer[UART_TXBUFFERSIZE];
  31:.\Generated_Source\PSoC5/UART.c ****     volatile uint8 UART_txBufferRead = 0u;
  32:.\Generated_Source\PSoC5/UART.c ****     uint8 UART_txBufferWrite = 0u;
  33:.\Generated_Source\PSoC5/UART.c **** #endif /* End UART_TX_ENABLED */
  34:.\Generated_Source\PSoC5/UART.c **** #if( ( UART_RX_ENABLED || UART_HD_ENABLED ) && \
  35:.\Generated_Source\PSoC5/UART.c ****      (UART_RXBUFFERSIZE > UART_FIFO_LENGTH) )
  36:.\Generated_Source\PSoC5/UART.c ****     volatile uint8 UART_rxBuffer[UART_RXBUFFERSIZE];
  37:.\Generated_Source\PSoC5/UART.c ****     volatile uint8 UART_rxBufferRead = 0u;
  38:.\Generated_Source\PSoC5/UART.c ****     volatile uint8 UART_rxBufferWrite = 0u;
  39:.\Generated_Source\PSoC5/UART.c ****     volatile uint8 UART_rxBufferLoopDetect = 0u;
  40:.\Generated_Source\PSoC5/UART.c ****     volatile uint8 UART_rxBufferOverflow = 0u;
  41:.\Generated_Source\PSoC5/UART.c ****     #if (UART_RXHW_ADDRESS_ENABLED)
ARM GAS  C:\Users\dmtucker\AppData\Local\Temp\ccE6jVLi.s 			page 3


  42:.\Generated_Source\PSoC5/UART.c ****         volatile uint8 UART_rxAddressMode = UART_RXADDRESSMODE;
  43:.\Generated_Source\PSoC5/UART.c ****         volatile uint8 UART_rxAddressDetected = 0u;
  44:.\Generated_Source\PSoC5/UART.c ****     #endif /* End EnableHWAddress */
  45:.\Generated_Source\PSoC5/UART.c **** #endif /* End UART_RX_ENABLED */
  46:.\Generated_Source\PSoC5/UART.c **** 
  47:.\Generated_Source\PSoC5/UART.c **** 
  48:.\Generated_Source\PSoC5/UART.c **** /*******************************************************************************
  49:.\Generated_Source\PSoC5/UART.c **** * Function Name: UART_Start
  50:.\Generated_Source\PSoC5/UART.c **** ********************************************************************************
  51:.\Generated_Source\PSoC5/UART.c **** *
  52:.\Generated_Source\PSoC5/UART.c **** * Summary:
  53:.\Generated_Source\PSoC5/UART.c **** *  Initialize and Enable the UART component.
  54:.\Generated_Source\PSoC5/UART.c **** *  Enable the clock input to enable operation.
  55:.\Generated_Source\PSoC5/UART.c **** *
  56:.\Generated_Source\PSoC5/UART.c **** * Parameters:
  57:.\Generated_Source\PSoC5/UART.c **** *  None.
  58:.\Generated_Source\PSoC5/UART.c **** *
  59:.\Generated_Source\PSoC5/UART.c **** * Return:
  60:.\Generated_Source\PSoC5/UART.c **** *  None.
  61:.\Generated_Source\PSoC5/UART.c **** *
  62:.\Generated_Source\PSoC5/UART.c **** * Global variables:
  63:.\Generated_Source\PSoC5/UART.c **** *  The UART_intiVar variable is used to indicate initial
  64:.\Generated_Source\PSoC5/UART.c **** *  configuration of this component. The variable is initialized to zero (0u)
  65:.\Generated_Source\PSoC5/UART.c **** *  and set to one (1u) the first time UART_Start() is called. This allows for
  66:.\Generated_Source\PSoC5/UART.c **** *  component initialization without re-initialization in all subsequent calls
  67:.\Generated_Source\PSoC5/UART.c **** *  to the UART_Start() routine.
  68:.\Generated_Source\PSoC5/UART.c **** *
  69:.\Generated_Source\PSoC5/UART.c **** * Reentrant:
  70:.\Generated_Source\PSoC5/UART.c **** *  No.
  71:.\Generated_Source\PSoC5/UART.c **** *
  72:.\Generated_Source\PSoC5/UART.c **** *******************************************************************************/
  73:.\Generated_Source\PSoC5/UART.c **** void UART_Start(void) 
  74:.\Generated_Source\PSoC5/UART.c **** {
  70              		.loc 1 74 0
  71              		.cfi_startproc
  72              		@ args = 0, pretend = 0, frame = 0
  73              		@ frame_needed = 1, uses_anonymous_args = 0
  74 0000 80B5     		push	{r7, lr}
  75              	.LCFI0:
  76              		.cfi_def_cfa_offset 8
  77 0002 00AF     		add	r7, sp, #0
  78              		.cfi_offset 14, -4
  79              		.cfi_offset 7, -8
  80              	.LCFI1:
  81              		.cfi_def_cfa_register 7
  75:.\Generated_Source\PSoC5/UART.c ****     /* If not Initialized then initialize all required hardware and software */
  76:.\Generated_Source\PSoC5/UART.c ****     if(UART_initVar == 0u)
  82              		.loc 1 76 0
  83 0004 40F20003 		movw	r3, #:lower16:UART_initVar
  84 0008 C0F20003 		movt	r3, #:upper16:UART_initVar
  85 000c 1B78     		ldrb	r3, [r3, #0]	@ zero_extendqisi2
  86 000e 002B     		cmp	r3, #0
  87 0010 08D1     		bne	.L2
  77:.\Generated_Source\PSoC5/UART.c ****     {
  78:.\Generated_Source\PSoC5/UART.c ****         UART_Init();
  88              		.loc 1 78 0
  89 0012 FFF7FEFF 		bl	UART_Init
ARM GAS  C:\Users\dmtucker\AppData\Local\Temp\ccE6jVLi.s 			page 4


  79:.\Generated_Source\PSoC5/UART.c ****         UART_initVar = 1u;
  90              		.loc 1 79 0
  91 0016 40F20003 		movw	r3, #:lower16:UART_initVar
  92 001a C0F20003 		movt	r3, #:upper16:UART_initVar
  93 001e 4FF00102 		mov	r2, #1
  94 0022 1A70     		strb	r2, [r3, #0]
  95              	.L2:
  80:.\Generated_Source\PSoC5/UART.c ****     }
  81:.\Generated_Source\PSoC5/UART.c ****     UART_Enable();
  96              		.loc 1 81 0
  97 0024 FFF7FEFF 		bl	UART_Enable
  82:.\Generated_Source\PSoC5/UART.c **** }
  98              		.loc 1 82 0
  99 0028 80BD     		pop	{r7, pc}
 100              		.cfi_endproc
 101              	.LFE0:
 102              		.size	UART_Start, .-UART_Start
 103 002a 00BF     		.section	.text.UART_Init,"ax",%progbits
 104              		.align	2
 105              		.global	UART_Init
 106              		.thumb
 107              		.thumb_func
 108              		.type	UART_Init, %function
 109              	UART_Init:
 110              	.LFB1:
  83:.\Generated_Source\PSoC5/UART.c **** 
  84:.\Generated_Source\PSoC5/UART.c **** 
  85:.\Generated_Source\PSoC5/UART.c **** /*******************************************************************************
  86:.\Generated_Source\PSoC5/UART.c **** * Function Name: UART_Init
  87:.\Generated_Source\PSoC5/UART.c **** ********************************************************************************
  88:.\Generated_Source\PSoC5/UART.c **** *
  89:.\Generated_Source\PSoC5/UART.c **** * Summary:
  90:.\Generated_Source\PSoC5/UART.c **** *  Initialize component's parameters to the parameters set by user in the
  91:.\Generated_Source\PSoC5/UART.c **** *  customizer of the component placed onto schematic. Usually called in
  92:.\Generated_Source\PSoC5/UART.c **** *  UART_Start().
  93:.\Generated_Source\PSoC5/UART.c **** *
  94:.\Generated_Source\PSoC5/UART.c **** * Parameters:
  95:.\Generated_Source\PSoC5/UART.c **** *  None.
  96:.\Generated_Source\PSoC5/UART.c **** *
  97:.\Generated_Source\PSoC5/UART.c **** * Return:
  98:.\Generated_Source\PSoC5/UART.c **** *  None.
  99:.\Generated_Source\PSoC5/UART.c **** *
 100:.\Generated_Source\PSoC5/UART.c **** *******************************************************************************/
 101:.\Generated_Source\PSoC5/UART.c **** void UART_Init(void) 
 102:.\Generated_Source\PSoC5/UART.c **** {
 111              		.loc 1 102 0
 112              		.cfi_startproc
 113              		@ args = 0, pretend = 0, frame = 0
 114              		@ frame_needed = 1, uses_anonymous_args = 0
 115 0000 80B5     		push	{r7, lr}
 116              	.LCFI2:
 117              		.cfi_def_cfa_offset 8
 118 0002 00AF     		add	r7, sp, #0
 119              		.cfi_offset 14, -4
 120              		.cfi_offset 7, -8
 121              	.LCFI3:
 122              		.cfi_def_cfa_register 7
ARM GAS  C:\Users\dmtucker\AppData\Local\Temp\ccE6jVLi.s 			page 5


 103:.\Generated_Source\PSoC5/UART.c ****     #if(UART_RX_ENABLED || UART_HD_ENABLED)
 104:.\Generated_Source\PSoC5/UART.c **** 
 105:.\Generated_Source\PSoC5/UART.c ****         #if(UART_RX_INTERRUPT_ENABLED && (UART_RXBUFFERSIZE > UART_FIFO_LENGTH))
 106:.\Generated_Source\PSoC5/UART.c ****             /* Set the RX Interrupt. */
 107:.\Generated_Source\PSoC5/UART.c ****             (void)CyIntSetVector(UART_RX_VECT_NUM, &UART_RXISR);
 123              		.loc 1 107 0
 124 0004 4FF00000 		mov	r0, #0
 125 0008 40F20001 		movw	r1, #:lower16:UART_RXISR
 126 000c C0F20001 		movt	r1, #:upper16:UART_RXISR
 127 0010 FFF7FEFF 		bl	CyIntSetVector
 108:.\Generated_Source\PSoC5/UART.c ****             CyIntSetPriority(UART_RX_VECT_NUM, UART_RX_PRIOR_NUM);
 128              		.loc 1 108 0
 129 0014 4FF00000 		mov	r0, #0
 130 0018 4FF00701 		mov	r1, #7
 131 001c FFF7FEFF 		bl	CyIntSetPriority
 109:.\Generated_Source\PSoC5/UART.c ****         #endif /* End UART_RX_INTERRUPT_ENABLED */
 110:.\Generated_Source\PSoC5/UART.c **** 
 111:.\Generated_Source\PSoC5/UART.c ****         #if (UART_RXHW_ADDRESS_ENABLED)
 112:.\Generated_Source\PSoC5/UART.c ****             UART_SetRxAddressMode(UART_RXAddressMode);
 113:.\Generated_Source\PSoC5/UART.c ****             UART_SetRxAddress1(UART_RXHWADDRESS1);
 114:.\Generated_Source\PSoC5/UART.c ****             UART_SetRxAddress2(UART_RXHWADDRESS2);
 115:.\Generated_Source\PSoC5/UART.c ****         #endif /* End UART_RXHW_ADDRESS_ENABLED */
 116:.\Generated_Source\PSoC5/UART.c **** 
 117:.\Generated_Source\PSoC5/UART.c ****         /* Init Count7 period */
 118:.\Generated_Source\PSoC5/UART.c ****         UART_RXBITCTR_PERIOD_REG = UART_RXBITCTR_INIT;
 132              		.loc 1 118 0
 133 0020 46F28143 		movw	r3, #:lower16:1073767553
 134 0024 C4F20003 		movt	r3, #:upper16:1073767553
 135 0028 4FF07602 		mov	r2, #118
 136 002c 1A70     		strb	r2, [r3, #0]
 119:.\Generated_Source\PSoC5/UART.c ****         /* Configure the Initial RX interrupt mask */
 120:.\Generated_Source\PSoC5/UART.c ****         UART_RXSTATUS_MASK_REG  = UART_INIT_RX_INTERRUPTS_MASK;
 137              		.loc 1 120 0
 138 002e 46F28343 		movw	r3, #:lower16:1073767555
 139 0032 C4F20003 		movt	r3, #:upper16:1073767555
 140 0036 4FF02002 		mov	r2, #32
 141 003a 1A70     		strb	r2, [r3, #0]
 121:.\Generated_Source\PSoC5/UART.c ****     #endif /* End UART_RX_ENABLED || UART_HD_ENABLED*/
 122:.\Generated_Source\PSoC5/UART.c **** 
 123:.\Generated_Source\PSoC5/UART.c ****     #if(UART_TX_ENABLED)
 124:.\Generated_Source\PSoC5/UART.c ****         #if(UART_TX_INTERRUPT_ENABLED && (UART_TXBUFFERSIZE > UART_FIFO_LENGTH))
 125:.\Generated_Source\PSoC5/UART.c ****             /* Set the TX Interrupt. */
 126:.\Generated_Source\PSoC5/UART.c ****             (void)CyIntSetVector(UART_TX_VECT_NUM, &UART_TXISR);
 142              		.loc 1 126 0
 143 003c 4FF00100 		mov	r0, #1
 144 0040 40F20001 		movw	r1, #:lower16:UART_TXISR
 145 0044 C0F20001 		movt	r1, #:upper16:UART_TXISR
 146 0048 FFF7FEFF 		bl	CyIntSetVector
 127:.\Generated_Source\PSoC5/UART.c ****             CyIntSetPriority(UART_TX_VECT_NUM, UART_TX_PRIOR_NUM);
 147              		.loc 1 127 0
 148 004c 4FF00100 		mov	r0, #1
 149 0050 4FF00701 		mov	r1, #7
 150 0054 FFF7FEFF 		bl	CyIntSetPriority
 128:.\Generated_Source\PSoC5/UART.c ****         #endif /* End UART_TX_INTERRUPT_ENABLED */
 129:.\Generated_Source\PSoC5/UART.c **** 
 130:.\Generated_Source\PSoC5/UART.c ****         /* Write Counter Value for TX Bit Clk Generator*/
 131:.\Generated_Source\PSoC5/UART.c ****         #if(UART_TXCLKGEN_DP)
ARM GAS  C:\Users\dmtucker\AppData\Local\Temp\ccE6jVLi.s 			page 6


 132:.\Generated_Source\PSoC5/UART.c ****             UART_TXBITCLKGEN_CTR_REG = UART_BIT_CENTER;
 151              		.loc 1 132 0
 152 0058 46F22043 		movw	r3, #:lower16:1073767456
 153 005c C4F20003 		movt	r3, #:upper16:1073767456
 154 0060 4FF00F02 		mov	r2, #15
 155 0064 1A70     		strb	r2, [r3, #0]
 133:.\Generated_Source\PSoC5/UART.c ****             UART_TXBITCLKTX_COMPLETE_REG = (UART_NUMBER_OF_DATA_BITS +
 156              		.loc 1 133 0
 157 0066 46F23043 		movw	r3, #:lower16:1073767472
 158 006a C4F20003 		movt	r3, #:upper16:1073767472
 159 006e 6FF06F02 		mvn	r2, #111
 160 0072 1A70     		strb	r2, [r3, #0]
 134:.\Generated_Source\PSoC5/UART.c ****                         UART_NUMBER_OF_START_BIT) * UART_OVER_SAMPLE_COUNT;
 135:.\Generated_Source\PSoC5/UART.c ****         #else
 136:.\Generated_Source\PSoC5/UART.c ****             UART_TXBITCTR_PERIOD_REG = ((UART_NUMBER_OF_DATA_BITS +
 137:.\Generated_Source\PSoC5/UART.c ****                         UART_NUMBER_OF_START_BIT) * UART_OVER_SAMPLE_8) - 1u;
 138:.\Generated_Source\PSoC5/UART.c ****         #endif /* End UART_TXCLKGEN_DP */
 139:.\Generated_Source\PSoC5/UART.c **** 
 140:.\Generated_Source\PSoC5/UART.c ****         /* Configure the Initial TX interrupt mask */
 141:.\Generated_Source\PSoC5/UART.c ****         #if(UART_TX_INTERRUPT_ENABLED && (UART_TXBUFFERSIZE > UART_FIFO_LENGTH))
 142:.\Generated_Source\PSoC5/UART.c ****             UART_TXSTATUS_MASK_REG = UART_TX_STS_FIFO_EMPTY;
 161              		.loc 1 142 0
 162 0074 46F28443 		movw	r3, #:lower16:1073767556
 163 0078 C4F20003 		movt	r3, #:upper16:1073767556
 164 007c 4FF00202 		mov	r2, #2
 165 0080 1A70     		strb	r2, [r3, #0]
 143:.\Generated_Source\PSoC5/UART.c ****         #else
 144:.\Generated_Source\PSoC5/UART.c ****             UART_TXSTATUS_MASK_REG = UART_INIT_TX_INTERRUPTS_MASK;
 145:.\Generated_Source\PSoC5/UART.c ****         #endif /*End UART_TX_INTERRUPT_ENABLED*/
 146:.\Generated_Source\PSoC5/UART.c **** 
 147:.\Generated_Source\PSoC5/UART.c ****     #endif /* End UART_TX_ENABLED */
 148:.\Generated_Source\PSoC5/UART.c **** 
 149:.\Generated_Source\PSoC5/UART.c ****     #if(UART_PARITY_TYPE_SW)  /* Write Parity to Control Register */
 150:.\Generated_Source\PSoC5/UART.c ****         UART_WriteControlRegister( \
 151:.\Generated_Source\PSoC5/UART.c ****             (UART_ReadControlRegister() & (uint8)~UART_CTRL_PARITY_TYPE_MASK) | \
 152:.\Generated_Source\PSoC5/UART.c ****             (uint8)(UART_PARITY_TYPE << UART_CTRL_PARITY_TYPE0_SHIFT) );
 153:.\Generated_Source\PSoC5/UART.c ****     #endif /* End UART_PARITY_TYPE_SW */
 154:.\Generated_Source\PSoC5/UART.c **** }
 166              		.loc 1 154 0
 167 0082 80BD     		pop	{r7, pc}
 168              		.cfi_endproc
 169              	.LFE1:
 170              		.size	UART_Init, .-UART_Init
 171              		.section	.text.UART_Enable,"ax",%progbits
 172              		.align	2
 173              		.global	UART_Enable
 174              		.thumb
 175              		.thumb_func
 176              		.type	UART_Enable, %function
 177              	UART_Enable:
 178              	.LFB2:
 155:.\Generated_Source\PSoC5/UART.c **** 
 156:.\Generated_Source\PSoC5/UART.c **** 
 157:.\Generated_Source\PSoC5/UART.c **** /*******************************************************************************
 158:.\Generated_Source\PSoC5/UART.c **** * Function Name: UART_Enable
 159:.\Generated_Source\PSoC5/UART.c **** ********************************************************************************
 160:.\Generated_Source\PSoC5/UART.c **** *
ARM GAS  C:\Users\dmtucker\AppData\Local\Temp\ccE6jVLi.s 			page 7


 161:.\Generated_Source\PSoC5/UART.c **** * Summary:
 162:.\Generated_Source\PSoC5/UART.c **** *  Enables the UART block operation
 163:.\Generated_Source\PSoC5/UART.c **** *
 164:.\Generated_Source\PSoC5/UART.c **** * Parameters:
 165:.\Generated_Source\PSoC5/UART.c **** *  None.
 166:.\Generated_Source\PSoC5/UART.c **** *
 167:.\Generated_Source\PSoC5/UART.c **** * Return:
 168:.\Generated_Source\PSoC5/UART.c **** *  None.
 169:.\Generated_Source\PSoC5/UART.c **** *
 170:.\Generated_Source\PSoC5/UART.c **** * Global Variables:
 171:.\Generated_Source\PSoC5/UART.c **** *  UART_rxAddressDetected - set to initial state (0).
 172:.\Generated_Source\PSoC5/UART.c **** *
 173:.\Generated_Source\PSoC5/UART.c **** *******************************************************************************/
 174:.\Generated_Source\PSoC5/UART.c **** void UART_Enable(void) 
 175:.\Generated_Source\PSoC5/UART.c **** {
 179              		.loc 1 175 0
 180              		.cfi_startproc
 181              		@ args = 0, pretend = 0, frame = 8
 182              		@ frame_needed = 1, uses_anonymous_args = 0
 183 0000 80B5     		push	{r7, lr}
 184              	.LCFI4:
 185              		.cfi_def_cfa_offset 8
 186 0002 82B0     		sub	sp, sp, #8
 187              	.LCFI5:
 188              		.cfi_def_cfa_offset 16
 189 0004 00AF     		add	r7, sp, #0
 190              		.cfi_offset 14, -4
 191              		.cfi_offset 7, -8
 192              	.LCFI6:
 193              		.cfi_def_cfa_register 7
 176:.\Generated_Source\PSoC5/UART.c ****     uint8 enableInterrupts;
 177:.\Generated_Source\PSoC5/UART.c ****     enableInterrupts = CyEnterCriticalSection();
 194              		.loc 1 177 0
 195 0006 FFF7FEFF 		bl	CyEnterCriticalSection
 196 000a 0346     		mov	r3, r0
 197 000c FB71     		strb	r3, [r7, #7]
 178:.\Generated_Source\PSoC5/UART.c **** 
 179:.\Generated_Source\PSoC5/UART.c ****     #if(UART_RX_ENABLED || UART_HD_ENABLED)
 180:.\Generated_Source\PSoC5/UART.c ****         /*RX Counter (Count7) Enable */
 181:.\Generated_Source\PSoC5/UART.c ****         UART_RXBITCTR_CONTROL_REG |= UART_CNTR_ENABLE;
 198              		.loc 1 181 0
 199 000e 46F29143 		movw	r3, #:lower16:1073767569
 200 0012 C4F20003 		movt	r3, #:upper16:1073767569
 201 0016 46F29142 		movw	r2, #:lower16:1073767569
 202 001a C4F20002 		movt	r2, #:upper16:1073767569
 203 001e 1278     		ldrb	r2, [r2, #0]
 204 0020 D2B2     		uxtb	r2, r2
 205 0022 42F02002 		orr	r2, r2, #32
 206 0026 D2B2     		uxtb	r2, r2
 207 0028 1A70     		strb	r2, [r3, #0]
 182:.\Generated_Source\PSoC5/UART.c ****         /* Enable the RX Interrupt. */
 183:.\Generated_Source\PSoC5/UART.c ****         UART_RXSTATUS_ACTL_REG  |= UART_INT_ENABLE;
 208              		.loc 1 183 0
 209 002a 46F29343 		movw	r3, #:lower16:1073767571
 210 002e C4F20003 		movt	r3, #:upper16:1073767571
 211 0032 46F29342 		movw	r2, #:lower16:1073767571
 212 0036 C4F20002 		movt	r2, #:upper16:1073767571
ARM GAS  C:\Users\dmtucker\AppData\Local\Temp\ccE6jVLi.s 			page 8


 213 003a 1278     		ldrb	r2, [r2, #0]
 214 003c D2B2     		uxtb	r2, r2
 215 003e 42F01002 		orr	r2, r2, #16
 216 0042 D2B2     		uxtb	r2, r2
 217 0044 1A70     		strb	r2, [r3, #0]
 184:.\Generated_Source\PSoC5/UART.c ****         #if(UART_RX_INTERRUPT_ENABLED && (UART_RXBUFFERSIZE > UART_FIFO_LENGTH))
 185:.\Generated_Source\PSoC5/UART.c ****             CyIntEnable(UART_RX_VECT_NUM);
 218              		.loc 1 185 0
 219 0046 4EF20013 		movw	r3, #:lower16:-536813312
 220 004a CEF20003 		movt	r3, #:upper16:-536813312
 221 004e 4FF00102 		mov	r2, #1
 222 0052 1A60     		str	r2, [r3, #0]
 186:.\Generated_Source\PSoC5/UART.c ****             #if (UART_RXHW_ADDRESS_ENABLED)
 187:.\Generated_Source\PSoC5/UART.c ****                 UART_rxAddressDetected = 0u;
 188:.\Generated_Source\PSoC5/UART.c ****             #endif /* End UART_RXHW_ADDRESS_ENABLED */
 189:.\Generated_Source\PSoC5/UART.c ****         #endif /* End UART_RX_INTERRUPT_ENABLED */
 190:.\Generated_Source\PSoC5/UART.c ****     #endif /* End UART_RX_ENABLED || UART_HD_ENABLED*/
 191:.\Generated_Source\PSoC5/UART.c **** 
 192:.\Generated_Source\PSoC5/UART.c ****     #if(UART_TX_ENABLED)
 193:.\Generated_Source\PSoC5/UART.c ****         /*TX Counter (DP/Count7) Enable */
 194:.\Generated_Source\PSoC5/UART.c ****         #if(!UART_TXCLKGEN_DP)
 195:.\Generated_Source\PSoC5/UART.c ****             UART_TXBITCTR_CONTROL_REG |= UART_CNTR_ENABLE;
 196:.\Generated_Source\PSoC5/UART.c ****         #endif /* End UART_TXCLKGEN_DP */
 197:.\Generated_Source\PSoC5/UART.c ****         /* Enable the TX Interrupt. */
 198:.\Generated_Source\PSoC5/UART.c ****         UART_TXSTATUS_ACTL_REG |= UART_INT_ENABLE;
 223              		.loc 1 198 0
 224 0054 46F29443 		movw	r3, #:lower16:1073767572
 225 0058 C4F20003 		movt	r3, #:upper16:1073767572
 226 005c 46F29442 		movw	r2, #:lower16:1073767572
 227 0060 C4F20002 		movt	r2, #:upper16:1073767572
 228 0064 1278     		ldrb	r2, [r2, #0]
 229 0066 D2B2     		uxtb	r2, r2
 230 0068 42F01002 		orr	r2, r2, #16
 231 006c D2B2     		uxtb	r2, r2
 232 006e 1A70     		strb	r2, [r3, #0]
 199:.\Generated_Source\PSoC5/UART.c ****         #if(UART_TX_INTERRUPT_ENABLED && (UART_TXBUFFERSIZE > UART_FIFO_LENGTH))
 200:.\Generated_Source\PSoC5/UART.c ****             CyIntEnable(UART_TX_VECT_NUM);
 233              		.loc 1 200 0
 234 0070 4EF20013 		movw	r3, #:lower16:-536813312
 235 0074 CEF20003 		movt	r3, #:upper16:-536813312
 236 0078 4FF00202 		mov	r2, #2
 237 007c 1A60     		str	r2, [r3, #0]
 201:.\Generated_Source\PSoC5/UART.c ****         #endif /* End UART_TX_INTERRUPT_ENABLED*/
 202:.\Generated_Source\PSoC5/UART.c ****      #endif /* End UART_TX_ENABLED */
 203:.\Generated_Source\PSoC5/UART.c **** 
 204:.\Generated_Source\PSoC5/UART.c ****     #if(UART_INTERNAL_CLOCK_USED)
 205:.\Generated_Source\PSoC5/UART.c ****         /* Enable the clock. */
 206:.\Generated_Source\PSoC5/UART.c ****         UART_IntClock_Start();
 238              		.loc 1 206 0
 239 007e FFF7FEFF 		bl	UART_IntClock_Start
 207:.\Generated_Source\PSoC5/UART.c ****     #endif /* End UART_INTERNAL_CLOCK_USED */
 208:.\Generated_Source\PSoC5/UART.c **** 
 209:.\Generated_Source\PSoC5/UART.c ****     CyExitCriticalSection(enableInterrupts);
 240              		.loc 1 209 0
 241 0082 FB79     		ldrb	r3, [r7, #7]	@ zero_extendqisi2
 242 0084 1846     		mov	r0, r3
 243 0086 FFF7FEFF 		bl	CyExitCriticalSection
ARM GAS  C:\Users\dmtucker\AppData\Local\Temp\ccE6jVLi.s 			page 9


 210:.\Generated_Source\PSoC5/UART.c **** }
 244              		.loc 1 210 0
 245 008a 07F10807 		add	r7, r7, #8
 246 008e BD46     		mov	sp, r7
 247 0090 80BD     		pop	{r7, pc}
 248              		.cfi_endproc
 249              	.LFE2:
 250              		.size	UART_Enable, .-UART_Enable
 251 0092 00BF     		.section	.text.UART_Stop,"ax",%progbits
 252              		.align	2
 253              		.global	UART_Stop
 254              		.thumb
 255              		.thumb_func
 256              		.type	UART_Stop, %function
 257              	UART_Stop:
 258              	.LFB3:
 211:.\Generated_Source\PSoC5/UART.c **** 
 212:.\Generated_Source\PSoC5/UART.c **** 
 213:.\Generated_Source\PSoC5/UART.c **** /*******************************************************************************
 214:.\Generated_Source\PSoC5/UART.c **** * Function Name: UART_Stop
 215:.\Generated_Source\PSoC5/UART.c **** ********************************************************************************
 216:.\Generated_Source\PSoC5/UART.c **** *
 217:.\Generated_Source\PSoC5/UART.c **** * Summary:
 218:.\Generated_Source\PSoC5/UART.c **** *  Disable the UART component
 219:.\Generated_Source\PSoC5/UART.c **** *
 220:.\Generated_Source\PSoC5/UART.c **** * Parameters:
 221:.\Generated_Source\PSoC5/UART.c **** *  None.
 222:.\Generated_Source\PSoC5/UART.c **** *
 223:.\Generated_Source\PSoC5/UART.c **** * Return:
 224:.\Generated_Source\PSoC5/UART.c **** *  None.
 225:.\Generated_Source\PSoC5/UART.c **** *
 226:.\Generated_Source\PSoC5/UART.c **** *******************************************************************************/
 227:.\Generated_Source\PSoC5/UART.c **** void UART_Stop(void) 
 228:.\Generated_Source\PSoC5/UART.c **** {
 259              		.loc 1 228 0
 260              		.cfi_startproc
 261              		@ args = 0, pretend = 0, frame = 8
 262              		@ frame_needed = 1, uses_anonymous_args = 0
 263 0000 80B5     		push	{r7, lr}
 264              	.LCFI7:
 265              		.cfi_def_cfa_offset 8
 266 0002 82B0     		sub	sp, sp, #8
 267              	.LCFI8:
 268              		.cfi_def_cfa_offset 16
 269 0004 00AF     		add	r7, sp, #0
 270              		.cfi_offset 14, -4
 271              		.cfi_offset 7, -8
 272              	.LCFI9:
 273              		.cfi_def_cfa_register 7
 229:.\Generated_Source\PSoC5/UART.c ****     uint8 enableInterrupts;
 230:.\Generated_Source\PSoC5/UART.c ****     enableInterrupts = CyEnterCriticalSection();
 274              		.loc 1 230 0
 275 0006 FFF7FEFF 		bl	CyEnterCriticalSection
 276 000a 0346     		mov	r3, r0
 277 000c FB71     		strb	r3, [r7, #7]
 231:.\Generated_Source\PSoC5/UART.c **** 
 232:.\Generated_Source\PSoC5/UART.c ****     /* Write Bit Counter Disable */
ARM GAS  C:\Users\dmtucker\AppData\Local\Temp\ccE6jVLi.s 			page 10


 233:.\Generated_Source\PSoC5/UART.c ****     #if(UART_RX_ENABLED || UART_HD_ENABLED)
 234:.\Generated_Source\PSoC5/UART.c ****         UART_RXBITCTR_CONTROL_REG &= (uint8)~UART_CNTR_ENABLE;
 278              		.loc 1 234 0
 279 000e 46F29143 		movw	r3, #:lower16:1073767569
 280 0012 C4F20003 		movt	r3, #:upper16:1073767569
 281 0016 46F29142 		movw	r2, #:lower16:1073767569
 282 001a C4F20002 		movt	r2, #:upper16:1073767569
 283 001e 1278     		ldrb	r2, [r2, #0]
 284 0020 D2B2     		uxtb	r2, r2
 285 0022 02F0DF02 		and	r2, r2, #223
 286 0026 1A70     		strb	r2, [r3, #0]
 235:.\Generated_Source\PSoC5/UART.c ****     #endif /* End UART_RX_ENABLED */
 236:.\Generated_Source\PSoC5/UART.c **** 
 237:.\Generated_Source\PSoC5/UART.c ****     #if(UART_TX_ENABLED)
 238:.\Generated_Source\PSoC5/UART.c ****         #if(!UART_TXCLKGEN_DP)
 239:.\Generated_Source\PSoC5/UART.c ****             UART_TXBITCTR_CONTROL_REG &= (uint8)~UART_CNTR_ENABLE;
 240:.\Generated_Source\PSoC5/UART.c ****         #endif /* End UART_TXCLKGEN_DP */
 241:.\Generated_Source\PSoC5/UART.c ****     #endif /* UART_TX_ENABLED */
 242:.\Generated_Source\PSoC5/UART.c **** 
 243:.\Generated_Source\PSoC5/UART.c ****     #if(UART_INTERNAL_CLOCK_USED)
 244:.\Generated_Source\PSoC5/UART.c ****         /* Disable the clock. */
 245:.\Generated_Source\PSoC5/UART.c ****         UART_IntClock_Stop();
 287              		.loc 1 245 0
 288 0028 FFF7FEFF 		bl	UART_IntClock_Stop
 246:.\Generated_Source\PSoC5/UART.c ****     #endif /* End UART_INTERNAL_CLOCK_USED */
 247:.\Generated_Source\PSoC5/UART.c **** 
 248:.\Generated_Source\PSoC5/UART.c ****     /* Disable internal interrupt component */
 249:.\Generated_Source\PSoC5/UART.c ****     #if(UART_RX_ENABLED || UART_HD_ENABLED)
 250:.\Generated_Source\PSoC5/UART.c ****         UART_RXSTATUS_ACTL_REG  &= (uint8)~UART_INT_ENABLE;
 289              		.loc 1 250 0
 290 002c 46F29343 		movw	r3, #:lower16:1073767571
 291 0030 C4F20003 		movt	r3, #:upper16:1073767571
 292 0034 46F29342 		movw	r2, #:lower16:1073767571
 293 0038 C4F20002 		movt	r2, #:upper16:1073767571
 294 003c 1278     		ldrb	r2, [r2, #0]
 295 003e D2B2     		uxtb	r2, r2
 296 0040 02F0EF02 		and	r2, r2, #239
 297 0044 1A70     		strb	r2, [r3, #0]
 251:.\Generated_Source\PSoC5/UART.c ****         #if(UART_RX_INTERRUPT_ENABLED && (UART_RXBUFFERSIZE > UART_FIFO_LENGTH))
 252:.\Generated_Source\PSoC5/UART.c ****             UART_DisableRxInt();
 298              		.loc 1 252 0
 299 0046 FFF7FEFF 		bl	UART_DisableRxInt
 253:.\Generated_Source\PSoC5/UART.c ****         #endif /* End UART_RX_INTERRUPT_ENABLED */
 254:.\Generated_Source\PSoC5/UART.c ****     #endif /* End UART_RX_ENABLED */
 255:.\Generated_Source\PSoC5/UART.c **** 
 256:.\Generated_Source\PSoC5/UART.c ****     #if(UART_TX_ENABLED)
 257:.\Generated_Source\PSoC5/UART.c ****         UART_TXSTATUS_ACTL_REG &= (uint8)~UART_INT_ENABLE;
 300              		.loc 1 257 0
 301 004a 46F29443 		movw	r3, #:lower16:1073767572
 302 004e C4F20003 		movt	r3, #:upper16:1073767572
 303 0052 46F29442 		movw	r2, #:lower16:1073767572
 304 0056 C4F20002 		movt	r2, #:upper16:1073767572
 305 005a 1278     		ldrb	r2, [r2, #0]
 306 005c D2B2     		uxtb	r2, r2
 307 005e 02F0EF02 		and	r2, r2, #239
 308 0062 1A70     		strb	r2, [r3, #0]
 258:.\Generated_Source\PSoC5/UART.c ****         #if(UART_TX_INTERRUPT_ENABLED && (UART_TXBUFFERSIZE > UART_FIFO_LENGTH))
ARM GAS  C:\Users\dmtucker\AppData\Local\Temp\ccE6jVLi.s 			page 11


 259:.\Generated_Source\PSoC5/UART.c ****             UART_DisableTxInt();
 309              		.loc 1 259 0
 310 0064 FFF7FEFF 		bl	UART_DisableTxInt
 260:.\Generated_Source\PSoC5/UART.c ****         #endif /* End UART_TX_INTERRUPT_ENABLED */
 261:.\Generated_Source\PSoC5/UART.c ****     #endif /* End UART_TX_ENABLED */
 262:.\Generated_Source\PSoC5/UART.c **** 
 263:.\Generated_Source\PSoC5/UART.c ****     CyExitCriticalSection(enableInterrupts);
 311              		.loc 1 263 0
 312 0068 FB79     		ldrb	r3, [r7, #7]	@ zero_extendqisi2
 313 006a 1846     		mov	r0, r3
 314 006c FFF7FEFF 		bl	CyExitCriticalSection
 264:.\Generated_Source\PSoC5/UART.c **** }
 315              		.loc 1 264 0
 316 0070 07F10807 		add	r7, r7, #8
 317 0074 BD46     		mov	sp, r7
 318 0076 80BD     		pop	{r7, pc}
 319              		.cfi_endproc
 320              	.LFE3:
 321              		.size	UART_Stop, .-UART_Stop
 322              		.section	.text.UART_ReadControlRegister,"ax",%progbits
 323              		.align	2
 324              		.global	UART_ReadControlRegister
 325              		.thumb
 326              		.thumb_func
 327              		.type	UART_ReadControlRegister, %function
 328              	UART_ReadControlRegister:
 329              	.LFB4:
 265:.\Generated_Source\PSoC5/UART.c **** 
 266:.\Generated_Source\PSoC5/UART.c **** 
 267:.\Generated_Source\PSoC5/UART.c **** /*******************************************************************************
 268:.\Generated_Source\PSoC5/UART.c **** * Function Name: UART_ReadControlRegister
 269:.\Generated_Source\PSoC5/UART.c **** ********************************************************************************
 270:.\Generated_Source\PSoC5/UART.c **** *
 271:.\Generated_Source\PSoC5/UART.c **** * Summary:
 272:.\Generated_Source\PSoC5/UART.c **** *  Read the current state of the control register
 273:.\Generated_Source\PSoC5/UART.c **** *
 274:.\Generated_Source\PSoC5/UART.c **** * Parameters:
 275:.\Generated_Source\PSoC5/UART.c **** *  None.
 276:.\Generated_Source\PSoC5/UART.c **** *
 277:.\Generated_Source\PSoC5/UART.c **** * Return:
 278:.\Generated_Source\PSoC5/UART.c **** *  Current state of the control register.
 279:.\Generated_Source\PSoC5/UART.c **** *
 280:.\Generated_Source\PSoC5/UART.c **** *******************************************************************************/
 281:.\Generated_Source\PSoC5/UART.c **** uint8 UART_ReadControlRegister(void) 
 282:.\Generated_Source\PSoC5/UART.c **** {
 330              		.loc 1 282 0
 331              		.cfi_startproc
 332              		@ args = 0, pretend = 0, frame = 0
 333              		@ frame_needed = 1, uses_anonymous_args = 0
 334              		@ link register save eliminated.
 335 0000 80B4     		push	{r7}
 336              	.LCFI10:
 337              		.cfi_def_cfa_offset 4
 338 0002 00AF     		add	r7, sp, #0
 339              		.cfi_offset 7, -4
 340              	.LCFI11:
 341              		.cfi_def_cfa_register 7
ARM GAS  C:\Users\dmtucker\AppData\Local\Temp\ccE6jVLi.s 			page 12


 283:.\Generated_Source\PSoC5/UART.c ****     #if( UART_CONTROL_REG_REMOVED )
 284:.\Generated_Source\PSoC5/UART.c ****         return(0u);
 342              		.loc 1 284 0
 343 0004 4FF00003 		mov	r3, #0
 285:.\Generated_Source\PSoC5/UART.c ****     #else
 286:.\Generated_Source\PSoC5/UART.c ****         return(UART_CONTROL_REG);
 287:.\Generated_Source\PSoC5/UART.c ****     #endif /* End UART_CONTROL_REG_REMOVED */
 288:.\Generated_Source\PSoC5/UART.c **** }
 344              		.loc 1 288 0
 345 0008 1846     		mov	r0, r3
 346 000a BD46     		mov	sp, r7
 347 000c 80BC     		pop	{r7}
 348 000e 7047     		bx	lr
 349              		.cfi_endproc
 350              	.LFE4:
 351              		.size	UART_ReadControlRegister, .-UART_ReadControlRegister
 352              		.section	.text.UART_WriteControlRegister,"ax",%progbits
 353              		.align	2
 354              		.global	UART_WriteControlRegister
 355              		.thumb
 356              		.thumb_func
 357              		.type	UART_WriteControlRegister, %function
 358              	UART_WriteControlRegister:
 359              	.LFB5:
 289:.\Generated_Source\PSoC5/UART.c **** 
 290:.\Generated_Source\PSoC5/UART.c **** 
 291:.\Generated_Source\PSoC5/UART.c **** /*******************************************************************************
 292:.\Generated_Source\PSoC5/UART.c **** * Function Name: UART_WriteControlRegister
 293:.\Generated_Source\PSoC5/UART.c **** ********************************************************************************
 294:.\Generated_Source\PSoC5/UART.c **** *
 295:.\Generated_Source\PSoC5/UART.c **** * Summary:
 296:.\Generated_Source\PSoC5/UART.c **** *  Writes an 8-bit value into the control register
 297:.\Generated_Source\PSoC5/UART.c **** *
 298:.\Generated_Source\PSoC5/UART.c **** * Parameters:
 299:.\Generated_Source\PSoC5/UART.c **** *  control:  control register value
 300:.\Generated_Source\PSoC5/UART.c **** *
 301:.\Generated_Source\PSoC5/UART.c **** * Return:
 302:.\Generated_Source\PSoC5/UART.c **** *  None.
 303:.\Generated_Source\PSoC5/UART.c **** *
 304:.\Generated_Source\PSoC5/UART.c **** *******************************************************************************/
 305:.\Generated_Source\PSoC5/UART.c **** void  UART_WriteControlRegister(uint8 control) 
 306:.\Generated_Source\PSoC5/UART.c **** {
 360              		.loc 1 306 0
 361              		.cfi_startproc
 362              		@ args = 0, pretend = 0, frame = 8
 363              		@ frame_needed = 1, uses_anonymous_args = 0
 364              		@ link register save eliminated.
 365 0000 80B4     		push	{r7}
 366              	.LCFI12:
 367              		.cfi_def_cfa_offset 4
 368 0002 83B0     		sub	sp, sp, #12
 369              	.LCFI13:
 370              		.cfi_def_cfa_offset 16
 371 0004 00AF     		add	r7, sp, #0
 372              		.cfi_offset 7, -4
 373              	.LCFI14:
 374              		.cfi_def_cfa_register 7
ARM GAS  C:\Users\dmtucker\AppData\Local\Temp\ccE6jVLi.s 			page 13


 375 0006 0346     		mov	r3, r0
 376 0008 FB71     		strb	r3, [r7, #7]
 307:.\Generated_Source\PSoC5/UART.c ****     #if( UART_CONTROL_REG_REMOVED )
 308:.\Generated_Source\PSoC5/UART.c ****         if(control != 0u) { }      /* release compiler warning */
 309:.\Generated_Source\PSoC5/UART.c ****     #else
 310:.\Generated_Source\PSoC5/UART.c ****        UART_CONTROL_REG = control;
 311:.\Generated_Source\PSoC5/UART.c ****     #endif /* End UART_CONTROL_REG_REMOVED */
 312:.\Generated_Source\PSoC5/UART.c **** }
 377              		.loc 1 312 0
 378 000a 07F10C07 		add	r7, r7, #12
 379 000e BD46     		mov	sp, r7
 380 0010 80BC     		pop	{r7}
 381 0012 7047     		bx	lr
 382              		.cfi_endproc
 383              	.LFE5:
 384              		.size	UART_WriteControlRegister, .-UART_WriteControlRegister
 385              		.section	.text.UART_EnableRxInt,"ax",%progbits
 386              		.align	2
 387              		.global	UART_EnableRxInt
 388              		.thumb
 389              		.thumb_func
 390              		.type	UART_EnableRxInt, %function
 391              	UART_EnableRxInt:
 392              	.LFB6:
 313:.\Generated_Source\PSoC5/UART.c **** 
 314:.\Generated_Source\PSoC5/UART.c **** 
 315:.\Generated_Source\PSoC5/UART.c **** #if(UART_RX_ENABLED || UART_HD_ENABLED)
 316:.\Generated_Source\PSoC5/UART.c **** 
 317:.\Generated_Source\PSoC5/UART.c ****     #if(UART_RX_INTERRUPT_ENABLED)
 318:.\Generated_Source\PSoC5/UART.c **** 
 319:.\Generated_Source\PSoC5/UART.c ****         /*******************************************************************************
 320:.\Generated_Source\PSoC5/UART.c ****         * Function Name: UART_EnableRxInt
 321:.\Generated_Source\PSoC5/UART.c ****         ********************************************************************************
 322:.\Generated_Source\PSoC5/UART.c ****         *
 323:.\Generated_Source\PSoC5/UART.c ****         * Summary:
 324:.\Generated_Source\PSoC5/UART.c ****         *  Enable RX interrupt generation
 325:.\Generated_Source\PSoC5/UART.c ****         *
 326:.\Generated_Source\PSoC5/UART.c ****         * Parameters:
 327:.\Generated_Source\PSoC5/UART.c ****         *  None.
 328:.\Generated_Source\PSoC5/UART.c ****         *
 329:.\Generated_Source\PSoC5/UART.c ****         * Return:
 330:.\Generated_Source\PSoC5/UART.c ****         *  None.
 331:.\Generated_Source\PSoC5/UART.c ****         *
 332:.\Generated_Source\PSoC5/UART.c ****         * Theory:
 333:.\Generated_Source\PSoC5/UART.c ****         *  Enable the interrupt output -or- the interrupt component itself
 334:.\Generated_Source\PSoC5/UART.c ****         *
 335:.\Generated_Source\PSoC5/UART.c ****         *******************************************************************************/
 336:.\Generated_Source\PSoC5/UART.c ****         void UART_EnableRxInt(void) 
 337:.\Generated_Source\PSoC5/UART.c ****         {
 393              		.loc 1 337 0
 394              		.cfi_startproc
 395              		@ args = 0, pretend = 0, frame = 0
 396              		@ frame_needed = 1, uses_anonymous_args = 0
 397              		@ link register save eliminated.
 398 0000 80B4     		push	{r7}
 399              	.LCFI15:
 400              		.cfi_def_cfa_offset 4
ARM GAS  C:\Users\dmtucker\AppData\Local\Temp\ccE6jVLi.s 			page 14


 401 0002 00AF     		add	r7, sp, #0
 402              		.cfi_offset 7, -4
 403              	.LCFI16:
 404              		.cfi_def_cfa_register 7
 338:.\Generated_Source\PSoC5/UART.c ****             CyIntEnable(UART_RX_VECT_NUM);
 405              		.loc 1 338 0
 406 0004 4EF20013 		movw	r3, #:lower16:-536813312
 407 0008 CEF20003 		movt	r3, #:upper16:-536813312
 408 000c 4FF00102 		mov	r2, #1
 409 0010 1A60     		str	r2, [r3, #0]
 339:.\Generated_Source\PSoC5/UART.c ****         }
 410              		.loc 1 339 0
 411 0012 BD46     		mov	sp, r7
 412 0014 80BC     		pop	{r7}
 413 0016 7047     		bx	lr
 414              		.cfi_endproc
 415              	.LFE6:
 416              		.size	UART_EnableRxInt, .-UART_EnableRxInt
 417              		.section	.text.UART_DisableRxInt,"ax",%progbits
 418              		.align	2
 419              		.global	UART_DisableRxInt
 420              		.thumb
 421              		.thumb_func
 422              		.type	UART_DisableRxInt, %function
 423              	UART_DisableRxInt:
 424              	.LFB7:
 340:.\Generated_Source\PSoC5/UART.c **** 
 341:.\Generated_Source\PSoC5/UART.c **** 
 342:.\Generated_Source\PSoC5/UART.c ****         /*******************************************************************************
 343:.\Generated_Source\PSoC5/UART.c ****         * Function Name: UART_DisableRxInt
 344:.\Generated_Source\PSoC5/UART.c ****         ********************************************************************************
 345:.\Generated_Source\PSoC5/UART.c ****         *
 346:.\Generated_Source\PSoC5/UART.c ****         * Summary:
 347:.\Generated_Source\PSoC5/UART.c ****         *  Disable RX interrupt generation
 348:.\Generated_Source\PSoC5/UART.c ****         *
 349:.\Generated_Source\PSoC5/UART.c ****         * Parameters:
 350:.\Generated_Source\PSoC5/UART.c ****         *  None.
 351:.\Generated_Source\PSoC5/UART.c ****         *
 352:.\Generated_Source\PSoC5/UART.c ****         * Return:
 353:.\Generated_Source\PSoC5/UART.c ****         *  None.
 354:.\Generated_Source\PSoC5/UART.c ****         *
 355:.\Generated_Source\PSoC5/UART.c ****         * Theory:
 356:.\Generated_Source\PSoC5/UART.c ****         *  Disable the interrupt output -or- the interrupt component itself
 357:.\Generated_Source\PSoC5/UART.c ****         *
 358:.\Generated_Source\PSoC5/UART.c ****         *******************************************************************************/
 359:.\Generated_Source\PSoC5/UART.c ****         void UART_DisableRxInt(void) 
 360:.\Generated_Source\PSoC5/UART.c ****         {
 425              		.loc 1 360 0
 426              		.cfi_startproc
 427              		@ args = 0, pretend = 0, frame = 0
 428              		@ frame_needed = 1, uses_anonymous_args = 0
 429              		@ link register save eliminated.
 430 0000 80B4     		push	{r7}
 431              	.LCFI17:
 432              		.cfi_def_cfa_offset 4
 433 0002 00AF     		add	r7, sp, #0
 434              		.cfi_offset 7, -4
ARM GAS  C:\Users\dmtucker\AppData\Local\Temp\ccE6jVLi.s 			page 15


 435              	.LCFI18:
 436              		.cfi_def_cfa_register 7
 361:.\Generated_Source\PSoC5/UART.c ****             CyIntDisable(UART_RX_VECT_NUM);
 437              		.loc 1 361 0
 438 0004 4EF28013 		movw	r3, #:lower16:-536813184
 439 0008 CEF20003 		movt	r3, #:upper16:-536813184
 440 000c 4FF00102 		mov	r2, #1
 441 0010 1A60     		str	r2, [r3, #0]
 362:.\Generated_Source\PSoC5/UART.c ****         }
 442              		.loc 1 362 0
 443 0012 BD46     		mov	sp, r7
 444 0014 80BC     		pop	{r7}
 445 0016 7047     		bx	lr
 446              		.cfi_endproc
 447              	.LFE7:
 448              		.size	UART_DisableRxInt, .-UART_DisableRxInt
 449              		.section	.text.UART_SetRxInterruptMode,"ax",%progbits
 450              		.align	2
 451              		.global	UART_SetRxInterruptMode
 452              		.thumb
 453              		.thumb_func
 454              		.type	UART_SetRxInterruptMode, %function
 455              	UART_SetRxInterruptMode:
 456              	.LFB8:
 363:.\Generated_Source\PSoC5/UART.c **** 
 364:.\Generated_Source\PSoC5/UART.c ****     #endif /* UART_RX_INTERRUPT_ENABLED */
 365:.\Generated_Source\PSoC5/UART.c **** 
 366:.\Generated_Source\PSoC5/UART.c **** 
 367:.\Generated_Source\PSoC5/UART.c ****     /*******************************************************************************
 368:.\Generated_Source\PSoC5/UART.c ****     * Function Name: UART_SetRxInterruptMode
 369:.\Generated_Source\PSoC5/UART.c ****     ********************************************************************************
 370:.\Generated_Source\PSoC5/UART.c ****     *
 371:.\Generated_Source\PSoC5/UART.c ****     * Summary:
 372:.\Generated_Source\PSoC5/UART.c ****     *  Configure which status bits trigger an interrupt event
 373:.\Generated_Source\PSoC5/UART.c ****     *
 374:.\Generated_Source\PSoC5/UART.c ****     * Parameters:
 375:.\Generated_Source\PSoC5/UART.c ****     *  IntSrc:  An or'd combination of the desired status bit masks (defined in
 376:.\Generated_Source\PSoC5/UART.c ****     *           the header file)
 377:.\Generated_Source\PSoC5/UART.c ****     *
 378:.\Generated_Source\PSoC5/UART.c ****     * Return:
 379:.\Generated_Source\PSoC5/UART.c ****     *  None.
 380:.\Generated_Source\PSoC5/UART.c ****     *
 381:.\Generated_Source\PSoC5/UART.c ****     * Theory:
 382:.\Generated_Source\PSoC5/UART.c ****     *  Enables the output of specific status bits to the interrupt controller
 383:.\Generated_Source\PSoC5/UART.c ****     *
 384:.\Generated_Source\PSoC5/UART.c ****     *******************************************************************************/
 385:.\Generated_Source\PSoC5/UART.c ****     void UART_SetRxInterruptMode(uint8 intSrc) 
 386:.\Generated_Source\PSoC5/UART.c ****     {
 457              		.loc 1 386 0
 458              		.cfi_startproc
 459              		@ args = 0, pretend = 0, frame = 8
 460              		@ frame_needed = 1, uses_anonymous_args = 0
 461              		@ link register save eliminated.
 462 0000 80B4     		push	{r7}
 463              	.LCFI19:
 464              		.cfi_def_cfa_offset 4
 465 0002 83B0     		sub	sp, sp, #12
ARM GAS  C:\Users\dmtucker\AppData\Local\Temp\ccE6jVLi.s 			page 16


 466              	.LCFI20:
 467              		.cfi_def_cfa_offset 16
 468 0004 00AF     		add	r7, sp, #0
 469              		.cfi_offset 7, -4
 470              	.LCFI21:
 471              		.cfi_def_cfa_register 7
 472 0006 0346     		mov	r3, r0
 473 0008 FB71     		strb	r3, [r7, #7]
 387:.\Generated_Source\PSoC5/UART.c ****         UART_RXSTATUS_MASK_REG  = intSrc;
 474              		.loc 1 387 0
 475 000a 46F28343 		movw	r3, #:lower16:1073767555
 476 000e C4F20003 		movt	r3, #:upper16:1073767555
 477 0012 FA79     		ldrb	r2, [r7, #7]
 478 0014 1A70     		strb	r2, [r3, #0]
 388:.\Generated_Source\PSoC5/UART.c ****     }
 479              		.loc 1 388 0
 480 0016 07F10C07 		add	r7, r7, #12
 481 001a BD46     		mov	sp, r7
 482 001c 80BC     		pop	{r7}
 483 001e 7047     		bx	lr
 484              		.cfi_endproc
 485              	.LFE8:
 486              		.size	UART_SetRxInterruptMode, .-UART_SetRxInterruptMode
 487              		.section	.text.UART_ReadRxData,"ax",%progbits
 488              		.align	2
 489              		.global	UART_ReadRxData
 490              		.thumb
 491              		.thumb_func
 492              		.type	UART_ReadRxData, %function
 493              	UART_ReadRxData:
 494              	.LFB9:
 389:.\Generated_Source\PSoC5/UART.c **** 
 390:.\Generated_Source\PSoC5/UART.c **** 
 391:.\Generated_Source\PSoC5/UART.c ****     /*******************************************************************************
 392:.\Generated_Source\PSoC5/UART.c ****     * Function Name: UART_ReadRxData
 393:.\Generated_Source\PSoC5/UART.c ****     ********************************************************************************
 394:.\Generated_Source\PSoC5/UART.c ****     *
 395:.\Generated_Source\PSoC5/UART.c ****     * Summary:
 396:.\Generated_Source\PSoC5/UART.c ****     *  Returns data in RX Data register without checking status register to
 397:.\Generated_Source\PSoC5/UART.c ****     *  determine if data is valid
 398:.\Generated_Source\PSoC5/UART.c ****     *
 399:.\Generated_Source\PSoC5/UART.c ****     * Parameters:
 400:.\Generated_Source\PSoC5/UART.c ****     *  None.
 401:.\Generated_Source\PSoC5/UART.c ****     *
 402:.\Generated_Source\PSoC5/UART.c ****     * Return:
 403:.\Generated_Source\PSoC5/UART.c ****     *  Received data from RX register
 404:.\Generated_Source\PSoC5/UART.c ****     *
 405:.\Generated_Source\PSoC5/UART.c ****     * Global Variables:
 406:.\Generated_Source\PSoC5/UART.c ****     *  UART_rxBuffer - RAM buffer pointer for save received data.
 407:.\Generated_Source\PSoC5/UART.c ****     *  UART_rxBufferWrite - cyclic index for write to rxBuffer,
 408:.\Generated_Source\PSoC5/UART.c ****     *     checked to identify new data.
 409:.\Generated_Source\PSoC5/UART.c ****     *  UART_rxBufferRead - cyclic index for read from rxBuffer,
 410:.\Generated_Source\PSoC5/UART.c ****     *     incremented after each byte has been read from buffer.
 411:.\Generated_Source\PSoC5/UART.c ****     *  UART_rxBufferLoopDetect - creared if loop condition was detected
 412:.\Generated_Source\PSoC5/UART.c ****     *     in RX ISR.
 413:.\Generated_Source\PSoC5/UART.c ****     *
 414:.\Generated_Source\PSoC5/UART.c ****     * Reentrant:
ARM GAS  C:\Users\dmtucker\AppData\Local\Temp\ccE6jVLi.s 			page 17


 415:.\Generated_Source\PSoC5/UART.c ****     *  No.
 416:.\Generated_Source\PSoC5/UART.c ****     *
 417:.\Generated_Source\PSoC5/UART.c ****     *******************************************************************************/
 418:.\Generated_Source\PSoC5/UART.c ****     uint8 UART_ReadRxData(void) 
 419:.\Generated_Source\PSoC5/UART.c ****     {
 495              		.loc 1 419 0
 496              		.cfi_startproc
 497              		@ args = 0, pretend = 0, frame = 8
 498              		@ frame_needed = 1, uses_anonymous_args = 0
 499 0000 80B5     		push	{r7, lr}
 500              	.LCFI22:
 501              		.cfi_def_cfa_offset 8
 502 0002 82B0     		sub	sp, sp, #8
 503              	.LCFI23:
 504              		.cfi_def_cfa_offset 16
 505 0004 00AF     		add	r7, sp, #0
 506              		.cfi_offset 14, -4
 507              		.cfi_offset 7, -8
 508              	.LCFI24:
 509              		.cfi_def_cfa_register 7
 420:.\Generated_Source\PSoC5/UART.c ****         uint8 rxData;
 421:.\Generated_Source\PSoC5/UART.c **** 
 422:.\Generated_Source\PSoC5/UART.c ****         #if(UART_RXBUFFERSIZE > UART_FIFO_LENGTH)
 423:.\Generated_Source\PSoC5/UART.c ****             uint8 loc_rxBufferRead;
 424:.\Generated_Source\PSoC5/UART.c ****             uint8 loc_rxBufferWrite;
 425:.\Generated_Source\PSoC5/UART.c ****             /* Protect variables that could change on interrupt. */
 426:.\Generated_Source\PSoC5/UART.c ****             /* Disable Rx interrupt. */
 427:.\Generated_Source\PSoC5/UART.c ****             #if(UART_RX_INTERRUPT_ENABLED)
 428:.\Generated_Source\PSoC5/UART.c ****                 UART_DisableRxInt();
 510              		.loc 1 428 0
 511 0006 FFF7FEFF 		bl	UART_DisableRxInt
 429:.\Generated_Source\PSoC5/UART.c ****             #endif /* UART_RX_INTERRUPT_ENABLED */
 430:.\Generated_Source\PSoC5/UART.c ****             loc_rxBufferRead = UART_rxBufferRead;
 512              		.loc 1 430 0
 513 000a 40F20003 		movw	r3, #:lower16:UART_rxBufferRead
 514 000e C0F20003 		movt	r3, #:upper16:UART_rxBufferRead
 515 0012 1B78     		ldrb	r3, [r3, #0]
 516 0014 BB71     		strb	r3, [r7, #6]
 431:.\Generated_Source\PSoC5/UART.c ****             loc_rxBufferWrite = UART_rxBufferWrite;
 517              		.loc 1 431 0
 518 0016 40F20003 		movw	r3, #:lower16:UART_rxBufferWrite
 519 001a C0F20003 		movt	r3, #:upper16:UART_rxBufferWrite
 520 001e 1B78     		ldrb	r3, [r3, #0]
 521 0020 FB71     		strb	r3, [r7, #7]
 432:.\Generated_Source\PSoC5/UART.c **** 
 433:.\Generated_Source\PSoC5/UART.c ****             if( (UART_rxBufferLoopDetect != 0u) || (loc_rxBufferRead != loc_rxBufferWrite) )
 522              		.loc 1 433 0
 523 0022 40F20003 		movw	r3, #:lower16:UART_rxBufferLoopDetect
 524 0026 C0F20003 		movt	r3, #:upper16:UART_rxBufferLoopDetect
 525 002a 1B78     		ldrb	r3, [r3, #0]
 526 002c DBB2     		uxtb	r3, r3
 527 002e 002B     		cmp	r3, #0
 528 0030 03D1     		bne	.L21
 529 0032 BA79     		ldrb	r2, [r7, #6]	@ zero_extendqisi2
 530 0034 FB79     		ldrb	r3, [r7, #7]	@ zero_extendqisi2
 531 0036 9A42     		cmp	r2, r3
 532 0038 26D0     		beq	.L22
ARM GAS  C:\Users\dmtucker\AppData\Local\Temp\ccE6jVLi.s 			page 18


 533              	.L21:
 434:.\Generated_Source\PSoC5/UART.c ****             {
 435:.\Generated_Source\PSoC5/UART.c ****                 rxData = UART_rxBuffer[loc_rxBufferRead];
 534              		.loc 1 435 0
 535 003a BA79     		ldrb	r2, [r7, #6]	@ zero_extendqisi2
 536 003c 40F20003 		movw	r3, #:lower16:UART_rxBuffer
 537 0040 C0F20003 		movt	r3, #:upper16:UART_rxBuffer
 538 0044 9B5C     		ldrb	r3, [r3, r2]
 539 0046 7B71     		strb	r3, [r7, #5]
 436:.\Generated_Source\PSoC5/UART.c ****                 loc_rxBufferRead++;
 540              		.loc 1 436 0
 541 0048 BB79     		ldrb	r3, [r7, #6]
 542 004a 03F10103 		add	r3, r3, #1
 543 004e BB71     		strb	r3, [r7, #6]
 437:.\Generated_Source\PSoC5/UART.c **** 
 438:.\Generated_Source\PSoC5/UART.c ****                 if(loc_rxBufferRead >= UART_RXBUFFERSIZE)
 544              		.loc 1 438 0
 545 0050 BB79     		ldrb	r3, [r7, #6]	@ zero_extendqisi2
 546 0052 3F2B     		cmp	r3, #63
 547 0054 02D9     		bls	.L23
 439:.\Generated_Source\PSoC5/UART.c ****                 {
 440:.\Generated_Source\PSoC5/UART.c ****                     loc_rxBufferRead = 0u;
 548              		.loc 1 440 0
 549 0056 4FF00003 		mov	r3, #0
 550 005a BB71     		strb	r3, [r7, #6]
 551              	.L23:
 441:.\Generated_Source\PSoC5/UART.c ****                 }
 442:.\Generated_Source\PSoC5/UART.c ****                 /* Update the real pointer */
 443:.\Generated_Source\PSoC5/UART.c ****                 UART_rxBufferRead = loc_rxBufferRead;
 552              		.loc 1 443 0
 553 005c 40F20003 		movw	r3, #:lower16:UART_rxBufferRead
 554 0060 C0F20003 		movt	r3, #:upper16:UART_rxBufferRead
 555 0064 BA79     		ldrb	r2, [r7, #6]
 556 0066 1A70     		strb	r2, [r3, #0]
 444:.\Generated_Source\PSoC5/UART.c **** 
 445:.\Generated_Source\PSoC5/UART.c ****                 if(UART_rxBufferLoopDetect != 0u )
 557              		.loc 1 445 0
 558 0068 40F20003 		movw	r3, #:lower16:UART_rxBufferLoopDetect
 559 006c C0F20003 		movt	r3, #:upper16:UART_rxBufferLoopDetect
 560 0070 1B78     		ldrb	r3, [r3, #0]
 561 0072 DBB2     		uxtb	r3, r3
 562 0074 002B     		cmp	r3, #0
 563 0076 0ED0     		beq	.L27
 446:.\Generated_Source\PSoC5/UART.c ****                 {
 447:.\Generated_Source\PSoC5/UART.c ****                     UART_rxBufferLoopDetect = 0u;
 564              		.loc 1 447 0
 565 0078 40F20003 		movw	r3, #:lower16:UART_rxBufferLoopDetect
 566 007c C0F20003 		movt	r3, #:upper16:UART_rxBufferLoopDetect
 567 0080 4FF00002 		mov	r2, #0
 568 0084 1A70     		strb	r2, [r3, #0]
 569              		.loc 1 433 0
 570 0086 07E0     		b	.L25
 571              	.L22:
 448:.\Generated_Source\PSoC5/UART.c ****                     #if( (UART_RX_INTERRUPT_ENABLED) && (UART_FLOW_CONTROL != 0u) && \
 449:.\Generated_Source\PSoC5/UART.c ****                          (UART_RXBUFFERSIZE > UART_FIFO_LENGTH) )
 450:.\Generated_Source\PSoC5/UART.c ****                         /* When Hardware Flow Control selected - return RX mask */
 451:.\Generated_Source\PSoC5/UART.c ****                         #if( UART_HD_ENABLED )
ARM GAS  C:\Users\dmtucker\AppData\Local\Temp\ccE6jVLi.s 			page 19


 452:.\Generated_Source\PSoC5/UART.c ****                             if((UART_CONTROL_REG & UART_CTRL_HD_SEND) == 0u)
 453:.\Generated_Source\PSoC5/UART.c ****                             {   /* In Half duplex mode return RX mask only in RX
 454:.\Generated_Source\PSoC5/UART.c ****                                 *  configuration set, otherwise
 455:.\Generated_Source\PSoC5/UART.c ****                                 *  mask will be returned in LoadRxConfig() API.
 456:.\Generated_Source\PSoC5/UART.c ****                                 */
 457:.\Generated_Source\PSoC5/UART.c ****                                 UART_RXSTATUS_MASK_REG  |= UART_RX_STS_FIFO_NOTEMPTY;
 458:.\Generated_Source\PSoC5/UART.c ****                             }
 459:.\Generated_Source\PSoC5/UART.c ****                         #else
 460:.\Generated_Source\PSoC5/UART.c ****                             UART_RXSTATUS_MASK_REG  |= UART_RX_STS_FIFO_NOTEMPTY;
 461:.\Generated_Source\PSoC5/UART.c ****                         #endif /* end UART_HD_ENABLED */
 462:.\Generated_Source\PSoC5/UART.c ****                     #endif /* UART_RX_INTERRUPT_ENABLED and Hardware flow control*/
 463:.\Generated_Source\PSoC5/UART.c ****                 }
 464:.\Generated_Source\PSoC5/UART.c ****             }
 465:.\Generated_Source\PSoC5/UART.c ****             else
 466:.\Generated_Source\PSoC5/UART.c ****             {   /* Needs to check status for RX_STS_FIFO_NOTEMPTY bit*/
 467:.\Generated_Source\PSoC5/UART.c ****                 rxData = UART_RXDATA_REG;
 572              		.loc 1 467 0
 573 0088 46F24243 		movw	r3, #:lower16:1073767490
 574 008c C4F20003 		movt	r3, #:upper16:1073767490
 575 0090 1B78     		ldrb	r3, [r3, #0]
 576 0092 7B71     		strb	r3, [r7, #5]
 577 0094 00E0     		b	.L25
 578              	.L27:
 579              		.loc 1 433 0
 580 0096 00BF     		nop
 581              	.L25:
 468:.\Generated_Source\PSoC5/UART.c ****             }
 469:.\Generated_Source\PSoC5/UART.c **** 
 470:.\Generated_Source\PSoC5/UART.c ****             /* Enable Rx interrupt. */
 471:.\Generated_Source\PSoC5/UART.c ****             #if(UART_RX_INTERRUPT_ENABLED)
 472:.\Generated_Source\PSoC5/UART.c ****                 UART_EnableRxInt();
 582              		.loc 1 472 0
 583 0098 FFF7FEFF 		bl	UART_EnableRxInt
 473:.\Generated_Source\PSoC5/UART.c ****             #endif /* End UART_RX_INTERRUPT_ENABLED */
 474:.\Generated_Source\PSoC5/UART.c **** 
 475:.\Generated_Source\PSoC5/UART.c ****         #else /* UART_RXBUFFERSIZE > UART_FIFO_LENGTH */
 476:.\Generated_Source\PSoC5/UART.c **** 
 477:.\Generated_Source\PSoC5/UART.c ****             /* Needs to check status for RX_STS_FIFO_NOTEMPTY bit*/
 478:.\Generated_Source\PSoC5/UART.c ****             rxData = UART_RXDATA_REG;
 479:.\Generated_Source\PSoC5/UART.c **** 
 480:.\Generated_Source\PSoC5/UART.c ****         #endif /* UART_RXBUFFERSIZE > UART_FIFO_LENGTH */
 481:.\Generated_Source\PSoC5/UART.c **** 
 482:.\Generated_Source\PSoC5/UART.c ****         return(rxData);
 584              		.loc 1 482 0
 585 009c 7B79     		ldrb	r3, [r7, #5]	@ zero_extendqisi2
 483:.\Generated_Source\PSoC5/UART.c ****     }
 586              		.loc 1 483 0
 587 009e 1846     		mov	r0, r3
 588 00a0 07F10807 		add	r7, r7, #8
 589 00a4 BD46     		mov	sp, r7
 590 00a6 80BD     		pop	{r7, pc}
 591              		.cfi_endproc
 592              	.LFE9:
 593              		.size	UART_ReadRxData, .-UART_ReadRxData
 594              		.section	.text.UART_ReadRxStatus,"ax",%progbits
 595              		.align	2
 596              		.global	UART_ReadRxStatus
ARM GAS  C:\Users\dmtucker\AppData\Local\Temp\ccE6jVLi.s 			page 20


 597              		.thumb
 598              		.thumb_func
 599              		.type	UART_ReadRxStatus, %function
 600              	UART_ReadRxStatus:
 601              	.LFB10:
 484:.\Generated_Source\PSoC5/UART.c **** 
 485:.\Generated_Source\PSoC5/UART.c **** 
 486:.\Generated_Source\PSoC5/UART.c ****     /*******************************************************************************
 487:.\Generated_Source\PSoC5/UART.c ****     * Function Name: UART_ReadRxStatus
 488:.\Generated_Source\PSoC5/UART.c ****     ********************************************************************************
 489:.\Generated_Source\PSoC5/UART.c ****     *
 490:.\Generated_Source\PSoC5/UART.c ****     * Summary:
 491:.\Generated_Source\PSoC5/UART.c ****     *  Read the current state of the status register
 492:.\Generated_Source\PSoC5/UART.c ****     *  And detect software buffer overflow.
 493:.\Generated_Source\PSoC5/UART.c ****     *
 494:.\Generated_Source\PSoC5/UART.c ****     * Parameters:
 495:.\Generated_Source\PSoC5/UART.c ****     *  None.
 496:.\Generated_Source\PSoC5/UART.c ****     *
 497:.\Generated_Source\PSoC5/UART.c ****     * Return:
 498:.\Generated_Source\PSoC5/UART.c ****     *  Current state of the status register.
 499:.\Generated_Source\PSoC5/UART.c ****     *
 500:.\Generated_Source\PSoC5/UART.c ****     * Global Variables:
 501:.\Generated_Source\PSoC5/UART.c ****     *  UART_rxBufferOverflow - used to indicate overload condition.
 502:.\Generated_Source\PSoC5/UART.c ****     *   It set to one in RX interrupt when there isn?t free space in
 503:.\Generated_Source\PSoC5/UART.c ****     *   UART_rxBufferRead to write new data. This condition returned
 504:.\Generated_Source\PSoC5/UART.c ****     *   and cleared to zero by this API as an
 505:.\Generated_Source\PSoC5/UART.c ****     *   UART_RX_STS_SOFT_BUFF_OVER bit along with RX Status register
 506:.\Generated_Source\PSoC5/UART.c ****     *   bits.
 507:.\Generated_Source\PSoC5/UART.c ****     *
 508:.\Generated_Source\PSoC5/UART.c ****     *******************************************************************************/
 509:.\Generated_Source\PSoC5/UART.c ****     uint8 UART_ReadRxStatus(void) 
 510:.\Generated_Source\PSoC5/UART.c ****     {
 602              		.loc 1 510 0
 603              		.cfi_startproc
 604              		@ args = 0, pretend = 0, frame = 8
 605              		@ frame_needed = 1, uses_anonymous_args = 0
 606              		@ link register save eliminated.
 607 0000 80B4     		push	{r7}
 608              	.LCFI25:
 609              		.cfi_def_cfa_offset 4
 610 0002 83B0     		sub	sp, sp, #12
 611              	.LCFI26:
 612              		.cfi_def_cfa_offset 16
 613 0004 00AF     		add	r7, sp, #0
 614              		.cfi_offset 7, -4
 615              	.LCFI27:
 616              		.cfi_def_cfa_register 7
 511:.\Generated_Source\PSoC5/UART.c ****         uint8 status;
 512:.\Generated_Source\PSoC5/UART.c **** 
 513:.\Generated_Source\PSoC5/UART.c ****         status = UART_RXSTATUS_REG & UART_RX_HW_MASK;
 617              		.loc 1 513 0
 618 0006 46F26343 		movw	r3, #:lower16:1073767523
 619 000a C4F20003 		movt	r3, #:upper16:1073767523
 620 000e 1B78     		ldrb	r3, [r3, #0]
 621 0010 DBB2     		uxtb	r3, r3
 622 0012 03F07F03 		and	r3, r3, #127
 623 0016 FB71     		strb	r3, [r7, #7]
ARM GAS  C:\Users\dmtucker\AppData\Local\Temp\ccE6jVLi.s 			page 21


 514:.\Generated_Source\PSoC5/UART.c **** 
 515:.\Generated_Source\PSoC5/UART.c ****         #if(UART_RXBUFFERSIZE > UART_FIFO_LENGTH)
 516:.\Generated_Source\PSoC5/UART.c ****             if( UART_rxBufferOverflow != 0u )
 624              		.loc 1 516 0
 625 0018 40F20003 		movw	r3, #:lower16:UART_rxBufferOverflow
 626 001c C0F20003 		movt	r3, #:upper16:UART_rxBufferOverflow
 627 0020 1B78     		ldrb	r3, [r3, #0]
 628 0022 DBB2     		uxtb	r3, r3
 629 0024 002B     		cmp	r3, #0
 630 0026 0CD0     		beq	.L29
 517:.\Generated_Source\PSoC5/UART.c ****             {
 518:.\Generated_Source\PSoC5/UART.c ****                 status |= UART_RX_STS_SOFT_BUFF_OVER;
 631              		.loc 1 518 0
 632 0028 FB79     		ldrb	r3, [r7, #7]
 633 002a 6FEA4363 		mvn	r3, r3, lsl #25
 634 002e 6FEA5363 		mvn	r3, r3, lsr #25
 635 0032 FB71     		strb	r3, [r7, #7]
 519:.\Generated_Source\PSoC5/UART.c ****                 UART_rxBufferOverflow = 0u;
 636              		.loc 1 519 0
 637 0034 40F20003 		movw	r3, #:lower16:UART_rxBufferOverflow
 638 0038 C0F20003 		movt	r3, #:upper16:UART_rxBufferOverflow
 639 003c 4FF00002 		mov	r2, #0
 640 0040 1A70     		strb	r2, [r3, #0]
 641              	.L29:
 520:.\Generated_Source\PSoC5/UART.c ****             }
 521:.\Generated_Source\PSoC5/UART.c ****         #endif /* UART_RXBUFFERSIZE */
 522:.\Generated_Source\PSoC5/UART.c **** 
 523:.\Generated_Source\PSoC5/UART.c ****         return(status);
 642              		.loc 1 523 0
 643 0042 FB79     		ldrb	r3, [r7, #7]	@ zero_extendqisi2
 524:.\Generated_Source\PSoC5/UART.c ****     }
 644              		.loc 1 524 0
 645 0044 1846     		mov	r0, r3
 646 0046 07F10C07 		add	r7, r7, #12
 647 004a BD46     		mov	sp, r7
 648 004c 80BC     		pop	{r7}
 649 004e 7047     		bx	lr
 650              		.cfi_endproc
 651              	.LFE10:
 652              		.size	UART_ReadRxStatus, .-UART_ReadRxStatus
 653              		.section	.text.UART_GetChar,"ax",%progbits
 654              		.align	2
 655              		.global	UART_GetChar
 656              		.thumb
 657              		.thumb_func
 658              		.type	UART_GetChar, %function
 659              	UART_GetChar:
 660              	.LFB11:
 525:.\Generated_Source\PSoC5/UART.c **** 
 526:.\Generated_Source\PSoC5/UART.c **** 
 527:.\Generated_Source\PSoC5/UART.c ****     /*******************************************************************************
 528:.\Generated_Source\PSoC5/UART.c ****     * Function Name: UART_GetChar
 529:.\Generated_Source\PSoC5/UART.c ****     ********************************************************************************
 530:.\Generated_Source\PSoC5/UART.c ****     *
 531:.\Generated_Source\PSoC5/UART.c ****     * Summary:
 532:.\Generated_Source\PSoC5/UART.c ****     *  Reads UART RX buffer immediately, if data is not available or an error
 533:.\Generated_Source\PSoC5/UART.c ****     *  condition exists, zero is returned; otherwise, character is read and
ARM GAS  C:\Users\dmtucker\AppData\Local\Temp\ccE6jVLi.s 			page 22


 534:.\Generated_Source\PSoC5/UART.c ****     *  returned.
 535:.\Generated_Source\PSoC5/UART.c ****     *
 536:.\Generated_Source\PSoC5/UART.c ****     * Parameters:
 537:.\Generated_Source\PSoC5/UART.c ****     *  None.
 538:.\Generated_Source\PSoC5/UART.c ****     *
 539:.\Generated_Source\PSoC5/UART.c ****     * Return:
 540:.\Generated_Source\PSoC5/UART.c ****     *  Character read from UART RX buffer. ASCII characters from 1 to 255 are valid.
 541:.\Generated_Source\PSoC5/UART.c ****     *  A returned zero signifies an error condition or no data available.
 542:.\Generated_Source\PSoC5/UART.c ****     *
 543:.\Generated_Source\PSoC5/UART.c ****     * Global Variables:
 544:.\Generated_Source\PSoC5/UART.c ****     *  UART_rxBuffer - RAM buffer pointer for save received data.
 545:.\Generated_Source\PSoC5/UART.c ****     *  UART_rxBufferWrite - cyclic index for write to rxBuffer,
 546:.\Generated_Source\PSoC5/UART.c ****     *     checked to identify new data.
 547:.\Generated_Source\PSoC5/UART.c ****     *  UART_rxBufferRead - cyclic index for read from rxBuffer,
 548:.\Generated_Source\PSoC5/UART.c ****     *     incremented after each byte has been read from buffer.
 549:.\Generated_Source\PSoC5/UART.c ****     *  UART_rxBufferLoopDetect - creared if loop condition was detected
 550:.\Generated_Source\PSoC5/UART.c ****     *     in RX ISR.
 551:.\Generated_Source\PSoC5/UART.c ****     *
 552:.\Generated_Source\PSoC5/UART.c ****     * Reentrant:
 553:.\Generated_Source\PSoC5/UART.c ****     *  No.
 554:.\Generated_Source\PSoC5/UART.c ****     *
 555:.\Generated_Source\PSoC5/UART.c ****     *******************************************************************************/
 556:.\Generated_Source\PSoC5/UART.c ****     uint8 UART_GetChar(void) 
 557:.\Generated_Source\PSoC5/UART.c ****     {
 661              		.loc 1 557 0
 662              		.cfi_startproc
 663              		@ args = 0, pretend = 0, frame = 8
 664              		@ frame_needed = 1, uses_anonymous_args = 0
 665 0000 80B5     		push	{r7, lr}
 666              	.LCFI28:
 667              		.cfi_def_cfa_offset 8
 668 0002 82B0     		sub	sp, sp, #8
 669              	.LCFI29:
 670              		.cfi_def_cfa_offset 16
 671 0004 00AF     		add	r7, sp, #0
 672              		.cfi_offset 14, -4
 673              		.cfi_offset 7, -8
 674              	.LCFI30:
 675              		.cfi_def_cfa_register 7
 558:.\Generated_Source\PSoC5/UART.c ****         uint8 rxData = 0u;
 676              		.loc 1 558 0
 677 0006 4FF00003 		mov	r3, #0
 678 000a 3B71     		strb	r3, [r7, #4]
 559:.\Generated_Source\PSoC5/UART.c ****         uint8 rxStatus;
 560:.\Generated_Source\PSoC5/UART.c **** 
 561:.\Generated_Source\PSoC5/UART.c ****         #if(UART_RXBUFFERSIZE > UART_FIFO_LENGTH)
 562:.\Generated_Source\PSoC5/UART.c ****             uint8 loc_rxBufferRead;
 563:.\Generated_Source\PSoC5/UART.c ****             uint8 loc_rxBufferWrite;
 564:.\Generated_Source\PSoC5/UART.c ****             /* Protect variables that could change on interrupt. */
 565:.\Generated_Source\PSoC5/UART.c ****             /* Disable Rx interrupt. */
 566:.\Generated_Source\PSoC5/UART.c ****             #if(UART_RX_INTERRUPT_ENABLED)
 567:.\Generated_Source\PSoC5/UART.c ****                 UART_DisableRxInt();
 679              		.loc 1 567 0
 680 000c FFF7FEFF 		bl	UART_DisableRxInt
 568:.\Generated_Source\PSoC5/UART.c ****             #endif /* UART_RX_INTERRUPT_ENABLED */
 569:.\Generated_Source\PSoC5/UART.c ****             loc_rxBufferRead = UART_rxBufferRead;
 681              		.loc 1 569 0
ARM GAS  C:\Users\dmtucker\AppData\Local\Temp\ccE6jVLi.s 			page 23


 682 0010 40F20003 		movw	r3, #:lower16:UART_rxBufferRead
 683 0014 C0F20003 		movt	r3, #:upper16:UART_rxBufferRead
 684 0018 1B78     		ldrb	r3, [r3, #0]
 685 001a BB71     		strb	r3, [r7, #6]
 570:.\Generated_Source\PSoC5/UART.c ****             loc_rxBufferWrite = UART_rxBufferWrite;
 686              		.loc 1 570 0
 687 001c 40F20003 		movw	r3, #:lower16:UART_rxBufferWrite
 688 0020 C0F20003 		movt	r3, #:upper16:UART_rxBufferWrite
 689 0024 1B78     		ldrb	r3, [r3, #0]
 690 0026 FB71     		strb	r3, [r7, #7]
 571:.\Generated_Source\PSoC5/UART.c **** 
 572:.\Generated_Source\PSoC5/UART.c ****             if( (UART_rxBufferLoopDetect != 0u) || (loc_rxBufferRead != loc_rxBufferWrite) )
 691              		.loc 1 572 0
 692 0028 40F20003 		movw	r3, #:lower16:UART_rxBufferLoopDetect
 693 002c C0F20003 		movt	r3, #:upper16:UART_rxBufferLoopDetect
 694 0030 1B78     		ldrb	r3, [r3, #0]
 695 0032 DBB2     		uxtb	r3, r3
 696 0034 002B     		cmp	r3, #0
 697 0036 03D1     		bne	.L32
 698 0038 BA79     		ldrb	r2, [r7, #6]	@ zero_extendqisi2
 699 003a FB79     		ldrb	r3, [r7, #7]	@ zero_extendqisi2
 700 003c 9A42     		cmp	r2, r3
 701 003e 26D0     		beq	.L33
 702              	.L32:
 573:.\Generated_Source\PSoC5/UART.c ****             {
 574:.\Generated_Source\PSoC5/UART.c ****                 rxData = UART_rxBuffer[loc_rxBufferRead];
 703              		.loc 1 574 0
 704 0040 BA79     		ldrb	r2, [r7, #6]	@ zero_extendqisi2
 705 0042 40F20003 		movw	r3, #:lower16:UART_rxBuffer
 706 0046 C0F20003 		movt	r3, #:upper16:UART_rxBuffer
 707 004a 9B5C     		ldrb	r3, [r3, r2]
 708 004c 3B71     		strb	r3, [r7, #4]
 575:.\Generated_Source\PSoC5/UART.c ****                 loc_rxBufferRead++;
 709              		.loc 1 575 0
 710 004e BB79     		ldrb	r3, [r7, #6]
 711 0050 03F10103 		add	r3, r3, #1
 712 0054 BB71     		strb	r3, [r7, #6]
 576:.\Generated_Source\PSoC5/UART.c ****                 if(loc_rxBufferRead >= UART_RXBUFFERSIZE)
 713              		.loc 1 576 0
 714 0056 BB79     		ldrb	r3, [r7, #6]	@ zero_extendqisi2
 715 0058 3F2B     		cmp	r3, #63
 716 005a 02D9     		bls	.L34
 577:.\Generated_Source\PSoC5/UART.c ****                 {
 578:.\Generated_Source\PSoC5/UART.c ****                     loc_rxBufferRead = 0u;
 717              		.loc 1 578 0
 718 005c 4FF00003 		mov	r3, #0
 719 0060 BB71     		strb	r3, [r7, #6]
 720              	.L34:
 579:.\Generated_Source\PSoC5/UART.c ****                 }
 580:.\Generated_Source\PSoC5/UART.c ****                 /* Update the real pointer */
 581:.\Generated_Source\PSoC5/UART.c ****                 UART_rxBufferRead = loc_rxBufferRead;
 721              		.loc 1 581 0
 722 0062 40F20003 		movw	r3, #:lower16:UART_rxBufferRead
 723 0066 C0F20003 		movt	r3, #:upper16:UART_rxBufferRead
 724 006a BA79     		ldrb	r2, [r7, #6]
 725 006c 1A70     		strb	r2, [r3, #0]
 582:.\Generated_Source\PSoC5/UART.c **** 
ARM GAS  C:\Users\dmtucker\AppData\Local\Temp\ccE6jVLi.s 			page 24


 583:.\Generated_Source\PSoC5/UART.c ****                 if(UART_rxBufferLoopDetect > 0u )
 726              		.loc 1 583 0
 727 006e 40F20003 		movw	r3, #:lower16:UART_rxBufferLoopDetect
 728 0072 C0F20003 		movt	r3, #:upper16:UART_rxBufferLoopDetect
 729 0076 1B78     		ldrb	r3, [r3, #0]
 730 0078 DBB2     		uxtb	r3, r3
 731 007a 002B     		cmp	r3, #0
 732 007c 21D0     		beq	.L38
 584:.\Generated_Source\PSoC5/UART.c ****                 {
 585:.\Generated_Source\PSoC5/UART.c ****                     UART_rxBufferLoopDetect = 0u;
 733              		.loc 1 585 0
 734 007e 40F20003 		movw	r3, #:lower16:UART_rxBufferLoopDetect
 735 0082 C0F20003 		movt	r3, #:upper16:UART_rxBufferLoopDetect
 736 0086 4FF00002 		mov	r2, #0
 737 008a 1A70     		strb	r2, [r3, #0]
 738              		.loc 1 572 0
 739 008c 1AE0     		b	.L36
 740              	.L33:
 586:.\Generated_Source\PSoC5/UART.c ****                     #if( (UART_RX_INTERRUPT_ENABLED) && (UART_FLOW_CONTROL != 0u) )
 587:.\Generated_Source\PSoC5/UART.c ****                         /* When Hardware Flow Control selected - return RX mask */
 588:.\Generated_Source\PSoC5/UART.c ****                         #if( UART_HD_ENABLED )
 589:.\Generated_Source\PSoC5/UART.c ****                             if((UART_CONTROL_REG & UART_CTRL_HD_SEND) == 0u)
 590:.\Generated_Source\PSoC5/UART.c ****                             {   /* In Half duplex mode return RX mask only if
 591:.\Generated_Source\PSoC5/UART.c ****                                 *  RX configuration set, otherwise
 592:.\Generated_Source\PSoC5/UART.c ****                                 *  mask will be returned in LoadRxConfig() API.
 593:.\Generated_Source\PSoC5/UART.c ****                                 */
 594:.\Generated_Source\PSoC5/UART.c ****                                 UART_RXSTATUS_MASK_REG  |= UART_RX_STS_FIFO_NOTEMPTY;
 595:.\Generated_Source\PSoC5/UART.c ****                             }
 596:.\Generated_Source\PSoC5/UART.c ****                         #else
 597:.\Generated_Source\PSoC5/UART.c ****                             UART_RXSTATUS_MASK_REG  |= UART_RX_STS_FIFO_NOTEMPTY;
 598:.\Generated_Source\PSoC5/UART.c ****                         #endif /* end UART_HD_ENABLED */
 599:.\Generated_Source\PSoC5/UART.c ****                     #endif /* UART_RX_INTERRUPT_ENABLED and Hardware flow control*/
 600:.\Generated_Source\PSoC5/UART.c ****                 }
 601:.\Generated_Source\PSoC5/UART.c **** 
 602:.\Generated_Source\PSoC5/UART.c ****             }
 603:.\Generated_Source\PSoC5/UART.c ****             else
 604:.\Generated_Source\PSoC5/UART.c ****             {   rxStatus = UART_RXSTATUS_REG;
 741              		.loc 1 604 0
 742 008e 46F26343 		movw	r3, #:lower16:1073767523
 743 0092 C4F20003 		movt	r3, #:upper16:1073767523
 744 0096 1B78     		ldrb	r3, [r3, #0]
 745 0098 7B71     		strb	r3, [r7, #5]
 605:.\Generated_Source\PSoC5/UART.c ****                 if((rxStatus & UART_RX_STS_FIFO_NOTEMPTY) != 0u)
 746              		.loc 1 605 0
 747 009a 7B79     		ldrb	r3, [r7, #5]	@ zero_extendqisi2
 748 009c 03F02003 		and	r3, r3, #32
 749 00a0 002B     		cmp	r3, #0
 750 00a2 0FD0     		beq	.L36
 606:.\Generated_Source\PSoC5/UART.c ****                 {   /* Read received data from FIFO*/
 607:.\Generated_Source\PSoC5/UART.c ****                     rxData = UART_RXDATA_REG;
 751              		.loc 1 607 0
 752 00a4 46F24243 		movw	r3, #:lower16:1073767490
 753 00a8 C4F20003 		movt	r3, #:upper16:1073767490
 754 00ac 1B78     		ldrb	r3, [r3, #0]
 755 00ae 3B71     		strb	r3, [r7, #4]
 608:.\Generated_Source\PSoC5/UART.c ****                     /*Check status on error*/
 609:.\Generated_Source\PSoC5/UART.c ****                     if((rxStatus & (UART_RX_STS_BREAK | UART_RX_STS_PAR_ERROR |
ARM GAS  C:\Users\dmtucker\AppData\Local\Temp\ccE6jVLi.s 			page 25


 756              		.loc 1 609 0
 757 00b0 7B79     		ldrb	r3, [r7, #5]	@ zero_extendqisi2
 758 00b2 03F01E03 		and	r3, r3, #30
 759 00b6 002B     		cmp	r3, #0
 760 00b8 04D0     		beq	.L36
 610:.\Generated_Source\PSoC5/UART.c ****                                    UART_RX_STS_STOP_ERROR | UART_RX_STS_OVERRUN)) != 0u)
 611:.\Generated_Source\PSoC5/UART.c ****                     {
 612:.\Generated_Source\PSoC5/UART.c ****                         rxData = 0u;
 761              		.loc 1 612 0
 762 00ba 4FF00003 		mov	r3, #0
 763 00be 3B71     		strb	r3, [r7, #4]
 764 00c0 00E0     		b	.L36
 765              	.L38:
 766              		.loc 1 572 0
 767 00c2 00BF     		nop
 768              	.L36:
 613:.\Generated_Source\PSoC5/UART.c ****                     }
 614:.\Generated_Source\PSoC5/UART.c ****                 }
 615:.\Generated_Source\PSoC5/UART.c ****             }
 616:.\Generated_Source\PSoC5/UART.c **** 
 617:.\Generated_Source\PSoC5/UART.c ****             /* Enable Rx interrupt. */
 618:.\Generated_Source\PSoC5/UART.c ****             #if(UART_RX_INTERRUPT_ENABLED)
 619:.\Generated_Source\PSoC5/UART.c ****                 UART_EnableRxInt();
 769              		.loc 1 619 0
 770 00c4 FFF7FEFF 		bl	UART_EnableRxInt
 620:.\Generated_Source\PSoC5/UART.c ****             #endif /* UART_RX_INTERRUPT_ENABLED */
 621:.\Generated_Source\PSoC5/UART.c **** 
 622:.\Generated_Source\PSoC5/UART.c ****         #else /* UART_RXBUFFERSIZE > UART_FIFO_LENGTH */
 623:.\Generated_Source\PSoC5/UART.c **** 
 624:.\Generated_Source\PSoC5/UART.c ****             rxStatus =UART_RXSTATUS_REG;
 625:.\Generated_Source\PSoC5/UART.c ****             if((rxStatus & UART_RX_STS_FIFO_NOTEMPTY) != 0u)
 626:.\Generated_Source\PSoC5/UART.c ****             {   /* Read received data from FIFO*/
 627:.\Generated_Source\PSoC5/UART.c ****                 rxData = UART_RXDATA_REG;
 628:.\Generated_Source\PSoC5/UART.c ****                 /*Check status on error*/
 629:.\Generated_Source\PSoC5/UART.c ****                 if((rxStatus & (UART_RX_STS_BREAK | UART_RX_STS_PAR_ERROR |
 630:.\Generated_Source\PSoC5/UART.c ****                                UART_RX_STS_STOP_ERROR | UART_RX_STS_OVERRUN)) != 0u)
 631:.\Generated_Source\PSoC5/UART.c ****                 {
 632:.\Generated_Source\PSoC5/UART.c ****                     rxData = 0u;
 633:.\Generated_Source\PSoC5/UART.c ****                 }
 634:.\Generated_Source\PSoC5/UART.c ****             }
 635:.\Generated_Source\PSoC5/UART.c ****         #endif /* UART_RXBUFFERSIZE > UART_FIFO_LENGTH */
 636:.\Generated_Source\PSoC5/UART.c **** 
 637:.\Generated_Source\PSoC5/UART.c ****         return(rxData);
 771              		.loc 1 637 0
 772 00c8 3B79     		ldrb	r3, [r7, #4]	@ zero_extendqisi2
 638:.\Generated_Source\PSoC5/UART.c ****     }
 773              		.loc 1 638 0
 774 00ca 1846     		mov	r0, r3
 775 00cc 07F10807 		add	r7, r7, #8
 776 00d0 BD46     		mov	sp, r7
 777 00d2 80BD     		pop	{r7, pc}
 778              		.cfi_endproc
 779              	.LFE11:
 780              		.size	UART_GetChar, .-UART_GetChar
 781              		.section	.text.UART_GetByte,"ax",%progbits
 782              		.align	2
 783              		.global	UART_GetByte
ARM GAS  C:\Users\dmtucker\AppData\Local\Temp\ccE6jVLi.s 			page 26


 784              		.thumb
 785              		.thumb_func
 786              		.type	UART_GetByte, %function
 787              	UART_GetByte:
 788              	.LFB12:
 639:.\Generated_Source\PSoC5/UART.c **** 
 640:.\Generated_Source\PSoC5/UART.c **** 
 641:.\Generated_Source\PSoC5/UART.c ****     /*******************************************************************************
 642:.\Generated_Source\PSoC5/UART.c ****     * Function Name: UART_GetByte
 643:.\Generated_Source\PSoC5/UART.c ****     ********************************************************************************
 644:.\Generated_Source\PSoC5/UART.c ****     *
 645:.\Generated_Source\PSoC5/UART.c ****     * Summary:
 646:.\Generated_Source\PSoC5/UART.c ****     *  Grab the next available byte of data from the recieve FIFO
 647:.\Generated_Source\PSoC5/UART.c ****     *
 648:.\Generated_Source\PSoC5/UART.c ****     * Parameters:
 649:.\Generated_Source\PSoC5/UART.c ****     *  None.
 650:.\Generated_Source\PSoC5/UART.c ****     *
 651:.\Generated_Source\PSoC5/UART.c ****     * Return:
 652:.\Generated_Source\PSoC5/UART.c ****     *  MSB contains Status Register and LSB contains UART RX data
 653:.\Generated_Source\PSoC5/UART.c ****     *
 654:.\Generated_Source\PSoC5/UART.c ****     * Reentrant:
 655:.\Generated_Source\PSoC5/UART.c ****     *  No.
 656:.\Generated_Source\PSoC5/UART.c ****     *
 657:.\Generated_Source\PSoC5/UART.c ****     *******************************************************************************/
 658:.\Generated_Source\PSoC5/UART.c ****     uint16 UART_GetByte(void) 
 659:.\Generated_Source\PSoC5/UART.c ****     {
 789              		.loc 1 659 0
 790              		.cfi_startproc
 791              		@ args = 0, pretend = 0, frame = 0
 792              		@ frame_needed = 1, uses_anonymous_args = 0
 793 0000 98B5     		push	{r3, r4, r7, lr}
 794              	.LCFI31:
 795              		.cfi_def_cfa_offset 16
 796 0002 00AF     		add	r7, sp, #0
 797              		.cfi_offset 14, -4
 798              		.cfi_offset 7, -8
 799              		.cfi_offset 4, -12
 800              		.cfi_offset 3, -16
 801              	.LCFI32:
 802              		.cfi_def_cfa_register 7
 660:.\Generated_Source\PSoC5/UART.c ****         return ( ((uint16)UART_ReadRxStatus() << 8u) | UART_ReadRxData() );
 803              		.loc 1 660 0
 804 0004 FFF7FEFF 		bl	UART_ReadRxStatus
 805 0008 0346     		mov	r3, r0
 806 000a 4FEA0323 		lsl	r3, r3, #8
 807 000e 9CB2     		uxth	r4, r3
 808 0010 FFF7FEFF 		bl	UART_ReadRxData
 809 0014 0346     		mov	r3, r0
 810 0016 2246     		mov	r2, r4	@ movhi
 811 0018 42EA0303 		orr	r3, r2, r3
 812 001c 9BB2     		uxth	r3, r3
 813 001e 9BB2     		uxth	r3, r3
 661:.\Generated_Source\PSoC5/UART.c ****     }
 814              		.loc 1 661 0
 815 0020 1846     		mov	r0, r3
 816 0022 98BD     		pop	{r3, r4, r7, pc}
 817              		.cfi_endproc
ARM GAS  C:\Users\dmtucker\AppData\Local\Temp\ccE6jVLi.s 			page 27


 818              	.LFE12:
 819              		.size	UART_GetByte, .-UART_GetByte
 820              		.section	.text.UART_GetRxBufferSize,"ax",%progbits
 821              		.align	2
 822              		.global	UART_GetRxBufferSize
 823              		.thumb
 824              		.thumb_func
 825              		.type	UART_GetRxBufferSize, %function
 826              	UART_GetRxBufferSize:
 827              	.LFB13:
 662:.\Generated_Source\PSoC5/UART.c **** 
 663:.\Generated_Source\PSoC5/UART.c **** 
 664:.\Generated_Source\PSoC5/UART.c ****     /*******************************************************************************
 665:.\Generated_Source\PSoC5/UART.c ****     * Function Name: UART_GetRxBufferSize
 666:.\Generated_Source\PSoC5/UART.c ****     ********************************************************************************
 667:.\Generated_Source\PSoC5/UART.c ****     *
 668:.\Generated_Source\PSoC5/UART.c ****     * Summary:
 669:.\Generated_Source\PSoC5/UART.c ****     *  Determine the amount of bytes left in the RX buffer and return the count in
 670:.\Generated_Source\PSoC5/UART.c ****     *  bytes
 671:.\Generated_Source\PSoC5/UART.c ****     *
 672:.\Generated_Source\PSoC5/UART.c ****     * Parameters:
 673:.\Generated_Source\PSoC5/UART.c ****     *  None.
 674:.\Generated_Source\PSoC5/UART.c ****     *
 675:.\Generated_Source\PSoC5/UART.c ****     * Return:
 676:.\Generated_Source\PSoC5/UART.c ****     *  uint8: Integer count of the number of bytes left
 677:.\Generated_Source\PSoC5/UART.c ****     *  in the RX buffer
 678:.\Generated_Source\PSoC5/UART.c ****     *
 679:.\Generated_Source\PSoC5/UART.c ****     * Global Variables:
 680:.\Generated_Source\PSoC5/UART.c ****     *  UART_rxBufferWrite - used to calculate left bytes.
 681:.\Generated_Source\PSoC5/UART.c ****     *  UART_rxBufferRead - used to calculate left bytes.
 682:.\Generated_Source\PSoC5/UART.c ****     *  UART_rxBufferLoopDetect - checked to decide left bytes amount.
 683:.\Generated_Source\PSoC5/UART.c ****     *
 684:.\Generated_Source\PSoC5/UART.c ****     * Reentrant:
 685:.\Generated_Source\PSoC5/UART.c ****     *  No.
 686:.\Generated_Source\PSoC5/UART.c ****     *
 687:.\Generated_Source\PSoC5/UART.c ****     * Theory:
 688:.\Generated_Source\PSoC5/UART.c ****     *  Allows the user to find out how full the RX Buffer is.
 689:.\Generated_Source\PSoC5/UART.c ****     *
 690:.\Generated_Source\PSoC5/UART.c ****     *******************************************************************************/
 691:.\Generated_Source\PSoC5/UART.c ****     uint8 UART_GetRxBufferSize(void)
 692:.\Generated_Source\PSoC5/UART.c ****                                                             
 693:.\Generated_Source\PSoC5/UART.c ****     {
 828              		.loc 1 693 0
 829              		.cfi_startproc
 830              		@ args = 0, pretend = 0, frame = 8
 831              		@ frame_needed = 1, uses_anonymous_args = 0
 832 0000 80B5     		push	{r7, lr}
 833              	.LCFI33:
 834              		.cfi_def_cfa_offset 8
 835 0002 82B0     		sub	sp, sp, #8
 836              	.LCFI34:
 837              		.cfi_def_cfa_offset 16
 838 0004 00AF     		add	r7, sp, #0
 839              		.cfi_offset 14, -4
 840              		.cfi_offset 7, -8
 841              	.LCFI35:
 842              		.cfi_def_cfa_register 7
ARM GAS  C:\Users\dmtucker\AppData\Local\Temp\ccE6jVLi.s 			page 28


 694:.\Generated_Source\PSoC5/UART.c ****         uint8 size;
 695:.\Generated_Source\PSoC5/UART.c **** 
 696:.\Generated_Source\PSoC5/UART.c ****         #if(UART_RXBUFFERSIZE > UART_FIFO_LENGTH)
 697:.\Generated_Source\PSoC5/UART.c **** 
 698:.\Generated_Source\PSoC5/UART.c ****             /* Disable Rx interrupt. */
 699:.\Generated_Source\PSoC5/UART.c ****             /* Protect variables that could change on interrupt. */
 700:.\Generated_Source\PSoC5/UART.c ****             #if(UART_RX_INTERRUPT_ENABLED)
 701:.\Generated_Source\PSoC5/UART.c ****                 UART_DisableRxInt();
 843              		.loc 1 701 0
 844 0006 FFF7FEFF 		bl	UART_DisableRxInt
 702:.\Generated_Source\PSoC5/UART.c ****             #endif /* UART_RX_INTERRUPT_ENABLED */
 703:.\Generated_Source\PSoC5/UART.c **** 
 704:.\Generated_Source\PSoC5/UART.c ****             if(UART_rxBufferRead == UART_rxBufferWrite)
 845              		.loc 1 704 0
 846 000a 40F20003 		movw	r3, #:lower16:UART_rxBufferRead
 847 000e C0F20003 		movt	r3, #:upper16:UART_rxBufferRead
 848 0012 1B78     		ldrb	r3, [r3, #0]
 849 0014 DAB2     		uxtb	r2, r3
 850 0016 40F20003 		movw	r3, #:lower16:UART_rxBufferWrite
 851 001a C0F20003 		movt	r3, #:upper16:UART_rxBufferWrite
 852 001e 1B78     		ldrb	r3, [r3, #0]
 853 0020 DBB2     		uxtb	r3, r3
 854 0022 9A42     		cmp	r2, r3
 855 0024 0FD1     		bne	.L42
 705:.\Generated_Source\PSoC5/UART.c ****             {
 706:.\Generated_Source\PSoC5/UART.c ****                 if(UART_rxBufferLoopDetect > 0u)
 856              		.loc 1 706 0
 857 0026 40F20003 		movw	r3, #:lower16:UART_rxBufferLoopDetect
 858 002a C0F20003 		movt	r3, #:upper16:UART_rxBufferLoopDetect
 859 002e 1B78     		ldrb	r3, [r3, #0]
 860 0030 DBB2     		uxtb	r3, r3
 861 0032 002B     		cmp	r3, #0
 862 0034 03D0     		beq	.L43
 707:.\Generated_Source\PSoC5/UART.c ****                 {
 708:.\Generated_Source\PSoC5/UART.c ****                     size = UART_RXBUFFERSIZE;
 863              		.loc 1 708 0
 864 0036 4FF04003 		mov	r3, #64
 865 003a FB71     		strb	r3, [r7, #7]
 709:.\Generated_Source\PSoC5/UART.c ****                 }
 710:.\Generated_Source\PSoC5/UART.c ****                 else
 711:.\Generated_Source\PSoC5/UART.c ****                 {
 712:.\Generated_Source\PSoC5/UART.c ****                     size = 0u;
 866              		.loc 1 712 0
 867 003c 33E0     		b	.L45
 868              	.L43:
 869 003e 4FF00003 		mov	r3, #0
 870 0042 FB71     		strb	r3, [r7, #7]
 871 0044 2FE0     		b	.L45
 872              	.L42:
 713:.\Generated_Source\PSoC5/UART.c ****                 }
 714:.\Generated_Source\PSoC5/UART.c ****             }
 715:.\Generated_Source\PSoC5/UART.c ****             else if(UART_rxBufferRead < UART_rxBufferWrite)
 873              		.loc 1 715 0
 874 0046 40F20003 		movw	r3, #:lower16:UART_rxBufferRead
 875 004a C0F20003 		movt	r3, #:upper16:UART_rxBufferRead
 876 004e 1B78     		ldrb	r3, [r3, #0]
 877 0050 DAB2     		uxtb	r2, r3
ARM GAS  C:\Users\dmtucker\AppData\Local\Temp\ccE6jVLi.s 			page 29


 878 0052 40F20003 		movw	r3, #:lower16:UART_rxBufferWrite
 879 0056 C0F20003 		movt	r3, #:upper16:UART_rxBufferWrite
 880 005a 1B78     		ldrb	r3, [r3, #0]
 881 005c DBB2     		uxtb	r3, r3
 882 005e 9A42     		cmp	r2, r3
 883 0060 0FD2     		bcs	.L46
 716:.\Generated_Source\PSoC5/UART.c ****             {
 717:.\Generated_Source\PSoC5/UART.c ****                 size = (UART_rxBufferWrite - UART_rxBufferRead);
 884              		.loc 1 717 0
 885 0062 40F20003 		movw	r3, #:lower16:UART_rxBufferWrite
 886 0066 C0F20003 		movt	r3, #:upper16:UART_rxBufferWrite
 887 006a 1B78     		ldrb	r3, [r3, #0]
 888 006c DAB2     		uxtb	r2, r3
 889 006e 40F20003 		movw	r3, #:lower16:UART_rxBufferRead
 890 0072 C0F20003 		movt	r3, #:upper16:UART_rxBufferRead
 891 0076 1B78     		ldrb	r3, [r3, #0]
 892 0078 DBB2     		uxtb	r3, r3
 893 007a C3EB0203 		rsb	r3, r3, r2
 894 007e FB71     		strb	r3, [r7, #7]
 895 0080 11E0     		b	.L45
 896              	.L46:
 718:.\Generated_Source\PSoC5/UART.c ****             }
 719:.\Generated_Source\PSoC5/UART.c ****             else
 720:.\Generated_Source\PSoC5/UART.c ****             {
 721:.\Generated_Source\PSoC5/UART.c ****                 size = (UART_RXBUFFERSIZE - UART_rxBufferRead) + UART_rxBufferWrite;
 897              		.loc 1 721 0
 898 0082 40F20003 		movw	r3, #:lower16:UART_rxBufferWrite
 899 0086 C0F20003 		movt	r3, #:upper16:UART_rxBufferWrite
 900 008a 1B78     		ldrb	r3, [r3, #0]
 901 008c DAB2     		uxtb	r2, r3
 902 008e 40F20003 		movw	r3, #:lower16:UART_rxBufferRead
 903 0092 C0F20003 		movt	r3, #:upper16:UART_rxBufferRead
 904 0096 1B78     		ldrb	r3, [r3, #0]
 905 0098 DBB2     		uxtb	r3, r3
 906 009a C3EB0203 		rsb	r3, r3, r2
 907 009e DBB2     		uxtb	r3, r3
 908 00a0 03F14003 		add	r3, r3, #64
 909 00a4 FB71     		strb	r3, [r7, #7]
 910              	.L45:
 722:.\Generated_Source\PSoC5/UART.c ****             }
 723:.\Generated_Source\PSoC5/UART.c **** 
 724:.\Generated_Source\PSoC5/UART.c ****             /* Enable Rx interrupt. */
 725:.\Generated_Source\PSoC5/UART.c ****             #if(UART_RX_INTERRUPT_ENABLED)
 726:.\Generated_Source\PSoC5/UART.c ****                 UART_EnableRxInt();
 911              		.loc 1 726 0
 912 00a6 FFF7FEFF 		bl	UART_EnableRxInt
 727:.\Generated_Source\PSoC5/UART.c ****             #endif /* End UART_RX_INTERRUPT_ENABLED */
 728:.\Generated_Source\PSoC5/UART.c **** 
 729:.\Generated_Source\PSoC5/UART.c ****         #else /* UART_RXBUFFERSIZE > UART_FIFO_LENGTH */
 730:.\Generated_Source\PSoC5/UART.c **** 
 731:.\Generated_Source\PSoC5/UART.c ****             /* We can only know if there is data in the fifo. */
 732:.\Generated_Source\PSoC5/UART.c ****             size = ((UART_RXSTATUS_REG & UART_RX_STS_FIFO_NOTEMPTY) != 0u) ? 1u : 0u;
 733:.\Generated_Source\PSoC5/UART.c **** 
 734:.\Generated_Source\PSoC5/UART.c ****         #endif /* End UART_RXBUFFERSIZE > UART_FIFO_LENGTH */
 735:.\Generated_Source\PSoC5/UART.c **** 
 736:.\Generated_Source\PSoC5/UART.c ****         return(size);
 913              		.loc 1 736 0
ARM GAS  C:\Users\dmtucker\AppData\Local\Temp\ccE6jVLi.s 			page 30


 914 00aa FB79     		ldrb	r3, [r7, #7]	@ zero_extendqisi2
 737:.\Generated_Source\PSoC5/UART.c ****     }
 915              		.loc 1 737 0
 916 00ac 1846     		mov	r0, r3
 917 00ae 07F10807 		add	r7, r7, #8
 918 00b2 BD46     		mov	sp, r7
 919 00b4 80BD     		pop	{r7, pc}
 920              		.cfi_endproc
 921              	.LFE13:
 922              		.size	UART_GetRxBufferSize, .-UART_GetRxBufferSize
 923 00b6 00BF     		.section	.text.UART_ClearRxBuffer,"ax",%progbits
 924              		.align	2
 925              		.global	UART_ClearRxBuffer
 926              		.thumb
 927              		.thumb_func
 928              		.type	UART_ClearRxBuffer, %function
 929              	UART_ClearRxBuffer:
 930              	.LFB14:
 738:.\Generated_Source\PSoC5/UART.c **** 
 739:.\Generated_Source\PSoC5/UART.c **** 
 740:.\Generated_Source\PSoC5/UART.c ****     /*******************************************************************************
 741:.\Generated_Source\PSoC5/UART.c ****     * Function Name: UART_ClearRxBuffer
 742:.\Generated_Source\PSoC5/UART.c ****     ********************************************************************************
 743:.\Generated_Source\PSoC5/UART.c ****     *
 744:.\Generated_Source\PSoC5/UART.c ****     * Summary:
 745:.\Generated_Source\PSoC5/UART.c ****     *  Clears the RX RAM buffer by setting the read and write pointers both to zero.
 746:.\Generated_Source\PSoC5/UART.c ****     *  Clears hardware RX FIFO.
 747:.\Generated_Source\PSoC5/UART.c ****     *
 748:.\Generated_Source\PSoC5/UART.c ****     * Parameters:
 749:.\Generated_Source\PSoC5/UART.c ****     *  None.
 750:.\Generated_Source\PSoC5/UART.c ****     *
 751:.\Generated_Source\PSoC5/UART.c ****     * Return:
 752:.\Generated_Source\PSoC5/UART.c ****     *  None.
 753:.\Generated_Source\PSoC5/UART.c ****     *
 754:.\Generated_Source\PSoC5/UART.c ****     * Global Variables:
 755:.\Generated_Source\PSoC5/UART.c ****     *  UART_rxBufferWrite - cleared to zero.
 756:.\Generated_Source\PSoC5/UART.c ****     *  UART_rxBufferRead - cleared to zero.
 757:.\Generated_Source\PSoC5/UART.c ****     *  UART_rxBufferLoopDetect - cleared to zero.
 758:.\Generated_Source\PSoC5/UART.c ****     *  UART_rxBufferOverflow - cleared to zero.
 759:.\Generated_Source\PSoC5/UART.c ****     *
 760:.\Generated_Source\PSoC5/UART.c ****     * Reentrant:
 761:.\Generated_Source\PSoC5/UART.c ****     *  No.
 762:.\Generated_Source\PSoC5/UART.c ****     *
 763:.\Generated_Source\PSoC5/UART.c ****     * Theory:
 764:.\Generated_Source\PSoC5/UART.c ****     *  Setting the pointers to zero makes the system believe there is no data to
 765:.\Generated_Source\PSoC5/UART.c ****     *  read and writing will resume at address 0 overwriting any data that may
 766:.\Generated_Source\PSoC5/UART.c ****     *  have remained in the RAM.
 767:.\Generated_Source\PSoC5/UART.c ****     *
 768:.\Generated_Source\PSoC5/UART.c ****     * Side Effects:
 769:.\Generated_Source\PSoC5/UART.c ****     *  Any received data not read from the RAM or FIFO buffer will be lost.
 770:.\Generated_Source\PSoC5/UART.c ****     *******************************************************************************/
 771:.\Generated_Source\PSoC5/UART.c ****     void UART_ClearRxBuffer(void) 
 772:.\Generated_Source\PSoC5/UART.c ****     {
 931              		.loc 1 772 0
 932              		.cfi_startproc
 933              		@ args = 0, pretend = 0, frame = 8
 934              		@ frame_needed = 1, uses_anonymous_args = 0
ARM GAS  C:\Users\dmtucker\AppData\Local\Temp\ccE6jVLi.s 			page 31


 935 0000 80B5     		push	{r7, lr}
 936              	.LCFI36:
 937              		.cfi_def_cfa_offset 8
 938 0002 82B0     		sub	sp, sp, #8
 939              	.LCFI37:
 940              		.cfi_def_cfa_offset 16
 941 0004 00AF     		add	r7, sp, #0
 942              		.cfi_offset 14, -4
 943              		.cfi_offset 7, -8
 944              	.LCFI38:
 945              		.cfi_def_cfa_register 7
 773:.\Generated_Source\PSoC5/UART.c ****         uint8 enableInterrupts;
 774:.\Generated_Source\PSoC5/UART.c **** 
 775:.\Generated_Source\PSoC5/UART.c ****         /* clear the HW FIFO */
 776:.\Generated_Source\PSoC5/UART.c ****         /* Enter critical section */
 777:.\Generated_Source\PSoC5/UART.c ****         enableInterrupts = CyEnterCriticalSection();
 946              		.loc 1 777 0
 947 0006 FFF7FEFF 		bl	CyEnterCriticalSection
 948 000a 0346     		mov	r3, r0
 949 000c FB71     		strb	r3, [r7, #7]
 778:.\Generated_Source\PSoC5/UART.c ****         UART_RXDATA_AUX_CTL_REG |=  UART_RX_FIFO_CLR;
 950              		.loc 1 778 0
 951 000e 46F29243 		movw	r3, #:lower16:1073767570
 952 0012 C4F20003 		movt	r3, #:upper16:1073767570
 953 0016 46F29242 		movw	r2, #:lower16:1073767570
 954 001a C4F20002 		movt	r2, #:upper16:1073767570
 955 001e 1278     		ldrb	r2, [r2, #0]
 956 0020 D2B2     		uxtb	r2, r2
 957 0022 42F00102 		orr	r2, r2, #1
 958 0026 D2B2     		uxtb	r2, r2
 959 0028 1A70     		strb	r2, [r3, #0]
 779:.\Generated_Source\PSoC5/UART.c ****         UART_RXDATA_AUX_CTL_REG &= (uint8)~UART_RX_FIFO_CLR;
 960              		.loc 1 779 0
 961 002a 46F29243 		movw	r3, #:lower16:1073767570
 962 002e C4F20003 		movt	r3, #:upper16:1073767570
 963 0032 46F29242 		movw	r2, #:lower16:1073767570
 964 0036 C4F20002 		movt	r2, #:upper16:1073767570
 965 003a 1278     		ldrb	r2, [r2, #0]
 966 003c D2B2     		uxtb	r2, r2
 967 003e 02F0FE02 		and	r2, r2, #254
 968 0042 1A70     		strb	r2, [r3, #0]
 780:.\Generated_Source\PSoC5/UART.c ****         /* Exit critical section */
 781:.\Generated_Source\PSoC5/UART.c ****         CyExitCriticalSection(enableInterrupts);
 969              		.loc 1 781 0
 970 0044 FB79     		ldrb	r3, [r7, #7]	@ zero_extendqisi2
 971 0046 1846     		mov	r0, r3
 972 0048 FFF7FEFF 		bl	CyExitCriticalSection
 782:.\Generated_Source\PSoC5/UART.c **** 
 783:.\Generated_Source\PSoC5/UART.c ****         #if(UART_RXBUFFERSIZE > UART_FIFO_LENGTH)
 784:.\Generated_Source\PSoC5/UART.c ****             /* Disable Rx interrupt. */
 785:.\Generated_Source\PSoC5/UART.c ****             /* Protect variables that could change on interrupt. */
 786:.\Generated_Source\PSoC5/UART.c ****             #if(UART_RX_INTERRUPT_ENABLED)
 787:.\Generated_Source\PSoC5/UART.c ****                 UART_DisableRxInt();
 973              		.loc 1 787 0
 974 004c FFF7FEFF 		bl	UART_DisableRxInt
 788:.\Generated_Source\PSoC5/UART.c ****             #endif /* End UART_RX_INTERRUPT_ENABLED */
 789:.\Generated_Source\PSoC5/UART.c **** 
ARM GAS  C:\Users\dmtucker\AppData\Local\Temp\ccE6jVLi.s 			page 32


 790:.\Generated_Source\PSoC5/UART.c ****             UART_rxBufferRead = 0u;
 975              		.loc 1 790 0
 976 0050 40F20003 		movw	r3, #:lower16:UART_rxBufferRead
 977 0054 C0F20003 		movt	r3, #:upper16:UART_rxBufferRead
 978 0058 4FF00002 		mov	r2, #0
 979 005c 1A70     		strb	r2, [r3, #0]
 791:.\Generated_Source\PSoC5/UART.c ****             UART_rxBufferWrite = 0u;
 980              		.loc 1 791 0
 981 005e 40F20003 		movw	r3, #:lower16:UART_rxBufferWrite
 982 0062 C0F20003 		movt	r3, #:upper16:UART_rxBufferWrite
 983 0066 4FF00002 		mov	r2, #0
 984 006a 1A70     		strb	r2, [r3, #0]
 792:.\Generated_Source\PSoC5/UART.c ****             UART_rxBufferLoopDetect = 0u;
 985              		.loc 1 792 0
 986 006c 40F20003 		movw	r3, #:lower16:UART_rxBufferLoopDetect
 987 0070 C0F20003 		movt	r3, #:upper16:UART_rxBufferLoopDetect
 988 0074 4FF00002 		mov	r2, #0
 989 0078 1A70     		strb	r2, [r3, #0]
 793:.\Generated_Source\PSoC5/UART.c ****             UART_rxBufferOverflow = 0u;
 990              		.loc 1 793 0
 991 007a 40F20003 		movw	r3, #:lower16:UART_rxBufferOverflow
 992 007e C0F20003 		movt	r3, #:upper16:UART_rxBufferOverflow
 993 0082 4FF00002 		mov	r2, #0
 994 0086 1A70     		strb	r2, [r3, #0]
 794:.\Generated_Source\PSoC5/UART.c **** 
 795:.\Generated_Source\PSoC5/UART.c ****             /* Enable Rx interrupt. */
 796:.\Generated_Source\PSoC5/UART.c ****             #if(UART_RX_INTERRUPT_ENABLED)
 797:.\Generated_Source\PSoC5/UART.c ****                 UART_EnableRxInt();
 995              		.loc 1 797 0
 996 0088 FFF7FEFF 		bl	UART_EnableRxInt
 798:.\Generated_Source\PSoC5/UART.c ****             #endif /* End UART_RX_INTERRUPT_ENABLED */
 799:.\Generated_Source\PSoC5/UART.c ****         #endif /* End UART_RXBUFFERSIZE > UART_FIFO_LENGTH */
 800:.\Generated_Source\PSoC5/UART.c **** 
 801:.\Generated_Source\PSoC5/UART.c ****     }
 997              		.loc 1 801 0
 998 008c 07F10807 		add	r7, r7, #8
 999 0090 BD46     		mov	sp, r7
 1000 0092 80BD     		pop	{r7, pc}
 1001              		.cfi_endproc
 1002              	.LFE14:
 1003              		.size	UART_ClearRxBuffer, .-UART_ClearRxBuffer
 1004              		.section	.text.UART_SetRxAddressMode,"ax",%progbits
 1005              		.align	2
 1006              		.global	UART_SetRxAddressMode
 1007              		.thumb
 1008              		.thumb_func
 1009              		.type	UART_SetRxAddressMode, %function
 1010              	UART_SetRxAddressMode:
 1011              	.LFB15:
 802:.\Generated_Source\PSoC5/UART.c **** 
 803:.\Generated_Source\PSoC5/UART.c **** 
 804:.\Generated_Source\PSoC5/UART.c ****     /*******************************************************************************
 805:.\Generated_Source\PSoC5/UART.c ****     * Function Name: UART_SetRxAddressMode
 806:.\Generated_Source\PSoC5/UART.c ****     ********************************************************************************
 807:.\Generated_Source\PSoC5/UART.c ****     *
 808:.\Generated_Source\PSoC5/UART.c ****     * Summary:
 809:.\Generated_Source\PSoC5/UART.c ****     *  Set the receive addressing mode
ARM GAS  C:\Users\dmtucker\AppData\Local\Temp\ccE6jVLi.s 			page 33


 810:.\Generated_Source\PSoC5/UART.c ****     *
 811:.\Generated_Source\PSoC5/UART.c ****     * Parameters:
 812:.\Generated_Source\PSoC5/UART.c ****     *  addressMode: Enumerated value indicating the mode of RX addressing
 813:.\Generated_Source\PSoC5/UART.c ****     *  UART__B_UART__AM_SW_BYTE_BYTE -  Software Byte-by-Byte address
 814:.\Generated_Source\PSoC5/UART.c ****     *                                               detection
 815:.\Generated_Source\PSoC5/UART.c ****     *  UART__B_UART__AM_SW_DETECT_TO_BUFFER - Software Detect to Buffer
 816:.\Generated_Source\PSoC5/UART.c ****     *                                               address detection
 817:.\Generated_Source\PSoC5/UART.c ****     *  UART__B_UART__AM_HW_BYTE_BY_BYTE - Hardware Byte-by-Byte address
 818:.\Generated_Source\PSoC5/UART.c ****     *                                               detection
 819:.\Generated_Source\PSoC5/UART.c ****     *  UART__B_UART__AM_HW_DETECT_TO_BUFFER - Hardware Detect to Buffer
 820:.\Generated_Source\PSoC5/UART.c ****     *                                               address detection
 821:.\Generated_Source\PSoC5/UART.c ****     *  UART__B_UART__AM_NONE - No address detection
 822:.\Generated_Source\PSoC5/UART.c ****     *
 823:.\Generated_Source\PSoC5/UART.c ****     * Return:
 824:.\Generated_Source\PSoC5/UART.c ****     *  None.
 825:.\Generated_Source\PSoC5/UART.c ****     *
 826:.\Generated_Source\PSoC5/UART.c ****     * Global Variables:
 827:.\Generated_Source\PSoC5/UART.c ****     *  UART_rxAddressMode - the parameter stored in this variable for
 828:.\Generated_Source\PSoC5/UART.c ****     *   the farther usage in RX ISR.
 829:.\Generated_Source\PSoC5/UART.c ****     *  UART_rxAddressDetected - set to initial state (0).
 830:.\Generated_Source\PSoC5/UART.c ****     *
 831:.\Generated_Source\PSoC5/UART.c ****     *******************************************************************************/
 832:.\Generated_Source\PSoC5/UART.c ****     void UART_SetRxAddressMode(uint8 addressMode)
 833:.\Generated_Source\PSoC5/UART.c ****                                                         
 834:.\Generated_Source\PSoC5/UART.c ****     {
 1012              		.loc 1 834 0
 1013              		.cfi_startproc
 1014              		@ args = 0, pretend = 0, frame = 8
 1015              		@ frame_needed = 1, uses_anonymous_args = 0
 1016              		@ link register save eliminated.
 1017 0000 80B4     		push	{r7}
 1018              	.LCFI39:
 1019              		.cfi_def_cfa_offset 4
 1020 0002 83B0     		sub	sp, sp, #12
 1021              	.LCFI40:
 1022              		.cfi_def_cfa_offset 16
 1023 0004 00AF     		add	r7, sp, #0
 1024              		.cfi_offset 7, -4
 1025              	.LCFI41:
 1026              		.cfi_def_cfa_register 7
 1027 0006 0346     		mov	r3, r0
 1028 0008 FB71     		strb	r3, [r7, #7]
 835:.\Generated_Source\PSoC5/UART.c ****         #if(UART_RXHW_ADDRESS_ENABLED)
 836:.\Generated_Source\PSoC5/UART.c ****             #if(UART_CONTROL_REG_REMOVED)
 837:.\Generated_Source\PSoC5/UART.c ****                 if(addressMode != 0u) { }     /* release compiler warning */
 838:.\Generated_Source\PSoC5/UART.c ****             #else /* UART_CONTROL_REG_REMOVED */
 839:.\Generated_Source\PSoC5/UART.c ****                 uint8 tmpCtrl;
 840:.\Generated_Source\PSoC5/UART.c ****                 tmpCtrl = UART_CONTROL_REG & (uint8)~UART_CTRL_RXADDR_MODE_MASK;
 841:.\Generated_Source\PSoC5/UART.c ****                 tmpCtrl |= (uint8)(addressMode << UART_CTRL_RXADDR_MODE0_SHIFT);
 842:.\Generated_Source\PSoC5/UART.c ****                 UART_CONTROL_REG = tmpCtrl;
 843:.\Generated_Source\PSoC5/UART.c ****                 #if(UART_RX_INTERRUPT_ENABLED && \
 844:.\Generated_Source\PSoC5/UART.c ****                    (UART_RXBUFFERSIZE > UART_FIFO_LENGTH) )
 845:.\Generated_Source\PSoC5/UART.c ****                     UART_rxAddressMode = addressMode;
 846:.\Generated_Source\PSoC5/UART.c ****                     UART_rxAddressDetected = 0u;
 847:.\Generated_Source\PSoC5/UART.c ****                 #endif /* End UART_RXBUFFERSIZE > UART_FIFO_LENGTH*/
 848:.\Generated_Source\PSoC5/UART.c ****             #endif /* End UART_CONTROL_REG_REMOVED */
 849:.\Generated_Source\PSoC5/UART.c ****         #else /* UART_RXHW_ADDRESS_ENABLED */
ARM GAS  C:\Users\dmtucker\AppData\Local\Temp\ccE6jVLi.s 			page 34


 850:.\Generated_Source\PSoC5/UART.c ****             if(addressMode != 0u) { }     /* release compiler warning */
 851:.\Generated_Source\PSoC5/UART.c ****         #endif /* End UART_RXHW_ADDRESS_ENABLED */
 852:.\Generated_Source\PSoC5/UART.c ****     }
 1029              		.loc 1 852 0
 1030 000a 07F10C07 		add	r7, r7, #12
 1031 000e BD46     		mov	sp, r7
 1032 0010 80BC     		pop	{r7}
 1033 0012 7047     		bx	lr
 1034              		.cfi_endproc
 1035              	.LFE15:
 1036              		.size	UART_SetRxAddressMode, .-UART_SetRxAddressMode
 1037              		.section	.text.UART_SetRxAddress1,"ax",%progbits
 1038              		.align	2
 1039              		.global	UART_SetRxAddress1
 1040              		.thumb
 1041              		.thumb_func
 1042              		.type	UART_SetRxAddress1, %function
 1043              	UART_SetRxAddress1:
 1044              	.LFB16:
 853:.\Generated_Source\PSoC5/UART.c **** 
 854:.\Generated_Source\PSoC5/UART.c **** 
 855:.\Generated_Source\PSoC5/UART.c ****     /*******************************************************************************
 856:.\Generated_Source\PSoC5/UART.c ****     * Function Name: UART_SetRxAddress1
 857:.\Generated_Source\PSoC5/UART.c ****     ********************************************************************************
 858:.\Generated_Source\PSoC5/UART.c ****     *
 859:.\Generated_Source\PSoC5/UART.c ****     * Summary:
 860:.\Generated_Source\PSoC5/UART.c ****     *  Set the first hardware address compare value
 861:.\Generated_Source\PSoC5/UART.c ****     *
 862:.\Generated_Source\PSoC5/UART.c ****     * Parameters:
 863:.\Generated_Source\PSoC5/UART.c ****     *  address
 864:.\Generated_Source\PSoC5/UART.c ****     *
 865:.\Generated_Source\PSoC5/UART.c ****     * Return:
 866:.\Generated_Source\PSoC5/UART.c ****     *  None.
 867:.\Generated_Source\PSoC5/UART.c ****     *
 868:.\Generated_Source\PSoC5/UART.c ****     *******************************************************************************/
 869:.\Generated_Source\PSoC5/UART.c ****     void UART_SetRxAddress1(uint8 address) 
 870:.\Generated_Source\PSoC5/UART.c **** 
 871:.\Generated_Source\PSoC5/UART.c ****     {
 1045              		.loc 1 871 0
 1046              		.cfi_startproc
 1047              		@ args = 0, pretend = 0, frame = 8
 1048              		@ frame_needed = 1, uses_anonymous_args = 0
 1049              		@ link register save eliminated.
 1050 0000 80B4     		push	{r7}
 1051              	.LCFI42:
 1052              		.cfi_def_cfa_offset 4
 1053 0002 83B0     		sub	sp, sp, #12
 1054              	.LCFI43:
 1055              		.cfi_def_cfa_offset 16
 1056 0004 00AF     		add	r7, sp, #0
 1057              		.cfi_offset 7, -4
 1058              	.LCFI44:
 1059              		.cfi_def_cfa_register 7
 1060 0006 0346     		mov	r3, r0
 1061 0008 FB71     		strb	r3, [r7, #7]
 872:.\Generated_Source\PSoC5/UART.c ****         UART_RXADDRESS1_REG = address;
 1062              		.loc 1 872 0
ARM GAS  C:\Users\dmtucker\AppData\Local\Temp\ccE6jVLi.s 			page 35


 1063 000a 46F22243 		movw	r3, #:lower16:1073767458
 1064 000e C4F20003 		movt	r3, #:upper16:1073767458
 1065 0012 FA79     		ldrb	r2, [r7, #7]
 1066 0014 1A70     		strb	r2, [r3, #0]
 873:.\Generated_Source\PSoC5/UART.c ****     }
 1067              		.loc 1 873 0
 1068 0016 07F10C07 		add	r7, r7, #12
 1069 001a BD46     		mov	sp, r7
 1070 001c 80BC     		pop	{r7}
 1071 001e 7047     		bx	lr
 1072              		.cfi_endproc
 1073              	.LFE16:
 1074              		.size	UART_SetRxAddress1, .-UART_SetRxAddress1
 1075              		.section	.text.UART_SetRxAddress2,"ax",%progbits
 1076              		.align	2
 1077              		.global	UART_SetRxAddress2
 1078              		.thumb
 1079              		.thumb_func
 1080              		.type	UART_SetRxAddress2, %function
 1081              	UART_SetRxAddress2:
 1082              	.LFB17:
 874:.\Generated_Source\PSoC5/UART.c **** 
 875:.\Generated_Source\PSoC5/UART.c **** 
 876:.\Generated_Source\PSoC5/UART.c ****     /*******************************************************************************
 877:.\Generated_Source\PSoC5/UART.c ****     * Function Name: UART_SetRxAddress2
 878:.\Generated_Source\PSoC5/UART.c ****     ********************************************************************************
 879:.\Generated_Source\PSoC5/UART.c ****     *
 880:.\Generated_Source\PSoC5/UART.c ****     * Summary:
 881:.\Generated_Source\PSoC5/UART.c ****     *  Set the second hardware address compare value
 882:.\Generated_Source\PSoC5/UART.c ****     *
 883:.\Generated_Source\PSoC5/UART.c ****     * Parameters:
 884:.\Generated_Source\PSoC5/UART.c ****     *  address
 885:.\Generated_Source\PSoC5/UART.c ****     *
 886:.\Generated_Source\PSoC5/UART.c ****     * Return:
 887:.\Generated_Source\PSoC5/UART.c ****     *  None.
 888:.\Generated_Source\PSoC5/UART.c ****     *
 889:.\Generated_Source\PSoC5/UART.c ****     *******************************************************************************/
 890:.\Generated_Source\PSoC5/UART.c ****     void UART_SetRxAddress2(uint8 address) 
 891:.\Generated_Source\PSoC5/UART.c ****     {
 1083              		.loc 1 891 0
 1084              		.cfi_startproc
 1085              		@ args = 0, pretend = 0, frame = 8
 1086              		@ frame_needed = 1, uses_anonymous_args = 0
 1087              		@ link register save eliminated.
 1088 0000 80B4     		push	{r7}
 1089              	.LCFI45:
 1090              		.cfi_def_cfa_offset 4
 1091 0002 83B0     		sub	sp, sp, #12
 1092              	.LCFI46:
 1093              		.cfi_def_cfa_offset 16
 1094 0004 00AF     		add	r7, sp, #0
 1095              		.cfi_offset 7, -4
 1096              	.LCFI47:
 1097              		.cfi_def_cfa_register 7
 1098 0006 0346     		mov	r3, r0
 1099 0008 FB71     		strb	r3, [r7, #7]
 892:.\Generated_Source\PSoC5/UART.c ****         UART_RXADDRESS2_REG = address;
ARM GAS  C:\Users\dmtucker\AppData\Local\Temp\ccE6jVLi.s 			page 36


 1100              		.loc 1 892 0
 1101 000a 46F23243 		movw	r3, #:lower16:1073767474
 1102 000e C4F20003 		movt	r3, #:upper16:1073767474
 1103 0012 FA79     		ldrb	r2, [r7, #7]
 1104 0014 1A70     		strb	r2, [r3, #0]
 893:.\Generated_Source\PSoC5/UART.c ****     }
 1105              		.loc 1 893 0
 1106 0016 07F10C07 		add	r7, r7, #12
 1107 001a BD46     		mov	sp, r7
 1108 001c 80BC     		pop	{r7}
 1109 001e 7047     		bx	lr
 1110              		.cfi_endproc
 1111              	.LFE17:
 1112              		.size	UART_SetRxAddress2, .-UART_SetRxAddress2
 1113              		.section	.text.UART_EnableTxInt,"ax",%progbits
 1114              		.align	2
 1115              		.global	UART_EnableTxInt
 1116              		.thumb
 1117              		.thumb_func
 1118              		.type	UART_EnableTxInt, %function
 1119              	UART_EnableTxInt:
 1120              	.LFB18:
 894:.\Generated_Source\PSoC5/UART.c **** 
 895:.\Generated_Source\PSoC5/UART.c **** #endif  /* UART_RX_ENABLED || UART_HD_ENABLED*/
 896:.\Generated_Source\PSoC5/UART.c **** 
 897:.\Generated_Source\PSoC5/UART.c **** 
 898:.\Generated_Source\PSoC5/UART.c **** #if( (UART_TX_ENABLED) || (UART_HD_ENABLED) )
 899:.\Generated_Source\PSoC5/UART.c **** 
 900:.\Generated_Source\PSoC5/UART.c ****     #if(UART_TX_INTERRUPT_ENABLED)
 901:.\Generated_Source\PSoC5/UART.c **** 
 902:.\Generated_Source\PSoC5/UART.c ****         /*******************************************************************************
 903:.\Generated_Source\PSoC5/UART.c ****         * Function Name: UART_EnableTxInt
 904:.\Generated_Source\PSoC5/UART.c ****         ********************************************************************************
 905:.\Generated_Source\PSoC5/UART.c ****         *
 906:.\Generated_Source\PSoC5/UART.c ****         * Summary:
 907:.\Generated_Source\PSoC5/UART.c ****         *  Enable TX interrupt generation
 908:.\Generated_Source\PSoC5/UART.c ****         *
 909:.\Generated_Source\PSoC5/UART.c ****         * Parameters:
 910:.\Generated_Source\PSoC5/UART.c ****         *  None.
 911:.\Generated_Source\PSoC5/UART.c ****         *
 912:.\Generated_Source\PSoC5/UART.c ****         * Return:
 913:.\Generated_Source\PSoC5/UART.c ****         *  None.
 914:.\Generated_Source\PSoC5/UART.c ****         *
 915:.\Generated_Source\PSoC5/UART.c ****         * Theory:
 916:.\Generated_Source\PSoC5/UART.c ****         *  Enable the interrupt output -or- the interrupt component itself
 917:.\Generated_Source\PSoC5/UART.c ****         *
 918:.\Generated_Source\PSoC5/UART.c ****         *******************************************************************************/
 919:.\Generated_Source\PSoC5/UART.c ****         void UART_EnableTxInt(void) 
 920:.\Generated_Source\PSoC5/UART.c ****         {
 1121              		.loc 1 920 0
 1122              		.cfi_startproc
 1123              		@ args = 0, pretend = 0, frame = 0
 1124              		@ frame_needed = 1, uses_anonymous_args = 0
 1125              		@ link register save eliminated.
 1126 0000 80B4     		push	{r7}
 1127              	.LCFI48:
 1128              		.cfi_def_cfa_offset 4
ARM GAS  C:\Users\dmtucker\AppData\Local\Temp\ccE6jVLi.s 			page 37


 1129 0002 00AF     		add	r7, sp, #0
 1130              		.cfi_offset 7, -4
 1131              	.LCFI49:
 1132              		.cfi_def_cfa_register 7
 921:.\Generated_Source\PSoC5/UART.c ****             CyIntEnable(UART_TX_VECT_NUM);
 1133              		.loc 1 921 0
 1134 0004 4EF20013 		movw	r3, #:lower16:-536813312
 1135 0008 CEF20003 		movt	r3, #:upper16:-536813312
 1136 000c 4FF00202 		mov	r2, #2
 1137 0010 1A60     		str	r2, [r3, #0]
 922:.\Generated_Source\PSoC5/UART.c ****         }
 1138              		.loc 1 922 0
 1139 0012 BD46     		mov	sp, r7
 1140 0014 80BC     		pop	{r7}
 1141 0016 7047     		bx	lr
 1142              		.cfi_endproc
 1143              	.LFE18:
 1144              		.size	UART_EnableTxInt, .-UART_EnableTxInt
 1145              		.section	.text.UART_DisableTxInt,"ax",%progbits
 1146              		.align	2
 1147              		.global	UART_DisableTxInt
 1148              		.thumb
 1149              		.thumb_func
 1150              		.type	UART_DisableTxInt, %function
 1151              	UART_DisableTxInt:
 1152              	.LFB19:
 923:.\Generated_Source\PSoC5/UART.c **** 
 924:.\Generated_Source\PSoC5/UART.c **** 
 925:.\Generated_Source\PSoC5/UART.c ****         /*******************************************************************************
 926:.\Generated_Source\PSoC5/UART.c ****         * Function Name: UART_DisableTxInt
 927:.\Generated_Source\PSoC5/UART.c ****         ********************************************************************************
 928:.\Generated_Source\PSoC5/UART.c ****         *
 929:.\Generated_Source\PSoC5/UART.c ****         * Summary:
 930:.\Generated_Source\PSoC5/UART.c ****         *  Disable TX interrupt generation
 931:.\Generated_Source\PSoC5/UART.c ****         *
 932:.\Generated_Source\PSoC5/UART.c ****         * Parameters:
 933:.\Generated_Source\PSoC5/UART.c ****         *  None.
 934:.\Generated_Source\PSoC5/UART.c ****         *
 935:.\Generated_Source\PSoC5/UART.c ****         * Return:
 936:.\Generated_Source\PSoC5/UART.c ****         *  None.
 937:.\Generated_Source\PSoC5/UART.c ****         *
 938:.\Generated_Source\PSoC5/UART.c ****         * Theory:
 939:.\Generated_Source\PSoC5/UART.c ****         *  Disable the interrupt output -or- the interrupt component itself
 940:.\Generated_Source\PSoC5/UART.c ****         *
 941:.\Generated_Source\PSoC5/UART.c ****         *******************************************************************************/
 942:.\Generated_Source\PSoC5/UART.c ****         void UART_DisableTxInt(void) 
 943:.\Generated_Source\PSoC5/UART.c ****         {
 1153              		.loc 1 943 0
 1154              		.cfi_startproc
 1155              		@ args = 0, pretend = 0, frame = 0
 1156              		@ frame_needed = 1, uses_anonymous_args = 0
 1157              		@ link register save eliminated.
 1158 0000 80B4     		push	{r7}
 1159              	.LCFI50:
 1160              		.cfi_def_cfa_offset 4
 1161 0002 00AF     		add	r7, sp, #0
 1162              		.cfi_offset 7, -4
ARM GAS  C:\Users\dmtucker\AppData\Local\Temp\ccE6jVLi.s 			page 38


 1163              	.LCFI51:
 1164              		.cfi_def_cfa_register 7
 944:.\Generated_Source\PSoC5/UART.c ****             CyIntDisable(UART_TX_VECT_NUM);
 1165              		.loc 1 944 0
 1166 0004 4EF28013 		movw	r3, #:lower16:-536813184
 1167 0008 CEF20003 		movt	r3, #:upper16:-536813184
 1168 000c 4FF00202 		mov	r2, #2
 1169 0010 1A60     		str	r2, [r3, #0]
 945:.\Generated_Source\PSoC5/UART.c ****         }
 1170              		.loc 1 945 0
 1171 0012 BD46     		mov	sp, r7
 1172 0014 80BC     		pop	{r7}
 1173 0016 7047     		bx	lr
 1174              		.cfi_endproc
 1175              	.LFE19:
 1176              		.size	UART_DisableTxInt, .-UART_DisableTxInt
 1177              		.section	.text.UART_SetTxInterruptMode,"ax",%progbits
 1178              		.align	2
 1179              		.global	UART_SetTxInterruptMode
 1180              		.thumb
 1181              		.thumb_func
 1182              		.type	UART_SetTxInterruptMode, %function
 1183              	UART_SetTxInterruptMode:
 1184              	.LFB20:
 946:.\Generated_Source\PSoC5/UART.c **** 
 947:.\Generated_Source\PSoC5/UART.c ****     #endif /* UART_TX_INTERRUPT_ENABLED */
 948:.\Generated_Source\PSoC5/UART.c **** 
 949:.\Generated_Source\PSoC5/UART.c **** 
 950:.\Generated_Source\PSoC5/UART.c ****     /*******************************************************************************
 951:.\Generated_Source\PSoC5/UART.c ****     * Function Name: UART_SetTxInterruptMode
 952:.\Generated_Source\PSoC5/UART.c ****     ********************************************************************************
 953:.\Generated_Source\PSoC5/UART.c ****     *
 954:.\Generated_Source\PSoC5/UART.c ****     * Summary:
 955:.\Generated_Source\PSoC5/UART.c ****     *  Configure which status bits trigger an interrupt event
 956:.\Generated_Source\PSoC5/UART.c ****     *
 957:.\Generated_Source\PSoC5/UART.c ****     * Parameters:
 958:.\Generated_Source\PSoC5/UART.c ****     *  intSrc: An or'd combination of the desired status bit masks (defined in
 959:.\Generated_Source\PSoC5/UART.c ****     *          the header file)
 960:.\Generated_Source\PSoC5/UART.c ****     *
 961:.\Generated_Source\PSoC5/UART.c ****     * Return:
 962:.\Generated_Source\PSoC5/UART.c ****     *  None.
 963:.\Generated_Source\PSoC5/UART.c ****     *
 964:.\Generated_Source\PSoC5/UART.c ****     * Theory:
 965:.\Generated_Source\PSoC5/UART.c ****     *  Enables the output of specific status bits to the interrupt controller
 966:.\Generated_Source\PSoC5/UART.c ****     *
 967:.\Generated_Source\PSoC5/UART.c ****     *******************************************************************************/
 968:.\Generated_Source\PSoC5/UART.c ****     void UART_SetTxInterruptMode(uint8 intSrc) 
 969:.\Generated_Source\PSoC5/UART.c ****     {
 1185              		.loc 1 969 0
 1186              		.cfi_startproc
 1187              		@ args = 0, pretend = 0, frame = 8
 1188              		@ frame_needed = 1, uses_anonymous_args = 0
 1189              		@ link register save eliminated.
 1190 0000 80B4     		push	{r7}
 1191              	.LCFI52:
 1192              		.cfi_def_cfa_offset 4
 1193 0002 83B0     		sub	sp, sp, #12
ARM GAS  C:\Users\dmtucker\AppData\Local\Temp\ccE6jVLi.s 			page 39


 1194              	.LCFI53:
 1195              		.cfi_def_cfa_offset 16
 1196 0004 00AF     		add	r7, sp, #0
 1197              		.cfi_offset 7, -4
 1198              	.LCFI54:
 1199              		.cfi_def_cfa_register 7
 1200 0006 0346     		mov	r3, r0
 1201 0008 FB71     		strb	r3, [r7, #7]
 970:.\Generated_Source\PSoC5/UART.c ****         UART_TXSTATUS_MASK_REG = intSrc;
 1202              		.loc 1 970 0
 1203 000a 46F28443 		movw	r3, #:lower16:1073767556
 1204 000e C4F20003 		movt	r3, #:upper16:1073767556
 1205 0012 FA79     		ldrb	r2, [r7, #7]
 1206 0014 1A70     		strb	r2, [r3, #0]
 971:.\Generated_Source\PSoC5/UART.c ****     }
 1207              		.loc 1 971 0
 1208 0016 07F10C07 		add	r7, r7, #12
 1209 001a BD46     		mov	sp, r7
 1210 001c 80BC     		pop	{r7}
 1211 001e 7047     		bx	lr
 1212              		.cfi_endproc
 1213              	.LFE20:
 1214              		.size	UART_SetTxInterruptMode, .-UART_SetTxInterruptMode
 1215              		.section	.text.UART_WriteTxData,"ax",%progbits
 1216              		.align	2
 1217              		.global	UART_WriteTxData
 1218              		.thumb
 1219              		.thumb_func
 1220              		.type	UART_WriteTxData, %function
 1221              	UART_WriteTxData:
 1222              	.LFB21:
 972:.\Generated_Source\PSoC5/UART.c **** 
 973:.\Generated_Source\PSoC5/UART.c **** 
 974:.\Generated_Source\PSoC5/UART.c ****     /*******************************************************************************
 975:.\Generated_Source\PSoC5/UART.c ****     * Function Name: UART_WriteTxData
 976:.\Generated_Source\PSoC5/UART.c ****     ********************************************************************************
 977:.\Generated_Source\PSoC5/UART.c ****     *
 978:.\Generated_Source\PSoC5/UART.c ****     * Summary:
 979:.\Generated_Source\PSoC5/UART.c ****     *  Write a byte of data to the Transmit FIFO or TX buffer to be sent when the
 980:.\Generated_Source\PSoC5/UART.c ****     *  bus is available. WriteTxData sends a byte without checking for buffer room
 981:.\Generated_Source\PSoC5/UART.c ****     *  or status. It is up to the user to separately check status.
 982:.\Generated_Source\PSoC5/UART.c ****     *
 983:.\Generated_Source\PSoC5/UART.c ****     * Parameters:
 984:.\Generated_Source\PSoC5/UART.c ****     *  TXDataByte: byte of data to place in the transmit FIFO
 985:.\Generated_Source\PSoC5/UART.c ****     *
 986:.\Generated_Source\PSoC5/UART.c ****     * Return:
 987:.\Generated_Source\PSoC5/UART.c ****     * void
 988:.\Generated_Source\PSoC5/UART.c ****     *
 989:.\Generated_Source\PSoC5/UART.c ****     * Global Variables:
 990:.\Generated_Source\PSoC5/UART.c ****     *  UART_txBuffer - RAM buffer pointer for save data for transmission
 991:.\Generated_Source\PSoC5/UART.c ****     *  UART_txBufferWrite - cyclic index for write to txBuffer,
 992:.\Generated_Source\PSoC5/UART.c ****     *    incremented after each byte saved to buffer.
 993:.\Generated_Source\PSoC5/UART.c ****     *  UART_txBufferRead - cyclic index for read from txBuffer,
 994:.\Generated_Source\PSoC5/UART.c ****     *    checked to identify the condition to write to FIFO directly or to TX buffer
 995:.\Generated_Source\PSoC5/UART.c ****     *  UART_initVar - checked to identify that the component has been
 996:.\Generated_Source\PSoC5/UART.c ****     *    initialized.
 997:.\Generated_Source\PSoC5/UART.c ****     *
ARM GAS  C:\Users\dmtucker\AppData\Local\Temp\ccE6jVLi.s 			page 40


 998:.\Generated_Source\PSoC5/UART.c ****     * Reentrant:
 999:.\Generated_Source\PSoC5/UART.c ****     *  No.
1000:.\Generated_Source\PSoC5/UART.c ****     *
1001:.\Generated_Source\PSoC5/UART.c ****     *******************************************************************************/
1002:.\Generated_Source\PSoC5/UART.c ****     void UART_WriteTxData(uint8 txDataByte) 
1003:.\Generated_Source\PSoC5/UART.c ****     {
 1223              		.loc 1 1003 0
 1224              		.cfi_startproc
 1225              		@ args = 0, pretend = 0, frame = 8
 1226              		@ frame_needed = 1, uses_anonymous_args = 0
 1227 0000 80B5     		push	{r7, lr}
 1228              	.LCFI55:
 1229              		.cfi_def_cfa_offset 8
 1230 0002 82B0     		sub	sp, sp, #8
 1231              	.LCFI56:
 1232              		.cfi_def_cfa_offset 16
 1233 0004 00AF     		add	r7, sp, #0
 1234              		.cfi_offset 14, -4
 1235              		.cfi_offset 7, -8
 1236              	.LCFI57:
 1237              		.cfi_def_cfa_register 7
 1238 0006 0346     		mov	r3, r0
 1239 0008 FB71     		strb	r3, [r7, #7]
1004:.\Generated_Source\PSoC5/UART.c ****         /* If not Initialized then skip this function*/
1005:.\Generated_Source\PSoC5/UART.c ****         if(UART_initVar != 0u)
 1240              		.loc 1 1005 0
 1241 000a 40F20003 		movw	r3, #:lower16:UART_initVar
 1242 000e C0F20003 		movt	r3, #:upper16:UART_initVar
 1243 0012 1B78     		ldrb	r3, [r3, #0]	@ zero_extendqisi2
 1244 0014 002B     		cmp	r3, #0
 1245 0016 48D0     		beq	.L67
1006:.\Generated_Source\PSoC5/UART.c ****         {
1007:.\Generated_Source\PSoC5/UART.c ****             #if(UART_TXBUFFERSIZE > UART_FIFO_LENGTH)
1008:.\Generated_Source\PSoC5/UART.c **** 
1009:.\Generated_Source\PSoC5/UART.c ****                 /* Disable Tx interrupt. */
1010:.\Generated_Source\PSoC5/UART.c ****                 /* Protect variables that could change on interrupt. */
1011:.\Generated_Source\PSoC5/UART.c ****                 #if(UART_TX_INTERRUPT_ENABLED)
1012:.\Generated_Source\PSoC5/UART.c ****                     UART_DisableTxInt();
 1246              		.loc 1 1012 0
 1247 0018 FFF7FEFF 		bl	UART_DisableTxInt
1013:.\Generated_Source\PSoC5/UART.c ****                 #endif /* End UART_TX_INTERRUPT_ENABLED */
1014:.\Generated_Source\PSoC5/UART.c **** 
1015:.\Generated_Source\PSoC5/UART.c ****                 if( (UART_txBufferRead == UART_txBufferWrite) &&
 1248              		.loc 1 1015 0
 1249 001c 40F20003 		movw	r3, #:lower16:UART_txBufferRead
 1250 0020 C0F20003 		movt	r3, #:upper16:UART_txBufferRead
 1251 0024 1B78     		ldrb	r3, [r3, #0]
 1252 0026 DAB2     		uxtb	r2, r3
 1253 0028 40F20003 		movw	r3, #:lower16:UART_txBufferWrite
 1254 002c C0F20003 		movt	r3, #:upper16:UART_txBufferWrite
 1255 0030 1B78     		ldrb	r3, [r3, #0]	@ zero_extendqisi2
 1256 0032 9A42     		cmp	r2, r3
 1257 0034 10D1     		bne	.L64
1016:.\Generated_Source\PSoC5/UART.c ****                     ((UART_TXSTATUS_REG & UART_TX_STS_FIFO_FULL) == 0u) )
 1258              		.loc 1 1016 0
 1259 0036 46F26443 		movw	r3, #:lower16:1073767524
 1260 003a C4F20003 		movt	r3, #:upper16:1073767524
ARM GAS  C:\Users\dmtucker\AppData\Local\Temp\ccE6jVLi.s 			page 41


 1261 003e 1B78     		ldrb	r3, [r3, #0]
 1262 0040 DBB2     		uxtb	r3, r3
 1263 0042 03F00403 		and	r3, r3, #4
 1264              		.loc 1 1015 0
 1265 0046 002B     		cmp	r3, #0
 1266 0048 06D1     		bne	.L64
1017:.\Generated_Source\PSoC5/UART.c ****                 {
1018:.\Generated_Source\PSoC5/UART.c ****                     /* Add directly to the FIFO. */
1019:.\Generated_Source\PSoC5/UART.c ****                     UART_TXDATA_REG = txDataByte;
 1267              		.loc 1 1019 0
 1268 004a 46F24443 		movw	r3, #:lower16:1073767492
 1269 004e C4F20003 		movt	r3, #:upper16:1073767492
 1270 0052 FA79     		ldrb	r2, [r7, #7]
 1271 0054 1A70     		strb	r2, [r3, #0]
 1272              		.loc 1 1015 0
 1273 0056 26E0     		b	.L65
 1274              	.L64:
1020:.\Generated_Source\PSoC5/UART.c ****                 }
1021:.\Generated_Source\PSoC5/UART.c ****                 else
1022:.\Generated_Source\PSoC5/UART.c ****                 {
1023:.\Generated_Source\PSoC5/UART.c ****                     if(UART_txBufferWrite >= UART_TXBUFFERSIZE)
 1275              		.loc 1 1023 0
 1276 0058 40F20003 		movw	r3, #:lower16:UART_txBufferWrite
 1277 005c C0F20003 		movt	r3, #:upper16:UART_txBufferWrite
 1278 0060 1B78     		ldrb	r3, [r3, #0]	@ zero_extendqisi2
 1279 0062 3F2B     		cmp	r3, #63
 1280 0064 06D9     		bls	.L66
1024:.\Generated_Source\PSoC5/UART.c ****                     {
1025:.\Generated_Source\PSoC5/UART.c ****                         UART_txBufferWrite = 0u;
 1281              		.loc 1 1025 0
 1282 0066 40F20003 		movw	r3, #:lower16:UART_txBufferWrite
 1283 006a C0F20003 		movt	r3, #:upper16:UART_txBufferWrite
 1284 006e 4FF00002 		mov	r2, #0
 1285 0072 1A70     		strb	r2, [r3, #0]
 1286              	.L66:
1026:.\Generated_Source\PSoC5/UART.c ****                     }
1027:.\Generated_Source\PSoC5/UART.c **** 
1028:.\Generated_Source\PSoC5/UART.c ****                     UART_txBuffer[UART_txBufferWrite] = txDataByte;
 1287              		.loc 1 1028 0
 1288 0074 40F20003 		movw	r3, #:lower16:UART_txBufferWrite
 1289 0078 C0F20003 		movt	r3, #:upper16:UART_txBufferWrite
 1290 007c 1B78     		ldrb	r3, [r3, #0]	@ zero_extendqisi2
 1291 007e 1A46     		mov	r2, r3
 1292 0080 40F20003 		movw	r3, #:lower16:UART_txBuffer
 1293 0084 C0F20003 		movt	r3, #:upper16:UART_txBuffer
 1294 0088 F979     		ldrb	r1, [r7, #7]
 1295 008a 9954     		strb	r1, [r3, r2]
1029:.\Generated_Source\PSoC5/UART.c **** 
1030:.\Generated_Source\PSoC5/UART.c ****                     /* Add to the software buffer. */
1031:.\Generated_Source\PSoC5/UART.c ****                     UART_txBufferWrite++;
 1296              		.loc 1 1031 0
 1297 008c 40F20003 		movw	r3, #:lower16:UART_txBufferWrite
 1298 0090 C0F20003 		movt	r3, #:upper16:UART_txBufferWrite
 1299 0094 1B78     		ldrb	r3, [r3, #0]	@ zero_extendqisi2
 1300 0096 03F10103 		add	r3, r3, #1
 1301 009a DAB2     		uxtb	r2, r3
 1302 009c 40F20003 		movw	r3, #:lower16:UART_txBufferWrite
ARM GAS  C:\Users\dmtucker\AppData\Local\Temp\ccE6jVLi.s 			page 42


 1303 00a0 C0F20003 		movt	r3, #:upper16:UART_txBufferWrite
 1304 00a4 1A70     		strb	r2, [r3, #0]
 1305              	.L65:
1032:.\Generated_Source\PSoC5/UART.c **** 
1033:.\Generated_Source\PSoC5/UART.c ****                 }
1034:.\Generated_Source\PSoC5/UART.c **** 
1035:.\Generated_Source\PSoC5/UART.c ****                 /* Enable Tx interrupt. */
1036:.\Generated_Source\PSoC5/UART.c ****                 #if(UART_TX_INTERRUPT_ENABLED)
1037:.\Generated_Source\PSoC5/UART.c ****                     UART_EnableTxInt();
 1306              		.loc 1 1037 0
 1307 00a6 FFF7FEFF 		bl	UART_EnableTxInt
 1308              	.L67:
1038:.\Generated_Source\PSoC5/UART.c ****                 #endif /* End UART_TX_INTERRUPT_ENABLED */
1039:.\Generated_Source\PSoC5/UART.c **** 
1040:.\Generated_Source\PSoC5/UART.c ****             #else /* UART_TXBUFFERSIZE > UART_FIFO_LENGTH */
1041:.\Generated_Source\PSoC5/UART.c **** 
1042:.\Generated_Source\PSoC5/UART.c ****                 /* Add directly to the FIFO. */
1043:.\Generated_Source\PSoC5/UART.c ****                 UART_TXDATA_REG = txDataByte;
1044:.\Generated_Source\PSoC5/UART.c **** 
1045:.\Generated_Source\PSoC5/UART.c ****             #endif /* End UART_TXBUFFERSIZE > UART_FIFO_LENGTH */
1046:.\Generated_Source\PSoC5/UART.c ****         }
1047:.\Generated_Source\PSoC5/UART.c ****     }
 1309              		.loc 1 1047 0
 1310 00aa 07F10807 		add	r7, r7, #8
 1311 00ae BD46     		mov	sp, r7
 1312 00b0 80BD     		pop	{r7, pc}
 1313              		.cfi_endproc
 1314              	.LFE21:
 1315              		.size	UART_WriteTxData, .-UART_WriteTxData
 1316 00b2 00BF     		.section	.text.UART_ReadTxStatus,"ax",%progbits
 1317              		.align	2
 1318              		.global	UART_ReadTxStatus
 1319              		.thumb
 1320              		.thumb_func
 1321              		.type	UART_ReadTxStatus, %function
 1322              	UART_ReadTxStatus:
 1323              	.LFB22:
1048:.\Generated_Source\PSoC5/UART.c **** 
1049:.\Generated_Source\PSoC5/UART.c **** 
1050:.\Generated_Source\PSoC5/UART.c ****     /*******************************************************************************
1051:.\Generated_Source\PSoC5/UART.c ****     * Function Name: UART_ReadTxStatus
1052:.\Generated_Source\PSoC5/UART.c ****     ********************************************************************************
1053:.\Generated_Source\PSoC5/UART.c ****     *
1054:.\Generated_Source\PSoC5/UART.c ****     * Summary:
1055:.\Generated_Source\PSoC5/UART.c ****     *  Read the status register for the component
1056:.\Generated_Source\PSoC5/UART.c ****     *
1057:.\Generated_Source\PSoC5/UART.c ****     * Parameters:
1058:.\Generated_Source\PSoC5/UART.c ****     *  None.
1059:.\Generated_Source\PSoC5/UART.c ****     *
1060:.\Generated_Source\PSoC5/UART.c ****     * Return:
1061:.\Generated_Source\PSoC5/UART.c ****     *  Contents of the status register
1062:.\Generated_Source\PSoC5/UART.c ****     *
1063:.\Generated_Source\PSoC5/UART.c ****     * Theory:
1064:.\Generated_Source\PSoC5/UART.c ****     *  This function reads the status register which is clear on read. It is up to
1065:.\Generated_Source\PSoC5/UART.c ****     *  the user to handle all bits in this return value accordingly, even if the bit
1066:.\Generated_Source\PSoC5/UART.c ****     *  was not enabled as an interrupt source the event happened and must be handled
1067:.\Generated_Source\PSoC5/UART.c ****     *  accordingly.
ARM GAS  C:\Users\dmtucker\AppData\Local\Temp\ccE6jVLi.s 			page 43


1068:.\Generated_Source\PSoC5/UART.c ****     *
1069:.\Generated_Source\PSoC5/UART.c ****     *******************************************************************************/
1070:.\Generated_Source\PSoC5/UART.c ****     uint8 UART_ReadTxStatus(void) 
1071:.\Generated_Source\PSoC5/UART.c ****     {
 1324              		.loc 1 1071 0
 1325              		.cfi_startproc
 1326              		@ args = 0, pretend = 0, frame = 0
 1327              		@ frame_needed = 1, uses_anonymous_args = 0
 1328              		@ link register save eliminated.
 1329 0000 80B4     		push	{r7}
 1330              	.LCFI58:
 1331              		.cfi_def_cfa_offset 4
 1332 0002 00AF     		add	r7, sp, #0
 1333              		.cfi_offset 7, -4
 1334              	.LCFI59:
 1335              		.cfi_def_cfa_register 7
1072:.\Generated_Source\PSoC5/UART.c ****         return(UART_TXSTATUS_REG);
 1336              		.loc 1 1072 0
 1337 0004 46F26443 		movw	r3, #:lower16:1073767524
 1338 0008 C4F20003 		movt	r3, #:upper16:1073767524
 1339 000c 1B78     		ldrb	r3, [r3, #0]
 1340 000e DBB2     		uxtb	r3, r3
1073:.\Generated_Source\PSoC5/UART.c ****     }
 1341              		.loc 1 1073 0
 1342 0010 1846     		mov	r0, r3
 1343 0012 BD46     		mov	sp, r7
 1344 0014 80BC     		pop	{r7}
 1345 0016 7047     		bx	lr
 1346              		.cfi_endproc
 1347              	.LFE22:
 1348              		.size	UART_ReadTxStatus, .-UART_ReadTxStatus
 1349              		.section	.text.UART_PutChar,"ax",%progbits
 1350              		.align	2
 1351              		.global	UART_PutChar
 1352              		.thumb
 1353              		.thumb_func
 1354              		.type	UART_PutChar, %function
 1355              	UART_PutChar:
 1356              	.LFB23:
1074:.\Generated_Source\PSoC5/UART.c **** 
1075:.\Generated_Source\PSoC5/UART.c **** 
1076:.\Generated_Source\PSoC5/UART.c ****     /*******************************************************************************
1077:.\Generated_Source\PSoC5/UART.c ****     * Function Name: UART_PutChar
1078:.\Generated_Source\PSoC5/UART.c ****     ********************************************************************************
1079:.\Generated_Source\PSoC5/UART.c ****     *
1080:.\Generated_Source\PSoC5/UART.c ****     * Summary:
1081:.\Generated_Source\PSoC5/UART.c ****     *  Wait to send byte until TX register or buffer has room.
1082:.\Generated_Source\PSoC5/UART.c ****     *
1083:.\Generated_Source\PSoC5/UART.c ****     * Parameters:
1084:.\Generated_Source\PSoC5/UART.c ****     *  txDataByte: The 8-bit data value to send across the UART.
1085:.\Generated_Source\PSoC5/UART.c ****     *
1086:.\Generated_Source\PSoC5/UART.c ****     * Return:
1087:.\Generated_Source\PSoC5/UART.c ****     *  None.
1088:.\Generated_Source\PSoC5/UART.c ****     *
1089:.\Generated_Source\PSoC5/UART.c ****     * Global Variables:
1090:.\Generated_Source\PSoC5/UART.c ****     *  UART_txBuffer - RAM buffer pointer for save data for transmission
1091:.\Generated_Source\PSoC5/UART.c ****     *  UART_txBufferWrite - cyclic index for write to txBuffer,
ARM GAS  C:\Users\dmtucker\AppData\Local\Temp\ccE6jVLi.s 			page 44


1092:.\Generated_Source\PSoC5/UART.c ****     *     checked to identify free space in txBuffer and incremented after each byte
1093:.\Generated_Source\PSoC5/UART.c ****     *     saved to buffer.
1094:.\Generated_Source\PSoC5/UART.c ****     *  UART_txBufferRead - cyclic index for read from txBuffer,
1095:.\Generated_Source\PSoC5/UART.c ****     *     checked to identify free space in txBuffer.
1096:.\Generated_Source\PSoC5/UART.c ****     *  UART_initVar - checked to identify that the component has been
1097:.\Generated_Source\PSoC5/UART.c ****     *     initialized.
1098:.\Generated_Source\PSoC5/UART.c ****     *
1099:.\Generated_Source\PSoC5/UART.c ****     * Reentrant:
1100:.\Generated_Source\PSoC5/UART.c ****     *  No.
1101:.\Generated_Source\PSoC5/UART.c ****     *
1102:.\Generated_Source\PSoC5/UART.c ****     * Theory:
1103:.\Generated_Source\PSoC5/UART.c ****     *  Allows the user to transmit any byte of data in a single transfer
1104:.\Generated_Source\PSoC5/UART.c ****     *
1105:.\Generated_Source\PSoC5/UART.c ****     *******************************************************************************/
1106:.\Generated_Source\PSoC5/UART.c ****     void UART_PutChar(uint8 txDataByte) 
1107:.\Generated_Source\PSoC5/UART.c ****     {
 1357              		.loc 1 1107 0
 1358              		.cfi_startproc
 1359              		@ args = 0, pretend = 0, frame = 16
 1360              		@ frame_needed = 1, uses_anonymous_args = 0
 1361              		@ link register save eliminated.
 1362 0000 80B4     		push	{r7}
 1363              	.LCFI60:
 1364              		.cfi_def_cfa_offset 4
 1365 0002 85B0     		sub	sp, sp, #20
 1366              	.LCFI61:
 1367              		.cfi_def_cfa_offset 24
 1368 0004 00AF     		add	r7, sp, #0
 1369              		.cfi_offset 7, -4
 1370              	.LCFI62:
 1371              		.cfi_def_cfa_register 7
 1372 0006 0346     		mov	r3, r0
 1373 0008 FB71     		strb	r3, [r7, #7]
 1374              	.L73:
1108:.\Generated_Source\PSoC5/UART.c ****             #if(UART_TXBUFFERSIZE > UART_FIFO_LENGTH)
1109:.\Generated_Source\PSoC5/UART.c ****                 /* The temporary output pointer is used since it takes two instructions
1110:.\Generated_Source\PSoC5/UART.c ****                 *  to increment with a wrap, and we can't risk doing that with the real
1111:.\Generated_Source\PSoC5/UART.c ****                 *  pointer and getting an interrupt in between instructions.
1112:.\Generated_Source\PSoC5/UART.c ****                 */
1113:.\Generated_Source\PSoC5/UART.c ****                 uint8 loc_txBufferWrite;
1114:.\Generated_Source\PSoC5/UART.c ****                 uint8 loc_txBufferRead;
1115:.\Generated_Source\PSoC5/UART.c **** 
1116:.\Generated_Source\PSoC5/UART.c ****                 do{
1117:.\Generated_Source\PSoC5/UART.c ****                     /* Block if software buffer is full, so we don't overwrite. */
1118:.\Generated_Source\PSoC5/UART.c ****                     #if ((UART_TXBUFFERSIZE > UART_MAX_BYTE_VALUE) && (CY_PSOC3))
1119:.\Generated_Source\PSoC5/UART.c ****                         /* Disable TX interrupt to protect variables that could change on interrupt
1120:.\Generated_Source\PSoC5/UART.c ****                         CyIntDisable(UART_TX_VECT_NUM);
1121:.\Generated_Source\PSoC5/UART.c ****                     #endif /* End TXBUFFERSIZE > 255 */
1122:.\Generated_Source\PSoC5/UART.c ****                     loc_txBufferWrite = UART_txBufferWrite;
 1375              		.loc 1 1122 0
 1376 000a 40F20003 		movw	r3, #:lower16:UART_txBufferWrite
 1377 000e C0F20003 		movt	r3, #:upper16:UART_txBufferWrite
 1378 0012 1B78     		ldrb	r3, [r3, #0]
 1379 0014 BB73     		strb	r3, [r7, #14]
1123:.\Generated_Source\PSoC5/UART.c ****                     loc_txBufferRead = UART_txBufferRead;
 1380              		.loc 1 1123 0
 1381 0016 40F20003 		movw	r3, #:lower16:UART_txBufferRead
ARM GAS  C:\Users\dmtucker\AppData\Local\Temp\ccE6jVLi.s 			page 45


 1382 001a C0F20003 		movt	r3, #:upper16:UART_txBufferRead
 1383 001e 1B78     		ldrb	r3, [r3, #0]
 1384 0020 FB73     		strb	r3, [r7, #15]
1124:.\Generated_Source\PSoC5/UART.c ****                     #if ((UART_TXBUFFERSIZE > UART_MAX_BYTE_VALUE) && (CY_PSOC3))
1125:.\Generated_Source\PSoC5/UART.c ****                         /* Enable interrupt to continue transmission */
1126:.\Generated_Source\PSoC5/UART.c ****                         CyIntEnable(UART_TX_VECT_NUM);
1127:.\Generated_Source\PSoC5/UART.c ****                     #endif /* End TXBUFFERSIZE > 255 */
1128:.\Generated_Source\PSoC5/UART.c ****                 }while( (loc_txBufferWrite < loc_txBufferRead) ? (loc_txBufferWrite == (loc_txBuffe
1129:.\Generated_Source\PSoC5/UART.c ****                                         ((loc_txBufferWrite - loc_txBufferRead) ==
1130:.\Generated_Source\PSoC5/UART.c ****                                         (uint8)(UART_TXBUFFERSIZE - 1u)) );
 1385              		.loc 1 1130 0
 1386 0022 BA7B     		ldrb	r2, [r7, #14]	@ zero_extendqisi2
 1387 0024 FB7B     		ldrb	r3, [r7, #15]	@ zero_extendqisi2
 1388 0026 9A42     		cmp	r2, r3
 1389 0028 09D2     		bcs	.L71
 1390              		.loc 1 1128 0
 1391 002a BA7B     		ldrb	r2, [r7, #14]	@ zero_extendqisi2
 1392 002c FB7B     		ldrb	r3, [r7, #15]	@ zero_extendqisi2
 1393 002e 03F1FF33 		add	r3, r3, #-1
 1394              		.loc 1 1130 0
 1395 0032 9A42     		cmp	r2, r3
 1396 0034 14BF     		ite	ne
 1397 0036 0023     		movne	r3, #0
 1398 0038 0123     		moveq	r3, #1
 1399 003a DBB2     		uxtb	r3, r3
 1400 003c 08E0     		b	.L72
 1401              	.L71:
 1402              		.loc 1 1129 0
 1403 003e BA7B     		ldrb	r2, [r7, #14]	@ zero_extendqisi2
 1404 0040 FB7B     		ldrb	r3, [r7, #15]	@ zero_extendqisi2
 1405 0042 C3EB0203 		rsb	r3, r3, r2
 1406              		.loc 1 1130 0
 1407 0046 3F2B     		cmp	r3, #63
 1408 0048 14BF     		ite	ne
 1409 004a 0023     		movne	r3, #0
 1410 004c 0123     		moveq	r3, #1
 1411 004e DBB2     		uxtb	r3, r3
 1412              	.L72:
 1413 0050 002B     		cmp	r3, #0
 1414 0052 DAD1     		bne	.L73
1131:.\Generated_Source\PSoC5/UART.c **** 
1132:.\Generated_Source\PSoC5/UART.c ****                 if( (loc_txBufferRead == loc_txBufferWrite) &&
 1415              		.loc 1 1132 0
 1416 0054 FA7B     		ldrb	r2, [r7, #15]	@ zero_extendqisi2
 1417 0056 BB7B     		ldrb	r3, [r7, #14]	@ zero_extendqisi2
 1418 0058 9A42     		cmp	r2, r3
 1419 005a 10D1     		bne	.L74
1133:.\Generated_Source\PSoC5/UART.c ****                     ((UART_TXSTATUS_REG & UART_TX_STS_FIFO_FULL) == 0u) )
 1420              		.loc 1 1133 0
 1421 005c 46F26443 		movw	r3, #:lower16:1073767524
 1422 0060 C4F20003 		movt	r3, #:upper16:1073767524
 1423 0064 1B78     		ldrb	r3, [r3, #0]
 1424 0066 DBB2     		uxtb	r3, r3
 1425 0068 03F00403 		and	r3, r3, #4
 1426              		.loc 1 1132 0
 1427 006c 002B     		cmp	r3, #0
 1428 006e 06D1     		bne	.L74
ARM GAS  C:\Users\dmtucker\AppData\Local\Temp\ccE6jVLi.s 			page 46


1134:.\Generated_Source\PSoC5/UART.c ****                 {
1135:.\Generated_Source\PSoC5/UART.c ****                     /* Add directly to the FIFO. */
1136:.\Generated_Source\PSoC5/UART.c ****                     UART_TXDATA_REG = txDataByte;
 1429              		.loc 1 1136 0
 1430 0070 46F24443 		movw	r3, #:lower16:1073767492
 1431 0074 C4F20003 		movt	r3, #:upper16:1073767492
 1432 0078 FA79     		ldrb	r2, [r7, #7]
 1433 007a 1A70     		strb	r2, [r3, #0]
 1434              		.loc 1 1132 0
 1435 007c 16E0     		b	.L77
 1436              	.L74:
1137:.\Generated_Source\PSoC5/UART.c ****                 }
1138:.\Generated_Source\PSoC5/UART.c ****                 else
1139:.\Generated_Source\PSoC5/UART.c ****                 {
1140:.\Generated_Source\PSoC5/UART.c ****                     if(loc_txBufferWrite >= UART_TXBUFFERSIZE)
 1437              		.loc 1 1140 0
 1438 007e BB7B     		ldrb	r3, [r7, #14]	@ zero_extendqisi2
 1439 0080 3F2B     		cmp	r3, #63
 1440 0082 02D9     		bls	.L76
1141:.\Generated_Source\PSoC5/UART.c ****                     {
1142:.\Generated_Source\PSoC5/UART.c ****                         loc_txBufferWrite = 0u;
 1441              		.loc 1 1142 0
 1442 0084 4FF00003 		mov	r3, #0
 1443 0088 BB73     		strb	r3, [r7, #14]
 1444              	.L76:
1143:.\Generated_Source\PSoC5/UART.c ****                     }
1144:.\Generated_Source\PSoC5/UART.c ****                     /* Add to the software buffer. */
1145:.\Generated_Source\PSoC5/UART.c ****                     UART_txBuffer[loc_txBufferWrite] = txDataByte;
 1445              		.loc 1 1145 0
 1446 008a BA7B     		ldrb	r2, [r7, #14]	@ zero_extendqisi2
 1447 008c 40F20003 		movw	r3, #:lower16:UART_txBuffer
 1448 0090 C0F20003 		movt	r3, #:upper16:UART_txBuffer
 1449 0094 F979     		ldrb	r1, [r7, #7]
 1450 0096 9954     		strb	r1, [r3, r2]
1146:.\Generated_Source\PSoC5/UART.c ****                     loc_txBufferWrite++;
 1451              		.loc 1 1146 0
 1452 0098 BB7B     		ldrb	r3, [r7, #14]
 1453 009a 03F10103 		add	r3, r3, #1
 1454 009e BB73     		strb	r3, [r7, #14]
1147:.\Generated_Source\PSoC5/UART.c **** 
1148:.\Generated_Source\PSoC5/UART.c ****                     /* Finally, update the real output pointer */
1149:.\Generated_Source\PSoC5/UART.c ****                     #if ((UART_TXBUFFERSIZE > UART_MAX_BYTE_VALUE) && (CY_PSOC3))
1150:.\Generated_Source\PSoC5/UART.c ****                         CyIntDisable(UART_TX_VECT_NUM);
1151:.\Generated_Source\PSoC5/UART.c ****                     #endif /* End TXBUFFERSIZE > 255 */
1152:.\Generated_Source\PSoC5/UART.c ****                     UART_txBufferWrite = loc_txBufferWrite;
 1455              		.loc 1 1152 0
 1456 00a0 40F20003 		movw	r3, #:lower16:UART_txBufferWrite
 1457 00a4 C0F20003 		movt	r3, #:upper16:UART_txBufferWrite
 1458 00a8 BA7B     		ldrb	r2, [r7, #14]
 1459 00aa 1A70     		strb	r2, [r3, #0]
 1460              	.L77:
1153:.\Generated_Source\PSoC5/UART.c ****                     #if ((UART_TXBUFFERSIZE > UART_MAX_BYTE_VALUE) && (CY_PSOC3))
1154:.\Generated_Source\PSoC5/UART.c ****                         CyIntEnable(UART_TX_VECT_NUM);
1155:.\Generated_Source\PSoC5/UART.c ****                     #endif /* End TXBUFFERSIZE > 255 */
1156:.\Generated_Source\PSoC5/UART.c ****                 }
1157:.\Generated_Source\PSoC5/UART.c **** 
1158:.\Generated_Source\PSoC5/UART.c ****             #else /* UART_TXBUFFERSIZE > UART_FIFO_LENGTH */
ARM GAS  C:\Users\dmtucker\AppData\Local\Temp\ccE6jVLi.s 			page 47


1159:.\Generated_Source\PSoC5/UART.c **** 
1160:.\Generated_Source\PSoC5/UART.c ****                 while((UART_TXSTATUS_REG & UART_TX_STS_FIFO_FULL) != 0u)
1161:.\Generated_Source\PSoC5/UART.c ****                 {
1162:.\Generated_Source\PSoC5/UART.c ****                     ; /* Wait for room in the FIFO. */
1163:.\Generated_Source\PSoC5/UART.c ****                 }
1164:.\Generated_Source\PSoC5/UART.c **** 
1165:.\Generated_Source\PSoC5/UART.c ****                 /* Add directly to the FIFO. */
1166:.\Generated_Source\PSoC5/UART.c ****                 UART_TXDATA_REG = txDataByte;
1167:.\Generated_Source\PSoC5/UART.c **** 
1168:.\Generated_Source\PSoC5/UART.c ****             #endif /* End UART_TXBUFFERSIZE > UART_FIFO_LENGTH */
1169:.\Generated_Source\PSoC5/UART.c ****     }
 1461              		.loc 1 1169 0
 1462 00ac 07F11407 		add	r7, r7, #20
 1463 00b0 BD46     		mov	sp, r7
 1464 00b2 80BC     		pop	{r7}
 1465 00b4 7047     		bx	lr
 1466              		.cfi_endproc
 1467              	.LFE23:
 1468              		.size	UART_PutChar, .-UART_PutChar
 1469 00b6 00BF     		.section	.text.UART_PutString,"ax",%progbits
 1470              		.align	2
 1471              		.global	UART_PutString
 1472              		.thumb
 1473              		.thumb_func
 1474              		.type	UART_PutString, %function
 1475              	UART_PutString:
 1476              	.LFB24:
1170:.\Generated_Source\PSoC5/UART.c **** 
1171:.\Generated_Source\PSoC5/UART.c **** 
1172:.\Generated_Source\PSoC5/UART.c ****     /*******************************************************************************
1173:.\Generated_Source\PSoC5/UART.c ****     * Function Name: UART_PutString
1174:.\Generated_Source\PSoC5/UART.c ****     ********************************************************************************
1175:.\Generated_Source\PSoC5/UART.c ****     *
1176:.\Generated_Source\PSoC5/UART.c ****     * Summary:
1177:.\Generated_Source\PSoC5/UART.c ****     *  Write a Sequence of bytes on the Transmit line. Data comes from RAM or ROM.
1178:.\Generated_Source\PSoC5/UART.c ****     *
1179:.\Generated_Source\PSoC5/UART.c ****     * Parameters:
1180:.\Generated_Source\PSoC5/UART.c ****     *  string: char pointer to character string of Data to Send.
1181:.\Generated_Source\PSoC5/UART.c ****     *
1182:.\Generated_Source\PSoC5/UART.c ****     * Return:
1183:.\Generated_Source\PSoC5/UART.c ****     *  None.
1184:.\Generated_Source\PSoC5/UART.c ****     *
1185:.\Generated_Source\PSoC5/UART.c ****     * Global Variables:
1186:.\Generated_Source\PSoC5/UART.c ****     *  UART_initVar - checked to identify that the component has been
1187:.\Generated_Source\PSoC5/UART.c ****     *     initialized.
1188:.\Generated_Source\PSoC5/UART.c ****     *
1189:.\Generated_Source\PSoC5/UART.c ****     * Reentrant:
1190:.\Generated_Source\PSoC5/UART.c ****     *  No.
1191:.\Generated_Source\PSoC5/UART.c ****     *
1192:.\Generated_Source\PSoC5/UART.c ****     * Theory:
1193:.\Generated_Source\PSoC5/UART.c ****     *  This function will block if there is not enough memory to place the whole
1194:.\Generated_Source\PSoC5/UART.c ****     *  string, it will block until the entire string has been written to the
1195:.\Generated_Source\PSoC5/UART.c ****     *  transmit buffer.
1196:.\Generated_Source\PSoC5/UART.c ****     *
1197:.\Generated_Source\PSoC5/UART.c ****     *******************************************************************************/
1198:.\Generated_Source\PSoC5/UART.c ****     void UART_PutString(const char8 string[]) 
1199:.\Generated_Source\PSoC5/UART.c ****     {
ARM GAS  C:\Users\dmtucker\AppData\Local\Temp\ccE6jVLi.s 			page 48


 1477              		.loc 1 1199 0
 1478              		.cfi_startproc
 1479              		@ args = 0, pretend = 0, frame = 16
 1480              		@ frame_needed = 1, uses_anonymous_args = 0
 1481 0000 80B5     		push	{r7, lr}
 1482              	.LCFI63:
 1483              		.cfi_def_cfa_offset 8
 1484 0002 84B0     		sub	sp, sp, #16
 1485              	.LCFI64:
 1486              		.cfi_def_cfa_offset 24
 1487 0004 00AF     		add	r7, sp, #0
 1488              		.cfi_offset 14, -4
 1489              		.cfi_offset 7, -8
 1490              	.LCFI65:
 1491              		.cfi_def_cfa_register 7
 1492 0006 7860     		str	r0, [r7, #4]
1200:.\Generated_Source\PSoC5/UART.c ****         uint16 buf_index = 0u;
 1493              		.loc 1 1200 0
 1494 0008 4FF00003 		mov	r3, #0
 1495 000c FB81     		strh	r3, [r7, #14]	@ movhi
1201:.\Generated_Source\PSoC5/UART.c ****         /* If not Initialized then skip this function*/
1202:.\Generated_Source\PSoC5/UART.c ****         if(UART_initVar != 0u)
 1496              		.loc 1 1202 0
 1497 000e 40F20003 		movw	r3, #:lower16:UART_initVar
 1498 0012 C0F20003 		movt	r3, #:upper16:UART_initVar
 1499 0016 1B78     		ldrb	r3, [r3, #0]	@ zero_extendqisi2
 1500 0018 002B     		cmp	r3, #0
 1501 001a 11D0     		beq	.L82
1203:.\Generated_Source\PSoC5/UART.c ****         {
1204:.\Generated_Source\PSoC5/UART.c ****             /* This is a blocking function, it will not exit until all data is sent*/
1205:.\Generated_Source\PSoC5/UART.c ****             while(string[buf_index] != (char8)0)
 1502              		.loc 1 1205 0
 1503 001c 0AE0     		b	.L80
 1504              	.L81:
1206:.\Generated_Source\PSoC5/UART.c ****             {
1207:.\Generated_Source\PSoC5/UART.c ****                 UART_PutChar((uint8)string[buf_index]);
 1505              		.loc 1 1207 0
 1506 001e FA89     		ldrh	r2, [r7, #14]
 1507 0020 7B68     		ldr	r3, [r7, #4]
 1508 0022 1344     		add	r3, r2, r3
 1509 0024 1B78     		ldrb	r3, [r3, #0]	@ zero_extendqisi2
 1510 0026 1846     		mov	r0, r3
 1511 0028 FFF7FEFF 		bl	UART_PutChar
1208:.\Generated_Source\PSoC5/UART.c ****                 buf_index++;
 1512              		.loc 1 1208 0
 1513 002c FB89     		ldrh	r3, [r7, #14]	@ movhi
 1514 002e 03F10103 		add	r3, r3, #1
 1515 0032 FB81     		strh	r3, [r7, #14]	@ movhi
 1516              	.L80:
 1517              		.loc 1 1205 0
 1518 0034 FA89     		ldrh	r2, [r7, #14]
 1519 0036 7B68     		ldr	r3, [r7, #4]
 1520 0038 1344     		add	r3, r2, r3
 1521 003a 1B78     		ldrb	r3, [r3, #0]	@ zero_extendqisi2
 1522 003c 002B     		cmp	r3, #0
 1523 003e EED1     		bne	.L81
 1524              	.L82:
ARM GAS  C:\Users\dmtucker\AppData\Local\Temp\ccE6jVLi.s 			page 49


1209:.\Generated_Source\PSoC5/UART.c ****             }
1210:.\Generated_Source\PSoC5/UART.c ****         }
1211:.\Generated_Source\PSoC5/UART.c ****     }
 1525              		.loc 1 1211 0
 1526 0040 07F11007 		add	r7, r7, #16
 1527 0044 BD46     		mov	sp, r7
 1528 0046 80BD     		pop	{r7, pc}
 1529              		.cfi_endproc
 1530              	.LFE24:
 1531              		.size	UART_PutString, .-UART_PutString
 1532              		.section	.text.UART_PutArray,"ax",%progbits
 1533              		.align	2
 1534              		.global	UART_PutArray
 1535              		.thumb
 1536              		.thumb_func
 1537              		.type	UART_PutArray, %function
 1538              	UART_PutArray:
 1539              	.LFB25:
1212:.\Generated_Source\PSoC5/UART.c **** 
1213:.\Generated_Source\PSoC5/UART.c **** 
1214:.\Generated_Source\PSoC5/UART.c ****     /*******************************************************************************
1215:.\Generated_Source\PSoC5/UART.c ****     * Function Name: UART_PutArray
1216:.\Generated_Source\PSoC5/UART.c ****     ********************************************************************************
1217:.\Generated_Source\PSoC5/UART.c ****     *
1218:.\Generated_Source\PSoC5/UART.c ****     * Summary:
1219:.\Generated_Source\PSoC5/UART.c ****     *  Write a Sequence of bytes on the Transmit line. Data comes from RAM or ROM.
1220:.\Generated_Source\PSoC5/UART.c ****     *
1221:.\Generated_Source\PSoC5/UART.c ****     * Parameters:
1222:.\Generated_Source\PSoC5/UART.c ****     *  string: Address of the memory array residing in RAM or ROM.
1223:.\Generated_Source\PSoC5/UART.c ****     *  byteCount: Number of Bytes to be transmitted.
1224:.\Generated_Source\PSoC5/UART.c ****     *
1225:.\Generated_Source\PSoC5/UART.c ****     * Return:
1226:.\Generated_Source\PSoC5/UART.c ****     *  None.
1227:.\Generated_Source\PSoC5/UART.c ****     *
1228:.\Generated_Source\PSoC5/UART.c ****     * Global Variables:
1229:.\Generated_Source\PSoC5/UART.c ****     *  UART_initVar - checked to identify that the component has been
1230:.\Generated_Source\PSoC5/UART.c ****     *     initialized.
1231:.\Generated_Source\PSoC5/UART.c ****     *
1232:.\Generated_Source\PSoC5/UART.c ****     * Reentrant:
1233:.\Generated_Source\PSoC5/UART.c ****     *  No.
1234:.\Generated_Source\PSoC5/UART.c ****     *
1235:.\Generated_Source\PSoC5/UART.c ****     *******************************************************************************/
1236:.\Generated_Source\PSoC5/UART.c ****     void UART_PutArray(const uint8 string[], uint8 byteCount)
1237:.\Generated_Source\PSoC5/UART.c ****                                                                     
1238:.\Generated_Source\PSoC5/UART.c ****     {
 1540              		.loc 1 1238 0
 1541              		.cfi_startproc
 1542              		@ args = 0, pretend = 0, frame = 16
 1543              		@ frame_needed = 1, uses_anonymous_args = 0
 1544 0000 80B5     		push	{r7, lr}
 1545              	.LCFI66:
 1546              		.cfi_def_cfa_offset 8
 1547 0002 84B0     		sub	sp, sp, #16
 1548              	.LCFI67:
 1549              		.cfi_def_cfa_offset 24
 1550 0004 00AF     		add	r7, sp, #0
 1551              		.cfi_offset 14, -4
ARM GAS  C:\Users\dmtucker\AppData\Local\Temp\ccE6jVLi.s 			page 50


 1552              		.cfi_offset 7, -8
 1553              	.LCFI68:
 1554              		.cfi_def_cfa_register 7
 1555 0006 7860     		str	r0, [r7, #4]
 1556 0008 0B46     		mov	r3, r1
 1557 000a FB70     		strb	r3, [r7, #3]
1239:.\Generated_Source\PSoC5/UART.c ****         uint8 buf_index = 0u;
 1558              		.loc 1 1239 0
 1559 000c 4FF00003 		mov	r3, #0
 1560 0010 FB73     		strb	r3, [r7, #15]
1240:.\Generated_Source\PSoC5/UART.c ****         /* If not Initialized then skip this function*/
1241:.\Generated_Source\PSoC5/UART.c ****         if(UART_initVar != 0u)
 1561              		.loc 1 1241 0
 1562 0012 40F20003 		movw	r3, #:lower16:UART_initVar
 1563 0016 C0F20003 		movt	r3, #:upper16:UART_initVar
 1564 001a 1B78     		ldrb	r3, [r3, #0]	@ zero_extendqisi2
 1565 001c 002B     		cmp	r3, #0
 1566 001e 0ED0     		beq	.L86
 1567              	.L85:
1242:.\Generated_Source\PSoC5/UART.c ****         {
1243:.\Generated_Source\PSoC5/UART.c ****             do
1244:.\Generated_Source\PSoC5/UART.c ****             {
1245:.\Generated_Source\PSoC5/UART.c ****                 UART_PutChar(string[buf_index]);
 1568              		.loc 1 1245 0
 1569 0020 FA7B     		ldrb	r2, [r7, #15]	@ zero_extendqisi2
 1570 0022 7B68     		ldr	r3, [r7, #4]
 1571 0024 1344     		add	r3, r2, r3
 1572 0026 1B78     		ldrb	r3, [r3, #0]	@ zero_extendqisi2
 1573 0028 1846     		mov	r0, r3
 1574 002a FFF7FEFF 		bl	UART_PutChar
1246:.\Generated_Source\PSoC5/UART.c ****                 buf_index++;
 1575              		.loc 1 1246 0
 1576 002e FB7B     		ldrb	r3, [r7, #15]
 1577 0030 03F10103 		add	r3, r3, #1
 1578 0034 FB73     		strb	r3, [r7, #15]
1247:.\Generated_Source\PSoC5/UART.c ****             }while(buf_index < byteCount);
 1579              		.loc 1 1247 0
 1580 0036 FA7B     		ldrb	r2, [r7, #15]	@ zero_extendqisi2
 1581 0038 FB78     		ldrb	r3, [r7, #3]	@ zero_extendqisi2
 1582 003a 9A42     		cmp	r2, r3
 1583 003c F0D3     		bcc	.L85
 1584              	.L86:
1248:.\Generated_Source\PSoC5/UART.c ****         }
1249:.\Generated_Source\PSoC5/UART.c ****     }
 1585              		.loc 1 1249 0
 1586 003e 07F11007 		add	r7, r7, #16
 1587 0042 BD46     		mov	sp, r7
 1588 0044 80BD     		pop	{r7, pc}
 1589              		.cfi_endproc
 1590              	.LFE25:
 1591              		.size	UART_PutArray, .-UART_PutArray
 1592 0046 00BF     		.section	.text.UART_PutCRLF,"ax",%progbits
 1593              		.align	2
 1594              		.global	UART_PutCRLF
 1595              		.thumb
 1596              		.thumb_func
 1597              		.type	UART_PutCRLF, %function
ARM GAS  C:\Users\dmtucker\AppData\Local\Temp\ccE6jVLi.s 			page 51


 1598              	UART_PutCRLF:
 1599              	.LFB26:
1250:.\Generated_Source\PSoC5/UART.c **** 
1251:.\Generated_Source\PSoC5/UART.c **** 
1252:.\Generated_Source\PSoC5/UART.c ****     /*******************************************************************************
1253:.\Generated_Source\PSoC5/UART.c ****     * Function Name: UART_PutCRLF
1254:.\Generated_Source\PSoC5/UART.c ****     ********************************************************************************
1255:.\Generated_Source\PSoC5/UART.c ****     *
1256:.\Generated_Source\PSoC5/UART.c ****     * Summary:
1257:.\Generated_Source\PSoC5/UART.c ****     *  Write a character and then carriage return and line feed.
1258:.\Generated_Source\PSoC5/UART.c ****     *
1259:.\Generated_Source\PSoC5/UART.c ****     * Parameters:
1260:.\Generated_Source\PSoC5/UART.c ****     *  txDataByte: uint8 Character to send.
1261:.\Generated_Source\PSoC5/UART.c ****     *
1262:.\Generated_Source\PSoC5/UART.c ****     * Return:
1263:.\Generated_Source\PSoC5/UART.c ****     *  None.
1264:.\Generated_Source\PSoC5/UART.c ****     *
1265:.\Generated_Source\PSoC5/UART.c ****     * Global Variables:
1266:.\Generated_Source\PSoC5/UART.c ****     *  UART_initVar - checked to identify that the component has been
1267:.\Generated_Source\PSoC5/UART.c ****     *     initialized.
1268:.\Generated_Source\PSoC5/UART.c ****     *
1269:.\Generated_Source\PSoC5/UART.c ****     * Reentrant:
1270:.\Generated_Source\PSoC5/UART.c ****     *  No.
1271:.\Generated_Source\PSoC5/UART.c ****     *
1272:.\Generated_Source\PSoC5/UART.c ****     *******************************************************************************/
1273:.\Generated_Source\PSoC5/UART.c ****     void UART_PutCRLF(uint8 txDataByte) 
1274:.\Generated_Source\PSoC5/UART.c ****     {
 1600              		.loc 1 1274 0
 1601              		.cfi_startproc
 1602              		@ args = 0, pretend = 0, frame = 8
 1603              		@ frame_needed = 1, uses_anonymous_args = 0
 1604 0000 80B5     		push	{r7, lr}
 1605              	.LCFI69:
 1606              		.cfi_def_cfa_offset 8
 1607 0002 82B0     		sub	sp, sp, #8
 1608              	.LCFI70:
 1609              		.cfi_def_cfa_offset 16
 1610 0004 00AF     		add	r7, sp, #0
 1611              		.cfi_offset 14, -4
 1612              		.cfi_offset 7, -8
 1613              	.LCFI71:
 1614              		.cfi_def_cfa_register 7
 1615 0006 0346     		mov	r3, r0
 1616 0008 FB71     		strb	r3, [r7, #7]
1275:.\Generated_Source\PSoC5/UART.c ****         /* If not Initialized then skip this function*/
1276:.\Generated_Source\PSoC5/UART.c ****         if(UART_initVar != 0u)
 1617              		.loc 1 1276 0
 1618 000a 40F20003 		movw	r3, #:lower16:UART_initVar
 1619 000e C0F20003 		movt	r3, #:upper16:UART_initVar
 1620 0012 1B78     		ldrb	r3, [r3, #0]	@ zero_extendqisi2
 1621 0014 002B     		cmp	r3, #0
 1622 0016 0BD0     		beq	.L89
1277:.\Generated_Source\PSoC5/UART.c ****         {
1278:.\Generated_Source\PSoC5/UART.c ****             UART_PutChar(txDataByte);
 1623              		.loc 1 1278 0
 1624 0018 FB79     		ldrb	r3, [r7, #7]	@ zero_extendqisi2
 1625 001a 1846     		mov	r0, r3
ARM GAS  C:\Users\dmtucker\AppData\Local\Temp\ccE6jVLi.s 			page 52


 1626 001c FFF7FEFF 		bl	UART_PutChar
1279:.\Generated_Source\PSoC5/UART.c ****             UART_PutChar(0x0Du);
 1627              		.loc 1 1279 0
 1628 0020 4FF00D00 		mov	r0, #13
 1629 0024 FFF7FEFF 		bl	UART_PutChar
1280:.\Generated_Source\PSoC5/UART.c ****             UART_PutChar(0x0Au);
 1630              		.loc 1 1280 0
 1631 0028 4FF00A00 		mov	r0, #10
 1632 002c FFF7FEFF 		bl	UART_PutChar
 1633              	.L89:
1281:.\Generated_Source\PSoC5/UART.c ****         }
1282:.\Generated_Source\PSoC5/UART.c ****     }
 1634              		.loc 1 1282 0
 1635 0030 07F10807 		add	r7, r7, #8
 1636 0034 BD46     		mov	sp, r7
 1637 0036 80BD     		pop	{r7, pc}
 1638              		.cfi_endproc
 1639              	.LFE26:
 1640              		.size	UART_PutCRLF, .-UART_PutCRLF
 1641              		.section	.text.UART_GetTxBufferSize,"ax",%progbits
 1642              		.align	2
 1643              		.global	UART_GetTxBufferSize
 1644              		.thumb
 1645              		.thumb_func
 1646              		.type	UART_GetTxBufferSize, %function
 1647              	UART_GetTxBufferSize:
 1648              	.LFB27:
1283:.\Generated_Source\PSoC5/UART.c **** 
1284:.\Generated_Source\PSoC5/UART.c **** 
1285:.\Generated_Source\PSoC5/UART.c ****     /*******************************************************************************
1286:.\Generated_Source\PSoC5/UART.c ****     * Function Name: UART_GetTxBufferSize
1287:.\Generated_Source\PSoC5/UART.c ****     ********************************************************************************
1288:.\Generated_Source\PSoC5/UART.c ****     *
1289:.\Generated_Source\PSoC5/UART.c ****     * Summary:
1290:.\Generated_Source\PSoC5/UART.c ****     *  Determine the amount of space left in the TX buffer and return the count in
1291:.\Generated_Source\PSoC5/UART.c ****     *  bytes
1292:.\Generated_Source\PSoC5/UART.c ****     *
1293:.\Generated_Source\PSoC5/UART.c ****     * Parameters:
1294:.\Generated_Source\PSoC5/UART.c ****     *  None.
1295:.\Generated_Source\PSoC5/UART.c ****     *
1296:.\Generated_Source\PSoC5/UART.c ****     * Return:
1297:.\Generated_Source\PSoC5/UART.c ****     *  Integer count of the number of bytes left in the TX buffer
1298:.\Generated_Source\PSoC5/UART.c ****     *
1299:.\Generated_Source\PSoC5/UART.c ****     * Global Variables:
1300:.\Generated_Source\PSoC5/UART.c ****     *  UART_txBufferWrite - used to calculate left space.
1301:.\Generated_Source\PSoC5/UART.c ****     *  UART_txBufferRead - used to calculate left space.
1302:.\Generated_Source\PSoC5/UART.c ****     *
1303:.\Generated_Source\PSoC5/UART.c ****     * Reentrant:
1304:.\Generated_Source\PSoC5/UART.c ****     *  No.
1305:.\Generated_Source\PSoC5/UART.c ****     *
1306:.\Generated_Source\PSoC5/UART.c ****     * Theory:
1307:.\Generated_Source\PSoC5/UART.c ****     *  Allows the user to find out how full the TX Buffer is.
1308:.\Generated_Source\PSoC5/UART.c ****     *
1309:.\Generated_Source\PSoC5/UART.c ****     *******************************************************************************/
1310:.\Generated_Source\PSoC5/UART.c ****     uint8 UART_GetTxBufferSize(void)
1311:.\Generated_Source\PSoC5/UART.c ****                                                             
1312:.\Generated_Source\PSoC5/UART.c ****     {
ARM GAS  C:\Users\dmtucker\AppData\Local\Temp\ccE6jVLi.s 			page 53


 1649              		.loc 1 1312 0
 1650              		.cfi_startproc
 1651              		@ args = 0, pretend = 0, frame = 8
 1652              		@ frame_needed = 1, uses_anonymous_args = 0
 1653 0000 80B5     		push	{r7, lr}
 1654              	.LCFI72:
 1655              		.cfi_def_cfa_offset 8
 1656 0002 82B0     		sub	sp, sp, #8
 1657              	.LCFI73:
 1658              		.cfi_def_cfa_offset 16
 1659 0004 00AF     		add	r7, sp, #0
 1660              		.cfi_offset 14, -4
 1661              		.cfi_offset 7, -8
 1662              	.LCFI74:
 1663              		.cfi_def_cfa_register 7
1313:.\Generated_Source\PSoC5/UART.c ****         uint8 size;
1314:.\Generated_Source\PSoC5/UART.c **** 
1315:.\Generated_Source\PSoC5/UART.c ****         #if(UART_TXBUFFERSIZE > UART_FIFO_LENGTH)
1316:.\Generated_Source\PSoC5/UART.c **** 
1317:.\Generated_Source\PSoC5/UART.c ****             /* Disable Tx interrupt. */
1318:.\Generated_Source\PSoC5/UART.c ****             /* Protect variables that could change on interrupt. */
1319:.\Generated_Source\PSoC5/UART.c ****             #if(UART_TX_INTERRUPT_ENABLED)
1320:.\Generated_Source\PSoC5/UART.c ****                 UART_DisableTxInt();
 1664              		.loc 1 1320 0
 1665 0006 FFF7FEFF 		bl	UART_DisableTxInt
1321:.\Generated_Source\PSoC5/UART.c ****             #endif /* End UART_TX_INTERRUPT_ENABLED */
1322:.\Generated_Source\PSoC5/UART.c **** 
1323:.\Generated_Source\PSoC5/UART.c ****             if(UART_txBufferRead == UART_txBufferWrite)
 1666              		.loc 1 1323 0
 1667 000a 40F20003 		movw	r3, #:lower16:UART_txBufferRead
 1668 000e C0F20003 		movt	r3, #:upper16:UART_txBufferRead
 1669 0012 1B78     		ldrb	r3, [r3, #0]
 1670 0014 DAB2     		uxtb	r2, r3
 1671 0016 40F20003 		movw	r3, #:lower16:UART_txBufferWrite
 1672 001a C0F20003 		movt	r3, #:upper16:UART_txBufferWrite
 1673 001e 1B78     		ldrb	r3, [r3, #0]	@ zero_extendqisi2
 1674 0020 9A42     		cmp	r2, r3
 1675 0022 03D1     		bne	.L91
1324:.\Generated_Source\PSoC5/UART.c ****             {
1325:.\Generated_Source\PSoC5/UART.c ****                 size = 0u;
 1676              		.loc 1 1325 0
 1677 0024 4FF00003 		mov	r3, #0
 1678 0028 FB71     		strb	r3, [r7, #7]
 1679 002a 2CE0     		b	.L92
 1680              	.L91:
1326:.\Generated_Source\PSoC5/UART.c ****             }
1327:.\Generated_Source\PSoC5/UART.c ****             else if(UART_txBufferRead < UART_txBufferWrite)
 1681              		.loc 1 1327 0
 1682 002c 40F20003 		movw	r3, #:lower16:UART_txBufferRead
 1683 0030 C0F20003 		movt	r3, #:upper16:UART_txBufferRead
 1684 0034 1B78     		ldrb	r3, [r3, #0]
 1685 0036 DAB2     		uxtb	r2, r3
 1686 0038 40F20003 		movw	r3, #:lower16:UART_txBufferWrite
 1687 003c C0F20003 		movt	r3, #:upper16:UART_txBufferWrite
 1688 0040 1B78     		ldrb	r3, [r3, #0]	@ zero_extendqisi2
 1689 0042 9A42     		cmp	r2, r3
 1690 0044 0ED2     		bcs	.L93
ARM GAS  C:\Users\dmtucker\AppData\Local\Temp\ccE6jVLi.s 			page 54


1328:.\Generated_Source\PSoC5/UART.c ****             {
1329:.\Generated_Source\PSoC5/UART.c ****                 size = (UART_txBufferWrite - UART_txBufferRead);
 1691              		.loc 1 1329 0
 1692 0046 40F20003 		movw	r3, #:lower16:UART_txBufferWrite
 1693 004a C0F20003 		movt	r3, #:upper16:UART_txBufferWrite
 1694 004e 1A78     		ldrb	r2, [r3, #0]	@ zero_extendqisi2
 1695 0050 40F20003 		movw	r3, #:lower16:UART_txBufferRead
 1696 0054 C0F20003 		movt	r3, #:upper16:UART_txBufferRead
 1697 0058 1B78     		ldrb	r3, [r3, #0]
 1698 005a DBB2     		uxtb	r3, r3
 1699 005c C3EB0203 		rsb	r3, r3, r2
 1700 0060 FB71     		strb	r3, [r7, #7]
 1701 0062 10E0     		b	.L92
 1702              	.L93:
1330:.\Generated_Source\PSoC5/UART.c ****             }
1331:.\Generated_Source\PSoC5/UART.c ****             else
1332:.\Generated_Source\PSoC5/UART.c ****             {
1333:.\Generated_Source\PSoC5/UART.c ****                 size = (UART_TXBUFFERSIZE - UART_txBufferRead) + UART_txBufferWrite;
 1703              		.loc 1 1333 0
 1704 0064 40F20003 		movw	r3, #:lower16:UART_txBufferWrite
 1705 0068 C0F20003 		movt	r3, #:upper16:UART_txBufferWrite
 1706 006c 1A78     		ldrb	r2, [r3, #0]	@ zero_extendqisi2
 1707 006e 40F20003 		movw	r3, #:lower16:UART_txBufferRead
 1708 0072 C0F20003 		movt	r3, #:upper16:UART_txBufferRead
 1709 0076 1B78     		ldrb	r3, [r3, #0]
 1710 0078 DBB2     		uxtb	r3, r3
 1711 007a C3EB0203 		rsb	r3, r3, r2
 1712 007e DBB2     		uxtb	r3, r3
 1713 0080 03F14003 		add	r3, r3, #64
 1714 0084 FB71     		strb	r3, [r7, #7]
 1715              	.L92:
1334:.\Generated_Source\PSoC5/UART.c ****             }
1335:.\Generated_Source\PSoC5/UART.c **** 
1336:.\Generated_Source\PSoC5/UART.c ****             /* Enable Tx interrupt. */
1337:.\Generated_Source\PSoC5/UART.c ****             #if(UART_TX_INTERRUPT_ENABLED)
1338:.\Generated_Source\PSoC5/UART.c ****                 UART_EnableTxInt();
 1716              		.loc 1 1338 0
 1717 0086 FFF7FEFF 		bl	UART_EnableTxInt
1339:.\Generated_Source\PSoC5/UART.c ****             #endif /* End UART_TX_INTERRUPT_ENABLED */
1340:.\Generated_Source\PSoC5/UART.c **** 
1341:.\Generated_Source\PSoC5/UART.c ****         #else /* UART_TXBUFFERSIZE > UART_FIFO_LENGTH */
1342:.\Generated_Source\PSoC5/UART.c **** 
1343:.\Generated_Source\PSoC5/UART.c ****             size = UART_TXSTATUS_REG;
1344:.\Generated_Source\PSoC5/UART.c **** 
1345:.\Generated_Source\PSoC5/UART.c ****             /* Is the fifo is full. */
1346:.\Generated_Source\PSoC5/UART.c ****             if((size & UART_TX_STS_FIFO_FULL) != 0u)
1347:.\Generated_Source\PSoC5/UART.c ****             {
1348:.\Generated_Source\PSoC5/UART.c ****                 size = UART_FIFO_LENGTH;
1349:.\Generated_Source\PSoC5/UART.c ****             }
1350:.\Generated_Source\PSoC5/UART.c ****             else if((size & UART_TX_STS_FIFO_EMPTY) != 0u)
1351:.\Generated_Source\PSoC5/UART.c ****             {
1352:.\Generated_Source\PSoC5/UART.c ****                 size = 0u;
1353:.\Generated_Source\PSoC5/UART.c ****             }
1354:.\Generated_Source\PSoC5/UART.c ****             else
1355:.\Generated_Source\PSoC5/UART.c ****             {
1356:.\Generated_Source\PSoC5/UART.c ****                 /* We only know there is data in the fifo. */
1357:.\Generated_Source\PSoC5/UART.c ****                 size = 1u;
ARM GAS  C:\Users\dmtucker\AppData\Local\Temp\ccE6jVLi.s 			page 55


1358:.\Generated_Source\PSoC5/UART.c ****             }
1359:.\Generated_Source\PSoC5/UART.c **** 
1360:.\Generated_Source\PSoC5/UART.c ****         #endif /* End UART_TXBUFFERSIZE > UART_FIFO_LENGTH */
1361:.\Generated_Source\PSoC5/UART.c **** 
1362:.\Generated_Source\PSoC5/UART.c ****         return(size);
 1718              		.loc 1 1362 0
 1719 008a FB79     		ldrb	r3, [r7, #7]	@ zero_extendqisi2
1363:.\Generated_Source\PSoC5/UART.c ****     }
 1720              		.loc 1 1363 0
 1721 008c 1846     		mov	r0, r3
 1722 008e 07F10807 		add	r7, r7, #8
 1723 0092 BD46     		mov	sp, r7
 1724 0094 80BD     		pop	{r7, pc}
 1725              		.cfi_endproc
 1726              	.LFE27:
 1727              		.size	UART_GetTxBufferSize, .-UART_GetTxBufferSize
 1728 0096 00BF     		.section	.text.UART_ClearTxBuffer,"ax",%progbits
 1729              		.align	2
 1730              		.global	UART_ClearTxBuffer
 1731              		.thumb
 1732              		.thumb_func
 1733              		.type	UART_ClearTxBuffer, %function
 1734              	UART_ClearTxBuffer:
 1735              	.LFB28:
1364:.\Generated_Source\PSoC5/UART.c **** 
1365:.\Generated_Source\PSoC5/UART.c **** 
1366:.\Generated_Source\PSoC5/UART.c ****     /*******************************************************************************
1367:.\Generated_Source\PSoC5/UART.c ****     * Function Name: UART_ClearTxBuffer
1368:.\Generated_Source\PSoC5/UART.c ****     ********************************************************************************
1369:.\Generated_Source\PSoC5/UART.c ****     *
1370:.\Generated_Source\PSoC5/UART.c ****     * Summary:
1371:.\Generated_Source\PSoC5/UART.c ****     *  Clears the TX RAM buffer by setting the read and write pointers both to zero.
1372:.\Generated_Source\PSoC5/UART.c ****     *  Clears the hardware TX FIFO.  Any data present in the FIFO will not be sent.
1373:.\Generated_Source\PSoC5/UART.c ****     *
1374:.\Generated_Source\PSoC5/UART.c ****     * Parameters:
1375:.\Generated_Source\PSoC5/UART.c ****     *  None.
1376:.\Generated_Source\PSoC5/UART.c ****     *
1377:.\Generated_Source\PSoC5/UART.c ****     * Return:
1378:.\Generated_Source\PSoC5/UART.c ****     *  None.
1379:.\Generated_Source\PSoC5/UART.c ****     *
1380:.\Generated_Source\PSoC5/UART.c ****     * Global Variables:
1381:.\Generated_Source\PSoC5/UART.c ****     *  UART_txBufferWrite - cleared to zero.
1382:.\Generated_Source\PSoC5/UART.c ****     *  UART_txBufferRead - cleared to zero.
1383:.\Generated_Source\PSoC5/UART.c ****     *
1384:.\Generated_Source\PSoC5/UART.c ****     * Reentrant:
1385:.\Generated_Source\PSoC5/UART.c ****     *  No.
1386:.\Generated_Source\PSoC5/UART.c ****     *
1387:.\Generated_Source\PSoC5/UART.c ****     * Theory:
1388:.\Generated_Source\PSoC5/UART.c ****     *  Setting the pointers to zero makes the system believe there is no data to
1389:.\Generated_Source\PSoC5/UART.c ****     *  read and writing will resume at address 0 overwriting any data that may have
1390:.\Generated_Source\PSoC5/UART.c ****     *  remained in the RAM.
1391:.\Generated_Source\PSoC5/UART.c ****     *
1392:.\Generated_Source\PSoC5/UART.c ****     * Side Effects:
1393:.\Generated_Source\PSoC5/UART.c ****     *  Any received data not read from the RAM buffer will be lost when overwritten.
1394:.\Generated_Source\PSoC5/UART.c ****     *
1395:.\Generated_Source\PSoC5/UART.c ****     *******************************************************************************/
1396:.\Generated_Source\PSoC5/UART.c ****     void UART_ClearTxBuffer(void) 
ARM GAS  C:\Users\dmtucker\AppData\Local\Temp\ccE6jVLi.s 			page 56


1397:.\Generated_Source\PSoC5/UART.c ****     {
 1736              		.loc 1 1397 0
 1737              		.cfi_startproc
 1738              		@ args = 0, pretend = 0, frame = 8
 1739              		@ frame_needed = 1, uses_anonymous_args = 0
 1740 0000 80B5     		push	{r7, lr}
 1741              	.LCFI75:
 1742              		.cfi_def_cfa_offset 8
 1743 0002 82B0     		sub	sp, sp, #8
 1744              	.LCFI76:
 1745              		.cfi_def_cfa_offset 16
 1746 0004 00AF     		add	r7, sp, #0
 1747              		.cfi_offset 14, -4
 1748              		.cfi_offset 7, -8
 1749              	.LCFI77:
 1750              		.cfi_def_cfa_register 7
1398:.\Generated_Source\PSoC5/UART.c ****         uint8 enableInterrupts;
1399:.\Generated_Source\PSoC5/UART.c **** 
1400:.\Generated_Source\PSoC5/UART.c ****         /* Enter critical section */
1401:.\Generated_Source\PSoC5/UART.c ****         enableInterrupts = CyEnterCriticalSection();
 1751              		.loc 1 1401 0
 1752 0006 FFF7FEFF 		bl	CyEnterCriticalSection
 1753 000a 0346     		mov	r3, r0
 1754 000c FB71     		strb	r3, [r7, #7]
1402:.\Generated_Source\PSoC5/UART.c ****         /* clear the HW FIFO */
1403:.\Generated_Source\PSoC5/UART.c ****         UART_TXDATA_AUX_CTL_REG |=  UART_TX_FIFO_CLR;
 1755              		.loc 1 1403 0
 1756 000e 46F29443 		movw	r3, #:lower16:1073767572
 1757 0012 C4F20003 		movt	r3, #:upper16:1073767572
 1758 0016 46F29442 		movw	r2, #:lower16:1073767572
 1759 001a C4F20002 		movt	r2, #:upper16:1073767572
 1760 001e 1278     		ldrb	r2, [r2, #0]
 1761 0020 D2B2     		uxtb	r2, r2
 1762 0022 42F00102 		orr	r2, r2, #1
 1763 0026 D2B2     		uxtb	r2, r2
 1764 0028 1A70     		strb	r2, [r3, #0]
1404:.\Generated_Source\PSoC5/UART.c ****         UART_TXDATA_AUX_CTL_REG &= (uint8)~UART_TX_FIFO_CLR;
 1765              		.loc 1 1404 0
 1766 002a 46F29443 		movw	r3, #:lower16:1073767572
 1767 002e C4F20003 		movt	r3, #:upper16:1073767572
 1768 0032 46F29442 		movw	r2, #:lower16:1073767572
 1769 0036 C4F20002 		movt	r2, #:upper16:1073767572
 1770 003a 1278     		ldrb	r2, [r2, #0]
 1771 003c D2B2     		uxtb	r2, r2
 1772 003e 02F0FE02 		and	r2, r2, #254
 1773 0042 1A70     		strb	r2, [r3, #0]
1405:.\Generated_Source\PSoC5/UART.c ****         /* Exit critical section */
1406:.\Generated_Source\PSoC5/UART.c ****         CyExitCriticalSection(enableInterrupts);
 1774              		.loc 1 1406 0
 1775 0044 FB79     		ldrb	r3, [r7, #7]	@ zero_extendqisi2
 1776 0046 1846     		mov	r0, r3
 1777 0048 FFF7FEFF 		bl	CyExitCriticalSection
1407:.\Generated_Source\PSoC5/UART.c **** 
1408:.\Generated_Source\PSoC5/UART.c ****         #if(UART_TXBUFFERSIZE > UART_FIFO_LENGTH)
1409:.\Generated_Source\PSoC5/UART.c **** 
1410:.\Generated_Source\PSoC5/UART.c ****             /* Disable Tx interrupt. */
1411:.\Generated_Source\PSoC5/UART.c ****             /* Protect variables that could change on interrupt. */
ARM GAS  C:\Users\dmtucker\AppData\Local\Temp\ccE6jVLi.s 			page 57


1412:.\Generated_Source\PSoC5/UART.c ****             #if(UART_TX_INTERRUPT_ENABLED)
1413:.\Generated_Source\PSoC5/UART.c ****                 UART_DisableTxInt();
 1778              		.loc 1 1413 0
 1779 004c FFF7FEFF 		bl	UART_DisableTxInt
1414:.\Generated_Source\PSoC5/UART.c ****             #endif /* End UART_TX_INTERRUPT_ENABLED */
1415:.\Generated_Source\PSoC5/UART.c **** 
1416:.\Generated_Source\PSoC5/UART.c ****             UART_txBufferRead = 0u;
 1780              		.loc 1 1416 0
 1781 0050 40F20003 		movw	r3, #:lower16:UART_txBufferRead
 1782 0054 C0F20003 		movt	r3, #:upper16:UART_txBufferRead
 1783 0058 4FF00002 		mov	r2, #0
 1784 005c 1A70     		strb	r2, [r3, #0]
1417:.\Generated_Source\PSoC5/UART.c ****             UART_txBufferWrite = 0u;
 1785              		.loc 1 1417 0
 1786 005e 40F20003 		movw	r3, #:lower16:UART_txBufferWrite
 1787 0062 C0F20003 		movt	r3, #:upper16:UART_txBufferWrite
 1788 0066 4FF00002 		mov	r2, #0
 1789 006a 1A70     		strb	r2, [r3, #0]
1418:.\Generated_Source\PSoC5/UART.c **** 
1419:.\Generated_Source\PSoC5/UART.c ****             /* Enable Tx interrupt. */
1420:.\Generated_Source\PSoC5/UART.c ****             #if(UART_TX_INTERRUPT_ENABLED)
1421:.\Generated_Source\PSoC5/UART.c ****                 UART_EnableTxInt();
 1790              		.loc 1 1421 0
 1791 006c FFF7FEFF 		bl	UART_EnableTxInt
1422:.\Generated_Source\PSoC5/UART.c ****             #endif /* End UART_TX_INTERRUPT_ENABLED */
1423:.\Generated_Source\PSoC5/UART.c **** 
1424:.\Generated_Source\PSoC5/UART.c ****         #endif /* End UART_TXBUFFERSIZE > UART_FIFO_LENGTH */
1425:.\Generated_Source\PSoC5/UART.c ****     }
 1792              		.loc 1 1425 0
 1793 0070 07F10807 		add	r7, r7, #8
 1794 0074 BD46     		mov	sp, r7
 1795 0076 80BD     		pop	{r7, pc}
 1796              		.cfi_endproc
 1797              	.LFE28:
 1798              		.size	UART_ClearTxBuffer, .-UART_ClearTxBuffer
 1799              		.section	.text.UART_SendBreak,"ax",%progbits
 1800              		.align	2
 1801              		.global	UART_SendBreak
 1802              		.thumb
 1803              		.thumb_func
 1804              		.type	UART_SendBreak, %function
 1805              	UART_SendBreak:
 1806              	.LFB29:
1426:.\Generated_Source\PSoC5/UART.c **** 
1427:.\Generated_Source\PSoC5/UART.c **** 
1428:.\Generated_Source\PSoC5/UART.c ****     /*******************************************************************************
1429:.\Generated_Source\PSoC5/UART.c ****     * Function Name: UART_SendBreak
1430:.\Generated_Source\PSoC5/UART.c ****     ********************************************************************************
1431:.\Generated_Source\PSoC5/UART.c ****     *
1432:.\Generated_Source\PSoC5/UART.c ****     * Summary:
1433:.\Generated_Source\PSoC5/UART.c ****     *  Write a Break command to the UART
1434:.\Generated_Source\PSoC5/UART.c ****     *
1435:.\Generated_Source\PSoC5/UART.c ****     * Parameters:
1436:.\Generated_Source\PSoC5/UART.c ****     *  uint8 retMode:  Wait mode,
1437:.\Generated_Source\PSoC5/UART.c ****     *   0 - Initialize registers for Break, sends the Break signal and return
1438:.\Generated_Source\PSoC5/UART.c ****     *       imediately.
1439:.\Generated_Source\PSoC5/UART.c ****     *   1 - Wait until Break sending is complete, reinitialize registers to normal
ARM GAS  C:\Users\dmtucker\AppData\Local\Temp\ccE6jVLi.s 			page 58


1440:.\Generated_Source\PSoC5/UART.c ****     *       transmission mode then return.
1441:.\Generated_Source\PSoC5/UART.c ****     *   2 - Reinitialize registers to normal transmission mode then return.
1442:.\Generated_Source\PSoC5/UART.c ****     *   3 - both steps: 0 and 1
1443:.\Generated_Source\PSoC5/UART.c ****     *       init registers for Break, send Break signal
1444:.\Generated_Source\PSoC5/UART.c ****     *       wait until Break sending is complete, reinit registers to normal
1445:.\Generated_Source\PSoC5/UART.c ****     *       transmission mode then return.
1446:.\Generated_Source\PSoC5/UART.c ****     *
1447:.\Generated_Source\PSoC5/UART.c ****     * Return:
1448:.\Generated_Source\PSoC5/UART.c ****     *  None.
1449:.\Generated_Source\PSoC5/UART.c ****     *
1450:.\Generated_Source\PSoC5/UART.c ****     * Global Variables:
1451:.\Generated_Source\PSoC5/UART.c ****     *  UART_initVar - checked to identify that the component has been
1452:.\Generated_Source\PSoC5/UART.c ****     *     initialized.
1453:.\Generated_Source\PSoC5/UART.c ****     *  tx_period - static variable, used for keeping TX period configuration.
1454:.\Generated_Source\PSoC5/UART.c ****     *
1455:.\Generated_Source\PSoC5/UART.c ****     * Reentrant:
1456:.\Generated_Source\PSoC5/UART.c ****     *  No.
1457:.\Generated_Source\PSoC5/UART.c ****     *
1458:.\Generated_Source\PSoC5/UART.c ****     * Theory:
1459:.\Generated_Source\PSoC5/UART.c ****     *  SendBreak function initializes registers to send 13-bit break signal. It is
1460:.\Generated_Source\PSoC5/UART.c ****     *  important to return the registers configuration to normal for continue 8-bit
1461:.\Generated_Source\PSoC5/UART.c ****     *  operation.
1462:.\Generated_Source\PSoC5/UART.c ****     *  Trere are 3 variants for this API usage:
1463:.\Generated_Source\PSoC5/UART.c ****     *  1) SendBreak(3) - function will send the Break signal and take care on the
1464:.\Generated_Source\PSoC5/UART.c ****     *     configuration returning. Funcition will block CPU untill transmition
1465:.\Generated_Source\PSoC5/UART.c ****     *     complete.
1466:.\Generated_Source\PSoC5/UART.c ****     *  2) User may want to use bloking time if UART configured to the low speed
1467:.\Generated_Source\PSoC5/UART.c ****     *     operation
1468:.\Generated_Source\PSoC5/UART.c ****     *     Emample for this case:
1469:.\Generated_Source\PSoC5/UART.c ****     *     SendBreak(0);     - init Break signal transmition
1470:.\Generated_Source\PSoC5/UART.c ****     *         Add your code here to use CPU time
1471:.\Generated_Source\PSoC5/UART.c ****     *     SendBreak(1);     - complete Break operation
1472:.\Generated_Source\PSoC5/UART.c ****     *  3) Same to 2) but user may want to init and use the interrupt for complete
1473:.\Generated_Source\PSoC5/UART.c ****     *     break operation.
1474:.\Generated_Source\PSoC5/UART.c ****     *     Example for this case:
1475:.\Generated_Source\PSoC5/UART.c ****     *     Init TX interrupt whith "TX - On TX Complete" parameter
1476:.\Generated_Source\PSoC5/UART.c ****     *     SendBreak(0);     - init Break signal transmition
1477:.\Generated_Source\PSoC5/UART.c ****     *         Add your code here to use CPU time
1478:.\Generated_Source\PSoC5/UART.c ****     *     When interrupt appear with UART_TX_STS_COMPLETE status:
1479:.\Generated_Source\PSoC5/UART.c ****     *     SendBreak(2);     - complete Break operation
1480:.\Generated_Source\PSoC5/UART.c ****     *
1481:.\Generated_Source\PSoC5/UART.c ****     * Side Effects:
1482:.\Generated_Source\PSoC5/UART.c ****     *   Uses static variable to keep registers configuration.
1483:.\Generated_Source\PSoC5/UART.c ****     *
1484:.\Generated_Source\PSoC5/UART.c ****     *******************************************************************************/
1485:.\Generated_Source\PSoC5/UART.c ****     void UART_SendBreak(uint8 retMode) 
1486:.\Generated_Source\PSoC5/UART.c ****     {
 1807              		.loc 1 1486 0
 1808              		.cfi_startproc
 1809              		@ args = 0, pretend = 0, frame = 16
 1810              		@ frame_needed = 1, uses_anonymous_args = 0
 1811 0000 80B5     		push	{r7, lr}
 1812              	.LCFI78:
 1813              		.cfi_def_cfa_offset 8
 1814 0002 84B0     		sub	sp, sp, #16
 1815              	.LCFI79:
 1816              		.cfi_def_cfa_offset 24
ARM GAS  C:\Users\dmtucker\AppData\Local\Temp\ccE6jVLi.s 			page 59


 1817 0004 00AF     		add	r7, sp, #0
 1818              		.cfi_offset 14, -4
 1819              		.cfi_offset 7, -8
 1820              	.LCFI80:
 1821              		.cfi_def_cfa_register 7
 1822 0006 0346     		mov	r3, r0
 1823 0008 FB71     		strb	r3, [r7, #7]
1487:.\Generated_Source\PSoC5/UART.c **** 
1488:.\Generated_Source\PSoC5/UART.c ****         /* If not Initialized then skip this function*/
1489:.\Generated_Source\PSoC5/UART.c ****         if(UART_initVar != 0u)
 1824              		.loc 1 1489 0
 1825 000a 40F20003 		movw	r3, #:lower16:UART_initVar
 1826 000e C0F20003 		movt	r3, #:upper16:UART_initVar
 1827 0012 1B78     		ldrb	r3, [r3, #0]	@ zero_extendqisi2
 1828 0014 002B     		cmp	r3, #0
 1829 0016 65D0     		beq	.L107
 1830              	.LBB2:
1490:.\Generated_Source\PSoC5/UART.c ****         {
1491:.\Generated_Source\PSoC5/UART.c ****             /*Set the Counter to 13-bits and transmit a 00 byte*/
1492:.\Generated_Source\PSoC5/UART.c ****             /*When that is done then reset the counter value back*/
1493:.\Generated_Source\PSoC5/UART.c ****             uint8 tmpStat;
1494:.\Generated_Source\PSoC5/UART.c **** 
1495:.\Generated_Source\PSoC5/UART.c ****             #if(UART_HD_ENABLED) /* Half Duplex mode*/
1496:.\Generated_Source\PSoC5/UART.c **** 
1497:.\Generated_Source\PSoC5/UART.c ****                 if( (retMode == UART_SEND_BREAK) ||
1498:.\Generated_Source\PSoC5/UART.c ****                     (retMode == UART_SEND_WAIT_REINIT ) )
1499:.\Generated_Source\PSoC5/UART.c ****                 {
1500:.\Generated_Source\PSoC5/UART.c ****                     /* CTRL_HD_SEND_BREAK - sends break bits in HD mode*/
1501:.\Generated_Source\PSoC5/UART.c ****                     UART_WriteControlRegister(UART_ReadControlRegister() |
1502:.\Generated_Source\PSoC5/UART.c ****                                                           UART_CTRL_HD_SEND_BREAK);
1503:.\Generated_Source\PSoC5/UART.c ****                     /* Send zeros*/
1504:.\Generated_Source\PSoC5/UART.c ****                     UART_TXDATA_REG = 0u;
1505:.\Generated_Source\PSoC5/UART.c **** 
1506:.\Generated_Source\PSoC5/UART.c ****                     do /*wait until transmit starts*/
1507:.\Generated_Source\PSoC5/UART.c ****                     {
1508:.\Generated_Source\PSoC5/UART.c ****                         tmpStat = UART_TXSTATUS_REG;
1509:.\Generated_Source\PSoC5/UART.c ****                     }while((tmpStat & UART_TX_STS_FIFO_EMPTY) != 0u);
1510:.\Generated_Source\PSoC5/UART.c ****                 }
1511:.\Generated_Source\PSoC5/UART.c **** 
1512:.\Generated_Source\PSoC5/UART.c ****                 if( (retMode == UART_WAIT_FOR_COMPLETE_REINIT) ||
1513:.\Generated_Source\PSoC5/UART.c ****                     (retMode == UART_SEND_WAIT_REINIT) )
1514:.\Generated_Source\PSoC5/UART.c ****                 {
1515:.\Generated_Source\PSoC5/UART.c ****                     do /*wait until transmit complete*/
1516:.\Generated_Source\PSoC5/UART.c ****                     {
1517:.\Generated_Source\PSoC5/UART.c ****                         tmpStat = UART_TXSTATUS_REG;
1518:.\Generated_Source\PSoC5/UART.c ****                     }while(((uint8)~tmpStat & UART_TX_STS_COMPLETE) != 0u);
1519:.\Generated_Source\PSoC5/UART.c ****                 }
1520:.\Generated_Source\PSoC5/UART.c **** 
1521:.\Generated_Source\PSoC5/UART.c ****                 if( (retMode == UART_WAIT_FOR_COMPLETE_REINIT) ||
1522:.\Generated_Source\PSoC5/UART.c ****                     (retMode == UART_REINIT) ||
1523:.\Generated_Source\PSoC5/UART.c ****                     (retMode == UART_SEND_WAIT_REINIT) )
1524:.\Generated_Source\PSoC5/UART.c ****                 {
1525:.\Generated_Source\PSoC5/UART.c ****                     UART_WriteControlRegister(UART_ReadControlRegister() &
1526:.\Generated_Source\PSoC5/UART.c ****                                                   (uint8)~UART_CTRL_HD_SEND_BREAK);
1527:.\Generated_Source\PSoC5/UART.c ****                 }
1528:.\Generated_Source\PSoC5/UART.c **** 
1529:.\Generated_Source\PSoC5/UART.c ****             #else /* UART_HD_ENABLED Full Duplex mode */
ARM GAS  C:\Users\dmtucker\AppData\Local\Temp\ccE6jVLi.s 			page 60


1530:.\Generated_Source\PSoC5/UART.c **** 
1531:.\Generated_Source\PSoC5/UART.c ****                 static uint8 tx_period;
1532:.\Generated_Source\PSoC5/UART.c **** 
1533:.\Generated_Source\PSoC5/UART.c ****                 if( (retMode == UART_SEND_BREAK) ||
 1831              		.loc 1 1533 0
 1832 0018 FB79     		ldrb	r3, [r7, #7]	@ zero_extendqisi2
 1833 001a 002B     		cmp	r3, #0
 1834 001c 02D0     		beq	.L99
 1835 001e FB79     		ldrb	r3, [r7, #7]	@ zero_extendqisi2
 1836 0020 032B     		cmp	r3, #3
 1837 0022 2CD1     		bne	.L100
 1838              	.L99:
1534:.\Generated_Source\PSoC5/UART.c ****                     (retMode == UART_SEND_WAIT_REINIT) )
1535:.\Generated_Source\PSoC5/UART.c ****                 {
1536:.\Generated_Source\PSoC5/UART.c ****                     /* CTRL_HD_SEND_BREAK - skip to send parity bit at Break signal in Full Duplex 
1537:.\Generated_Source\PSoC5/UART.c ****                     #if( (UART_PARITY_TYPE != UART__B_UART__NONE_REVB) || \
1538:.\Generated_Source\PSoC5/UART.c ****                                         (UART_PARITY_TYPE_SW != 0u) )
1539:.\Generated_Source\PSoC5/UART.c ****                         UART_WriteControlRegister(UART_ReadControlRegister() |
 1839              		.loc 1 1539 0
 1840 0024 FFF7FEFF 		bl	UART_ReadControlRegister
 1841 0028 0346     		mov	r3, r0
 1842 002a 43F00203 		orr	r3, r3, #2
 1843 002e DBB2     		uxtb	r3, r3
 1844 0030 1846     		mov	r0, r3
 1845 0032 FFF7FEFF 		bl	UART_WriteControlRegister
1540:.\Generated_Source\PSoC5/UART.c ****                                                               UART_CTRL_HD_SEND_BREAK);
1541:.\Generated_Source\PSoC5/UART.c ****                     #endif /* End UART_PARITY_TYPE != UART__B_UART__NONE_REVB  */
1542:.\Generated_Source\PSoC5/UART.c **** 
1543:.\Generated_Source\PSoC5/UART.c ****                     #if(UART_TXCLKGEN_DP)
1544:.\Generated_Source\PSoC5/UART.c ****                         tx_period = UART_TXBITCLKTX_COMPLETE_REG;
 1846              		.loc 1 1544 0
 1847 0036 46F23043 		movw	r3, #:lower16:1073767472
 1848 003a C4F20003 		movt	r3, #:upper16:1073767472
 1849 003e 1B78     		ldrb	r3, [r3, #0]
 1850 0040 DAB2     		uxtb	r2, r3
 1851 0042 40F20003 		movw	r3, #:lower16:tx_period.2400
 1852 0046 C0F20003 		movt	r3, #:upper16:tx_period.2400
 1853 004a 1A70     		strb	r2, [r3, #0]
1545:.\Generated_Source\PSoC5/UART.c ****                         UART_TXBITCLKTX_COMPLETE_REG = UART_TXBITCTR_BREAKBITS;
 1854              		.loc 1 1545 0
 1855 004c 46F23043 		movw	r3, #:lower16:1073767472
 1856 0050 C4F20003 		movt	r3, #:upper16:1073767472
 1857 0054 6FF03002 		mvn	r2, #48
 1858 0058 1A70     		strb	r2, [r3, #0]
1546:.\Generated_Source\PSoC5/UART.c ****                     #else
1547:.\Generated_Source\PSoC5/UART.c ****                         tx_period = UART_TXBITCTR_PERIOD_REG;
1548:.\Generated_Source\PSoC5/UART.c ****                         UART_TXBITCTR_PERIOD_REG = UART_TXBITCTR_BREAKBITS8X;
1549:.\Generated_Source\PSoC5/UART.c ****                     #endif /* End UART_TXCLKGEN_DP */
1550:.\Generated_Source\PSoC5/UART.c **** 
1551:.\Generated_Source\PSoC5/UART.c ****                     /* Send zeros*/
1552:.\Generated_Source\PSoC5/UART.c ****                     UART_TXDATA_REG = 0u;
 1859              		.loc 1 1552 0
 1860 005a 46F24443 		movw	r3, #:lower16:1073767492
 1861 005e C4F20003 		movt	r3, #:upper16:1073767492
 1862 0062 4FF00002 		mov	r2, #0
 1863 0066 1A70     		strb	r2, [r3, #0]
 1864              	.L101:
ARM GAS  C:\Users\dmtucker\AppData\Local\Temp\ccE6jVLi.s 			page 61


1553:.\Generated_Source\PSoC5/UART.c **** 
1554:.\Generated_Source\PSoC5/UART.c ****                     do /* wait until transmit starts */
1555:.\Generated_Source\PSoC5/UART.c ****                     {
1556:.\Generated_Source\PSoC5/UART.c ****                         tmpStat = UART_TXSTATUS_REG;
 1865              		.loc 1 1556 0
 1866 0068 46F26443 		movw	r3, #:lower16:1073767524
 1867 006c C4F20003 		movt	r3, #:upper16:1073767524
 1868 0070 1B78     		ldrb	r3, [r3, #0]
 1869 0072 FB73     		strb	r3, [r7, #15]
1557:.\Generated_Source\PSoC5/UART.c ****                     }while((tmpStat & UART_TX_STS_FIFO_EMPTY) != 0u);
 1870              		.loc 1 1557 0
 1871 0074 FB7B     		ldrb	r3, [r7, #15]	@ zero_extendqisi2
 1872 0076 03F00203 		and	r3, r3, #2
 1873 007a 002B     		cmp	r3, #0
 1874 007c F4D1     		bne	.L101
 1875              	.L100:
1558:.\Generated_Source\PSoC5/UART.c ****                 }
1559:.\Generated_Source\PSoC5/UART.c **** 
1560:.\Generated_Source\PSoC5/UART.c ****                 if( (retMode == UART_WAIT_FOR_COMPLETE_REINIT) ||
 1876              		.loc 1 1560 0
 1877 007e FB79     		ldrb	r3, [r7, #7]	@ zero_extendqisi2
 1878 0080 012B     		cmp	r3, #1
 1879 0082 02D0     		beq	.L102
 1880 0084 FB79     		ldrb	r3, [r7, #7]	@ zero_extendqisi2
 1881 0086 032B     		cmp	r3, #3
 1882 0088 11D1     		bne	.L103
 1883              	.L102:
1561:.\Generated_Source\PSoC5/UART.c ****                     (retMode == UART_SEND_WAIT_REINIT) )
1562:.\Generated_Source\PSoC5/UART.c ****                 {
1563:.\Generated_Source\PSoC5/UART.c ****                     do /*wait until transmit complete*/
1564:.\Generated_Source\PSoC5/UART.c ****                     {
1565:.\Generated_Source\PSoC5/UART.c ****                         tmpStat = UART_TXSTATUS_REG;
 1884              		.loc 1 1565 0
 1885 008a 46F26443 		movw	r3, #:lower16:1073767524
 1886 008e C4F20003 		movt	r3, #:upper16:1073767524
 1887 0092 1B78     		ldrb	r3, [r3, #0]
 1888 0094 FB73     		strb	r3, [r7, #15]
1566:.\Generated_Source\PSoC5/UART.c ****                     }while(((uint8)~tmpStat & UART_TX_STS_COMPLETE) != 0u);
 1889              		.loc 1 1566 0
 1890 0096 FB7B     		ldrb	r3, [r7, #15]	@ zero_extendqisi2
 1891 0098 03F00103 		and	r3, r3, #1
 1892 009c 002B     		cmp	r3, #0
 1893 009e 02D1     		bne	.L104
 1894 00a0 4FF00103 		mov	r3, #1
 1895 00a4 01E0     		b	.L105
 1896              	.L104:
 1897 00a6 4FF00003 		mov	r3, #0
 1898              	.L105:
 1899 00aa 002B     		cmp	r3, #0
 1900 00ac EDD1     		bne	.L102
 1901              	.L103:
1567:.\Generated_Source\PSoC5/UART.c ****                 }
1568:.\Generated_Source\PSoC5/UART.c **** 
1569:.\Generated_Source\PSoC5/UART.c ****                 if( (retMode == UART_WAIT_FOR_COMPLETE_REINIT) ||
 1902              		.loc 1 1569 0
 1903 00ae FB79     		ldrb	r3, [r7, #7]	@ zero_extendqisi2
 1904 00b0 012B     		cmp	r3, #1
ARM GAS  C:\Users\dmtucker\AppData\Local\Temp\ccE6jVLi.s 			page 62


 1905 00b2 05D0     		beq	.L106
 1906 00b4 FB79     		ldrb	r3, [r7, #7]	@ zero_extendqisi2
 1907 00b6 022B     		cmp	r3, #2
 1908 00b8 02D0     		beq	.L106
 1909 00ba FB79     		ldrb	r3, [r7, #7]	@ zero_extendqisi2
 1910 00bc 032B     		cmp	r3, #3
 1911 00be 11D1     		bne	.L107
 1912              	.L106:
1570:.\Generated_Source\PSoC5/UART.c ****                     (retMode == UART_REINIT) ||
1571:.\Generated_Source\PSoC5/UART.c ****                     (retMode == UART_SEND_WAIT_REINIT) )
1572:.\Generated_Source\PSoC5/UART.c ****                 {
1573:.\Generated_Source\PSoC5/UART.c **** 
1574:.\Generated_Source\PSoC5/UART.c ****                     #if(UART_TXCLKGEN_DP)
1575:.\Generated_Source\PSoC5/UART.c ****                         UART_TXBITCLKTX_COMPLETE_REG = tx_period;
 1913              		.loc 1 1575 0
 1914 00c0 46F23043 		movw	r3, #:lower16:1073767472
 1915 00c4 C4F20003 		movt	r3, #:upper16:1073767472
 1916 00c8 40F20002 		movw	r2, #:lower16:tx_period.2400
 1917 00cc C0F20002 		movt	r2, #:upper16:tx_period.2400
 1918 00d0 1278     		ldrb	r2, [r2, #0]	@ zero_extendqisi2
 1919 00d2 1A70     		strb	r2, [r3, #0]
1576:.\Generated_Source\PSoC5/UART.c ****                     #else
1577:.\Generated_Source\PSoC5/UART.c ****                         UART_TXBITCTR_PERIOD_REG = tx_period;
1578:.\Generated_Source\PSoC5/UART.c ****                     #endif /* End UART_TXCLKGEN_DP */
1579:.\Generated_Source\PSoC5/UART.c **** 
1580:.\Generated_Source\PSoC5/UART.c ****                     #if( (UART_PARITY_TYPE != UART__B_UART__NONE_REVB) || \
1581:.\Generated_Source\PSoC5/UART.c ****                          (UART_PARITY_TYPE_SW != 0u) )
1582:.\Generated_Source\PSoC5/UART.c ****                         UART_WriteControlRegister(UART_ReadControlRegister() &
 1920              		.loc 1 1582 0
 1921 00d4 FFF7FEFF 		bl	UART_ReadControlRegister
 1922 00d8 0346     		mov	r3, r0
 1923 00da 03F0FD03 		and	r3, r3, #253
 1924 00de 1846     		mov	r0, r3
 1925 00e0 FFF7FEFF 		bl	UART_WriteControlRegister
 1926              	.L107:
 1927              	.LBE2:
1583:.\Generated_Source\PSoC5/UART.c ****                                                       (uint8)~UART_CTRL_HD_SEND_BREAK);
1584:.\Generated_Source\PSoC5/UART.c ****                     #endif /* End UART_PARITY_TYPE != NONE */
1585:.\Generated_Source\PSoC5/UART.c ****                 }
1586:.\Generated_Source\PSoC5/UART.c ****             #endif    /* End UART_HD_ENABLED */
1587:.\Generated_Source\PSoC5/UART.c ****         }
1588:.\Generated_Source\PSoC5/UART.c ****     }
 1928              		.loc 1 1588 0
 1929 00e4 07F11007 		add	r7, r7, #16
 1930 00e8 BD46     		mov	sp, r7
 1931 00ea 80BD     		pop	{r7, pc}
 1932              		.cfi_endproc
 1933              	.LFE29:
 1934              		.size	UART_SendBreak, .-UART_SendBreak
 1935              		.section	.text.UART_SetTxAddressMode,"ax",%progbits
 1936              		.align	2
 1937              		.global	UART_SetTxAddressMode
 1938              		.thumb
 1939              		.thumb_func
 1940              		.type	UART_SetTxAddressMode, %function
 1941              	UART_SetTxAddressMode:
 1942              	.LFB30:
ARM GAS  C:\Users\dmtucker\AppData\Local\Temp\ccE6jVLi.s 			page 63


1589:.\Generated_Source\PSoC5/UART.c **** 
1590:.\Generated_Source\PSoC5/UART.c **** 
1591:.\Generated_Source\PSoC5/UART.c ****     /*******************************************************************************
1592:.\Generated_Source\PSoC5/UART.c ****     * Function Name: UART_SetTxAddressMode
1593:.\Generated_Source\PSoC5/UART.c ****     ********************************************************************************
1594:.\Generated_Source\PSoC5/UART.c ****     *
1595:.\Generated_Source\PSoC5/UART.c ****     * Summary:
1596:.\Generated_Source\PSoC5/UART.c ****     *  Set the transmit addressing mode
1597:.\Generated_Source\PSoC5/UART.c ****     *
1598:.\Generated_Source\PSoC5/UART.c ****     * Parameters:
1599:.\Generated_Source\PSoC5/UART.c ****     *  addressMode: 0 -> Space
1600:.\Generated_Source\PSoC5/UART.c ****     *               1 -> Mark
1601:.\Generated_Source\PSoC5/UART.c ****     *
1602:.\Generated_Source\PSoC5/UART.c ****     * Return:
1603:.\Generated_Source\PSoC5/UART.c ****     *  None.
1604:.\Generated_Source\PSoC5/UART.c ****     *
1605:.\Generated_Source\PSoC5/UART.c ****     *******************************************************************************/
1606:.\Generated_Source\PSoC5/UART.c ****     void UART_SetTxAddressMode(uint8 addressMode) 
1607:.\Generated_Source\PSoC5/UART.c ****     {
 1943              		.loc 1 1607 0
 1944              		.cfi_startproc
 1945              		@ args = 0, pretend = 0, frame = 8
 1946              		@ frame_needed = 1, uses_anonymous_args = 0
 1947              		@ link register save eliminated.
 1948 0000 80B4     		push	{r7}
 1949              	.LCFI81:
 1950              		.cfi_def_cfa_offset 4
 1951 0002 83B0     		sub	sp, sp, #12
 1952              	.LCFI82:
 1953              		.cfi_def_cfa_offset 16
 1954 0004 00AF     		add	r7, sp, #0
 1955              		.cfi_offset 7, -4
 1956              	.LCFI83:
 1957              		.cfi_def_cfa_register 7
 1958 0006 0346     		mov	r3, r0
 1959 0008 FB71     		strb	r3, [r7, #7]
1608:.\Generated_Source\PSoC5/UART.c ****         /* Mark/Space sending enable*/
1609:.\Generated_Source\PSoC5/UART.c ****         if(addressMode != 0u)
1610:.\Generated_Source\PSoC5/UART.c ****         {
1611:.\Generated_Source\PSoC5/UART.c ****             #if( UART_CONTROL_REG_REMOVED == 0u )
1612:.\Generated_Source\PSoC5/UART.c ****                 UART_WriteControlRegister(UART_ReadControlRegister() |
1613:.\Generated_Source\PSoC5/UART.c ****                                                       UART_CTRL_MARK);
1614:.\Generated_Source\PSoC5/UART.c ****             #endif /* End UART_CONTROL_REG_REMOVED == 0u */
1615:.\Generated_Source\PSoC5/UART.c ****         }
1616:.\Generated_Source\PSoC5/UART.c ****         else
1617:.\Generated_Source\PSoC5/UART.c ****         {
1618:.\Generated_Source\PSoC5/UART.c ****             #if( UART_CONTROL_REG_REMOVED == 0u )
1619:.\Generated_Source\PSoC5/UART.c ****                 UART_WriteControlRegister(UART_ReadControlRegister() &
1620:.\Generated_Source\PSoC5/UART.c ****                                                     (uint8)~UART_CTRL_MARK);
1621:.\Generated_Source\PSoC5/UART.c ****             #endif /* End UART_CONTROL_REG_REMOVED == 0u */
1622:.\Generated_Source\PSoC5/UART.c ****         }
1623:.\Generated_Source\PSoC5/UART.c ****     }
 1960              		.loc 1 1623 0
 1961 000a 07F10C07 		add	r7, r7, #12
 1962 000e BD46     		mov	sp, r7
 1963 0010 80BC     		pop	{r7}
 1964 0012 7047     		bx	lr
ARM GAS  C:\Users\dmtucker\AppData\Local\Temp\ccE6jVLi.s 			page 64


 1965              		.cfi_endproc
 1966              	.LFE30:
 1967              		.size	UART_SetTxAddressMode, .-UART_SetTxAddressMode
 1968              		.bss
 1969              	tx_period.2400:
 1970 0007 00       		.space	1
 1971              		.text
 1972              	.Letext0:
 1973              		.section	.debug_loc,"",%progbits
 1974              	.Ldebug_loc0:
 1975              	.LLST0:
 1976 0000 00000000 		.4byte	.LFB0
 1977 0004 02000000 		.4byte	.LCFI0
 1978 0008 0100     		.2byte	0x1
 1979 000a 5D       		.byte	0x5d
 1980 000b 02000000 		.4byte	.LCFI0
 1981 000f 04000000 		.4byte	.LCFI1
 1982 0013 0200     		.2byte	0x2
 1983 0015 7D       		.byte	0x7d
 1984 0016 08       		.sleb128 8
 1985 0017 04000000 		.4byte	.LCFI1
 1986 001b 2A000000 		.4byte	.LFE0
 1987 001f 0200     		.2byte	0x2
 1988 0021 77       		.byte	0x77
 1989 0022 08       		.sleb128 8
 1990 0023 00000000 		.4byte	0x0
 1991 0027 00000000 		.4byte	0x0
 1992              	.LLST1:
 1993 002b 00000000 		.4byte	.LFB1
 1994 002f 02000000 		.4byte	.LCFI2
 1995 0033 0100     		.2byte	0x1
 1996 0035 5D       		.byte	0x5d
 1997 0036 02000000 		.4byte	.LCFI2
 1998 003a 04000000 		.4byte	.LCFI3
 1999 003e 0200     		.2byte	0x2
 2000 0040 7D       		.byte	0x7d
 2001 0041 08       		.sleb128 8
 2002 0042 04000000 		.4byte	.LCFI3
 2003 0046 84000000 		.4byte	.LFE1
 2004 004a 0200     		.2byte	0x2
 2005 004c 77       		.byte	0x77
 2006 004d 08       		.sleb128 8
 2007 004e 00000000 		.4byte	0x0
 2008 0052 00000000 		.4byte	0x0
 2009              	.LLST2:
 2010 0056 00000000 		.4byte	.LFB2
 2011 005a 02000000 		.4byte	.LCFI4
 2012 005e 0100     		.2byte	0x1
 2013 0060 5D       		.byte	0x5d
 2014 0061 02000000 		.4byte	.LCFI4
 2015 0065 04000000 		.4byte	.LCFI5
 2016 0069 0200     		.2byte	0x2
 2017 006b 7D       		.byte	0x7d
 2018 006c 08       		.sleb128 8
 2019 006d 04000000 		.4byte	.LCFI5
 2020 0071 06000000 		.4byte	.LCFI6
 2021 0075 0200     		.2byte	0x2
ARM GAS  C:\Users\dmtucker\AppData\Local\Temp\ccE6jVLi.s 			page 65


 2022 0077 7D       		.byte	0x7d
 2023 0078 10       		.sleb128 16
 2024 0079 06000000 		.4byte	.LCFI6
 2025 007d 92000000 		.4byte	.LFE2
 2026 0081 0200     		.2byte	0x2
 2027 0083 77       		.byte	0x77
 2028 0084 10       		.sleb128 16
 2029 0085 00000000 		.4byte	0x0
 2030 0089 00000000 		.4byte	0x0
 2031              	.LLST3:
 2032 008d 00000000 		.4byte	.LFB3
 2033 0091 02000000 		.4byte	.LCFI7
 2034 0095 0100     		.2byte	0x1
 2035 0097 5D       		.byte	0x5d
 2036 0098 02000000 		.4byte	.LCFI7
 2037 009c 04000000 		.4byte	.LCFI8
 2038 00a0 0200     		.2byte	0x2
 2039 00a2 7D       		.byte	0x7d
 2040 00a3 08       		.sleb128 8
 2041 00a4 04000000 		.4byte	.LCFI8
 2042 00a8 06000000 		.4byte	.LCFI9
 2043 00ac 0200     		.2byte	0x2
 2044 00ae 7D       		.byte	0x7d
 2045 00af 10       		.sleb128 16
 2046 00b0 06000000 		.4byte	.LCFI9
 2047 00b4 78000000 		.4byte	.LFE3
 2048 00b8 0200     		.2byte	0x2
 2049 00ba 77       		.byte	0x77
 2050 00bb 10       		.sleb128 16
 2051 00bc 00000000 		.4byte	0x0
 2052 00c0 00000000 		.4byte	0x0
 2053              	.LLST4:
 2054 00c4 00000000 		.4byte	.LFB4
 2055 00c8 02000000 		.4byte	.LCFI10
 2056 00cc 0100     		.2byte	0x1
 2057 00ce 5D       		.byte	0x5d
 2058 00cf 02000000 		.4byte	.LCFI10
 2059 00d3 04000000 		.4byte	.LCFI11
 2060 00d7 0200     		.2byte	0x2
 2061 00d9 7D       		.byte	0x7d
 2062 00da 04       		.sleb128 4
 2063 00db 04000000 		.4byte	.LCFI11
 2064 00df 10000000 		.4byte	.LFE4
 2065 00e3 0200     		.2byte	0x2
 2066 00e5 77       		.byte	0x77
 2067 00e6 04       		.sleb128 4
 2068 00e7 00000000 		.4byte	0x0
 2069 00eb 00000000 		.4byte	0x0
 2070              	.LLST5:
 2071 00ef 00000000 		.4byte	.LFB5
 2072 00f3 02000000 		.4byte	.LCFI12
 2073 00f7 0100     		.2byte	0x1
 2074 00f9 5D       		.byte	0x5d
 2075 00fa 02000000 		.4byte	.LCFI12
 2076 00fe 04000000 		.4byte	.LCFI13
 2077 0102 0200     		.2byte	0x2
 2078 0104 7D       		.byte	0x7d
ARM GAS  C:\Users\dmtucker\AppData\Local\Temp\ccE6jVLi.s 			page 66


 2079 0105 04       		.sleb128 4
 2080 0106 04000000 		.4byte	.LCFI13
 2081 010a 06000000 		.4byte	.LCFI14
 2082 010e 0200     		.2byte	0x2
 2083 0110 7D       		.byte	0x7d
 2084 0111 10       		.sleb128 16
 2085 0112 06000000 		.4byte	.LCFI14
 2086 0116 14000000 		.4byte	.LFE5
 2087 011a 0200     		.2byte	0x2
 2088 011c 77       		.byte	0x77
 2089 011d 10       		.sleb128 16
 2090 011e 00000000 		.4byte	0x0
 2091 0122 00000000 		.4byte	0x0
 2092              	.LLST6:
 2093 0126 00000000 		.4byte	.LFB6
 2094 012a 02000000 		.4byte	.LCFI15
 2095 012e 0100     		.2byte	0x1
 2096 0130 5D       		.byte	0x5d
 2097 0131 02000000 		.4byte	.LCFI15
 2098 0135 04000000 		.4byte	.LCFI16
 2099 0139 0200     		.2byte	0x2
 2100 013b 7D       		.byte	0x7d
 2101 013c 04       		.sleb128 4
 2102 013d 04000000 		.4byte	.LCFI16
 2103 0141 18000000 		.4byte	.LFE6
 2104 0145 0200     		.2byte	0x2
 2105 0147 77       		.byte	0x77
 2106 0148 04       		.sleb128 4
 2107 0149 00000000 		.4byte	0x0
 2108 014d 00000000 		.4byte	0x0
 2109              	.LLST7:
 2110 0151 00000000 		.4byte	.LFB7
 2111 0155 02000000 		.4byte	.LCFI17
 2112 0159 0100     		.2byte	0x1
 2113 015b 5D       		.byte	0x5d
 2114 015c 02000000 		.4byte	.LCFI17
 2115 0160 04000000 		.4byte	.LCFI18
 2116 0164 0200     		.2byte	0x2
 2117 0166 7D       		.byte	0x7d
 2118 0167 04       		.sleb128 4
 2119 0168 04000000 		.4byte	.LCFI18
 2120 016c 18000000 		.4byte	.LFE7
 2121 0170 0200     		.2byte	0x2
 2122 0172 77       		.byte	0x77
 2123 0173 04       		.sleb128 4
 2124 0174 00000000 		.4byte	0x0
 2125 0178 00000000 		.4byte	0x0
 2126              	.LLST8:
 2127 017c 00000000 		.4byte	.LFB8
 2128 0180 02000000 		.4byte	.LCFI19
 2129 0184 0100     		.2byte	0x1
 2130 0186 5D       		.byte	0x5d
 2131 0187 02000000 		.4byte	.LCFI19
 2132 018b 04000000 		.4byte	.LCFI20
 2133 018f 0200     		.2byte	0x2
 2134 0191 7D       		.byte	0x7d
 2135 0192 04       		.sleb128 4
ARM GAS  C:\Users\dmtucker\AppData\Local\Temp\ccE6jVLi.s 			page 67


 2136 0193 04000000 		.4byte	.LCFI20
 2137 0197 06000000 		.4byte	.LCFI21
 2138 019b 0200     		.2byte	0x2
 2139 019d 7D       		.byte	0x7d
 2140 019e 10       		.sleb128 16
 2141 019f 06000000 		.4byte	.LCFI21
 2142 01a3 20000000 		.4byte	.LFE8
 2143 01a7 0200     		.2byte	0x2
 2144 01a9 77       		.byte	0x77
 2145 01aa 10       		.sleb128 16
 2146 01ab 00000000 		.4byte	0x0
 2147 01af 00000000 		.4byte	0x0
 2148              	.LLST9:
 2149 01b3 00000000 		.4byte	.LFB9
 2150 01b7 02000000 		.4byte	.LCFI22
 2151 01bb 0100     		.2byte	0x1
 2152 01bd 5D       		.byte	0x5d
 2153 01be 02000000 		.4byte	.LCFI22
 2154 01c2 04000000 		.4byte	.LCFI23
 2155 01c6 0200     		.2byte	0x2
 2156 01c8 7D       		.byte	0x7d
 2157 01c9 08       		.sleb128 8
 2158 01ca 04000000 		.4byte	.LCFI23
 2159 01ce 06000000 		.4byte	.LCFI24
 2160 01d2 0200     		.2byte	0x2
 2161 01d4 7D       		.byte	0x7d
 2162 01d5 10       		.sleb128 16
 2163 01d6 06000000 		.4byte	.LCFI24
 2164 01da A8000000 		.4byte	.LFE9
 2165 01de 0200     		.2byte	0x2
 2166 01e0 77       		.byte	0x77
 2167 01e1 10       		.sleb128 16
 2168 01e2 00000000 		.4byte	0x0
 2169 01e6 00000000 		.4byte	0x0
 2170              	.LLST10:
 2171 01ea 00000000 		.4byte	.LFB10
 2172 01ee 02000000 		.4byte	.LCFI25
 2173 01f2 0100     		.2byte	0x1
 2174 01f4 5D       		.byte	0x5d
 2175 01f5 02000000 		.4byte	.LCFI25
 2176 01f9 04000000 		.4byte	.LCFI26
 2177 01fd 0200     		.2byte	0x2
 2178 01ff 7D       		.byte	0x7d
 2179 0200 04       		.sleb128 4
 2180 0201 04000000 		.4byte	.LCFI26
 2181 0205 06000000 		.4byte	.LCFI27
 2182 0209 0200     		.2byte	0x2
 2183 020b 7D       		.byte	0x7d
 2184 020c 10       		.sleb128 16
 2185 020d 06000000 		.4byte	.LCFI27
 2186 0211 50000000 		.4byte	.LFE10
 2187 0215 0200     		.2byte	0x2
 2188 0217 77       		.byte	0x77
 2189 0218 10       		.sleb128 16
 2190 0219 00000000 		.4byte	0x0
 2191 021d 00000000 		.4byte	0x0
 2192              	.LLST11:
ARM GAS  C:\Users\dmtucker\AppData\Local\Temp\ccE6jVLi.s 			page 68


 2193 0221 00000000 		.4byte	.LFB11
 2194 0225 02000000 		.4byte	.LCFI28
 2195 0229 0100     		.2byte	0x1
 2196 022b 5D       		.byte	0x5d
 2197 022c 02000000 		.4byte	.LCFI28
 2198 0230 04000000 		.4byte	.LCFI29
 2199 0234 0200     		.2byte	0x2
 2200 0236 7D       		.byte	0x7d
 2201 0237 08       		.sleb128 8
 2202 0238 04000000 		.4byte	.LCFI29
 2203 023c 06000000 		.4byte	.LCFI30
 2204 0240 0200     		.2byte	0x2
 2205 0242 7D       		.byte	0x7d
 2206 0243 10       		.sleb128 16
 2207 0244 06000000 		.4byte	.LCFI30
 2208 0248 D4000000 		.4byte	.LFE11
 2209 024c 0200     		.2byte	0x2
 2210 024e 77       		.byte	0x77
 2211 024f 10       		.sleb128 16
 2212 0250 00000000 		.4byte	0x0
 2213 0254 00000000 		.4byte	0x0
 2214              	.LLST12:
 2215 0258 00000000 		.4byte	.LFB12
 2216 025c 02000000 		.4byte	.LCFI31
 2217 0260 0100     		.2byte	0x1
 2218 0262 5D       		.byte	0x5d
 2219 0263 02000000 		.4byte	.LCFI31
 2220 0267 04000000 		.4byte	.LCFI32
 2221 026b 0200     		.2byte	0x2
 2222 026d 7D       		.byte	0x7d
 2223 026e 10       		.sleb128 16
 2224 026f 04000000 		.4byte	.LCFI32
 2225 0273 24000000 		.4byte	.LFE12
 2226 0277 0200     		.2byte	0x2
 2227 0279 77       		.byte	0x77
 2228 027a 10       		.sleb128 16
 2229 027b 00000000 		.4byte	0x0
 2230 027f 00000000 		.4byte	0x0
 2231              	.LLST13:
 2232 0283 00000000 		.4byte	.LFB13
 2233 0287 02000000 		.4byte	.LCFI33
 2234 028b 0100     		.2byte	0x1
 2235 028d 5D       		.byte	0x5d
 2236 028e 02000000 		.4byte	.LCFI33
 2237 0292 04000000 		.4byte	.LCFI34
 2238 0296 0200     		.2byte	0x2
 2239 0298 7D       		.byte	0x7d
 2240 0299 08       		.sleb128 8
 2241 029a 04000000 		.4byte	.LCFI34
 2242 029e 06000000 		.4byte	.LCFI35
 2243 02a2 0200     		.2byte	0x2
 2244 02a4 7D       		.byte	0x7d
 2245 02a5 10       		.sleb128 16
 2246 02a6 06000000 		.4byte	.LCFI35
 2247 02aa B6000000 		.4byte	.LFE13
 2248 02ae 0200     		.2byte	0x2
 2249 02b0 77       		.byte	0x77
ARM GAS  C:\Users\dmtucker\AppData\Local\Temp\ccE6jVLi.s 			page 69


 2250 02b1 10       		.sleb128 16
 2251 02b2 00000000 		.4byte	0x0
 2252 02b6 00000000 		.4byte	0x0
 2253              	.LLST14:
 2254 02ba 00000000 		.4byte	.LFB14
 2255 02be 02000000 		.4byte	.LCFI36
 2256 02c2 0100     		.2byte	0x1
 2257 02c4 5D       		.byte	0x5d
 2258 02c5 02000000 		.4byte	.LCFI36
 2259 02c9 04000000 		.4byte	.LCFI37
 2260 02cd 0200     		.2byte	0x2
 2261 02cf 7D       		.byte	0x7d
 2262 02d0 08       		.sleb128 8
 2263 02d1 04000000 		.4byte	.LCFI37
 2264 02d5 06000000 		.4byte	.LCFI38
 2265 02d9 0200     		.2byte	0x2
 2266 02db 7D       		.byte	0x7d
 2267 02dc 10       		.sleb128 16
 2268 02dd 06000000 		.4byte	.LCFI38
 2269 02e1 94000000 		.4byte	.LFE14
 2270 02e5 0200     		.2byte	0x2
 2271 02e7 77       		.byte	0x77
 2272 02e8 10       		.sleb128 16
 2273 02e9 00000000 		.4byte	0x0
 2274 02ed 00000000 		.4byte	0x0
 2275              	.LLST15:
 2276 02f1 00000000 		.4byte	.LFB15
 2277 02f5 02000000 		.4byte	.LCFI39
 2278 02f9 0100     		.2byte	0x1
 2279 02fb 5D       		.byte	0x5d
 2280 02fc 02000000 		.4byte	.LCFI39
 2281 0300 04000000 		.4byte	.LCFI40
 2282 0304 0200     		.2byte	0x2
 2283 0306 7D       		.byte	0x7d
 2284 0307 04       		.sleb128 4
 2285 0308 04000000 		.4byte	.LCFI40
 2286 030c 06000000 		.4byte	.LCFI41
 2287 0310 0200     		.2byte	0x2
 2288 0312 7D       		.byte	0x7d
 2289 0313 10       		.sleb128 16
 2290 0314 06000000 		.4byte	.LCFI41
 2291 0318 14000000 		.4byte	.LFE15
 2292 031c 0200     		.2byte	0x2
 2293 031e 77       		.byte	0x77
 2294 031f 10       		.sleb128 16
 2295 0320 00000000 		.4byte	0x0
 2296 0324 00000000 		.4byte	0x0
 2297              	.LLST16:
 2298 0328 00000000 		.4byte	.LFB16
 2299 032c 02000000 		.4byte	.LCFI42
 2300 0330 0100     		.2byte	0x1
 2301 0332 5D       		.byte	0x5d
 2302 0333 02000000 		.4byte	.LCFI42
 2303 0337 04000000 		.4byte	.LCFI43
 2304 033b 0200     		.2byte	0x2
 2305 033d 7D       		.byte	0x7d
 2306 033e 04       		.sleb128 4
ARM GAS  C:\Users\dmtucker\AppData\Local\Temp\ccE6jVLi.s 			page 70


 2307 033f 04000000 		.4byte	.LCFI43
 2308 0343 06000000 		.4byte	.LCFI44
 2309 0347 0200     		.2byte	0x2
 2310 0349 7D       		.byte	0x7d
 2311 034a 10       		.sleb128 16
 2312 034b 06000000 		.4byte	.LCFI44
 2313 034f 20000000 		.4byte	.LFE16
 2314 0353 0200     		.2byte	0x2
 2315 0355 77       		.byte	0x77
 2316 0356 10       		.sleb128 16
 2317 0357 00000000 		.4byte	0x0
 2318 035b 00000000 		.4byte	0x0
 2319              	.LLST17:
 2320 035f 00000000 		.4byte	.LFB17
 2321 0363 02000000 		.4byte	.LCFI45
 2322 0367 0100     		.2byte	0x1
 2323 0369 5D       		.byte	0x5d
 2324 036a 02000000 		.4byte	.LCFI45
 2325 036e 04000000 		.4byte	.LCFI46
 2326 0372 0200     		.2byte	0x2
 2327 0374 7D       		.byte	0x7d
 2328 0375 04       		.sleb128 4
 2329 0376 04000000 		.4byte	.LCFI46
 2330 037a 06000000 		.4byte	.LCFI47
 2331 037e 0200     		.2byte	0x2
 2332 0380 7D       		.byte	0x7d
 2333 0381 10       		.sleb128 16
 2334 0382 06000000 		.4byte	.LCFI47
 2335 0386 20000000 		.4byte	.LFE17
 2336 038a 0200     		.2byte	0x2
 2337 038c 77       		.byte	0x77
 2338 038d 10       		.sleb128 16
 2339 038e 00000000 		.4byte	0x0
 2340 0392 00000000 		.4byte	0x0
 2341              	.LLST18:
 2342 0396 00000000 		.4byte	.LFB18
 2343 039a 02000000 		.4byte	.LCFI48
 2344 039e 0100     		.2byte	0x1
 2345 03a0 5D       		.byte	0x5d
 2346 03a1 02000000 		.4byte	.LCFI48
 2347 03a5 04000000 		.4byte	.LCFI49
 2348 03a9 0200     		.2byte	0x2
 2349 03ab 7D       		.byte	0x7d
 2350 03ac 04       		.sleb128 4
 2351 03ad 04000000 		.4byte	.LCFI49
 2352 03b1 18000000 		.4byte	.LFE18
 2353 03b5 0200     		.2byte	0x2
 2354 03b7 77       		.byte	0x77
 2355 03b8 04       		.sleb128 4
 2356 03b9 00000000 		.4byte	0x0
 2357 03bd 00000000 		.4byte	0x0
 2358              	.LLST19:
 2359 03c1 00000000 		.4byte	.LFB19
 2360 03c5 02000000 		.4byte	.LCFI50
 2361 03c9 0100     		.2byte	0x1
 2362 03cb 5D       		.byte	0x5d
 2363 03cc 02000000 		.4byte	.LCFI50
ARM GAS  C:\Users\dmtucker\AppData\Local\Temp\ccE6jVLi.s 			page 71


 2364 03d0 04000000 		.4byte	.LCFI51
 2365 03d4 0200     		.2byte	0x2
 2366 03d6 7D       		.byte	0x7d
 2367 03d7 04       		.sleb128 4
 2368 03d8 04000000 		.4byte	.LCFI51
 2369 03dc 18000000 		.4byte	.LFE19
 2370 03e0 0200     		.2byte	0x2
 2371 03e2 77       		.byte	0x77
 2372 03e3 04       		.sleb128 4
 2373 03e4 00000000 		.4byte	0x0
 2374 03e8 00000000 		.4byte	0x0
 2375              	.LLST20:
 2376 03ec 00000000 		.4byte	.LFB20
 2377 03f0 02000000 		.4byte	.LCFI52
 2378 03f4 0100     		.2byte	0x1
 2379 03f6 5D       		.byte	0x5d
 2380 03f7 02000000 		.4byte	.LCFI52
 2381 03fb 04000000 		.4byte	.LCFI53
 2382 03ff 0200     		.2byte	0x2
 2383 0401 7D       		.byte	0x7d
 2384 0402 04       		.sleb128 4
 2385 0403 04000000 		.4byte	.LCFI53
 2386 0407 06000000 		.4byte	.LCFI54
 2387 040b 0200     		.2byte	0x2
 2388 040d 7D       		.byte	0x7d
 2389 040e 10       		.sleb128 16
 2390 040f 06000000 		.4byte	.LCFI54
 2391 0413 20000000 		.4byte	.LFE20
 2392 0417 0200     		.2byte	0x2
 2393 0419 77       		.byte	0x77
 2394 041a 10       		.sleb128 16
 2395 041b 00000000 		.4byte	0x0
 2396 041f 00000000 		.4byte	0x0
 2397              	.LLST21:
 2398 0423 00000000 		.4byte	.LFB21
 2399 0427 02000000 		.4byte	.LCFI55
 2400 042b 0100     		.2byte	0x1
 2401 042d 5D       		.byte	0x5d
 2402 042e 02000000 		.4byte	.LCFI55
 2403 0432 04000000 		.4byte	.LCFI56
 2404 0436 0200     		.2byte	0x2
 2405 0438 7D       		.byte	0x7d
 2406 0439 08       		.sleb128 8
 2407 043a 04000000 		.4byte	.LCFI56
 2408 043e 06000000 		.4byte	.LCFI57
 2409 0442 0200     		.2byte	0x2
 2410 0444 7D       		.byte	0x7d
 2411 0445 10       		.sleb128 16
 2412 0446 06000000 		.4byte	.LCFI57
 2413 044a B2000000 		.4byte	.LFE21
 2414 044e 0200     		.2byte	0x2
 2415 0450 77       		.byte	0x77
 2416 0451 10       		.sleb128 16
 2417 0452 00000000 		.4byte	0x0
 2418 0456 00000000 		.4byte	0x0
 2419              	.LLST22:
 2420 045a 00000000 		.4byte	.LFB22
ARM GAS  C:\Users\dmtucker\AppData\Local\Temp\ccE6jVLi.s 			page 72


 2421 045e 02000000 		.4byte	.LCFI58
 2422 0462 0100     		.2byte	0x1
 2423 0464 5D       		.byte	0x5d
 2424 0465 02000000 		.4byte	.LCFI58
 2425 0469 04000000 		.4byte	.LCFI59
 2426 046d 0200     		.2byte	0x2
 2427 046f 7D       		.byte	0x7d
 2428 0470 04       		.sleb128 4
 2429 0471 04000000 		.4byte	.LCFI59
 2430 0475 18000000 		.4byte	.LFE22
 2431 0479 0200     		.2byte	0x2
 2432 047b 77       		.byte	0x77
 2433 047c 04       		.sleb128 4
 2434 047d 00000000 		.4byte	0x0
 2435 0481 00000000 		.4byte	0x0
 2436              	.LLST23:
 2437 0485 00000000 		.4byte	.LFB23
 2438 0489 02000000 		.4byte	.LCFI60
 2439 048d 0100     		.2byte	0x1
 2440 048f 5D       		.byte	0x5d
 2441 0490 02000000 		.4byte	.LCFI60
 2442 0494 04000000 		.4byte	.LCFI61
 2443 0498 0200     		.2byte	0x2
 2444 049a 7D       		.byte	0x7d
 2445 049b 04       		.sleb128 4
 2446 049c 04000000 		.4byte	.LCFI61
 2447 04a0 06000000 		.4byte	.LCFI62
 2448 04a4 0200     		.2byte	0x2
 2449 04a6 7D       		.byte	0x7d
 2450 04a7 18       		.sleb128 24
 2451 04a8 06000000 		.4byte	.LCFI62
 2452 04ac B6000000 		.4byte	.LFE23
 2453 04b0 0200     		.2byte	0x2
 2454 04b2 77       		.byte	0x77
 2455 04b3 18       		.sleb128 24
 2456 04b4 00000000 		.4byte	0x0
 2457 04b8 00000000 		.4byte	0x0
 2458              	.LLST24:
 2459 04bc 00000000 		.4byte	.LFB24
 2460 04c0 02000000 		.4byte	.LCFI63
 2461 04c4 0100     		.2byte	0x1
 2462 04c6 5D       		.byte	0x5d
 2463 04c7 02000000 		.4byte	.LCFI63
 2464 04cb 04000000 		.4byte	.LCFI64
 2465 04cf 0200     		.2byte	0x2
 2466 04d1 7D       		.byte	0x7d
 2467 04d2 08       		.sleb128 8
 2468 04d3 04000000 		.4byte	.LCFI64
 2469 04d7 06000000 		.4byte	.LCFI65
 2470 04db 0200     		.2byte	0x2
 2471 04dd 7D       		.byte	0x7d
 2472 04de 18       		.sleb128 24
 2473 04df 06000000 		.4byte	.LCFI65
 2474 04e3 48000000 		.4byte	.LFE24
 2475 04e7 0200     		.2byte	0x2
 2476 04e9 77       		.byte	0x77
 2477 04ea 18       		.sleb128 24
ARM GAS  C:\Users\dmtucker\AppData\Local\Temp\ccE6jVLi.s 			page 73


 2478 04eb 00000000 		.4byte	0x0
 2479 04ef 00000000 		.4byte	0x0
 2480              	.LLST25:
 2481 04f3 00000000 		.4byte	.LFB25
 2482 04f7 02000000 		.4byte	.LCFI66
 2483 04fb 0100     		.2byte	0x1
 2484 04fd 5D       		.byte	0x5d
 2485 04fe 02000000 		.4byte	.LCFI66
 2486 0502 04000000 		.4byte	.LCFI67
 2487 0506 0200     		.2byte	0x2
 2488 0508 7D       		.byte	0x7d
 2489 0509 08       		.sleb128 8
 2490 050a 04000000 		.4byte	.LCFI67
 2491 050e 06000000 		.4byte	.LCFI68
 2492 0512 0200     		.2byte	0x2
 2493 0514 7D       		.byte	0x7d
 2494 0515 18       		.sleb128 24
 2495 0516 06000000 		.4byte	.LCFI68
 2496 051a 46000000 		.4byte	.LFE25
 2497 051e 0200     		.2byte	0x2
 2498 0520 77       		.byte	0x77
 2499 0521 18       		.sleb128 24
 2500 0522 00000000 		.4byte	0x0
 2501 0526 00000000 		.4byte	0x0
 2502              	.LLST26:
 2503 052a 00000000 		.4byte	.LFB26
 2504 052e 02000000 		.4byte	.LCFI69
 2505 0532 0100     		.2byte	0x1
 2506 0534 5D       		.byte	0x5d
 2507 0535 02000000 		.4byte	.LCFI69
 2508 0539 04000000 		.4byte	.LCFI70
 2509 053d 0200     		.2byte	0x2
 2510 053f 7D       		.byte	0x7d
 2511 0540 08       		.sleb128 8
 2512 0541 04000000 		.4byte	.LCFI70
 2513 0545 06000000 		.4byte	.LCFI71
 2514 0549 0200     		.2byte	0x2
 2515 054b 7D       		.byte	0x7d
 2516 054c 10       		.sleb128 16
 2517 054d 06000000 		.4byte	.LCFI71
 2518 0551 38000000 		.4byte	.LFE26
 2519 0555 0200     		.2byte	0x2
 2520 0557 77       		.byte	0x77
 2521 0558 10       		.sleb128 16
 2522 0559 00000000 		.4byte	0x0
 2523 055d 00000000 		.4byte	0x0
 2524              	.LLST27:
 2525 0561 00000000 		.4byte	.LFB27
 2526 0565 02000000 		.4byte	.LCFI72
 2527 0569 0100     		.2byte	0x1
 2528 056b 5D       		.byte	0x5d
 2529 056c 02000000 		.4byte	.LCFI72
 2530 0570 04000000 		.4byte	.LCFI73
 2531 0574 0200     		.2byte	0x2
 2532 0576 7D       		.byte	0x7d
 2533 0577 08       		.sleb128 8
 2534 0578 04000000 		.4byte	.LCFI73
ARM GAS  C:\Users\dmtucker\AppData\Local\Temp\ccE6jVLi.s 			page 74


 2535 057c 06000000 		.4byte	.LCFI74
 2536 0580 0200     		.2byte	0x2
 2537 0582 7D       		.byte	0x7d
 2538 0583 10       		.sleb128 16
 2539 0584 06000000 		.4byte	.LCFI74
 2540 0588 96000000 		.4byte	.LFE27
 2541 058c 0200     		.2byte	0x2
 2542 058e 77       		.byte	0x77
 2543 058f 10       		.sleb128 16
 2544 0590 00000000 		.4byte	0x0
 2545 0594 00000000 		.4byte	0x0
 2546              	.LLST28:
 2547 0598 00000000 		.4byte	.LFB28
 2548 059c 02000000 		.4byte	.LCFI75
 2549 05a0 0100     		.2byte	0x1
 2550 05a2 5D       		.byte	0x5d
 2551 05a3 02000000 		.4byte	.LCFI75
 2552 05a7 04000000 		.4byte	.LCFI76
 2553 05ab 0200     		.2byte	0x2
 2554 05ad 7D       		.byte	0x7d
 2555 05ae 08       		.sleb128 8
 2556 05af 04000000 		.4byte	.LCFI76
 2557 05b3 06000000 		.4byte	.LCFI77
 2558 05b7 0200     		.2byte	0x2
 2559 05b9 7D       		.byte	0x7d
 2560 05ba 10       		.sleb128 16
 2561 05bb 06000000 		.4byte	.LCFI77
 2562 05bf 78000000 		.4byte	.LFE28
 2563 05c3 0200     		.2byte	0x2
 2564 05c5 77       		.byte	0x77
 2565 05c6 10       		.sleb128 16
 2566 05c7 00000000 		.4byte	0x0
 2567 05cb 00000000 		.4byte	0x0
 2568              	.LLST29:
 2569 05cf 00000000 		.4byte	.LFB29
 2570 05d3 02000000 		.4byte	.LCFI78
 2571 05d7 0100     		.2byte	0x1
 2572 05d9 5D       		.byte	0x5d
 2573 05da 02000000 		.4byte	.LCFI78
 2574 05de 04000000 		.4byte	.LCFI79
 2575 05e2 0200     		.2byte	0x2
 2576 05e4 7D       		.byte	0x7d
 2577 05e5 08       		.sleb128 8
 2578 05e6 04000000 		.4byte	.LCFI79
 2579 05ea 06000000 		.4byte	.LCFI80
 2580 05ee 0200     		.2byte	0x2
 2581 05f0 7D       		.byte	0x7d
 2582 05f1 18       		.sleb128 24
 2583 05f2 06000000 		.4byte	.LCFI80
 2584 05f6 EC000000 		.4byte	.LFE29
 2585 05fa 0200     		.2byte	0x2
 2586 05fc 77       		.byte	0x77
 2587 05fd 18       		.sleb128 24
 2588 05fe 00000000 		.4byte	0x0
 2589 0602 00000000 		.4byte	0x0
 2590              	.LLST30:
 2591 0606 00000000 		.4byte	.LFB30
ARM GAS  C:\Users\dmtucker\AppData\Local\Temp\ccE6jVLi.s 			page 75


 2592 060a 02000000 		.4byte	.LCFI81
 2593 060e 0100     		.2byte	0x1
 2594 0610 5D       		.byte	0x5d
 2595 0611 02000000 		.4byte	.LCFI81
 2596 0615 04000000 		.4byte	.LCFI82
 2597 0619 0200     		.2byte	0x2
 2598 061b 7D       		.byte	0x7d
 2599 061c 04       		.sleb128 4
 2600 061d 04000000 		.4byte	.LCFI82
 2601 0621 06000000 		.4byte	.LCFI83
 2602 0625 0200     		.2byte	0x2
 2603 0627 7D       		.byte	0x7d
 2604 0628 10       		.sleb128 16
 2605 0629 06000000 		.4byte	.LCFI83
 2606 062d 14000000 		.4byte	.LFE30
 2607 0631 0200     		.2byte	0x2
 2608 0633 77       		.byte	0x77
 2609 0634 10       		.sleb128 16
 2610 0635 00000000 		.4byte	0x0
 2611 0639 00000000 		.4byte	0x0
 2612              		.file 2 ".\\Generated_Source\\PSoC5\\/cytypes.h"
 2613              		.section	.debug_info
 2614 0000 B9060000 		.4byte	0x6b9
 2615 0004 0200     		.2byte	0x2
 2616 0006 00000000 		.4byte	.Ldebug_abbrev0
 2617 000a 04       		.byte	0x4
 2618 000b 01       		.uleb128 0x1
 2619 000c 78000000 		.4byte	.LASF75
 2620 0010 01       		.byte	0x1
 2621 0011 A7000000 		.4byte	.LASF76
 2622 0015 5A020000 		.4byte	.LASF77
 2623 0019 00000000 		.4byte	0x0
 2624 001d 00000000 		.4byte	0x0
 2625 0021 00000000 		.4byte	.Ldebug_ranges0+0x0
 2626 0025 00000000 		.4byte	.Ldebug_line0
 2627 0029 02       		.uleb128 0x2
 2628 002a 01       		.byte	0x1
 2629 002b 06       		.byte	0x6
 2630 002c D5000000 		.4byte	.LASF0
 2631 0030 02       		.uleb128 0x2
 2632 0031 01       		.byte	0x1
 2633 0032 08       		.byte	0x8
 2634 0033 48030000 		.4byte	.LASF1
 2635 0037 02       		.uleb128 0x2
 2636 0038 02       		.byte	0x2
 2637 0039 05       		.byte	0x5
 2638 003a 67030000 		.4byte	.LASF2
 2639 003e 02       		.uleb128 0x2
 2640 003f 02       		.byte	0x2
 2641 0040 07       		.byte	0x7
 2642 0041 24020000 		.4byte	.LASF3
 2643 0045 02       		.uleb128 0x2
 2644 0046 04       		.byte	0x4
 2645 0047 05       		.byte	0x5
 2646 0048 F3000000 		.4byte	.LASF4
 2647 004c 02       		.uleb128 0x2
 2648 004d 04       		.byte	0x4
ARM GAS  C:\Users\dmtucker\AppData\Local\Temp\ccE6jVLi.s 			page 76


 2649 004e 07       		.byte	0x7
 2650 004f D6010000 		.4byte	.LASF5
 2651 0053 02       		.uleb128 0x2
 2652 0054 08       		.byte	0x8
 2653 0055 05       		.byte	0x5
 2654 0056 C7000000 		.4byte	.LASF6
 2655 005a 02       		.uleb128 0x2
 2656 005b 08       		.byte	0x8
 2657 005c 07       		.byte	0x7
 2658 005d 3E000000 		.4byte	.LASF7
 2659 0061 03       		.uleb128 0x3
 2660 0062 04       		.byte	0x4
 2661 0063 05       		.byte	0x5
 2662 0064 696E7400 		.ascii	"int\000"
 2663 0068 02       		.uleb128 0x2
 2664 0069 04       		.byte	0x4
 2665 006a 07       		.byte	0x7
 2666 006b 93010000 		.4byte	.LASF8
 2667 006f 04       		.uleb128 0x4
 2668 0070 19010000 		.4byte	.LASF9
 2669 0074 02       		.byte	0x2
 2670 0075 4C       		.byte	0x4c
 2671 0076 30000000 		.4byte	0x30
 2672 007a 04       		.uleb128 0x4
 2673 007b 00000000 		.4byte	.LASF10
 2674 007f 02       		.byte	0x2
 2675 0080 4D       		.byte	0x4d
 2676 0081 3E000000 		.4byte	0x3e
 2677 0085 02       		.uleb128 0x2
 2678 0086 04       		.byte	0x4
 2679 0087 04       		.byte	0x4
 2680 0088 17030000 		.4byte	.LASF11
 2681 008c 02       		.uleb128 0x2
 2682 008d 08       		.byte	0x8
 2683 008e 04       		.byte	0x4
 2684 008f 38010000 		.4byte	.LASF12
 2685 0093 04       		.uleb128 0x4
 2686 0094 B4030000 		.4byte	.LASF13
 2687 0098 02       		.byte	0x2
 2688 0099 5B       		.byte	0x5b
 2689 009a 9E000000 		.4byte	0x9e
 2690 009e 02       		.uleb128 0x2
 2691 009f 01       		.byte	0x1
 2692 00a0 08       		.byte	0x8
 2693 00a1 AF030000 		.4byte	.LASF14
 2694 00a5 05       		.uleb128 0x5
 2695 00a6 6F000000 		.4byte	0x6f
 2696 00aa 06       		.uleb128 0x6
 2697 00ab 04       		.byte	0x4
 2698 00ac 07       		.byte	0x7
 2699 00ad 07       		.uleb128 0x7
 2700 00ae 01       		.byte	0x1
 2701 00af 55000000 		.4byte	.LASF15
 2702 00b3 01       		.byte	0x1
 2703 00b4 49       		.byte	0x49
 2704 00b5 01       		.byte	0x1
 2705 00b6 00000000 		.4byte	.LFB0
ARM GAS  C:\Users\dmtucker\AppData\Local\Temp\ccE6jVLi.s 			page 77


 2706 00ba 2A000000 		.4byte	.LFE0
 2707 00be 00000000 		.4byte	.LLST0
 2708 00c2 07       		.uleb128 0x7
 2709 00c3 01       		.byte	0x1
 2710 00c4 66010000 		.4byte	.LASF16
 2711 00c8 01       		.byte	0x1
 2712 00c9 65       		.byte	0x65
 2713 00ca 01       		.byte	0x1
 2714 00cb 00000000 		.4byte	.LFB1
 2715 00cf 84000000 		.4byte	.LFE1
 2716 00d3 2B000000 		.4byte	.LLST1
 2717 00d7 08       		.uleb128 0x8
 2718 00d8 01       		.byte	0x1
 2719 00d9 91030000 		.4byte	.LASF17
 2720 00dd 01       		.byte	0x1
 2721 00de AE       		.byte	0xae
 2722 00df 01       		.byte	0x1
 2723 00e0 00000000 		.4byte	.LFB2
 2724 00e4 92000000 		.4byte	.LFE2
 2725 00e8 56000000 		.4byte	.LLST2
 2726 00ec FF000000 		.4byte	0xff
 2727 00f0 09       		.uleb128 0x9
 2728 00f1 DF030000 		.4byte	.LASF19
 2729 00f5 01       		.byte	0x1
 2730 00f6 B0       		.byte	0xb0
 2731 00f7 6F000000 		.4byte	0x6f
 2732 00fb 02       		.byte	0x2
 2733 00fc 91       		.byte	0x91
 2734 00fd 77       		.sleb128 -9
 2735 00fe 00       		.byte	0x0
 2736 00ff 08       		.uleb128 0x8
 2737 0100 01       		.byte	0x1
 2738 0101 2A040000 		.4byte	.LASF18
 2739 0105 01       		.byte	0x1
 2740 0106 E3       		.byte	0xe3
 2741 0107 01       		.byte	0x1
 2742 0108 00000000 		.4byte	.LFB3
 2743 010c 78000000 		.4byte	.LFE3
 2744 0110 8D000000 		.4byte	.LLST3
 2745 0114 27010000 		.4byte	0x127
 2746 0118 09       		.uleb128 0x9
 2747 0119 DF030000 		.4byte	.LASF19
 2748 011d 01       		.byte	0x1
 2749 011e E5       		.byte	0xe5
 2750 011f 6F000000 		.4byte	0x6f
 2751 0123 02       		.byte	0x2
 2752 0124 91       		.byte	0x91
 2753 0125 77       		.sleb128 -9
 2754 0126 00       		.byte	0x0
 2755 0127 0A       		.uleb128 0xa
 2756 0128 01       		.byte	0x1
 2757 0129 1F010000 		.4byte	.LASF34
 2758 012d 01       		.byte	0x1
 2759 012e 1901     		.2byte	0x119
 2760 0130 01       		.byte	0x1
 2761 0131 6F000000 		.4byte	0x6f
 2762 0135 00000000 		.4byte	.LFB4
ARM GAS  C:\Users\dmtucker\AppData\Local\Temp\ccE6jVLi.s 			page 78


 2763 0139 10000000 		.4byte	.LFE4
 2764 013d C4000000 		.4byte	.LLST4
 2765 0141 0B       		.uleb128 0xb
 2766 0142 01       		.byte	0x1
 2767 0143 51040000 		.4byte	.LASF20
 2768 0147 01       		.byte	0x1
 2769 0148 3101     		.2byte	0x131
 2770 014a 01       		.byte	0x1
 2771 014b 00000000 		.4byte	.LFB5
 2772 014f 14000000 		.4byte	.LFE5
 2773 0153 EF000000 		.4byte	.LLST5
 2774 0157 6B010000 		.4byte	0x16b
 2775 015b 0C       		.uleb128 0xc
 2776 015c 5E010000 		.4byte	.LASF24
 2777 0160 01       		.byte	0x1
 2778 0161 3101     		.2byte	0x131
 2779 0163 6F000000 		.4byte	0x6f
 2780 0167 02       		.byte	0x2
 2781 0168 91       		.byte	0x91
 2782 0169 77       		.sleb128 -9
 2783 016a 00       		.byte	0x0
 2784 016b 0D       		.uleb128 0xd
 2785 016c 01       		.byte	0x1
 2786 016d FD030000 		.4byte	.LASF21
 2787 0171 01       		.byte	0x1
 2788 0172 5001     		.2byte	0x150
 2789 0174 01       		.byte	0x1
 2790 0175 00000000 		.4byte	.LFB6
 2791 0179 18000000 		.4byte	.LFE6
 2792 017d 26010000 		.4byte	.LLST6
 2793 0181 0D       		.uleb128 0xd
 2794 0182 01       		.byte	0x1
 2795 0183 E1000000 		.4byte	.LASF22
 2796 0187 01       		.byte	0x1
 2797 0188 6701     		.2byte	0x167
 2798 018a 01       		.byte	0x1
 2799 018b 00000000 		.4byte	.LFB7
 2800 018f 18000000 		.4byte	.LFE7
 2801 0193 51010000 		.4byte	.LLST7
 2802 0197 0B       		.uleb128 0xb
 2803 0198 01       		.byte	0x1
 2804 0199 BA030000 		.4byte	.LASF23
 2805 019d 01       		.byte	0x1
 2806 019e 8101     		.2byte	0x181
 2807 01a0 01       		.byte	0x1
 2808 01a1 00000000 		.4byte	.LFB8
 2809 01a5 20000000 		.4byte	.LFE8
 2810 01a9 7C010000 		.4byte	.LLST8
 2811 01ad C1010000 		.4byte	0x1c1
 2812 01b1 0C       		.uleb128 0xc
 2813 01b2 85020000 		.4byte	.LASF25
 2814 01b6 01       		.byte	0x1
 2815 01b7 8101     		.2byte	0x181
 2816 01b9 6F000000 		.4byte	0x6f
 2817 01bd 02       		.byte	0x2
 2818 01be 91       		.byte	0x91
 2819 01bf 77       		.sleb128 -9
ARM GAS  C:\Users\dmtucker\AppData\Local\Temp\ccE6jVLi.s 			page 79


 2820 01c0 00       		.byte	0x0
 2821 01c1 0E       		.uleb128 0xe
 2822 01c2 01       		.byte	0x1
 2823 01c3 09010000 		.4byte	.LASF29
 2824 01c7 01       		.byte	0x1
 2825 01c8 A201     		.2byte	0x1a2
 2826 01ca 01       		.byte	0x1
 2827 01cb 6F000000 		.4byte	0x6f
 2828 01cf 00000000 		.4byte	.LFB9
 2829 01d3 A8000000 		.4byte	.LFE9
 2830 01d7 B3010000 		.4byte	.LLST9
 2831 01db 0D020000 		.4byte	0x20d
 2832 01df 0F       		.uleb128 0xf
 2833 01e0 8A030000 		.4byte	.LASF26
 2834 01e4 01       		.byte	0x1
 2835 01e5 A401     		.2byte	0x1a4
 2836 01e7 6F000000 		.4byte	0x6f
 2837 01eb 02       		.byte	0x2
 2838 01ec 91       		.byte	0x91
 2839 01ed 75       		.sleb128 -11
 2840 01ee 0F       		.uleb128 0xf
 2841 01ef 49020000 		.4byte	.LASF27
 2842 01f3 01       		.byte	0x1
 2843 01f4 A701     		.2byte	0x1a7
 2844 01f6 6F000000 		.4byte	0x6f
 2845 01fa 02       		.byte	0x2
 2846 01fb 91       		.byte	0x91
 2847 01fc 76       		.sleb128 -10
 2848 01fd 0F       		.uleb128 0xf
 2849 01fe 07000000 		.4byte	.LASF28
 2850 0202 01       		.byte	0x1
 2851 0203 A801     		.2byte	0x1a8
 2852 0205 6F000000 		.4byte	0x6f
 2853 0209 02       		.byte	0x2
 2854 020a 91       		.byte	0x91
 2855 020b 77       		.sleb128 -9
 2856 020c 00       		.byte	0x0
 2857 020d 0E       		.uleb128 0xe
 2858 020e 01       		.byte	0x1
 2859 020f 9D030000 		.4byte	.LASF30
 2860 0213 01       		.byte	0x1
 2861 0214 FD01     		.2byte	0x1fd
 2862 0216 01       		.byte	0x1
 2863 0217 6F000000 		.4byte	0x6f
 2864 021b 00000000 		.4byte	.LFB10
 2865 021f 50000000 		.4byte	.LFE10
 2866 0223 EA010000 		.4byte	.LLST10
 2867 0227 3B020000 		.4byte	0x23b
 2868 022b 0F       		.uleb128 0xf
 2869 022c 23040000 		.4byte	.LASF31
 2870 0230 01       		.byte	0x1
 2871 0231 FF01     		.2byte	0x1ff
 2872 0233 6F000000 		.4byte	0x6f
 2873 0237 02       		.byte	0x2
 2874 0238 91       		.byte	0x91
 2875 0239 77       		.sleb128 -9
 2876 023a 00       		.byte	0x0
ARM GAS  C:\Users\dmtucker\AppData\Local\Temp\ccE6jVLi.s 			page 80


 2877 023b 0E       		.uleb128 0xe
 2878 023c 01       		.byte	0x1
 2879 023d D2030000 		.4byte	.LASF32
 2880 0241 01       		.byte	0x1
 2881 0242 2C02     		.2byte	0x22c
 2882 0244 01       		.byte	0x1
 2883 0245 6F000000 		.4byte	0x6f
 2884 0249 00000000 		.4byte	.LFB11
 2885 024d D4000000 		.4byte	.LFE11
 2886 0251 21020000 		.4byte	.LLST11
 2887 0255 96020000 		.4byte	0x296
 2888 0259 0F       		.uleb128 0xf
 2889 025a 8A030000 		.4byte	.LASF26
 2890 025e 01       		.byte	0x1
 2891 025f 2E02     		.2byte	0x22e
 2892 0261 6F000000 		.4byte	0x6f
 2893 0265 02       		.byte	0x2
 2894 0266 91       		.byte	0x91
 2895 0267 74       		.sleb128 -12
 2896 0268 0F       		.uleb128 0xf
 2897 0269 0E030000 		.4byte	.LASF33
 2898 026d 01       		.byte	0x1
 2899 026e 2F02     		.2byte	0x22f
 2900 0270 6F000000 		.4byte	0x6f
 2901 0274 02       		.byte	0x2
 2902 0275 91       		.byte	0x91
 2903 0276 75       		.sleb128 -11
 2904 0277 0F       		.uleb128 0xf
 2905 0278 49020000 		.4byte	.LASF27
 2906 027c 01       		.byte	0x1
 2907 027d 3202     		.2byte	0x232
 2908 027f 6F000000 		.4byte	0x6f
 2909 0283 02       		.byte	0x2
 2910 0284 91       		.byte	0x91
 2911 0285 76       		.sleb128 -10
 2912 0286 0F       		.uleb128 0xf
 2913 0287 07000000 		.4byte	.LASF28
 2914 028b 01       		.byte	0x1
 2915 028c 3302     		.2byte	0x233
 2916 028e 6F000000 		.4byte	0x6f
 2917 0292 02       		.byte	0x2
 2918 0293 91       		.byte	0x91
 2919 0294 77       		.sleb128 -9
 2920 0295 00       		.byte	0x0
 2921 0296 0A       		.uleb128 0xa
 2922 0297 01       		.byte	0x1
 2923 0298 86010000 		.4byte	.LASF35
 2924 029c 01       		.byte	0x1
 2925 029d 9202     		.2byte	0x292
 2926 029f 01       		.byte	0x1
 2927 02a0 7A000000 		.4byte	0x7a
 2928 02a4 00000000 		.4byte	.LFB12
 2929 02a8 24000000 		.4byte	.LFE12
 2930 02ac 58020000 		.4byte	.LLST12
 2931 02b0 0E       		.uleb128 0xe
 2932 02b1 01       		.byte	0x1
 2933 02b2 0E040000 		.4byte	.LASF36
ARM GAS  C:\Users\dmtucker\AppData\Local\Temp\ccE6jVLi.s 			page 81


 2934 02b6 01       		.byte	0x1
 2935 02b7 B302     		.2byte	0x2b3
 2936 02b9 01       		.byte	0x1
 2937 02ba 6F000000 		.4byte	0x6f
 2938 02be 00000000 		.4byte	.LFB13
 2939 02c2 B6000000 		.4byte	.LFE13
 2940 02c6 83020000 		.4byte	.LLST13
 2941 02ca DE020000 		.4byte	0x2de
 2942 02ce 0F       		.uleb128 0xf
 2943 02cf 1F020000 		.4byte	.LASF37
 2944 02d3 01       		.byte	0x1
 2945 02d4 B602     		.2byte	0x2b6
 2946 02d6 6F000000 		.4byte	0x6f
 2947 02da 02       		.byte	0x2
 2948 02db 91       		.byte	0x91
 2949 02dc 77       		.sleb128 -9
 2950 02dd 00       		.byte	0x0
 2951 02de 0B       		.uleb128 0xb
 2952 02df 01       		.byte	0x1
 2953 02e0 6B040000 		.4byte	.LASF38
 2954 02e4 01       		.byte	0x1
 2955 02e5 0303     		.2byte	0x303
 2956 02e7 01       		.byte	0x1
 2957 02e8 00000000 		.4byte	.LFB14
 2958 02ec 94000000 		.4byte	.LFE14
 2959 02f0 BA020000 		.4byte	.LLST14
 2960 02f4 08030000 		.4byte	0x308
 2961 02f8 0F       		.uleb128 0xf
 2962 02f9 DF030000 		.4byte	.LASF19
 2963 02fd 01       		.byte	0x1
 2964 02fe 0503     		.2byte	0x305
 2965 0300 6F000000 		.4byte	0x6f
 2966 0304 02       		.byte	0x2
 2967 0305 91       		.byte	0x91
 2968 0306 77       		.sleb128 -9
 2969 0307 00       		.byte	0x0
 2970 0308 0B       		.uleb128 0xb
 2971 0309 01       		.byte	0x1
 2972 030a 32030000 		.4byte	.LASF39
 2973 030e 01       		.byte	0x1
 2974 030f 4003     		.2byte	0x340
 2975 0311 01       		.byte	0x1
 2976 0312 00000000 		.4byte	.LFB15
 2977 0316 14000000 		.4byte	.LFE15
 2978 031a F1020000 		.4byte	.LLST15
 2979 031e 32030000 		.4byte	0x332
 2980 0322 0C       		.uleb128 0xc
 2981 0323 3F010000 		.4byte	.LASF40
 2982 0327 01       		.byte	0x1
 2983 0328 4003     		.2byte	0x340
 2984 032a 6F000000 		.4byte	0x6f
 2985 032e 02       		.byte	0x2
 2986 032f 91       		.byte	0x91
 2987 0330 77       		.sleb128 -9
 2988 0331 00       		.byte	0x0
 2989 0332 0B       		.uleb128 0xb
 2990 0333 01       		.byte	0x1
ARM GAS  C:\Users\dmtucker\AppData\Local\Temp\ccE6jVLi.s 			page 82


 2991 0334 E8020000 		.4byte	.LASF41
 2992 0338 01       		.byte	0x1
 2993 0339 6503     		.2byte	0x365
 2994 033b 01       		.byte	0x1
 2995 033c 00000000 		.4byte	.LFB16
 2996 0340 20000000 		.4byte	.LFE16
 2997 0344 28030000 		.4byte	.LLST16
 2998 0348 5C030000 		.4byte	0x35c
 2999 034c 0C       		.uleb128 0xc
 3000 034d E0020000 		.4byte	.LASF42
 3001 0351 01       		.byte	0x1
 3002 0352 6503     		.2byte	0x365
 3003 0354 6F000000 		.4byte	0x6f
 3004 0358 02       		.byte	0x2
 3005 0359 91       		.byte	0x91
 3006 035a 77       		.sleb128 -9
 3007 035b 00       		.byte	0x0
 3008 035c 0B       		.uleb128 0xb
 3009 035d 01       		.byte	0x1
 3010 035e FB020000 		.4byte	.LASF43
 3011 0362 01       		.byte	0x1
 3012 0363 7A03     		.2byte	0x37a
 3013 0365 01       		.byte	0x1
 3014 0366 00000000 		.4byte	.LFB17
 3015 036a 20000000 		.4byte	.LFE17
 3016 036e 5F030000 		.4byte	.LLST17
 3017 0372 86030000 		.4byte	0x386
 3018 0376 0C       		.uleb128 0xc
 3019 0377 E0020000 		.4byte	.LASF42
 3020 037b 01       		.byte	0x1
 3021 037c 7A03     		.2byte	0x37a
 3022 037e 6F000000 		.4byte	0x6f
 3023 0382 02       		.byte	0x2
 3024 0383 91       		.byte	0x91
 3025 0384 77       		.sleb128 -9
 3026 0385 00       		.byte	0x0
 3027 0386 0D       		.uleb128 0xd
 3028 0387 01       		.byte	0x1
 3029 0388 96000000 		.4byte	.LASF44
 3030 038c 01       		.byte	0x1
 3031 038d 9703     		.2byte	0x397
 3032 038f 01       		.byte	0x1
 3033 0390 00000000 		.4byte	.LFB18
 3034 0394 18000000 		.4byte	.LFE18
 3035 0398 96030000 		.4byte	.LLST18
 3036 039c 0D       		.uleb128 0xd
 3037 039d 01       		.byte	0x1
 3038 039e B4020000 		.4byte	.LASF45
 3039 03a2 01       		.byte	0x1
 3040 03a3 AE03     		.2byte	0x3ae
 3041 03a5 01       		.byte	0x1
 3042 03a6 00000000 		.4byte	.LFB19
 3043 03aa 18000000 		.4byte	.LFE19
 3044 03ae C1030000 		.4byte	.LLST19
 3045 03b2 0B       		.uleb128 0xb
 3046 03b3 01       		.byte	0x1
 3047 03b4 60000000 		.4byte	.LASF46
ARM GAS  C:\Users\dmtucker\AppData\Local\Temp\ccE6jVLi.s 			page 83


 3048 03b8 01       		.byte	0x1
 3049 03b9 C803     		.2byte	0x3c8
 3050 03bb 01       		.byte	0x1
 3051 03bc 00000000 		.4byte	.LFB20
 3052 03c0 20000000 		.4byte	.LFE20
 3053 03c4 EC030000 		.4byte	.LLST20
 3054 03c8 DC030000 		.4byte	0x3dc
 3055 03cc 0C       		.uleb128 0xc
 3056 03cd 85020000 		.4byte	.LASF25
 3057 03d1 01       		.byte	0x1
 3058 03d2 C803     		.2byte	0x3c8
 3059 03d4 6F000000 		.4byte	0x6f
 3060 03d8 02       		.byte	0x2
 3061 03d9 91       		.byte	0x91
 3062 03da 77       		.sleb128 -9
 3063 03db 00       		.byte	0x0
 3064 03dc 0B       		.uleb128 0xb
 3065 03dd 01       		.byte	0x1
 3066 03de 56030000 		.4byte	.LASF47
 3067 03e2 01       		.byte	0x1
 3068 03e3 EA03     		.2byte	0x3ea
 3069 03e5 01       		.byte	0x1
 3070 03e6 00000000 		.4byte	.LFB21
 3071 03ea B2000000 		.4byte	.LFE21
 3072 03ee 23040000 		.4byte	.LLST21
 3073 03f2 06040000 		.4byte	0x406
 3074 03f6 0C       		.uleb128 0xc
 3075 03f7 19000000 		.4byte	.LASF48
 3076 03fb 01       		.byte	0x1
 3077 03fc EA03     		.2byte	0x3ea
 3078 03fe 6F000000 		.4byte	0x6f
 3079 0402 02       		.byte	0x2
 3080 0403 91       		.byte	0x91
 3081 0404 77       		.sleb128 -9
 3082 0405 00       		.byte	0x0
 3083 0406 0A       		.uleb128 0xa
 3084 0407 01       		.byte	0x1
 3085 0408 A2020000 		.4byte	.LASF49
 3086 040c 01       		.byte	0x1
 3087 040d 2E04     		.2byte	0x42e
 3088 040f 01       		.byte	0x1
 3089 0410 6F000000 		.4byte	0x6f
 3090 0414 00000000 		.4byte	.LFB22
 3091 0418 18000000 		.4byte	.LFE22
 3092 041c 5A040000 		.4byte	.LLST22
 3093 0420 0B       		.uleb128 0xb
 3094 0421 01       		.byte	0x1
 3095 0422 FC000000 		.4byte	.LASF50
 3096 0426 01       		.byte	0x1
 3097 0427 5204     		.2byte	0x452
 3098 0429 01       		.byte	0x1
 3099 042a 00000000 		.4byte	.LFB23
 3100 042e B6000000 		.4byte	.LFE23
 3101 0432 85040000 		.4byte	.LLST23
 3102 0436 68040000 		.4byte	0x468
 3103 043a 0C       		.uleb128 0xc
 3104 043b 19000000 		.4byte	.LASF48
ARM GAS  C:\Users\dmtucker\AppData\Local\Temp\ccE6jVLi.s 			page 84


 3105 043f 01       		.byte	0x1
 3106 0440 5204     		.2byte	0x452
 3107 0442 6F000000 		.4byte	0x6f
 3108 0446 02       		.byte	0x2
 3109 0447 91       		.byte	0x91
 3110 0448 6F       		.sleb128 -17
 3111 0449 0F       		.uleb128 0xf
 3112 044a CE020000 		.4byte	.LASF51
 3113 044e 01       		.byte	0x1
 3114 044f 5904     		.2byte	0x459
 3115 0451 6F000000 		.4byte	0x6f
 3116 0455 02       		.byte	0x2
 3117 0456 91       		.byte	0x91
 3118 0457 76       		.sleb128 -10
 3119 0458 0F       		.uleb128 0xf
 3120 0459 F6010000 		.4byte	.LASF52
 3121 045d 01       		.byte	0x1
 3122 045e 5A04     		.2byte	0x45a
 3123 0460 6F000000 		.4byte	0x6f
 3124 0464 02       		.byte	0x2
 3125 0465 91       		.byte	0x91
 3126 0466 77       		.sleb128 -9
 3127 0467 00       		.byte	0x0
 3128 0468 0B       		.uleb128 0xb
 3129 0469 01       		.byte	0x1
 3130 046a 42040000 		.4byte	.LASF53
 3131 046e 01       		.byte	0x1
 3132 046f AE04     		.2byte	0x4ae
 3133 0471 01       		.byte	0x1
 3134 0472 00000000 		.4byte	.LFB24
 3135 0476 48000000 		.4byte	.LFE24
 3136 047a BC040000 		.4byte	.LLST24
 3137 047e A1040000 		.4byte	0x4a1
 3138 0482 0C       		.uleb128 0xc
 3139 0483 37000000 		.4byte	.LASF54
 3140 0487 01       		.byte	0x1
 3141 0488 AE04     		.2byte	0x4ae
 3142 048a A1040000 		.4byte	0x4a1
 3143 048e 02       		.byte	0x2
 3144 048f 91       		.byte	0x91
 3145 0490 6C       		.sleb128 -20
 3146 0491 0F       		.uleb128 0xf
 3147 0492 7E040000 		.4byte	.LASF55
 3148 0496 01       		.byte	0x1
 3149 0497 B004     		.2byte	0x4b0
 3150 0499 7A000000 		.4byte	0x7a
 3151 049d 02       		.byte	0x2
 3152 049e 91       		.byte	0x91
 3153 049f 76       		.sleb128 -10
 3154 04a0 00       		.byte	0x0
 3155 04a1 10       		.uleb128 0x10
 3156 04a2 04       		.byte	0x4
 3157 04a3 A7040000 		.4byte	0x4a7
 3158 04a7 11       		.uleb128 0x11
 3159 04a8 93000000 		.4byte	0x93
 3160 04ac 0B       		.uleb128 0xb
 3161 04ad 01       		.byte	0x1
ARM GAS  C:\Users\dmtucker\AppData\Local\Temp\ccE6jVLi.s 			page 85


 3162 04ae E8010000 		.4byte	.LASF56
 3163 04b2 01       		.byte	0x1
 3164 04b3 D404     		.2byte	0x4d4
 3165 04b5 01       		.byte	0x1
 3166 04b6 00000000 		.4byte	.LFB25
 3167 04ba 46000000 		.4byte	.LFE25
 3168 04be F3040000 		.4byte	.LLST25
 3169 04c2 F4040000 		.4byte	0x4f4
 3170 04c6 0C       		.uleb128 0xc
 3171 04c7 37000000 		.4byte	.LASF54
 3172 04cb 01       		.byte	0x1
 3173 04cc D404     		.2byte	0x4d4
 3174 04ce F4040000 		.4byte	0x4f4
 3175 04d2 02       		.byte	0x2
 3176 04d3 91       		.byte	0x91
 3177 04d4 6C       		.sleb128 -20
 3178 04d5 0C       		.uleb128 0xc
 3179 04d6 80030000 		.4byte	.LASF57
 3180 04da 01       		.byte	0x1
 3181 04db D404     		.2byte	0x4d4
 3182 04dd 6F000000 		.4byte	0x6f
 3183 04e1 02       		.byte	0x2
 3184 04e2 91       		.byte	0x91
 3185 04e3 6B       		.sleb128 -21
 3186 04e4 0F       		.uleb128 0xf
 3187 04e5 7E040000 		.4byte	.LASF55
 3188 04e9 01       		.byte	0x1
 3189 04ea D704     		.2byte	0x4d7
 3190 04ec 6F000000 		.4byte	0x6f
 3191 04f0 02       		.byte	0x2
 3192 04f1 91       		.byte	0x91
 3193 04f2 77       		.sleb128 -9
 3194 04f3 00       		.byte	0x0
 3195 04f4 10       		.uleb128 0x10
 3196 04f5 04       		.byte	0x4
 3197 04f6 FA040000 		.4byte	0x4fa
 3198 04fa 11       		.uleb128 0x11
 3199 04fb 6F000000 		.4byte	0x6f
 3200 04ff 0B       		.uleb128 0xb
 3201 0500 01       		.byte	0x1
 3202 0501 B3010000 		.4byte	.LASF58
 3203 0505 01       		.byte	0x1
 3204 0506 F904     		.2byte	0x4f9
 3205 0508 01       		.byte	0x1
 3206 0509 00000000 		.4byte	.LFB26
 3207 050d 38000000 		.4byte	.LFE26
 3208 0511 2A050000 		.4byte	.LLST26
 3209 0515 29050000 		.4byte	0x529
 3210 0519 0C       		.uleb128 0xc
 3211 051a 19000000 		.4byte	.LASF48
 3212 051e 01       		.byte	0x1
 3213 051f F904     		.2byte	0x4f9
 3214 0521 6F000000 		.4byte	0x6f
 3215 0525 02       		.byte	0x2
 3216 0526 91       		.byte	0x91
 3217 0527 77       		.sleb128 -9
 3218 0528 00       		.byte	0x0
ARM GAS  C:\Users\dmtucker\AppData\Local\Temp\ccE6jVLi.s 			page 86


 3219 0529 0E       		.uleb128 0xe
 3220 052a 01       		.byte	0x1
 3221 052b 1D030000 		.4byte	.LASF59
 3222 052f 01       		.byte	0x1
 3223 0530 1E05     		.2byte	0x51e
 3224 0532 01       		.byte	0x1
 3225 0533 6F000000 		.4byte	0x6f
 3226 0537 00000000 		.4byte	.LFB27
 3227 053b 96000000 		.4byte	.LFE27
 3228 053f 61050000 		.4byte	.LLST27
 3229 0543 57050000 		.4byte	0x557
 3230 0547 0F       		.uleb128 0xf
 3231 0548 1F020000 		.4byte	.LASF37
 3232 054c 01       		.byte	0x1
 3233 054d 2105     		.2byte	0x521
 3234 054f 6F000000 		.4byte	0x6f
 3235 0553 02       		.byte	0x2
 3236 0554 91       		.byte	0x91
 3237 0555 77       		.sleb128 -9
 3238 0556 00       		.byte	0x0
 3239 0557 0B       		.uleb128 0xb
 3240 0558 01       		.byte	0x1
 3241 0559 A0010000 		.4byte	.LASF60
 3242 055d 01       		.byte	0x1
 3243 055e 7405     		.2byte	0x574
 3244 0560 01       		.byte	0x1
 3245 0561 00000000 		.4byte	.LFB28
 3246 0565 78000000 		.4byte	.LFE28
 3247 0569 98050000 		.4byte	.LLST28
 3248 056d 81050000 		.4byte	0x581
 3249 0571 0F       		.uleb128 0xf
 3250 0572 DF030000 		.4byte	.LASF19
 3251 0576 01       		.byte	0x1
 3252 0577 7605     		.2byte	0x576
 3253 0579 6F000000 		.4byte	0x6f
 3254 057d 02       		.byte	0x2
 3255 057e 91       		.byte	0x91
 3256 057f 77       		.sleb128 -9
 3257 0580 00       		.byte	0x0
 3258 0581 0B       		.uleb128 0xb
 3259 0582 01       		.byte	0x1
 3260 0583 71030000 		.4byte	.LASF61
 3261 0587 01       		.byte	0x1
 3262 0588 CD05     		.2byte	0x5cd
 3263 058a 01       		.byte	0x1
 3264 058b 00000000 		.4byte	.LFB29
 3265 058f EC000000 		.4byte	.LFE29
 3266 0593 CF050000 		.4byte	.LLST29
 3267 0597 D6050000 		.4byte	0x5d6
 3268 059b 0C       		.uleb128 0xc
 3269 059c 7E010000 		.4byte	.LASF62
 3270 05a0 01       		.byte	0x1
 3271 05a1 CD05     		.2byte	0x5cd
 3272 05a3 6F000000 		.4byte	0x6f
 3273 05a7 02       		.byte	0x2
 3274 05a8 91       		.byte	0x91
 3275 05a9 6F       		.sleb128 -17
ARM GAS  C:\Users\dmtucker\AppData\Local\Temp\ccE6jVLi.s 			page 87


 3276 05aa 12       		.uleb128 0x12
 3277 05ab 18000000 		.4byte	.LBB2
 3278 05af E4000000 		.4byte	.LBE2
 3279 05b3 0F       		.uleb128 0xf
 3280 05b4 C6020000 		.4byte	.LASF63
 3281 05b8 01       		.byte	0x1
 3282 05b9 D505     		.2byte	0x5d5
 3283 05bb 6F000000 		.4byte	0x6f
 3284 05bf 02       		.byte	0x2
 3285 05c0 91       		.byte	0x91
 3286 05c1 77       		.sleb128 -9
 3287 05c2 0F       		.uleb128 0xf
 3288 05c3 7B020000 		.4byte	.LASF64
 3289 05c7 01       		.byte	0x1
 3290 05c8 FB05     		.2byte	0x5fb
 3291 05ca 6F000000 		.4byte	0x6f
 3292 05ce 05       		.byte	0x5
 3293 05cf 03       		.byte	0x3
 3294 05d0 07000000 		.4byte	tx_period.2400
 3295 05d4 00       		.byte	0x0
 3296 05d5 00       		.byte	0x0
 3297 05d6 0B       		.uleb128 0xb
 3298 05d7 01       		.byte	0x1
 3299 05d8 8C020000 		.4byte	.LASF65
 3300 05dc 01       		.byte	0x1
 3301 05dd 4606     		.2byte	0x646
 3302 05df 01       		.byte	0x1
 3303 05e0 00000000 		.4byte	.LFB30
 3304 05e4 14000000 		.4byte	.LFE30
 3305 05e8 06060000 		.4byte	.LLST30
 3306 05ec 00060000 		.4byte	0x600
 3307 05f0 0C       		.uleb128 0xc
 3308 05f1 3F010000 		.4byte	.LASF40
 3309 05f5 01       		.byte	0x1
 3310 05f6 4606     		.2byte	0x646
 3311 05f8 6F000000 		.4byte	0x6f
 3312 05fc 02       		.byte	0x2
 3313 05fd 91       		.byte	0x91
 3314 05fe 77       		.sleb128 -9
 3315 05ff 00       		.byte	0x0
 3316 0600 13       		.uleb128 0x13
 3317 0601 F0030000 		.4byte	.LASF66
 3318 0605 01       		.byte	0x1
 3319 0606 1C       		.byte	0x1c
 3320 0607 6F000000 		.4byte	0x6f
 3321 060b 01       		.byte	0x1
 3322 060c 05       		.byte	0x5
 3323 060d 03       		.byte	0x3
 3324 060e 00000000 		.4byte	UART_initVar
 3325 0612 14       		.uleb128 0x14
 3326 0613 6F000000 		.4byte	0x6f
 3327 0617 22060000 		.4byte	0x622
 3328 061b 15       		.uleb128 0x15
 3329 061c AA000000 		.4byte	0xaa
 3330 0620 3F       		.byte	0x3f
 3331 0621 00       		.byte	0x0
 3332 0622 13       		.uleb128 0x13
ARM GAS  C:\Users\dmtucker\AppData\Local\Temp\ccE6jVLi.s 			page 88


 3333 0623 70010000 		.4byte	.LASF67
 3334 0627 01       		.byte	0x1
 3335 0628 1E       		.byte	0x1e
 3336 0629 34060000 		.4byte	0x634
 3337 062d 01       		.byte	0x1
 3338 062e 05       		.byte	0x5
 3339 062f 03       		.byte	0x3
 3340 0630 00000000 		.4byte	UART_txBuffer
 3341 0634 05       		.uleb128 0x5
 3342 0635 12060000 		.4byte	0x612
 3343 0639 13       		.uleb128 0x13
 3344 063a 84000000 		.4byte	.LASF68
 3345 063e 01       		.byte	0x1
 3346 063f 1F       		.byte	0x1f
 3347 0640 A5000000 		.4byte	0xa5
 3348 0644 01       		.byte	0x1
 3349 0645 05       		.byte	0x5
 3350 0646 03       		.byte	0x3
 3351 0647 00000000 		.4byte	UART_txBufferRead
 3352 064b 13       		.uleb128 0x13
 3353 064c 24000000 		.4byte	.LASF69
 3354 0650 01       		.byte	0x1
 3355 0651 20       		.byte	0x20
 3356 0652 6F000000 		.4byte	0x6f
 3357 0656 01       		.byte	0x1
 3358 0657 05       		.byte	0x5
 3359 0658 03       		.byte	0x3
 3360 0659 00000000 		.4byte	UART_txBufferWrite
 3361 065d 13       		.uleb128 0x13
 3362 065e 34040000 		.4byte	.LASF70
 3363 0662 01       		.byte	0x1
 3364 0663 24       		.byte	0x24
 3365 0664 6F060000 		.4byte	0x66f
 3366 0668 01       		.byte	0x1
 3367 0669 05       		.byte	0x5
 3368 066a 03       		.byte	0x3
 3369 066b 00000000 		.4byte	UART_rxBuffer
 3370 066f 05       		.uleb128 0x5
 3371 0670 12060000 		.4byte	0x612
 3372 0674 13       		.uleb128 0x13
 3373 0675 37020000 		.4byte	.LASF71
 3374 0679 01       		.byte	0x1
 3375 067a 25       		.byte	0x25
 3376 067b A5000000 		.4byte	0xa5
 3377 067f 01       		.byte	0x1
 3378 0680 05       		.byte	0x5
 3379 0681 03       		.byte	0x3
 3380 0682 00000000 		.4byte	UART_rxBufferRead
 3381 0686 13       		.uleb128 0x13
 3382 0687 4B010000 		.4byte	.LASF72
 3383 068b 01       		.byte	0x1
 3384 068c 26       		.byte	0x26
 3385 068d A5000000 		.4byte	0xa5
 3386 0691 01       		.byte	0x1
 3387 0692 05       		.byte	0x5
 3388 0693 03       		.byte	0x3
 3389 0694 00000000 		.4byte	UART_rxBufferWrite
ARM GAS  C:\Users\dmtucker\AppData\Local\Temp\ccE6jVLi.s 			page 89


 3390 0698 13       		.uleb128 0x13
 3391 0699 07020000 		.4byte	.LASF73
 3392 069d 01       		.byte	0x1
 3393 069e 27       		.byte	0x27
 3394 069f A5000000 		.4byte	0xa5
 3395 06a3 01       		.byte	0x1
 3396 06a4 05       		.byte	0x5
 3397 06a5 03       		.byte	0x3
 3398 06a6 00000000 		.4byte	UART_rxBufferLoopDetect
 3399 06aa 13       		.uleb128 0x13
 3400 06ab C0010000 		.4byte	.LASF74
 3401 06af 01       		.byte	0x1
 3402 06b0 28       		.byte	0x28
 3403 06b1 A5000000 		.4byte	0xa5
 3404 06b5 01       		.byte	0x1
 3405 06b6 05       		.byte	0x5
 3406 06b7 03       		.byte	0x3
 3407 06b8 00000000 		.4byte	UART_rxBufferOverflow
 3408 06bc 00       		.byte	0x0
 3409              		.section	.debug_abbrev
 3410 0000 01       		.uleb128 0x1
 3411 0001 11       		.uleb128 0x11
 3412 0002 01       		.byte	0x1
 3413 0003 25       		.uleb128 0x25
 3414 0004 0E       		.uleb128 0xe
 3415 0005 13       		.uleb128 0x13
 3416 0006 0B       		.uleb128 0xb
 3417 0007 03       		.uleb128 0x3
 3418 0008 0E       		.uleb128 0xe
 3419 0009 1B       		.uleb128 0x1b
 3420 000a 0E       		.uleb128 0xe
 3421 000b 11       		.uleb128 0x11
 3422 000c 01       		.uleb128 0x1
 3423 000d 52       		.uleb128 0x52
 3424 000e 01       		.uleb128 0x1
 3425 000f 55       		.uleb128 0x55
 3426 0010 06       		.uleb128 0x6
 3427 0011 10       		.uleb128 0x10
 3428 0012 06       		.uleb128 0x6
 3429 0013 00       		.byte	0x0
 3430 0014 00       		.byte	0x0
 3431 0015 02       		.uleb128 0x2
 3432 0016 24       		.uleb128 0x24
 3433 0017 00       		.byte	0x0
 3434 0018 0B       		.uleb128 0xb
 3435 0019 0B       		.uleb128 0xb
 3436 001a 3E       		.uleb128 0x3e
 3437 001b 0B       		.uleb128 0xb
 3438 001c 03       		.uleb128 0x3
 3439 001d 0E       		.uleb128 0xe
 3440 001e 00       		.byte	0x0
 3441 001f 00       		.byte	0x0
 3442 0020 03       		.uleb128 0x3
 3443 0021 24       		.uleb128 0x24
 3444 0022 00       		.byte	0x0
 3445 0023 0B       		.uleb128 0xb
 3446 0024 0B       		.uleb128 0xb
ARM GAS  C:\Users\dmtucker\AppData\Local\Temp\ccE6jVLi.s 			page 90


 3447 0025 3E       		.uleb128 0x3e
 3448 0026 0B       		.uleb128 0xb
 3449 0027 03       		.uleb128 0x3
 3450 0028 08       		.uleb128 0x8
 3451 0029 00       		.byte	0x0
 3452 002a 00       		.byte	0x0
 3453 002b 04       		.uleb128 0x4
 3454 002c 16       		.uleb128 0x16
 3455 002d 00       		.byte	0x0
 3456 002e 03       		.uleb128 0x3
 3457 002f 0E       		.uleb128 0xe
 3458 0030 3A       		.uleb128 0x3a
 3459 0031 0B       		.uleb128 0xb
 3460 0032 3B       		.uleb128 0x3b
 3461 0033 0B       		.uleb128 0xb
 3462 0034 49       		.uleb128 0x49
 3463 0035 13       		.uleb128 0x13
 3464 0036 00       		.byte	0x0
 3465 0037 00       		.byte	0x0
 3466 0038 05       		.uleb128 0x5
 3467 0039 35       		.uleb128 0x35
 3468 003a 00       		.byte	0x0
 3469 003b 49       		.uleb128 0x49
 3470 003c 13       		.uleb128 0x13
 3471 003d 00       		.byte	0x0
 3472 003e 00       		.byte	0x0
 3473 003f 06       		.uleb128 0x6
 3474 0040 24       		.uleb128 0x24
 3475 0041 00       		.byte	0x0
 3476 0042 0B       		.uleb128 0xb
 3477 0043 0B       		.uleb128 0xb
 3478 0044 3E       		.uleb128 0x3e
 3479 0045 0B       		.uleb128 0xb
 3480 0046 00       		.byte	0x0
 3481 0047 00       		.byte	0x0
 3482 0048 07       		.uleb128 0x7
 3483 0049 2E       		.uleb128 0x2e
 3484 004a 00       		.byte	0x0
 3485 004b 3F       		.uleb128 0x3f
 3486 004c 0C       		.uleb128 0xc
 3487 004d 03       		.uleb128 0x3
 3488 004e 0E       		.uleb128 0xe
 3489 004f 3A       		.uleb128 0x3a
 3490 0050 0B       		.uleb128 0xb
 3491 0051 3B       		.uleb128 0x3b
 3492 0052 0B       		.uleb128 0xb
 3493 0053 27       		.uleb128 0x27
 3494 0054 0C       		.uleb128 0xc
 3495 0055 11       		.uleb128 0x11
 3496 0056 01       		.uleb128 0x1
 3497 0057 12       		.uleb128 0x12
 3498 0058 01       		.uleb128 0x1
 3499 0059 40       		.uleb128 0x40
 3500 005a 06       		.uleb128 0x6
 3501 005b 00       		.byte	0x0
 3502 005c 00       		.byte	0x0
 3503 005d 08       		.uleb128 0x8
ARM GAS  C:\Users\dmtucker\AppData\Local\Temp\ccE6jVLi.s 			page 91


 3504 005e 2E       		.uleb128 0x2e
 3505 005f 01       		.byte	0x1
 3506 0060 3F       		.uleb128 0x3f
 3507 0061 0C       		.uleb128 0xc
 3508 0062 03       		.uleb128 0x3
 3509 0063 0E       		.uleb128 0xe
 3510 0064 3A       		.uleb128 0x3a
 3511 0065 0B       		.uleb128 0xb
 3512 0066 3B       		.uleb128 0x3b
 3513 0067 0B       		.uleb128 0xb
 3514 0068 27       		.uleb128 0x27
 3515 0069 0C       		.uleb128 0xc
 3516 006a 11       		.uleb128 0x11
 3517 006b 01       		.uleb128 0x1
 3518 006c 12       		.uleb128 0x12
 3519 006d 01       		.uleb128 0x1
 3520 006e 40       		.uleb128 0x40
 3521 006f 06       		.uleb128 0x6
 3522 0070 01       		.uleb128 0x1
 3523 0071 13       		.uleb128 0x13
 3524 0072 00       		.byte	0x0
 3525 0073 00       		.byte	0x0
 3526 0074 09       		.uleb128 0x9
 3527 0075 34       		.uleb128 0x34
 3528 0076 00       		.byte	0x0
 3529 0077 03       		.uleb128 0x3
 3530 0078 0E       		.uleb128 0xe
 3531 0079 3A       		.uleb128 0x3a
 3532 007a 0B       		.uleb128 0xb
 3533 007b 3B       		.uleb128 0x3b
 3534 007c 0B       		.uleb128 0xb
 3535 007d 49       		.uleb128 0x49
 3536 007e 13       		.uleb128 0x13
 3537 007f 02       		.uleb128 0x2
 3538 0080 0A       		.uleb128 0xa
 3539 0081 00       		.byte	0x0
 3540 0082 00       		.byte	0x0
 3541 0083 0A       		.uleb128 0xa
 3542 0084 2E       		.uleb128 0x2e
 3543 0085 00       		.byte	0x0
 3544 0086 3F       		.uleb128 0x3f
 3545 0087 0C       		.uleb128 0xc
 3546 0088 03       		.uleb128 0x3
 3547 0089 0E       		.uleb128 0xe
 3548 008a 3A       		.uleb128 0x3a
 3549 008b 0B       		.uleb128 0xb
 3550 008c 3B       		.uleb128 0x3b
 3551 008d 05       		.uleb128 0x5
 3552 008e 27       		.uleb128 0x27
 3553 008f 0C       		.uleb128 0xc
 3554 0090 49       		.uleb128 0x49
 3555 0091 13       		.uleb128 0x13
 3556 0092 11       		.uleb128 0x11
 3557 0093 01       		.uleb128 0x1
 3558 0094 12       		.uleb128 0x12
 3559 0095 01       		.uleb128 0x1
 3560 0096 40       		.uleb128 0x40
ARM GAS  C:\Users\dmtucker\AppData\Local\Temp\ccE6jVLi.s 			page 92


 3561 0097 06       		.uleb128 0x6
 3562 0098 00       		.byte	0x0
 3563 0099 00       		.byte	0x0
 3564 009a 0B       		.uleb128 0xb
 3565 009b 2E       		.uleb128 0x2e
 3566 009c 01       		.byte	0x1
 3567 009d 3F       		.uleb128 0x3f
 3568 009e 0C       		.uleb128 0xc
 3569 009f 03       		.uleb128 0x3
 3570 00a0 0E       		.uleb128 0xe
 3571 00a1 3A       		.uleb128 0x3a
 3572 00a2 0B       		.uleb128 0xb
 3573 00a3 3B       		.uleb128 0x3b
 3574 00a4 05       		.uleb128 0x5
 3575 00a5 27       		.uleb128 0x27
 3576 00a6 0C       		.uleb128 0xc
 3577 00a7 11       		.uleb128 0x11
 3578 00a8 01       		.uleb128 0x1
 3579 00a9 12       		.uleb128 0x12
 3580 00aa 01       		.uleb128 0x1
 3581 00ab 40       		.uleb128 0x40
 3582 00ac 06       		.uleb128 0x6
 3583 00ad 01       		.uleb128 0x1
 3584 00ae 13       		.uleb128 0x13
 3585 00af 00       		.byte	0x0
 3586 00b0 00       		.byte	0x0
 3587 00b1 0C       		.uleb128 0xc
 3588 00b2 05       		.uleb128 0x5
 3589 00b3 00       		.byte	0x0
 3590 00b4 03       		.uleb128 0x3
 3591 00b5 0E       		.uleb128 0xe
 3592 00b6 3A       		.uleb128 0x3a
 3593 00b7 0B       		.uleb128 0xb
 3594 00b8 3B       		.uleb128 0x3b
 3595 00b9 05       		.uleb128 0x5
 3596 00ba 49       		.uleb128 0x49
 3597 00bb 13       		.uleb128 0x13
 3598 00bc 02       		.uleb128 0x2
 3599 00bd 0A       		.uleb128 0xa
 3600 00be 00       		.byte	0x0
 3601 00bf 00       		.byte	0x0
 3602 00c0 0D       		.uleb128 0xd
 3603 00c1 2E       		.uleb128 0x2e
 3604 00c2 00       		.byte	0x0
 3605 00c3 3F       		.uleb128 0x3f
 3606 00c4 0C       		.uleb128 0xc
 3607 00c5 03       		.uleb128 0x3
 3608 00c6 0E       		.uleb128 0xe
 3609 00c7 3A       		.uleb128 0x3a
 3610 00c8 0B       		.uleb128 0xb
 3611 00c9 3B       		.uleb128 0x3b
 3612 00ca 05       		.uleb128 0x5
 3613 00cb 27       		.uleb128 0x27
 3614 00cc 0C       		.uleb128 0xc
 3615 00cd 11       		.uleb128 0x11
 3616 00ce 01       		.uleb128 0x1
 3617 00cf 12       		.uleb128 0x12
ARM GAS  C:\Users\dmtucker\AppData\Local\Temp\ccE6jVLi.s 			page 93


 3618 00d0 01       		.uleb128 0x1
 3619 00d1 40       		.uleb128 0x40
 3620 00d2 06       		.uleb128 0x6
 3621 00d3 00       		.byte	0x0
 3622 00d4 00       		.byte	0x0
 3623 00d5 0E       		.uleb128 0xe
 3624 00d6 2E       		.uleb128 0x2e
 3625 00d7 01       		.byte	0x1
 3626 00d8 3F       		.uleb128 0x3f
 3627 00d9 0C       		.uleb128 0xc
 3628 00da 03       		.uleb128 0x3
 3629 00db 0E       		.uleb128 0xe
 3630 00dc 3A       		.uleb128 0x3a
 3631 00dd 0B       		.uleb128 0xb
 3632 00de 3B       		.uleb128 0x3b
 3633 00df 05       		.uleb128 0x5
 3634 00e0 27       		.uleb128 0x27
 3635 00e1 0C       		.uleb128 0xc
 3636 00e2 49       		.uleb128 0x49
 3637 00e3 13       		.uleb128 0x13
 3638 00e4 11       		.uleb128 0x11
 3639 00e5 01       		.uleb128 0x1
 3640 00e6 12       		.uleb128 0x12
 3641 00e7 01       		.uleb128 0x1
 3642 00e8 40       		.uleb128 0x40
 3643 00e9 06       		.uleb128 0x6
 3644 00ea 01       		.uleb128 0x1
 3645 00eb 13       		.uleb128 0x13
 3646 00ec 00       		.byte	0x0
 3647 00ed 00       		.byte	0x0
 3648 00ee 0F       		.uleb128 0xf
 3649 00ef 34       		.uleb128 0x34
 3650 00f0 00       		.byte	0x0
 3651 00f1 03       		.uleb128 0x3
 3652 00f2 0E       		.uleb128 0xe
 3653 00f3 3A       		.uleb128 0x3a
 3654 00f4 0B       		.uleb128 0xb
 3655 00f5 3B       		.uleb128 0x3b
 3656 00f6 05       		.uleb128 0x5
 3657 00f7 49       		.uleb128 0x49
 3658 00f8 13       		.uleb128 0x13
 3659 00f9 02       		.uleb128 0x2
 3660 00fa 0A       		.uleb128 0xa
 3661 00fb 00       		.byte	0x0
 3662 00fc 00       		.byte	0x0
 3663 00fd 10       		.uleb128 0x10
 3664 00fe 0F       		.uleb128 0xf
 3665 00ff 00       		.byte	0x0
 3666 0100 0B       		.uleb128 0xb
 3667 0101 0B       		.uleb128 0xb
 3668 0102 49       		.uleb128 0x49
 3669 0103 13       		.uleb128 0x13
 3670 0104 00       		.byte	0x0
 3671 0105 00       		.byte	0x0
 3672 0106 11       		.uleb128 0x11
 3673 0107 26       		.uleb128 0x26
 3674 0108 00       		.byte	0x0
ARM GAS  C:\Users\dmtucker\AppData\Local\Temp\ccE6jVLi.s 			page 94


 3675 0109 49       		.uleb128 0x49
 3676 010a 13       		.uleb128 0x13
 3677 010b 00       		.byte	0x0
 3678 010c 00       		.byte	0x0
 3679 010d 12       		.uleb128 0x12
 3680 010e 0B       		.uleb128 0xb
 3681 010f 01       		.byte	0x1
 3682 0110 11       		.uleb128 0x11
 3683 0111 01       		.uleb128 0x1
 3684 0112 12       		.uleb128 0x12
 3685 0113 01       		.uleb128 0x1
 3686 0114 00       		.byte	0x0
 3687 0115 00       		.byte	0x0
 3688 0116 13       		.uleb128 0x13
 3689 0117 34       		.uleb128 0x34
 3690 0118 00       		.byte	0x0
 3691 0119 03       		.uleb128 0x3
 3692 011a 0E       		.uleb128 0xe
 3693 011b 3A       		.uleb128 0x3a
 3694 011c 0B       		.uleb128 0xb
 3695 011d 3B       		.uleb128 0x3b
 3696 011e 0B       		.uleb128 0xb
 3697 011f 49       		.uleb128 0x49
 3698 0120 13       		.uleb128 0x13
 3699 0121 3F       		.uleb128 0x3f
 3700 0122 0C       		.uleb128 0xc
 3701 0123 02       		.uleb128 0x2
 3702 0124 0A       		.uleb128 0xa
 3703 0125 00       		.byte	0x0
 3704 0126 00       		.byte	0x0
 3705 0127 14       		.uleb128 0x14
 3706 0128 01       		.uleb128 0x1
 3707 0129 01       		.byte	0x1
 3708 012a 49       		.uleb128 0x49
 3709 012b 13       		.uleb128 0x13
 3710 012c 01       		.uleb128 0x1
 3711 012d 13       		.uleb128 0x13
 3712 012e 00       		.byte	0x0
 3713 012f 00       		.byte	0x0
 3714 0130 15       		.uleb128 0x15
 3715 0131 21       		.uleb128 0x21
 3716 0132 00       		.byte	0x0
 3717 0133 49       		.uleb128 0x49
 3718 0134 13       		.uleb128 0x13
 3719 0135 2F       		.uleb128 0x2f
 3720 0136 0B       		.uleb128 0xb
 3721 0137 00       		.byte	0x0
 3722 0138 00       		.byte	0x0
 3723 0139 00       		.byte	0x0
 3724              		.section	.debug_pubnames,"",%progbits
 3725 0000 6A030000 		.4byte	0x36a
 3726 0004 0200     		.2byte	0x2
 3727 0006 00000000 		.4byte	.Ldebug_info0
 3728 000a BD060000 		.4byte	0x6bd
 3729 000e AD000000 		.4byte	0xad
 3730 0012 55415254 		.ascii	"UART_Start\000"
 3730      5F537461 
ARM GAS  C:\Users\dmtucker\AppData\Local\Temp\ccE6jVLi.s 			page 95


 3730      727400
 3731 001d C2000000 		.4byte	0xc2
 3732 0021 55415254 		.ascii	"UART_Init\000"
 3732      5F496E69 
 3732      7400
 3733 002b D7000000 		.4byte	0xd7
 3734 002f 55415254 		.ascii	"UART_Enable\000"
 3734      5F456E61 
 3734      626C6500 
 3735 003b FF000000 		.4byte	0xff
 3736 003f 55415254 		.ascii	"UART_Stop\000"
 3736      5F53746F 
 3736      7000
 3737 0049 27010000 		.4byte	0x127
 3738 004d 55415254 		.ascii	"UART_ReadControlRegister\000"
 3738      5F526561 
 3738      64436F6E 
 3738      74726F6C 
 3738      52656769 
 3739 0066 41010000 		.4byte	0x141
 3740 006a 55415254 		.ascii	"UART_WriteControlRegister\000"
 3740      5F577269 
 3740      7465436F 
 3740      6E74726F 
 3740      6C526567 
 3741 0084 6B010000 		.4byte	0x16b
 3742 0088 55415254 		.ascii	"UART_EnableRxInt\000"
 3742      5F456E61 
 3742      626C6552 
 3742      78496E74 
 3742      00
 3743 0099 81010000 		.4byte	0x181
 3744 009d 55415254 		.ascii	"UART_DisableRxInt\000"
 3744      5F446973 
 3744      61626C65 
 3744      5278496E 
 3744      7400
 3745 00af 97010000 		.4byte	0x197
 3746 00b3 55415254 		.ascii	"UART_SetRxInterruptMode\000"
 3746      5F536574 
 3746      5278496E 
 3746      74657272 
 3746      7570744D 
 3747 00cb C1010000 		.4byte	0x1c1
 3748 00cf 55415254 		.ascii	"UART_ReadRxData\000"
 3748      5F526561 
 3748      64527844 
 3748      61746100 
 3749 00df 0D020000 		.4byte	0x20d
 3750 00e3 55415254 		.ascii	"UART_ReadRxStatus\000"
 3750      5F526561 
 3750      64527853 
 3750      74617475 
 3750      7300
 3751 00f5 3B020000 		.4byte	0x23b
 3752 00f9 55415254 		.ascii	"UART_GetChar\000"
 3752      5F476574 
ARM GAS  C:\Users\dmtucker\AppData\Local\Temp\ccE6jVLi.s 			page 96


 3752      43686172 
 3752      00
 3753 0106 96020000 		.4byte	0x296
 3754 010a 55415254 		.ascii	"UART_GetByte\000"
 3754      5F476574 
 3754      42797465 
 3754      00
 3755 0117 B0020000 		.4byte	0x2b0
 3756 011b 55415254 		.ascii	"UART_GetRxBufferSize\000"
 3756      5F476574 
 3756      52784275 
 3756      66666572 
 3756      53697A65 
 3757 0130 DE020000 		.4byte	0x2de
 3758 0134 55415254 		.ascii	"UART_ClearRxBuffer\000"
 3758      5F436C65 
 3758      61725278 
 3758      42756666 
 3758      657200
 3759 0147 08030000 		.4byte	0x308
 3760 014b 55415254 		.ascii	"UART_SetRxAddressMode\000"
 3760      5F536574 
 3760      52784164 
 3760      64726573 
 3760      734D6F64 
 3761 0161 32030000 		.4byte	0x332
 3762 0165 55415254 		.ascii	"UART_SetRxAddress1\000"
 3762      5F536574 
 3762      52784164 
 3762      64726573 
 3762      733100
 3763 0178 5C030000 		.4byte	0x35c
 3764 017c 55415254 		.ascii	"UART_SetRxAddress2\000"
 3764      5F536574 
 3764      52784164 
 3764      64726573 
 3764      733200
 3765 018f 86030000 		.4byte	0x386
 3766 0193 55415254 		.ascii	"UART_EnableTxInt\000"
 3766      5F456E61 
 3766      626C6554 
 3766      78496E74 
 3766      00
 3767 01a4 9C030000 		.4byte	0x39c
 3768 01a8 55415254 		.ascii	"UART_DisableTxInt\000"
 3768      5F446973 
 3768      61626C65 
 3768      5478496E 
 3768      7400
 3769 01ba B2030000 		.4byte	0x3b2
 3770 01be 55415254 		.ascii	"UART_SetTxInterruptMode\000"
 3770      5F536574 
 3770      5478496E 
 3770      74657272 
 3770      7570744D 
 3771 01d6 DC030000 		.4byte	0x3dc
 3772 01da 55415254 		.ascii	"UART_WriteTxData\000"
ARM GAS  C:\Users\dmtucker\AppData\Local\Temp\ccE6jVLi.s 			page 97


 3772      5F577269 
 3772      74655478 
 3772      44617461 
 3772      00
 3773 01eb 06040000 		.4byte	0x406
 3774 01ef 55415254 		.ascii	"UART_ReadTxStatus\000"
 3774      5F526561 
 3774      64547853 
 3774      74617475 
 3774      7300
 3775 0201 20040000 		.4byte	0x420
 3776 0205 55415254 		.ascii	"UART_PutChar\000"
 3776      5F507574 
 3776      43686172 
 3776      00
 3777 0212 68040000 		.4byte	0x468
 3778 0216 55415254 		.ascii	"UART_PutString\000"
 3778      5F507574 
 3778      53747269 
 3778      6E6700
 3779 0225 AC040000 		.4byte	0x4ac
 3780 0229 55415254 		.ascii	"UART_PutArray\000"
 3780      5F507574 
 3780      41727261 
 3780      7900
 3781 0237 FF040000 		.4byte	0x4ff
 3782 023b 55415254 		.ascii	"UART_PutCRLF\000"
 3782      5F507574 
 3782      43524C46 
 3782      00
 3783 0248 29050000 		.4byte	0x529
 3784 024c 55415254 		.ascii	"UART_GetTxBufferSize\000"
 3784      5F476574 
 3784      54784275 
 3784      66666572 
 3784      53697A65 
 3785 0261 57050000 		.4byte	0x557
 3786 0265 55415254 		.ascii	"UART_ClearTxBuffer\000"
 3786      5F436C65 
 3786      61725478 
 3786      42756666 
 3786      657200
 3787 0278 81050000 		.4byte	0x581
 3788 027c 55415254 		.ascii	"UART_SendBreak\000"
 3788      5F53656E 
 3788      64427265 
 3788      616B00
 3789 028b D6050000 		.4byte	0x5d6
 3790 028f 55415254 		.ascii	"UART_SetTxAddressMode\000"
 3790      5F536574 
 3790      54784164 
 3790      64726573 
 3790      734D6F64 
 3791 02a5 00060000 		.4byte	0x600
 3792 02a9 55415254 		.ascii	"UART_initVar\000"
 3792      5F696E69 
 3792      74566172 
ARM GAS  C:\Users\dmtucker\AppData\Local\Temp\ccE6jVLi.s 			page 98


 3792      00
 3793 02b6 22060000 		.4byte	0x622
 3794 02ba 55415254 		.ascii	"UART_txBuffer\000"
 3794      5F747842 
 3794      75666665 
 3794      7200
 3795 02c8 39060000 		.4byte	0x639
 3796 02cc 55415254 		.ascii	"UART_txBufferRead\000"
 3796      5F747842 
 3796      75666665 
 3796      72526561 
 3796      6400
 3797 02de 4B060000 		.4byte	0x64b
 3798 02e2 55415254 		.ascii	"UART_txBufferWrite\000"
 3798      5F747842 
 3798      75666665 
 3798      72577269 
 3798      746500
 3799 02f5 5D060000 		.4byte	0x65d
 3800 02f9 55415254 		.ascii	"UART_rxBuffer\000"
 3800      5F727842 
 3800      75666665 
 3800      7200
 3801 0307 74060000 		.4byte	0x674
 3802 030b 55415254 		.ascii	"UART_rxBufferRead\000"
 3802      5F727842 
 3802      75666665 
 3802      72526561 
 3802      6400
 3803 031d 86060000 		.4byte	0x686
 3804 0321 55415254 		.ascii	"UART_rxBufferWrite\000"
 3804      5F727842 
 3804      75666665 
 3804      72577269 
 3804      746500
 3805 0334 98060000 		.4byte	0x698
 3806 0338 55415254 		.ascii	"UART_rxBufferLoopDetect\000"
 3806      5F727842 
 3806      75666665 
 3806      724C6F6F 
 3806      70446574 
 3807 0350 AA060000 		.4byte	0x6aa
 3808 0354 55415254 		.ascii	"UART_rxBufferOverflow\000"
 3808      5F727842 
 3808      75666665 
 3808      724F7665 
 3808      72666C6F 
 3809 036a 00000000 		.4byte	0x0
 3810              		.section	.debug_aranges,"",%progbits
 3811 0000 0C010000 		.4byte	0x10c
 3812 0004 0200     		.2byte	0x2
 3813 0006 00000000 		.4byte	.Ldebug_info0
 3814 000a 04       		.byte	0x4
 3815 000b 00       		.byte	0x0
 3816 000c 0000     		.2byte	0x0
 3817 000e 0000     		.2byte	0x0
 3818 0010 00000000 		.4byte	.LFB0
ARM GAS  C:\Users\dmtucker\AppData\Local\Temp\ccE6jVLi.s 			page 99


 3819 0014 2A000000 		.4byte	.LFE0-.LFB0
 3820 0018 00000000 		.4byte	.LFB1
 3821 001c 84000000 		.4byte	.LFE1-.LFB1
 3822 0020 00000000 		.4byte	.LFB2
 3823 0024 92000000 		.4byte	.LFE2-.LFB2
 3824 0028 00000000 		.4byte	.LFB3
 3825 002c 78000000 		.4byte	.LFE3-.LFB3
 3826 0030 00000000 		.4byte	.LFB4
 3827 0034 10000000 		.4byte	.LFE4-.LFB4
 3828 0038 00000000 		.4byte	.LFB5
 3829 003c 14000000 		.4byte	.LFE5-.LFB5
 3830 0040 00000000 		.4byte	.LFB6
 3831 0044 18000000 		.4byte	.LFE6-.LFB6
 3832 0048 00000000 		.4byte	.LFB7
 3833 004c 18000000 		.4byte	.LFE7-.LFB7
 3834 0050 00000000 		.4byte	.LFB8
 3835 0054 20000000 		.4byte	.LFE8-.LFB8
 3836 0058 00000000 		.4byte	.LFB9
 3837 005c A8000000 		.4byte	.LFE9-.LFB9
 3838 0060 00000000 		.4byte	.LFB10
 3839 0064 50000000 		.4byte	.LFE10-.LFB10
 3840 0068 00000000 		.4byte	.LFB11
 3841 006c D4000000 		.4byte	.LFE11-.LFB11
 3842 0070 00000000 		.4byte	.LFB12
 3843 0074 24000000 		.4byte	.LFE12-.LFB12
 3844 0078 00000000 		.4byte	.LFB13
 3845 007c B6000000 		.4byte	.LFE13-.LFB13
 3846 0080 00000000 		.4byte	.LFB14
 3847 0084 94000000 		.4byte	.LFE14-.LFB14
 3848 0088 00000000 		.4byte	.LFB15
 3849 008c 14000000 		.4byte	.LFE15-.LFB15
 3850 0090 00000000 		.4byte	.LFB16
 3851 0094 20000000 		.4byte	.LFE16-.LFB16
 3852 0098 00000000 		.4byte	.LFB17
 3853 009c 20000000 		.4byte	.LFE17-.LFB17
 3854 00a0 00000000 		.4byte	.LFB18
 3855 00a4 18000000 		.4byte	.LFE18-.LFB18
 3856 00a8 00000000 		.4byte	.LFB19
 3857 00ac 18000000 		.4byte	.LFE19-.LFB19
 3858 00b0 00000000 		.4byte	.LFB20
 3859 00b4 20000000 		.4byte	.LFE20-.LFB20
 3860 00b8 00000000 		.4byte	.LFB21
 3861 00bc B2000000 		.4byte	.LFE21-.LFB21
 3862 00c0 00000000 		.4byte	.LFB22
 3863 00c4 18000000 		.4byte	.LFE22-.LFB22
 3864 00c8 00000000 		.4byte	.LFB23
 3865 00cc B6000000 		.4byte	.LFE23-.LFB23
 3866 00d0 00000000 		.4byte	.LFB24
 3867 00d4 48000000 		.4byte	.LFE24-.LFB24
 3868 00d8 00000000 		.4byte	.LFB25
 3869 00dc 46000000 		.4byte	.LFE25-.LFB25
 3870 00e0 00000000 		.4byte	.LFB26
 3871 00e4 38000000 		.4byte	.LFE26-.LFB26
 3872 00e8 00000000 		.4byte	.LFB27
 3873 00ec 96000000 		.4byte	.LFE27-.LFB27
 3874 00f0 00000000 		.4byte	.LFB28
 3875 00f4 78000000 		.4byte	.LFE28-.LFB28
ARM GAS  C:\Users\dmtucker\AppData\Local\Temp\ccE6jVLi.s 			page 100


 3876 00f8 00000000 		.4byte	.LFB29
 3877 00fc EC000000 		.4byte	.LFE29-.LFB29
 3878 0100 00000000 		.4byte	.LFB30
 3879 0104 14000000 		.4byte	.LFE30-.LFB30
 3880 0108 00000000 		.4byte	0x0
 3881 010c 00000000 		.4byte	0x0
 3882              		.section	.debug_ranges,"",%progbits
 3883              	.Ldebug_ranges0:
 3884 0000 00000000 		.4byte	.Ltext0
 3885 0004 00000000 		.4byte	.Letext0
 3886 0008 00000000 		.4byte	.LFB0
 3887 000c 2A000000 		.4byte	.LFE0
 3888 0010 00000000 		.4byte	.LFB1
 3889 0014 84000000 		.4byte	.LFE1
 3890 0018 00000000 		.4byte	.LFB2
 3891 001c 92000000 		.4byte	.LFE2
 3892 0020 00000000 		.4byte	.LFB3
 3893 0024 78000000 		.4byte	.LFE3
 3894 0028 00000000 		.4byte	.LFB4
 3895 002c 10000000 		.4byte	.LFE4
 3896 0030 00000000 		.4byte	.LFB5
 3897 0034 14000000 		.4byte	.LFE5
 3898 0038 00000000 		.4byte	.LFB6
 3899 003c 18000000 		.4byte	.LFE6
 3900 0040 00000000 		.4byte	.LFB7
 3901 0044 18000000 		.4byte	.LFE7
 3902 0048 00000000 		.4byte	.LFB8
 3903 004c 20000000 		.4byte	.LFE8
 3904 0050 00000000 		.4byte	.LFB9
 3905 0054 A8000000 		.4byte	.LFE9
 3906 0058 00000000 		.4byte	.LFB10
 3907 005c 50000000 		.4byte	.LFE10
 3908 0060 00000000 		.4byte	.LFB11
 3909 0064 D4000000 		.4byte	.LFE11
 3910 0068 00000000 		.4byte	.LFB12
 3911 006c 24000000 		.4byte	.LFE12
 3912 0070 00000000 		.4byte	.LFB13
 3913 0074 B6000000 		.4byte	.LFE13
 3914 0078 00000000 		.4byte	.LFB14
 3915 007c 94000000 		.4byte	.LFE14
 3916 0080 00000000 		.4byte	.LFB15
 3917 0084 14000000 		.4byte	.LFE15
 3918 0088 00000000 		.4byte	.LFB16
 3919 008c 20000000 		.4byte	.LFE16
 3920 0090 00000000 		.4byte	.LFB17
 3921 0094 20000000 		.4byte	.LFE17
 3922 0098 00000000 		.4byte	.LFB18
 3923 009c 18000000 		.4byte	.LFE18
 3924 00a0 00000000 		.4byte	.LFB19
 3925 00a4 18000000 		.4byte	.LFE19
 3926 00a8 00000000 		.4byte	.LFB20
 3927 00ac 20000000 		.4byte	.LFE20
 3928 00b0 00000000 		.4byte	.LFB21
 3929 00b4 B2000000 		.4byte	.LFE21
 3930 00b8 00000000 		.4byte	.LFB22
 3931 00bc 18000000 		.4byte	.LFE22
 3932 00c0 00000000 		.4byte	.LFB23
ARM GAS  C:\Users\dmtucker\AppData\Local\Temp\ccE6jVLi.s 			page 101


 3933 00c4 B6000000 		.4byte	.LFE23
 3934 00c8 00000000 		.4byte	.LFB24
 3935 00cc 48000000 		.4byte	.LFE24
 3936 00d0 00000000 		.4byte	.LFB25
 3937 00d4 46000000 		.4byte	.LFE25
 3938 00d8 00000000 		.4byte	.LFB26
 3939 00dc 38000000 		.4byte	.LFE26
 3940 00e0 00000000 		.4byte	.LFB27
 3941 00e4 96000000 		.4byte	.LFE27
 3942 00e8 00000000 		.4byte	.LFB28
 3943 00ec 78000000 		.4byte	.LFE28
 3944 00f0 00000000 		.4byte	.LFB29
 3945 00f4 EC000000 		.4byte	.LFE29
 3946 00f8 00000000 		.4byte	.LFB30
 3947 00fc 14000000 		.4byte	.LFE30
 3948 0100 00000000 		.4byte	0x0
 3949 0104 00000000 		.4byte	0x0
 3950              		.section	.debug_str,"MS",%progbits,1
 3951              	.LASF10:
 3952 0000 75696E74 		.ascii	"uint16\000"
 3952      313600
 3953              	.LASF28:
 3954 0007 6C6F635F 		.ascii	"loc_rxBufferWrite\000"
 3954      72784275 
 3954      66666572 
 3954      57726974 
 3954      6500
 3955              	.LASF48:
 3956 0019 74784461 		.ascii	"txDataByte\000"
 3956      74614279 
 3956      746500
 3957              	.LASF69:
 3958 0024 55415254 		.ascii	"UART_txBufferWrite\000"
 3958      5F747842 
 3958      75666665 
 3958      72577269 
 3958      746500
 3959              	.LASF54:
 3960 0037 73747269 		.ascii	"string\000"
 3960      6E6700
 3961              	.LASF7:
 3962 003e 6C6F6E67 		.ascii	"long long unsigned int\000"
 3962      206C6F6E 
 3962      6720756E 
 3962      7369676E 
 3962      65642069 
 3963              	.LASF15:
 3964 0055 55415254 		.ascii	"UART_Start\000"
 3964      5F537461 
 3964      727400
 3965              	.LASF46:
 3966 0060 55415254 		.ascii	"UART_SetTxInterruptMode\000"
 3966      5F536574 
 3966      5478496E 
 3966      74657272 
 3966      7570744D 
 3967              	.LASF75:
ARM GAS  C:\Users\dmtucker\AppData\Local\Temp\ccE6jVLi.s 			page 102


 3968 0078 474E5520 		.ascii	"GNU C 4.4.1\000"
 3968      4320342E 
 3968      342E3100 
 3969              	.LASF68:
 3970 0084 55415254 		.ascii	"UART_txBufferRead\000"
 3970      5F747842 
 3970      75666665 
 3970      72526561 
 3970      6400
 3971              	.LASF44:
 3972 0096 55415254 		.ascii	"UART_EnableTxInt\000"
 3972      5F456E61 
 3972      626C6554 
 3972      78496E74 
 3972      00
 3973              	.LASF76:
 3974 00a7 2E5C4765 		.ascii	".\\Generated_Source\\PSoC5\\UART.c\000"
 3974      6E657261 
 3974      7465645F 
 3974      536F7572 
 3974      63655C50 
 3975              	.LASF6:
 3976 00c7 6C6F6E67 		.ascii	"long long int\000"
 3976      206C6F6E 
 3976      6720696E 
 3976      7400
 3977              	.LASF0:
 3978 00d5 7369676E 		.ascii	"signed char\000"
 3978      65642063 
 3978      68617200 
 3979              	.LASF22:
 3980 00e1 55415254 		.ascii	"UART_DisableRxInt\000"
 3980      5F446973 
 3980      61626C65 
 3980      5278496E 
 3980      7400
 3981              	.LASF4:
 3982 00f3 6C6F6E67 		.ascii	"long int\000"
 3982      20696E74 
 3982      00
 3983              	.LASF50:
 3984 00fc 55415254 		.ascii	"UART_PutChar\000"
 3984      5F507574 
 3984      43686172 
 3984      00
 3985              	.LASF29:
 3986 0109 55415254 		.ascii	"UART_ReadRxData\000"
 3986      5F526561 
 3986      64527844 
 3986      61746100 
 3987              	.LASF9:
 3988 0119 75696E74 		.ascii	"uint8\000"
 3988      3800
 3989              	.LASF34:
 3990 011f 55415254 		.ascii	"UART_ReadControlRegister\000"
 3990      5F526561 
 3990      64436F6E 
ARM GAS  C:\Users\dmtucker\AppData\Local\Temp\ccE6jVLi.s 			page 103


 3990      74726F6C 
 3990      52656769 
 3991              	.LASF12:
 3992 0138 646F7562 		.ascii	"double\000"
 3992      6C6500
 3993              	.LASF40:
 3994 013f 61646472 		.ascii	"addressMode\000"
 3994      6573734D 
 3994      6F646500 
 3995              	.LASF72:
 3996 014b 55415254 		.ascii	"UART_rxBufferWrite\000"
 3996      5F727842 
 3996      75666665 
 3996      72577269 
 3996      746500
 3997              	.LASF24:
 3998 015e 636F6E74 		.ascii	"control\000"
 3998      726F6C00 
 3999              	.LASF16:
 4000 0166 55415254 		.ascii	"UART_Init\000"
 4000      5F496E69 
 4000      7400
 4001              	.LASF67:
 4002 0170 55415254 		.ascii	"UART_txBuffer\000"
 4002      5F747842 
 4002      75666665 
 4002      7200
 4003              	.LASF62:
 4004 017e 7265744D 		.ascii	"retMode\000"
 4004      6F646500 
 4005              	.LASF35:
 4006 0186 55415254 		.ascii	"UART_GetByte\000"
 4006      5F476574 
 4006      42797465 
 4006      00
 4007              	.LASF8:
 4008 0193 756E7369 		.ascii	"unsigned int\000"
 4008      676E6564 
 4008      20696E74 
 4008      00
 4009              	.LASF60:
 4010 01a0 55415254 		.ascii	"UART_ClearTxBuffer\000"
 4010      5F436C65 
 4010      61725478 
 4010      42756666 
 4010      657200
 4011              	.LASF58:
 4012 01b3 55415254 		.ascii	"UART_PutCRLF\000"
 4012      5F507574 
 4012      43524C46 
 4012      00
 4013              	.LASF74:
 4014 01c0 55415254 		.ascii	"UART_rxBufferOverflow\000"
 4014      5F727842 
 4014      75666665 
 4014      724F7665 
 4014      72666C6F 
ARM GAS  C:\Users\dmtucker\AppData\Local\Temp\ccE6jVLi.s 			page 104


 4015              	.LASF5:
 4016 01d6 6C6F6E67 		.ascii	"long unsigned int\000"
 4016      20756E73 
 4016      69676E65 
 4016      6420696E 
 4016      7400
 4017              	.LASF56:
 4018 01e8 55415254 		.ascii	"UART_PutArray\000"
 4018      5F507574 
 4018      41727261 
 4018      7900
 4019              	.LASF52:
 4020 01f6 6C6F635F 		.ascii	"loc_txBufferRead\000"
 4020      74784275 
 4020      66666572 
 4020      52656164 
 4020      00
 4021              	.LASF73:
 4022 0207 55415254 		.ascii	"UART_rxBufferLoopDetect\000"
 4022      5F727842 
 4022      75666665 
 4022      724C6F6F 
 4022      70446574 
 4023              	.LASF37:
 4024 021f 73697A65 		.ascii	"size\000"
 4024      00
 4025              	.LASF3:
 4026 0224 73686F72 		.ascii	"short unsigned int\000"
 4026      7420756E 
 4026      7369676E 
 4026      65642069 
 4026      6E7400
 4027              	.LASF71:
 4028 0237 55415254 		.ascii	"UART_rxBufferRead\000"
 4028      5F727842 
 4028      75666665 
 4028      72526561 
 4028      6400
 4029              	.LASF27:
 4030 0249 6C6F635F 		.ascii	"loc_rxBufferRead\000"
 4030      72784275 
 4030      66666572 
 4030      52656164 
 4030      00
 4031              	.LASF77:
 4032 025a 463A5C50 		.ascii	"F:\\PSoC Creator\\lab3\\part1.cydsn\000"
 4032      536F4320 
 4032      43726561 
 4032      746F725C 
 4032      6C616233 
 4033              	.LASF64:
 4034 027b 74785F70 		.ascii	"tx_period\000"
 4034      6572696F 
 4034      6400
 4035              	.LASF25:
 4036 0285 696E7453 		.ascii	"intSrc\000"
 4036      726300
ARM GAS  C:\Users\dmtucker\AppData\Local\Temp\ccE6jVLi.s 			page 105


 4037              	.LASF65:
 4038 028c 55415254 		.ascii	"UART_SetTxAddressMode\000"
 4038      5F536574 
 4038      54784164 
 4038      64726573 
 4038      734D6F64 
 4039              	.LASF49:
 4040 02a2 55415254 		.ascii	"UART_ReadTxStatus\000"
 4040      5F526561 
 4040      64547853 
 4040      74617475 
 4040      7300
 4041              	.LASF45:
 4042 02b4 55415254 		.ascii	"UART_DisableTxInt\000"
 4042      5F446973 
 4042      61626C65 
 4042      5478496E 
 4042      7400
 4043              	.LASF63:
 4044 02c6 746D7053 		.ascii	"tmpStat\000"
 4044      74617400 
 4045              	.LASF51:
 4046 02ce 6C6F635F 		.ascii	"loc_txBufferWrite\000"
 4046      74784275 
 4046      66666572 
 4046      57726974 
 4046      6500
 4047              	.LASF42:
 4048 02e0 61646472 		.ascii	"address\000"
 4048      65737300 
 4049              	.LASF41:
 4050 02e8 55415254 		.ascii	"UART_SetRxAddress1\000"
 4050      5F536574 
 4050      52784164 
 4050      64726573 
 4050      733100
 4051              	.LASF43:
 4052 02fb 55415254 		.ascii	"UART_SetRxAddress2\000"
 4052      5F536574 
 4052      52784164 
 4052      64726573 
 4052      733200
 4053              	.LASF33:
 4054 030e 72785374 		.ascii	"rxStatus\000"
 4054      61747573 
 4054      00
 4055              	.LASF11:
 4056 0317 666C6F61 		.ascii	"float\000"
 4056      7400
 4057              	.LASF59:
 4058 031d 55415254 		.ascii	"UART_GetTxBufferSize\000"
 4058      5F476574 
 4058      54784275 
 4058      66666572 
 4058      53697A65 
 4059              	.LASF39:
 4060 0332 55415254 		.ascii	"UART_SetRxAddressMode\000"
ARM GAS  C:\Users\dmtucker\AppData\Local\Temp\ccE6jVLi.s 			page 106


 4060      5F536574 
 4060      52784164 
 4060      64726573 
 4060      734D6F64 
 4061              	.LASF1:
 4062 0348 756E7369 		.ascii	"unsigned char\000"
 4062      676E6564 
 4062      20636861 
 4062      7200
 4063              	.LASF47:
 4064 0356 55415254 		.ascii	"UART_WriteTxData\000"
 4064      5F577269 
 4064      74655478 
 4064      44617461 
 4064      00
 4065              	.LASF2:
 4066 0367 73686F72 		.ascii	"short int\000"
 4066      7420696E 
 4066      7400
 4067              	.LASF61:
 4068 0371 55415254 		.ascii	"UART_SendBreak\000"
 4068      5F53656E 
 4068      64427265 
 4068      616B00
 4069              	.LASF57:
 4070 0380 62797465 		.ascii	"byteCount\000"
 4070      436F756E 
 4070      7400
 4071              	.LASF26:
 4072 038a 72784461 		.ascii	"rxData\000"
 4072      746100
 4073              	.LASF17:
 4074 0391 55415254 		.ascii	"UART_Enable\000"
 4074      5F456E61 
 4074      626C6500 
 4075              	.LASF30:
 4076 039d 55415254 		.ascii	"UART_ReadRxStatus\000"
 4076      5F526561 
 4076      64527853 
 4076      74617475 
 4076      7300
 4077              	.LASF14:
 4078 03af 63686172 		.ascii	"char\000"
 4078      00
 4079              	.LASF13:
 4080 03b4 63686172 		.ascii	"char8\000"
 4080      3800
 4081              	.LASF23:
 4082 03ba 55415254 		.ascii	"UART_SetRxInterruptMode\000"
 4082      5F536574 
 4082      5278496E 
 4082      74657272 
 4082      7570744D 
 4083              	.LASF32:
 4084 03d2 55415254 		.ascii	"UART_GetChar\000"
 4084      5F476574 
 4084      43686172 
ARM GAS  C:\Users\dmtucker\AppData\Local\Temp\ccE6jVLi.s 			page 107


 4084      00
 4085              	.LASF19:
 4086 03df 656E6162 		.ascii	"enableInterrupts\000"
 4086      6C65496E 
 4086      74657272 
 4086      75707473 
 4086      00
 4087              	.LASF66:
 4088 03f0 55415254 		.ascii	"UART_initVar\000"
 4088      5F696E69 
 4088      74566172 
 4088      00
 4089              	.LASF21:
 4090 03fd 55415254 		.ascii	"UART_EnableRxInt\000"
 4090      5F456E61 
 4090      626C6552 
 4090      78496E74 
 4090      00
 4091              	.LASF36:
 4092 040e 55415254 		.ascii	"UART_GetRxBufferSize\000"
 4092      5F476574 
 4092      52784275 
 4092      66666572 
 4092      53697A65 
 4093              	.LASF31:
 4094 0423 73746174 		.ascii	"status\000"
 4094      757300
 4095              	.LASF18:
 4096 042a 55415254 		.ascii	"UART_Stop\000"
 4096      5F53746F 
 4096      7000
 4097              	.LASF70:
 4098 0434 55415254 		.ascii	"UART_rxBuffer\000"
 4098      5F727842 
 4098      75666665 
 4098      7200
 4099              	.LASF53:
 4100 0442 55415254 		.ascii	"UART_PutString\000"
 4100      5F507574 
 4100      53747269 
 4100      6E6700
 4101              	.LASF20:
 4102 0451 55415254 		.ascii	"UART_WriteControlRegister\000"
 4102      5F577269 
 4102      7465436F 
 4102      6E74726F 
 4102      6C526567 
 4103              	.LASF38:
 4104 046b 55415254 		.ascii	"UART_ClearRxBuffer\000"
 4104      5F436C65 
 4104      61725278 
 4104      42756666 
 4104      657200
 4105              	.LASF55:
 4106 047e 6275665F 		.ascii	"buf_index\000"
 4106      696E6465 
 4106      7800
ARM GAS  C:\Users\dmtucker\AppData\Local\Temp\ccE6jVLi.s 			page 108


 4107              		.ident	"GCC: (Sourcery G++ Lite 2010q1-188) 4.4.1"
