ARM GAS  C:\DOCUME~1\david\LOCALS~1\Temp\ccLm5ouk.s 			page 1


   1              		.syntax unified
   2              		.cpu cortex-m3
   3              		.fpu softvfp
   4              		.eabi_attribute 20, 1
   5              		.eabi_attribute 21, 1
   6              		.eabi_attribute 23, 3
   7              		.eabi_attribute 24, 1
   8              		.eabi_attribute 25, 1
   9              		.eabi_attribute 26, 1
  10              		.eabi_attribute 30, 6
  11              		.eabi_attribute 18, 4
  12              		.thumb
  13              		.file	"main.c"
  20 0000 D2020000 		.text
  20      02005300 
  20      00000201 
  20      FB0E0D00 
  20      01010101 
  21              	.Ltext0:
  22              		.cfi_sections	.debug_frame
  23              		.global	player1_turn
  24              		.data
  25              		.type	player1_turn, %object
  26              		.size	player1_turn, 1
  27              	player1_turn:
  28 0000 01       		.byte	1
  29              		.global	player2_local
  30              		.type	player2_local, %object
  31              		.size	player2_local, 1
  32              	player2_local:
  33 0001 01       		.byte	1
  34              		.global	player1_color
  35              		.type	player1_color, %object
  36              		.size	player1_color, 1
  37              	player1_color:
  38 0002 01       		.byte	1
  39              		.global	player2_color
  40              		.type	player2_color, %object
  41              		.size	player2_color, 1
  42              	player2_color:
  43 0003 04       		.byte	4
  44              		.comm	player1,64,4
  45              		.comm	player2,64,4
  46              		.comm	last_move,2,4
  47              		.global	locating
  48              		.bss
  49              		.type	locating, %object
  50              		.size	locating, 1
  51              	locating:
  52 0000 00       		.space	1
  53              		.section	.text.toggle,"ax",%progbits
ARM GAS  C:\DOCUME~1\david\LOCALS~1\Temp\ccLm5ouk.s 			page 2


  54              		.align	2
  55              		.global	toggle
  56              		.thumb
  57              		.thumb_func
  58              		.type	toggle, %function
  59              	toggle:
  60              	.LFB29:
  61              		.file 1 ".\\main.c"
   1:.\main.c      **** #include <device.h>
   2:.\main.c      **** #include <stdbool.h>
   3:.\main.c      **** #include <display.h>
   4:.\main.c      **** #include <matrix.h>
   5:.\main.c      **** 
   6:.\main.c      **** #define BUS_CLK_FREQ    24000000 // Hz
   7:.\main.c      **** #define REFRESH_RATE    3000     // [370,BUS_CLK_FREQ] Hz
   8:.\main.c      **** #define XBEE_CONFIGURED false
   9:.\main.c      **** #define XBEE_VERIFY     true
  10:.\main.c      **** #define XBEE_GUARD_TIME 1000     // ms
  11:.\main.c      **** #define XBEE_CHANNEL    0x0F     // [0x0B,0x1A]
  12:.\main.c      **** #define XBEE_REMEMBER   false
  13:.\main.c      **** #define PLAYER1_ID      0xDA     // [0x00,0xFF]
  14:.\main.c      **** #define PLAYER2_ID      0x07
  15:.\main.c      **** #define PACKET_TYPE     0x00     // version
  16:.\main.c      **** 
  17:.\main.c      **** typedef struct play {
  18:.\main.c      ****     uint8  row;
  19:.\main.c      ****     uint8  col;
  20:.\main.c      **** } play_t;
  21:.\main.c      **** 
  22:.\main.c      **** bool  player1_turn  = true;
  23:.\main.c      **** bool  player2_local = true;
  24:.\main.c      **** uint8 player1_color = RED;
  25:.\main.c      **** uint8 player2_color = BLUE;
  26:.\main.c      **** 
  27:.\main.c      **** bool  player1[MATRIX_ROWS][MATRIX_COLS];
  28:.\main.c      **** bool  player2[MATRIX_ROWS][MATRIX_COLS];
  29:.\main.c      **** play_t last_move;
  30:.\main.c      **** 
  31:.\main.c      **** void  initialize     ( );
  32:.\main.c      **** void  clear_board    ( );
  33:.\main.c      **** void  configure_XBee ( );
  34:.\main.c      **** uint8 get_move       ( );
  35:.\main.c      **** uint8 receive_move   ( ); 
  36:.\main.c      **** void  receive_packet ( play_t * move );
  37:.\main.c      **** void  send_packet    ( play_t * move );
  38:.\main.c      **** void  send_move      ( uint8 row , uint8 col );
  39:.\main.c      **** uint8 animate        ( uint8 c );
  40:.\main.c      **** void  winner_check   ( );
  41:.\main.c      **** void  cleanup        ( );
  42:.\main.c      **** 
  43:.\main.c      **** //void  receive_packet ( packet_t * move );
  44:.\main.c      **** //void  show_packet    ( packet_t * move );
  45:.\main.c      **** //void  send_packet    ( packet_t * move );
  46:.\main.c      **** //void  send_move      ( uint8 r , uint8 c ); 
  47:.\main.c      **** 
  48:.\main.c      **** 
  49:.\main.c      **** 
ARM GAS  C:\DOCUME~1\david\LOCALS~1\Temp\ccLm5ouk.s 			page 3


  50:.\main.c      **** 
  51:.\main.c      **** bool locating = false;
  52:.\main.c      **** CY_ISR (toggle) { if (locating) player2_local = !player2_local; }
  62              		.loc 1 52 0
  63              		.cfi_startproc
  64              		@ args = 0, pretend = 0, frame = 0
  65              		@ frame_needed = 1, uses_anonymous_args = 0
  66              		@ link register save eliminated.
  67 0000 80B4     		push	{r7}
  68              	.LCFI0:
  69              		.cfi_def_cfa_offset 4
  70 0002 00AF     		add	r7, sp, #0
  71              		.cfi_offset 7, -4
  72              	.LCFI1:
  73              		.cfi_def_cfa_register 7
  74              		.loc 1 52 0
  75 0004 40F20003 		movw	r3, #:lower16:locating
  76 0008 C0F20003 		movt	r3, #:upper16:locating
  77 000c 1B78     		ldrb	r3, [r3, #0]	@ zero_extendqisi2
  78 000e 002B     		cmp	r3, #0
  79 0010 0DD0     		beq	.L3
  80 0012 40F20003 		movw	r3, #:lower16:player2_local
  81 0016 C0F20003 		movt	r3, #:upper16:player2_local
  82 001a 1B78     		ldrb	r3, [r3, #0]	@ zero_extendqisi2
  83 001c 83F00103 		eor	r3, r3, #1
  84 0020 DBB2     		uxtb	r3, r3
  85 0022 DAB2     		uxtb	r2, r3
  86 0024 40F20003 		movw	r3, #:lower16:player2_local
  87 0028 C0F20003 		movt	r3, #:upper16:player2_local
  88 002c 1A70     		strb	r2, [r3, #0]
  89              	.L3:
  90 002e BD46     		mov	sp, r7
  91 0030 80BC     		pop	{r7}
  92 0032 7047     		bx	lr
  93              		.cfi_endproc
  94              	.LFE29:
  95              		.size	toggle, .-toggle
  96              		.global	rPos
  97              		.data
  98              		.type	rPos, %object
  99              		.size	rPos, 1
 100              	rPos:
 101 0004 FF       		.byte	-1
 102              		.global	cPos
 103              		.type	cPos, %object
 104              		.size	cPos, 1
 105              	cPos:
 106 0005 FF       		.byte	-1
 107              		.section	.text.refresh,"ax",%progbits
 108              		.align	2
 109              		.global	refresh
 110              		.thumb
 111              		.thumb_func
 112              		.type	refresh, %function
 113              	refresh:
 114              	.LFB30:
  53:.\main.c      **** 
ARM GAS  C:\DOCUME~1\david\LOCALS~1\Temp\ccLm5ouk.s 			page 4


  54:.\main.c      **** 
  55:.\main.c      **** 
  56:.\main.c      **** 
  57:.\main.c      **** uint8 rPos = -1, cPos = -1;
  58:.\main.c      **** CY_ISR (refresh) {
 115              		.loc 1 58 0
 116              		.cfi_startproc
 117              		@ args = 0, pretend = 0, frame = 8
 118              		@ frame_needed = 1, uses_anonymous_args = 0
 119 0000 80B5     		push	{r7, lr}
 120              	.LCFI2:
 121              		.cfi_def_cfa_offset 8
 122 0002 82B0     		sub	sp, sp, #8
 123              	.LCFI3:
 124              		.cfi_def_cfa_offset 16
 125 0004 00AF     		add	r7, sp, #0
 126              		.cfi_offset 14, -4
 127              		.cfi_offset 7, -8
 128              	.LCFI4:
 129              		.cfi_def_cfa_register 7
 130              	.LBB2:
  59:.\main.c      ****     if (false) {
  60:.\main.c      ****     //if (SERIAL) {
  61:.\main.c      ****         /**/
  62:.\main.c      ****         matrix_deluminate();
  63:.\main.c      ****         if (++cPos > MATRIX_COLS) cPos = 0;
  64:.\main.c      ****         for (rPos=0; rPos < MATRIX_ROWS ;++rPos) {
  65:.\main.c      ****             if (player1[rPos][cPos]) matrix_illuminate(rPos,cPos,player1_color);
  66:.\main.c      ****             if (player2[rPos][cPos]) matrix_illuminate(rPos,cPos,player2_color);
  67:.\main.c      ****         }
  68:.\main.c      ****         /**
  69:.\main.c      ****         matrix_deluminate();
  70:.\main.c      ****         if (++rPos > MATRIX_ROWS) rPos = 0;
  71:.\main.c      ****         for (cPos=0; cPos < MATRIX_COLS ;++cPos) {
  72:.\main.c      ****             if (player1[rPos][cPos]) matrix_illuminate(rPos,cPos,player1_color);
  73:.\main.c      ****             if (player2[rPos][cPos]) matrix_illuminate(rPos,cPos,player2_color);
  74:.\main.c      ****         }
  75:.\main.c      ****         /**/
  76:.\main.c      ****     }
  77:.\main.c      ****     else {
  78:.\main.c      ****         uint16 cells = MATRIX_ROWS*MATRIX_COLS;
 131              		.loc 1 78 0
 132 0006 4FF04003 		mov	r3, #64
 133 000a FB80     		strh	r3, [r7, #6]	@ movhi
  79:.\main.c      ****         while (cells-- > 0) {
 134              		.loc 1 79 0
 135 000c 93E0     		b	.L5
 136              	.L9:
  80:.\main.c      ****             if (++cPos > MATRIX_COLS) {
 137              		.loc 1 80 0
 138 000e 40F20003 		movw	r3, #:lower16:cPos
 139 0012 C0F20003 		movt	r3, #:upper16:cPos
 140 0016 1B78     		ldrb	r3, [r3, #0]	@ zero_extendqisi2
 141 0018 03F10103 		add	r3, r3, #1
 142 001c DAB2     		uxtb	r2, r3
 143 001e 40F20003 		movw	r3, #:lower16:cPos
 144 0022 C0F20003 		movt	r3, #:upper16:cPos
ARM GAS  C:\DOCUME~1\david\LOCALS~1\Temp\ccLm5ouk.s 			page 5


 145 0026 1A70     		strb	r2, [r3, #0]
 146 0028 40F20003 		movw	r3, #:lower16:cPos
 147 002c C0F20003 		movt	r3, #:upper16:cPos
 148 0030 1B78     		ldrb	r3, [r3, #0]	@ zero_extendqisi2
 149 0032 082B     		cmp	r3, #8
 150 0034 21D9     		bls	.L6
  81:.\main.c      ****                 cPos = 0;
 151              		.loc 1 81 0
 152 0036 40F20003 		movw	r3, #:lower16:cPos
 153 003a C0F20003 		movt	r3, #:upper16:cPos
 154 003e 4FF00002 		mov	r2, #0
 155 0042 1A70     		strb	r2, [r3, #0]
  82:.\main.c      ****                 if (++rPos > MATRIX_ROWS) rPos = 0;
 156              		.loc 1 82 0
 157 0044 40F20003 		movw	r3, #:lower16:rPos
 158 0048 C0F20003 		movt	r3, #:upper16:rPos
 159 004c 1B78     		ldrb	r3, [r3, #0]	@ zero_extendqisi2
 160 004e 03F10103 		add	r3, r3, #1
 161 0052 DAB2     		uxtb	r2, r3
 162 0054 40F20003 		movw	r3, #:lower16:rPos
 163 0058 C0F20003 		movt	r3, #:upper16:rPos
 164 005c 1A70     		strb	r2, [r3, #0]
 165 005e 40F20003 		movw	r3, #:lower16:rPos
 166 0062 C0F20003 		movt	r3, #:upper16:rPos
 167 0066 1B78     		ldrb	r3, [r3, #0]	@ zero_extendqisi2
 168 0068 082B     		cmp	r3, #8
 169 006a 06D9     		bls	.L6
 170 006c 40F20003 		movw	r3, #:lower16:rPos
 171 0070 C0F20003 		movt	r3, #:upper16:rPos
 172 0074 4FF00002 		mov	r2, #0
 173 0078 1A70     		strb	r2, [r3, #0]
 174              	.L6:
  83:.\main.c      ****             }
  84:.\main.c      ****             if (player1[rPos][cPos]) {
 175              		.loc 1 84 0
 176 007a 40F20003 		movw	r3, #:lower16:rPos
 177 007e C0F20003 		movt	r3, #:upper16:rPos
 178 0082 1B78     		ldrb	r3, [r3, #0]	@ zero_extendqisi2
 179 0084 1946     		mov	r1, r3
 180 0086 40F20003 		movw	r3, #:lower16:cPos
 181 008a C0F20003 		movt	r3, #:upper16:cPos
 182 008e 1B78     		ldrb	r3, [r3, #0]	@ zero_extendqisi2
 183 0090 1A46     		mov	r2, r3
 184 0092 40F20003 		movw	r3, #:lower16:player1
 185 0096 C0F20003 		movt	r3, #:upper16:player1
 186 009a 4FEAC101 		lsl	r1, r1, #3
 187 009e 0A44     		add	r2, r1, r2
 188 00a0 1344     		add	r3, r2, r3
 189 00a2 1B78     		ldrb	r3, [r3, #0]	@ zero_extendqisi2
 190 00a4 002B     		cmp	r3, #0
 191 00a6 16D0     		beq	.L7
  85:.\main.c      ****                 //matrix_deluminate();
  86:.\main.c      ****                 matrix_illuminate(rPos,cPos,player1_color);
 192              		.loc 1 86 0
 193 00a8 40F20003 		movw	r3, #:lower16:rPos
 194 00ac C0F20003 		movt	r3, #:upper16:rPos
 195 00b0 1B78     		ldrb	r3, [r3, #0]	@ zero_extendqisi2
ARM GAS  C:\DOCUME~1\david\LOCALS~1\Temp\ccLm5ouk.s 			page 6


 196 00b2 1946     		mov	r1, r3
 197 00b4 40F20003 		movw	r3, #:lower16:cPos
 198 00b8 C0F20003 		movt	r3, #:upper16:cPos
 199 00bc 1B78     		ldrb	r3, [r3, #0]	@ zero_extendqisi2
 200 00be 1A46     		mov	r2, r3
 201 00c0 40F20003 		movw	r3, #:lower16:player1_color
 202 00c4 C0F20003 		movt	r3, #:upper16:player1_color
 203 00c8 1B78     		ldrb	r3, [r3, #0]	@ zero_extendqisi2
 204 00ca 0846     		mov	r0, r1
 205 00cc 1146     		mov	r1, r2
 206 00ce 1A46     		mov	r2, r3
 207 00d0 FFF7FEFF 		bl	matrix_illuminate
  87:.\main.c      ****                 break;
 208              		.loc 1 87 0
 209 00d4 3CE0     		b	.L10
 210              	.L7:
  88:.\main.c      ****             }
  89:.\main.c      ****             if (player2[rPos][cPos]) {
 211              		.loc 1 89 0
 212 00d6 40F20003 		movw	r3, #:lower16:rPos
 213 00da C0F20003 		movt	r3, #:upper16:rPos
 214 00de 1B78     		ldrb	r3, [r3, #0]	@ zero_extendqisi2
 215 00e0 1946     		mov	r1, r3
 216 00e2 40F20003 		movw	r3, #:lower16:cPos
 217 00e6 C0F20003 		movt	r3, #:upper16:cPos
 218 00ea 1B78     		ldrb	r3, [r3, #0]	@ zero_extendqisi2
 219 00ec 1A46     		mov	r2, r3
 220 00ee 40F20003 		movw	r3, #:lower16:player2
 221 00f2 C0F20003 		movt	r3, #:upper16:player2
 222 00f6 4FEAC101 		lsl	r1, r1, #3
 223 00fa 0A44     		add	r2, r1, r2
 224 00fc 1344     		add	r3, r2, r3
 225 00fe 1B78     		ldrb	r3, [r3, #0]	@ zero_extendqisi2
 226 0100 002B     		cmp	r3, #0
 227 0102 18D0     		beq	.L5
  90:.\main.c      ****                 matrix_deluminate();
 228              		.loc 1 90 0
 229 0104 FFF7FEFF 		bl	matrix_deluminate
  91:.\main.c      ****                 matrix_illuminate(rPos,cPos,player2_color);
 230              		.loc 1 91 0
 231 0108 40F20003 		movw	r3, #:lower16:rPos
 232 010c C0F20003 		movt	r3, #:upper16:rPos
 233 0110 1B78     		ldrb	r3, [r3, #0]	@ zero_extendqisi2
 234 0112 1946     		mov	r1, r3
 235 0114 40F20003 		movw	r3, #:lower16:cPos
 236 0118 C0F20003 		movt	r3, #:upper16:cPos
 237 011c 1B78     		ldrb	r3, [r3, #0]	@ zero_extendqisi2
 238 011e 1A46     		mov	r2, r3
 239 0120 40F20003 		movw	r3, #:lower16:player2_color
 240 0124 C0F20003 		movt	r3, #:upper16:player2_color
 241 0128 1B78     		ldrb	r3, [r3, #0]	@ zero_extendqisi2
 242 012a 0846     		mov	r0, r1
 243 012c 1146     		mov	r1, r2
 244 012e 1A46     		mov	r2, r3
 245 0130 FFF7FEFF 		bl	matrix_illuminate
  92:.\main.c      ****                 break;
 246              		.loc 1 92 0
ARM GAS  C:\DOCUME~1\david\LOCALS~1\Temp\ccLm5ouk.s 			page 7


 247 0134 0CE0     		b	.L10
 248              	.L5:
 249              		.loc 1 79 0
 250 0136 FB88     		ldrh	r3, [r7, #6]
 251 0138 002B     		cmp	r3, #0
 252 013a 0CBF     		ite	eq
 253 013c 0023     		moveq	r3, #0
 254 013e 0123     		movne	r3, #1
 255 0140 DBB2     		uxtb	r3, r3
 256 0142 FA88     		ldrh	r2, [r7, #6]	@ movhi
 257 0144 02F1FF32 		add	r2, r2, #-1
 258 0148 FA80     		strh	r2, [r7, #6]	@ movhi
 259 014a 002B     		cmp	r3, #0
 260 014c 7FF45FAF 		bne	.L9
 261              	.L10:
 262              	.LBE2:
  93:.\main.c      ****             }
  94:.\main.c      ****         }
  95:.\main.c      ****     }
  96:.\main.c      **** }
 263              		.loc 1 96 0
 264 0150 07F10807 		add	r7, r7, #8
 265 0154 BD46     		mov	sp, r7
 266 0156 80BD     		pop	{r7, pc}
 267              		.cfi_endproc
 268              	.LFE30:
 269              		.size	refresh, .-refresh
 270              		.section	.rodata
 271              		.align	2
 272              	.LC0:
 273 0000 436F6E6E 		.ascii	"Connect 4\000"
 273      65637420 
 273      3400
 274 000a 0000     		.align	2
 275              	.LC1:
 276 000c 506C6179 		.ascii	"Player 1\000"
 276      65722031 
 276      00
 277 0015 000000   		.align	2
 278              	.LC2:
 279 0018 506C6179 		.ascii	"Player 2\000"
 279      65722032 
 279      00
 280              		.section	.text.main,"ax",%progbits
 281              		.align	2
 282              		.global	main
 283              		.thumb
 284              		.thumb_func
 285              		.type	main, %function
 286              	main:
 287              	.LFB31:
  97:.\main.c      **** 
  98:.\main.c      **** 
  99:.\main.c      **** 
 100:.\main.c      **** 
 101:.\main.c      **** void main () {
 288              		.loc 1 101 0
ARM GAS  C:\DOCUME~1\david\LOCALS~1\Temp\ccLm5ouk.s 			page 8


 289              		.cfi_startproc
 290              		@ args = 0, pretend = 0, frame = 8
 291              		@ frame_needed = 1, uses_anonymous_args = 0
 292 0000 80B5     		push	{r7, lr}
 293              	.LCFI5:
 294              		.cfi_def_cfa_offset 8
 295 0002 82B0     		sub	sp, sp, #8
 296              	.LCFI6:
 297              		.cfi_def_cfa_offset 16
 298 0004 00AF     		add	r7, sp, #0
 299              		.cfi_offset 14, -4
 300              		.cfi_offset 7, -8
 301              	.LCFI7:
 302              		.cfi_def_cfa_register 7
 102:.\main.c      ****     initialize();
 303              		.loc 1 102 0
 304 0006 FFF7FEFF 		bl	initialize
 103:.\main.c      ****     LCD_UpdateStatus("Connect 4");
 305              		.loc 1 103 0
 306 000a 40F20000 		movw	r0, #:lower16:.LC0
 307 000e C0F20000 		movt	r0, #:upper16:.LC0
 308 0012 FFF7FEFF 		bl	LCD_UpdateStatus
 309              	.L18:
 310              	.LBB3:
 104:.\main.c      ****     while (true) {
 105:.\main.c      ****         uint8 row, col;
 106:.\main.c      ****         if (player1_turn || player2_local) {
 311              		.loc 1 106 0
 312 0016 40F20003 		movw	r3, #:lower16:player1_turn
 313 001a C0F20003 		movt	r3, #:upper16:player1_turn
 314 001e 1B78     		ldrb	r3, [r3, #0]	@ zero_extendqisi2
 315 0020 002B     		cmp	r3, #0
 316 0022 06D1     		bne	.L12
 317 0024 40F20003 		movw	r3, #:lower16:player2_local
 318 0028 C0F20003 		movt	r3, #:upper16:player2_local
 319 002c 1B78     		ldrb	r3, [r3, #0]	@ zero_extendqisi2
 320 002e 002B     		cmp	r3, #0
 321 0030 33D0     		beq	.L13
 322              	.L12:
 107:.\main.c      ****             LCD_UpdateStatus((player1_turn) ? "Player 1" : "Player 2");
 323              		.loc 1 107 0
 324 0032 40F20003 		movw	r3, #:lower16:player1_turn
 325 0036 C0F20003 		movt	r3, #:upper16:player1_turn
 326 003a 1B78     		ldrb	r3, [r3, #0]	@ zero_extendqisi2
 327 003c 002B     		cmp	r3, #0
 328 003e 04D0     		beq	.L14
 329 0040 40F20003 		movw	r3, #:lower16:.LC1
 330 0044 C0F20003 		movt	r3, #:upper16:.LC1
 331 0048 03E0     		b	.L15
 332              	.L14:
 333 004a 40F20003 		movw	r3, #:lower16:.LC2
 334 004e C0F20003 		movt	r3, #:upper16:.LC2
 335              	.L15:
 336 0052 1846     		mov	r0, r3
 337 0054 FFF7FEFF 		bl	LCD_UpdateStatus
 108:.\main.c      ****             col = get_move();
 338              		.loc 1 108 0
ARM GAS  C:\DOCUME~1\david\LOCALS~1\Temp\ccLm5ouk.s 			page 9


 339 0058 FFF7FEFF 		bl	get_move
 340 005c 0346     		mov	r3, r0
 341 005e FB71     		strb	r3, [r7, #7]
 109:.\main.c      ****             row = animate(col);
 342              		.loc 1 109 0
 343 0060 FB79     		ldrb	r3, [r7, #7]	@ zero_extendqisi2
 344 0062 1846     		mov	r0, r3
 345 0064 FFF7FEFF 		bl	animate
 346 0068 0346     		mov	r3, r0
 347 006a BB71     		strb	r3, [r7, #6]
 110:.\main.c      ****             if (!player2_local) send_move(MATRIX_ROWS-row,col+1);
 348              		.loc 1 110 0
 349 006c 40F20003 		movw	r3, #:lower16:player2_local
 350 0070 C0F20003 		movt	r3, #:upper16:player2_local
 351 0074 1B78     		ldrb	r3, [r3, #0]	@ zero_extendqisi2
 352 0076 83F00103 		eor	r3, r3, #1
 353 007a DBB2     		uxtb	r3, r3
 354 007c 002B     		cmp	r3, #0
 355 007e 1DD0     		beq	.L20
 356 0080 BB79     		ldrb	r3, [r7, #6]
 357 0082 C3F10803 		rsb	r3, r3, #8
 358 0086 DAB2     		uxtb	r2, r3
 359 0088 FB79     		ldrb	r3, [r7, #7]
 360 008a 03F10103 		add	r3, r3, #1
 361 008e DBB2     		uxtb	r3, r3
 362 0090 1046     		mov	r0, r2
 363 0092 1946     		mov	r1, r3
 364 0094 FFF7FEFF 		bl	send_move
 365              		.loc 1 106 0
 366 0098 11E0     		b	.L17
 367              	.L13:
 111:.\main.c      ****         }
 112:.\main.c      ****         else {
 113:.\main.c      ****             LCD_UpdateStatus("Player 2");
 368              		.loc 1 113 0
 369 009a 40F20000 		movw	r0, #:lower16:.LC2
 370 009e C0F20000 		movt	r0, #:upper16:.LC2
 371 00a2 FFF7FEFF 		bl	LCD_UpdateStatus
 114:.\main.c      ****             col = receive_move();
 372              		.loc 1 114 0
 373 00a6 FFF7FEFF 		bl	receive_move
 374 00aa 0346     		mov	r3, r0
 375 00ac FB71     		strb	r3, [r7, #7]
 115:.\main.c      ****             row = animate(col);
 376              		.loc 1 115 0
 377 00ae FB79     		ldrb	r3, [r7, #7]	@ zero_extendqisi2
 378 00b0 1846     		mov	r0, r3
 379 00b2 FFF7FEFF 		bl	animate
 380 00b6 0346     		mov	r3, r0
 381 00b8 BB71     		strb	r3, [r7, #6]
 382 00ba 00E0     		b	.L17
 383              	.L20:
 384              		.loc 1 106 0
 385 00bc 00BF     		nop
 386              	.L17:
 116:.\main.c      ****         }
 117:.\main.c      ****         winner_check();
ARM GAS  C:\DOCUME~1\david\LOCALS~1\Temp\ccLm5ouk.s 			page 10


 387              		.loc 1 117 0
 388 00be FFF7FEFF 		bl	winner_check
 118:.\main.c      ****         player1_turn = !player1_turn;
 389              		.loc 1 118 0
 390 00c2 40F20003 		movw	r3, #:lower16:player1_turn
 391 00c6 C0F20003 		movt	r3, #:upper16:player1_turn
 392 00ca 1B78     		ldrb	r3, [r3, #0]	@ zero_extendqisi2
 393 00cc 83F00103 		eor	r3, r3, #1
 394 00d0 DBB2     		uxtb	r3, r3
 395 00d2 DAB2     		uxtb	r2, r3
 396 00d4 40F20003 		movw	r3, #:lower16:player1_turn
 397 00d8 C0F20003 		movt	r3, #:upper16:player1_turn
 398 00dc 1A70     		strb	r2, [r3, #0]
 399              	.LBE3:
 119:.\main.c      ****     }
 400              		.loc 1 119 0
 401 00de 9AE7     		b	.L18
 402              		.cfi_endproc
 403              	.LFE31:
 404              		.size	main, .-main
 405              		.section	.rodata
 406 0021 000000   		.align	2
 407              	.LC3:
 408 0024 696E6974 		.ascii	"initializing...\000"
 408      69616C69 
 408      7A696E67 
 408      2E2E2E00 
 409              		.align	2
 410              	.LC4:
 411 0034 626F6172 		.ascii	"board\000"
 411      6400
 412 003a 0000     		.align	2
 413              	.LC5:
 414 003c 6D617472 		.ascii	"matrix\000"
 414      697800
 415 0043 00       		.align	2
 416              	.LC6:
 417 0044 696E7465 		.ascii	"interrupts\000"
 417      72727570 
 417      747300
 418 004f 00       		.align	2
 419              	.LC7:
 420 0050 74696D65 		.ascii	"timer\000"
 420      7200
 421 0056 0000     		.align	2
 422              	.LC8:
 423 0058 43617053 		.ascii	"CapSense\000"
 423      656E7365 
 423      00
 424 0061 000000   		.align	2
 425              	.LC9:
 426 0064 6C6F6361 		.ascii	"locate opponent\000"
 426      7465206F 
 426      70706F6E 
 426      656E7400 
 427              		.align	2
 428              	.LC10:
ARM GAS  C:\DOCUME~1\david\LOCALS~1\Temp\ccLm5ouk.s 			page 11


 429 0074 6C6F6361 		.ascii	"local\000"
 429      6C00
 430 007a 0000     		.align	2
 431              	.LC11:
 432 007c 72656D6F 		.ascii	"remote\000"
 432      746500
 433 0083 00       		.align	2
 434              	.LC12:
 435 0084 55415254 		.ascii	"UART\000"
 435      00
 436 0089 000000   		.align	2
 437              	.LC13:
 438 008c 58426565 		.ascii	"XBee\000"
 438      00
 439 0091 000000   		.align	2
 440              	.LC14:
 441 0094 64697370 		.ascii	"display\000"
 441      6C617900 
 442              		.section	.text.initialize,"ax",%progbits
 443              		.align	2
 444              		.global	initialize
 445              		.thumb
 446              		.thumb_func
 447              		.type	initialize, %function
 448              	initialize:
 449              	.LFB32:
 120:.\main.c      ****     cleanup();
 121:.\main.c      **** }
 122:.\main.c      **** 
 123:.\main.c      **** 
 124:.\main.c      **** 
 125:.\main.c      **** 
 126:.\main.c      **** void initialize () {
 450              		.loc 1 126 0
 451              		.cfi_startproc
 452              		@ args = 0, pretend = 0, frame = 8
 453              		@ frame_needed = 1, uses_anonymous_args = 0
 454 0000 80B5     		push	{r7, lr}
 455              	.LCFI8:
 456              		.cfi_def_cfa_offset 8
 457 0002 82B0     		sub	sp, sp, #8
 458              	.LCFI9:
 459              		.cfi_def_cfa_offset 16
 460 0004 00AF     		add	r7, sp, #0
 461              		.cfi_offset 14, -4
 462              		.cfi_offset 7, -8
 463              	.LCFI10:
 464              		.cfi_def_cfa_register 7
 127:.\main.c      ****     LCD_Start();
 465              		.loc 1 127 0
 466 0006 FFF7FEFF 		bl	LCD_Start
 128:.\main.c      ****     LCD_UpdateStatus("initializing...");
 467              		.loc 1 128 0
 468 000a 40F20000 		movw	r0, #:lower16:.LC3
 469 000e C0F20000 		movt	r0, #:upper16:.LC3
 470 0012 FFF7FEFF 		bl	LCD_UpdateStatus
 129:.\main.c      ****     
ARM GAS  C:\DOCUME~1\david\LOCALS~1\Temp\ccLm5ouk.s 			page 12


 130:.\main.c      ****     LCD_UpdateMessage("board");
 471              		.loc 1 130 0
 472 0016 40F20000 		movw	r0, #:lower16:.LC4
 473 001a C0F20000 		movt	r0, #:upper16:.LC4
 474 001e FFF7FEFF 		bl	LCD_UpdateMessage
 131:.\main.c      ****     clear_board();
 475              		.loc 1 131 0
 476 0022 FFF7FEFF 		bl	clear_board
 132:.\main.c      ****     
 133:.\main.c      ****     LCD_UpdateMessage("matrix");
 477              		.loc 1 133 0
 478 0026 40F20000 		movw	r0, #:lower16:.LC5
 479 002a C0F20000 		movt	r0, #:upper16:.LC5
 480 002e FFF7FEFF 		bl	LCD_UpdateMessage
 134:.\main.c      ****     matrix_test(true,false);
 481              		.loc 1 134 0
 482 0032 4FF00100 		mov	r0, #1
 483 0036 4FF00001 		mov	r1, #0
 484 003a FFF7FEFF 		bl	matrix_test
 135:.\main.c      ****     matrix_deluminate();
 485              		.loc 1 135 0
 486 003e FFF7FEFF 		bl	matrix_deluminate
 136:.\main.c      ****     
 137:.\main.c      ****     LCD_UpdateMessage("interrupts");
 487              		.loc 1 137 0
 488 0042 40F20000 		movw	r0, #:lower16:.LC6
 489 0046 C0F20000 		movt	r0, #:upper16:.LC6
 490 004a FFF7FEFF 		bl	LCD_UpdateMessage
 138:.\main.c      ****     CyGlobalIntEnable;
 491              		.loc 1 138 0
 492              	@ 138 ".\main.c" 1
 493 004e 62B6     		CPSIE   i
 494              	@ 0 "" 2
 139:.\main.c      ****     
 140:.\main.c      ****     LCD_UpdateMessage("timer");
 495              		.loc 1 140 0
 496              		.thumb
 497 0050 40F20000 		movw	r0, #:lower16:.LC7
 498 0054 C0F20000 		movt	r0, #:upper16:.LC7
 499 0058 FFF7FEFF 		bl	LCD_UpdateMessage
 141:.\main.c      ****     Timer_Start();
 500              		.loc 1 141 0
 501 005c FFF7FEFF 		bl	Timer_Start
 142:.\main.c      ****     Timer_WritePeriod(BUS_CLK_FREQ/REFRESH_RATE);
 502              		.loc 1 142 0
 503 0060 4FF4FA50 		mov	r0, #8000
 504 0064 FFF7FEFF 		bl	Timer_WritePeriod
 143:.\main.c      ****     
 144:.\main.c      ****     LCD_UpdateMessage("CapSense");
 505              		.loc 1 144 0
 506 0068 40F20000 		movw	r0, #:lower16:.LC8
 507 006c C0F20000 		movt	r0, #:upper16:.LC8
 508 0070 FFF7FEFF 		bl	LCD_UpdateMessage
 145:.\main.c      ****     CapSense_Start();
 509              		.loc 1 145 0
 510 0074 FFF7FEFF 		bl	CapSense_Start
 146:.\main.c      ****     CapSense_InitializeAllBaselines();
ARM GAS  C:\DOCUME~1\david\LOCALS~1\Temp\ccLm5ouk.s 			page 13


 511              		.loc 1 146 0
 512 0078 FFF7FEFF 		bl	CapSense_InitializeAllBaselines
 147:.\main.c      ****     
 148:.\main.c      ****     LCD_UpdateStatus("locate opponent");
 513              		.loc 1 148 0
 514 007c 40F20000 		movw	r0, #:lower16:.LC9
 515 0080 C0F20000 		movt	r0, #:upper16:.LC9
 516 0084 FFF7FEFF 		bl	LCD_UpdateStatus
 149:.\main.c      ****     ISR_StartEx(toggle);
 517              		.loc 1 149 0
 518 0088 40F20000 		movw	r0, #:lower16:toggle
 519 008c C0F20000 		movt	r0, #:upper16:toggle
 520 0090 FFF7FEFF 		bl	ISR_StartEx
 150:.\main.c      ****     locating = true;
 521              		.loc 1 150 0
 522 0094 40F20003 		movw	r3, #:lower16:locating
 523 0098 C0F20003 		movt	r3, #:upper16:locating
 524 009c 4FF00102 		mov	r2, #1
 525 00a0 1A70     		strb	r2, [r3, #0]
 151:.\main.c      ****     uint8 t;
 152:.\main.c      ****     for (t=5; t > 0 ;--t) {
 526              		.loc 1 152 0
 527 00a2 4FF00503 		mov	r3, #5
 528 00a6 FB71     		strb	r3, [r7, #7]
 529 00a8 28E0     		b	.L22
 530              	.L25:
 153:.\main.c      ****         LCD_UpdateMessage((player2_local) ? "local" : "remote");
 531              		.loc 1 153 0
 532 00aa 40F20003 		movw	r3, #:lower16:player2_local
 533 00ae C0F20003 		movt	r3, #:upper16:player2_local
 534 00b2 1B78     		ldrb	r3, [r3, #0]	@ zero_extendqisi2
 535 00b4 002B     		cmp	r3, #0
 536 00b6 04D0     		beq	.L23
 537 00b8 40F20003 		movw	r3, #:lower16:.LC10
 538 00bc C0F20003 		movt	r3, #:upper16:.LC10
 539 00c0 03E0     		b	.L24
 540              	.L23:
 541 00c2 40F20003 		movw	r3, #:lower16:.LC11
 542 00c6 C0F20003 		movt	r3, #:upper16:.LC11
 543              	.L24:
 544 00ca 1846     		mov	r0, r3
 545 00cc FFF7FEFF 		bl	LCD_UpdateMessage
 154:.\main.c      ****         CyDelay(500);
 546              		.loc 1 154 0
 547 00d0 4FF4FA70 		mov	r0, #500
 548 00d4 FFF7FEFF 		bl	CyDelay
 155:.\main.c      ****         LCD_Position(1,15);
 549              		.loc 1 155 0
 550 00d8 4FF00100 		mov	r0, #1
 551 00dc 4FF00F01 		mov	r1, #15
 552 00e0 FFF7FEFF 		bl	LCD_Position
 156:.\main.c      ****         LCD_PrintNumber(t);
 553              		.loc 1 156 0
 554 00e4 FB79     		ldrb	r3, [r7, #7]	@ zero_extendqisi2
 555 00e6 1846     		mov	r0, r3
 556 00e8 FFF7FEFF 		bl	LCD_PrintNumber
 157:.\main.c      ****         CyDelay(500);
ARM GAS  C:\DOCUME~1\david\LOCALS~1\Temp\ccLm5ouk.s 			page 14


 557              		.loc 1 157 0
 558 00ec 4FF4FA70 		mov	r0, #500
 559 00f0 FFF7FEFF 		bl	CyDelay
 560              		.loc 1 152 0
 561 00f4 FB79     		ldrb	r3, [r7, #7]
 562 00f6 03F1FF33 		add	r3, r3, #-1
 563 00fa FB71     		strb	r3, [r7, #7]
 564              	.L22:
 565 00fc FB79     		ldrb	r3, [r7, #7]	@ zero_extendqisi2
 566 00fe 002B     		cmp	r3, #0
 567 0100 D3D1     		bne	.L25
 158:.\main.c      ****     }
 159:.\main.c      ****     locating = false;
 568              		.loc 1 159 0
 569 0102 40F20003 		movw	r3, #:lower16:locating
 570 0106 C0F20003 		movt	r3, #:upper16:locating
 571 010a 4FF00002 		mov	r2, #0
 572 010e 1A70     		strb	r2, [r3, #0]
 160:.\main.c      ****     ISR_Stop();
 573              		.loc 1 160 0
 574 0110 FFF7FEFF 		bl	ISR_Stop
 161:.\main.c      ****     if (!player2_local) {
 575              		.loc 1 161 0
 576 0114 40F20003 		movw	r3, #:lower16:player2_local
 577 0118 C0F20003 		movt	r3, #:upper16:player2_local
 578 011c 1B78     		ldrb	r3, [r3, #0]	@ zero_extendqisi2
 579 011e 83F00103 		eor	r3, r3, #1
 580 0122 DBB2     		uxtb	r3, r3
 581 0124 002B     		cmp	r3, #0
 582 0126 19D0     		beq	.L26
 162:.\main.c      ****         LCD_UpdateStatus("initializing...");
 583              		.loc 1 162 0
 584 0128 40F20000 		movw	r0, #:lower16:.LC3
 585 012c C0F20000 		movt	r0, #:upper16:.LC3
 586 0130 FFF7FEFF 		bl	LCD_UpdateStatus
 163:.\main.c      ****         LCD_UpdateMessage("UART");
 587              		.loc 1 163 0
 588 0134 40F20000 		movw	r0, #:lower16:.LC12
 589 0138 C0F20000 		movt	r0, #:upper16:.LC12
 590 013c FFF7FEFF 		bl	LCD_UpdateMessage
 164:.\main.c      ****         UART_Start();
 591              		.loc 1 164 0
 592 0140 FFF7FEFF 		bl	UART_Start
 165:.\main.c      ****         UART_ClearTxBuffer();
 593              		.loc 1 165 0
 594 0144 FFF7FEFF 		bl	UART_ClearTxBuffer
 166:.\main.c      ****         UART_ClearRxBuffer();
 595              		.loc 1 166 0
 596 0148 FFF7FEFF 		bl	UART_ClearRxBuffer
 167:.\main.c      ****         LCD_UpdateMessage("XBee");
 597              		.loc 1 167 0
 598 014c 40F20000 		movw	r0, #:lower16:.LC13
 599 0150 C0F20000 		movt	r0, #:upper16:.LC13
 600 0154 FFF7FEFF 		bl	LCD_UpdateMessage
 168:.\main.c      ****         if (!XBEE_CONFIGURED) configure_XBee();
 601              		.loc 1 168 0
 602 0158 FFF7FEFF 		bl	configure_XBee
ARM GAS  C:\DOCUME~1\david\LOCALS~1\Temp\ccLm5ouk.s 			page 15


 603              	.L26:
 169:.\main.c      ****     }
 170:.\main.c      ****     
 171:.\main.c      ****     LCD_UpdateMessage("display");
 604              		.loc 1 171 0
 605 015c 40F20000 		movw	r0, #:lower16:.LC14
 606 0160 C0F20000 		movt	r0, #:upper16:.LC14
 607 0164 FFF7FEFF 		bl	LCD_UpdateMessage
 172:.\main.c      ****     Beam_StartEx(refresh);
 608              		.loc 1 172 0
 609 0168 40F20000 		movw	r0, #:lower16:refresh
 610 016c C0F20000 		movt	r0, #:upper16:refresh
 611 0170 FFF7FEFF 		bl	Beam_StartEx
 173:.\main.c      **** }
 612              		.loc 1 173 0
 613 0174 07F10807 		add	r7, r7, #8
 614 0178 BD46     		mov	sp, r7
 615 017a 80BD     		pop	{r7, pc}
 616              		.cfi_endproc
 617              	.LFE32:
 618              		.size	initialize, .-initialize
 619              		.section	.text.clear_board,"ax",%progbits
 620              		.align	2
 621              		.global	clear_board
 622              		.thumb
 623              		.thumb_func
 624              		.type	clear_board, %function
 625              	clear_board:
 626              	.LFB33:
 174:.\main.c      **** 
 175:.\main.c      **** 
 176:.\main.c      **** 
 177:.\main.c      **** 
 178:.\main.c      **** void clear_board () {
 627              		.loc 1 178 0
 628              		.cfi_startproc
 629              		@ args = 0, pretend = 0, frame = 8
 630              		@ frame_needed = 1, uses_anonymous_args = 0
 631              		@ link register save eliminated.
 632 0000 80B4     		push	{r7}
 633              	.LCFI11:
 634              		.cfi_def_cfa_offset 4
 635 0002 83B0     		sub	sp, sp, #12
 636              	.LCFI12:
 637              		.cfi_def_cfa_offset 16
 638 0004 00AF     		add	r7, sp, #0
 639              		.cfi_offset 7, -4
 640              	.LCFI13:
 641              		.cfi_def_cfa_register 7
 179:.\main.c      ****     uint8 row, col;
 180:.\main.c      ****     for (row=0; row < MATRIX_ROWS ;++row) {
 642              		.loc 1 180 0
 643 0006 4FF00003 		mov	r3, #0
 644 000a BB71     		strb	r3, [r7, #6]
 645 000c 28E0     		b	.L29
 646              	.L32:
 181:.\main.c      ****         for (col=0; col < MATRIX_COLS ;++col) {
ARM GAS  C:\DOCUME~1\david\LOCALS~1\Temp\ccLm5ouk.s 			page 16


 647              		.loc 1 181 0
 648 000e 4FF00003 		mov	r3, #0
 649 0012 FB71     		strb	r3, [r7, #7]
 650 0014 1DE0     		b	.L30
 651              	.L31:
 182:.\main.c      ****             player1[row][col] = false;
 652              		.loc 1 182 0
 653 0016 B979     		ldrb	r1, [r7, #6]	@ zero_extendqisi2
 654 0018 FA79     		ldrb	r2, [r7, #7]	@ zero_extendqisi2
 655 001a 40F20003 		movw	r3, #:lower16:player1
 656 001e C0F20003 		movt	r3, #:upper16:player1
 657 0022 4FEAC101 		lsl	r1, r1, #3
 658 0026 0A44     		add	r2, r1, r2
 659 0028 1344     		add	r3, r2, r3
 660 002a 4FF00002 		mov	r2, #0
 661 002e 1A70     		strb	r2, [r3, #0]
 183:.\main.c      ****             player2[row][col] = false;
 662              		.loc 1 183 0
 663 0030 B979     		ldrb	r1, [r7, #6]	@ zero_extendqisi2
 664 0032 FA79     		ldrb	r2, [r7, #7]	@ zero_extendqisi2
 665 0034 40F20003 		movw	r3, #:lower16:player2
 666 0038 C0F20003 		movt	r3, #:upper16:player2
 667 003c 4FEAC101 		lsl	r1, r1, #3
 668 0040 0A44     		add	r2, r1, r2
 669 0042 1344     		add	r3, r2, r3
 670 0044 4FF00002 		mov	r2, #0
 671 0048 1A70     		strb	r2, [r3, #0]
 672              		.loc 1 181 0
 673 004a FB79     		ldrb	r3, [r7, #7]
 674 004c 03F10103 		add	r3, r3, #1
 675 0050 FB71     		strb	r3, [r7, #7]
 676              	.L30:
 677 0052 FB79     		ldrb	r3, [r7, #7]	@ zero_extendqisi2
 678 0054 072B     		cmp	r3, #7
 679 0056 DED9     		bls	.L31
 680              		.loc 1 180 0
 681 0058 BB79     		ldrb	r3, [r7, #6]
 682 005a 03F10103 		add	r3, r3, #1
 683 005e BB71     		strb	r3, [r7, #6]
 684              	.L29:
 685 0060 BB79     		ldrb	r3, [r7, #6]	@ zero_extendqisi2
 686 0062 072B     		cmp	r3, #7
 687 0064 D3D9     		bls	.L32
 184:.\main.c      ****         }
 185:.\main.c      ****     }
 186:.\main.c      **** }
 688              		.loc 1 186 0
 689 0066 07F10C07 		add	r7, r7, #12
 690 006a BD46     		mov	sp, r7
 691 006c 80BC     		pop	{r7}
 692 006e 7047     		bx	lr
 693              		.cfi_endproc
 694              	.LFE33:
 695              		.size	clear_board, .-clear_board
 696              		.section	.rodata
 697              		.align	2
 698              	.LC15:
ARM GAS  C:\DOCUME~1\david\LOCALS~1\Temp\ccLm5ouk.s 			page 17


 699 009c 436F6E66 		.ascii	"Config\000"
 699      696700
 700 00a3 00       		.align	2
 701              	.LC16:
 702 00a4 2B2B2B00 		.ascii	"+++\000"
 703              		.align	2
 704              	.LC17:
 705 00a8 41504920 		.ascii	"API Mode\000"
 705      4D6F6465 
 705      00
 706 00b1 000000   		.align	2
 707              	.LC18:
 708 00b4 41544150 		.ascii	"ATAP1\015\000"
 708      310D00
 709 00bb 00       		.align	2
 710              	.LC19:
 711 00bc 4368616E 		.ascii	"Channel \000"
 711      6E656C20 
 711      00
 712 00c5 000000   		.align	2
 713              	.LC20:
 714 00c8 41544348 		.ascii	"ATCH\000"
 714      00
 715 00cd 000000   		.align	2
 716              	.LC21:
 717 00d0 52656164 		.ascii	"Ready   \000"
 717      79202020 
 717      00
 718 00d9 000000   		.align	2
 719              	.LC22:
 720 00dc 4154434E 		.ascii	"ATCN\015\000"
 720      0D00
 721              		.section	.text.configure_XBee,"ax",%progbits
 722              		.align	2
 723              		.global	configure_XBee
 724              		.thumb
 725              		.thumb_func
 726              		.type	configure_XBee, %function
 727              	configure_XBee:
 728              	.LFB34:
 187:.\main.c      **** 
 188:.\main.c      **** 
 189:.\main.c      **** 
 190:.\main.c      **** 
 191:.\main.c      **** void configure_XBee () {
 729              		.loc 1 191 0
 730              		.cfi_startproc
 731              		@ args = 0, pretend = 0, frame = 0
 732              		@ frame_needed = 1, uses_anonymous_args = 0
 733 0000 80B5     		push	{r7, lr}
 734              	.LCFI14:
 735              		.cfi_def_cfa_offset 8
 736 0002 00AF     		add	r7, sp, #0
 737              		.cfi_offset 14, -4
 738              		.cfi_offset 7, -8
 739              	.LCFI15:
 740              		.cfi_def_cfa_register 7
ARM GAS  C:\DOCUME~1\david\LOCALS~1\Temp\ccLm5ouk.s 			page 18


 192:.\main.c      ****     LCD_Position(1,5);
 741              		.loc 1 192 0
 742 0004 4FF00100 		mov	r0, #1
 743 0008 4FF00501 		mov	r1, #5
 744 000c FFF7FEFF 		bl	LCD_Position
 193:.\main.c      ****     LCD_PrintString("Config");
 745              		.loc 1 193 0
 746 0010 40F20000 		movw	r0, #:lower16:.LC15
 747 0014 C0F20000 		movt	r0, #:upper16:.LC15
 748 0018 FFF7FEFF 		bl	LCD_PrintString
 194:.\main.c      ****     CyDelay(XBEE_GUARD_TIME);
 749              		.loc 1 194 0
 750 001c 4FF47A70 		mov	r0, #1000
 751 0020 FFF7FEFF 		bl	CyDelay
 195:.\main.c      ****     UART_PutString("+++");
 752              		.loc 1 195 0
 753 0024 40F20000 		movw	r0, #:lower16:.LC16
 754 0028 C0F20000 		movt	r0, #:upper16:.LC16
 755 002c FFF7FEFF 		bl	UART_PutString
 196:.\main.c      ****     CyDelay(XBEE_GUARD_TIME*3);
 756              		.loc 1 196 0
 757 0030 40F6B830 		movw	r0, #3000
 758 0034 FFF7FEFF 		bl	CyDelay
 759              	.L35:
 197:.\main.c      ****     if (XBEE_VERIFY) {
 198:.\main.c      ****         while (UART_GetRxBufferSize() < 3);
 760              		.loc 1 198 0
 761 0038 FFF7FEFF 		bl	UART_GetRxBufferSize
 762 003c 0346     		mov	r3, r0
 763 003e 022B     		cmp	r3, #2
 764 0040 FAD9     		bls	.L35
 199:.\main.c      ****         if (UART_ReadRxData() != 'O' || UART_ReadRxData() != 'K' || UART_ReadRxData() != '\r') Erro
 765              		.loc 1 199 0
 766 0042 FFF7FEFF 		bl	UART_ReadRxData
 767 0046 0346     		mov	r3, r0
 768 0048 4F2B     		cmp	r3, #79
 769 004a 09D1     		bne	.L36
 770 004c FFF7FEFF 		bl	UART_ReadRxData
 771 0050 0346     		mov	r3, r0
 772 0052 4B2B     		cmp	r3, #75
 773 0054 04D1     		bne	.L36
 774 0056 FFF7FEFF 		bl	UART_ReadRxData
 775 005a 0346     		mov	r3, r0
 776 005c 0D2B     		cmp	r3, #13
 777 005e 03D0     		beq	.L37
 778              	.L36:
 779 0060 4FF00100 		mov	r0, #1
 780 0064 FFF7FEFF 		bl	Error_Write
 781              	.L37:
 200:.\main.c      ****     }
 201:.\main.c      ****     
 202:.\main.c      ****     LCD_Position(1,5);
 782              		.loc 1 202 0
 783 0068 4FF00100 		mov	r0, #1
 784 006c 4FF00501 		mov	r1, #5
 785 0070 FFF7FEFF 		bl	LCD_Position
 203:.\main.c      ****     LCD_PrintString("API Mode");
ARM GAS  C:\DOCUME~1\david\LOCALS~1\Temp\ccLm5ouk.s 			page 19


 786              		.loc 1 203 0
 787 0074 40F20000 		movw	r0, #:lower16:.LC17
 788 0078 C0F20000 		movt	r0, #:upper16:.LC17
 789 007c FFF7FEFF 		bl	LCD_PrintString
 204:.\main.c      ****     UART_PutString("ATAP1\r");
 790              		.loc 1 204 0
 791 0080 40F20000 		movw	r0, #:lower16:.LC18
 792 0084 C0F20000 		movt	r0, #:upper16:.LC18
 793 0088 FFF7FEFF 		bl	UART_PutString
 794              	.L38:
 205:.\main.c      ****     if (XBEE_VERIFY) {
 206:.\main.c      ****         while (UART_GetRxBufferSize() < 3);
 795              		.loc 1 206 0
 796 008c FFF7FEFF 		bl	UART_GetRxBufferSize
 797 0090 0346     		mov	r3, r0
 798 0092 022B     		cmp	r3, #2
 799 0094 FAD9     		bls	.L38
 207:.\main.c      ****         if (UART_ReadRxData() != 'O' || UART_ReadRxData() != 'K' || UART_ReadRxData() != '\r') Erro
 800              		.loc 1 207 0
 801 0096 FFF7FEFF 		bl	UART_ReadRxData
 802 009a 0346     		mov	r3, r0
 803 009c 4F2B     		cmp	r3, #79
 804 009e 09D1     		bne	.L39
 805 00a0 FFF7FEFF 		bl	UART_ReadRxData
 806 00a4 0346     		mov	r3, r0
 807 00a6 4B2B     		cmp	r3, #75
 808 00a8 04D1     		bne	.L39
 809 00aa FFF7FEFF 		bl	UART_ReadRxData
 810 00ae 0346     		mov	r3, r0
 811 00b0 0D2B     		cmp	r3, #13
 812 00b2 03D0     		beq	.L40
 813              	.L39:
 814 00b4 4FF00100 		mov	r0, #1
 815 00b8 FFF7FEFF 		bl	Error_Write
 816              	.L40:
 208:.\main.c      ****     }
 209:.\main.c      ****     
 210:.\main.c      ****     LCD_Position(1,5);
 817              		.loc 1 210 0
 818 00bc 4FF00100 		mov	r0, #1
 819 00c0 4FF00501 		mov	r1, #5
 820 00c4 FFF7FEFF 		bl	LCD_Position
 211:.\main.c      ****     LCD_PrintString("Channel ");
 821              		.loc 1 211 0
 822 00c8 40F20000 		movw	r0, #:lower16:.LC19
 823 00cc C0F20000 		movt	r0, #:upper16:.LC19
 824 00d0 FFF7FEFF 		bl	LCD_PrintString
 212:.\main.c      ****     UART_PutString("ATCH");
 825              		.loc 1 212 0
 826 00d4 40F20000 		movw	r0, #:lower16:.LC20
 827 00d8 C0F20000 		movt	r0, #:upper16:.LC20
 828 00dc FFF7FEFF 		bl	UART_PutString
 213:.\main.c      ****     UART_WriteTxData(XBEE_CHANNEL);
 829              		.loc 1 213 0
 830 00e0 4FF00F00 		mov	r0, #15
 831 00e4 FFF7FEFF 		bl	UART_WriteTxData
 214:.\main.c      ****     UART_PutChar('\r');
ARM GAS  C:\DOCUME~1\david\LOCALS~1\Temp\ccLm5ouk.s 			page 20


 832              		.loc 1 214 0
 833 00e8 4FF00D00 		mov	r0, #13
 834 00ec FFF7FEFF 		bl	UART_PutChar
 835              	.L41:
 215:.\main.c      ****     if (XBEE_VERIFY) {
 216:.\main.c      ****         while (UART_GetRxBufferSize() < 3);
 836              		.loc 1 216 0
 837 00f0 FFF7FEFF 		bl	UART_GetRxBufferSize
 838 00f4 0346     		mov	r3, r0
 839 00f6 022B     		cmp	r3, #2
 840 00f8 FAD9     		bls	.L41
 217:.\main.c      ****         if (UART_ReadRxData() != 'O' || UART_ReadRxData() != 'K' || UART_ReadRxData() != '\r') Erro
 841              		.loc 1 217 0
 842 00fa FFF7FEFF 		bl	UART_ReadRxData
 843 00fe 0346     		mov	r3, r0
 844 0100 4F2B     		cmp	r3, #79
 845 0102 09D1     		bne	.L42
 846 0104 FFF7FEFF 		bl	UART_ReadRxData
 847 0108 0346     		mov	r3, r0
 848 010a 4B2B     		cmp	r3, #75
 849 010c 04D1     		bne	.L42
 850 010e FFF7FEFF 		bl	UART_ReadRxData
 851 0112 0346     		mov	r3, r0
 852 0114 0D2B     		cmp	r3, #13
 853 0116 03D0     		beq	.L43
 854              	.L42:
 855 0118 4FF00100 		mov	r0, #1
 856 011c FFF7FEFF 		bl	Error_Write
 857              	.L43:
 218:.\main.c      ****     }
 219:.\main.c      ****     
 220:.\main.c      ****     if (XBEE_REMEMBER) {
 221:.\main.c      ****         LCD_Position(1,5);
 222:.\main.c      ****         LCD_PrintString("Write   ");
 223:.\main.c      ****         UART_PutString("ATWR\r");
 224:.\main.c      ****         if (XBEE_VERIFY) {
 225:.\main.c      ****             while (UART_GetRxBufferSize() < 3);
 226:.\main.c      ****             if (UART_ReadRxData() != 'O' || UART_ReadRxData() != 'K' || UART_ReadRxData() != '\r') 
 227:.\main.c      ****         }
 228:.\main.c      ****     }
 229:.\main.c      ****     
 230:.\main.c      ****     LCD_Position(1,5);
 858              		.loc 1 230 0
 859 0120 4FF00100 		mov	r0, #1
 860 0124 4FF00501 		mov	r1, #5
 861 0128 FFF7FEFF 		bl	LCD_Position
 231:.\main.c      ****     LCD_PrintString("Ready   ");
 862              		.loc 1 231 0
 863 012c 40F20000 		movw	r0, #:lower16:.LC21
 864 0130 C0F20000 		movt	r0, #:upper16:.LC21
 865 0134 FFF7FEFF 		bl	LCD_PrintString
 232:.\main.c      ****     UART_PutString("ATCN\r");
 866              		.loc 1 232 0
 867 0138 40F20000 		movw	r0, #:lower16:.LC22
 868 013c C0F20000 		movt	r0, #:upper16:.LC22
 869 0140 FFF7FEFF 		bl	UART_PutString
 870              	.L44:
ARM GAS  C:\DOCUME~1\david\LOCALS~1\Temp\ccLm5ouk.s 			page 21


 233:.\main.c      ****     if (XBEE_VERIFY) {
 234:.\main.c      ****         while (UART_GetRxBufferSize() < 3);
 871              		.loc 1 234 0
 872 0144 FFF7FEFF 		bl	UART_GetRxBufferSize
 873 0148 0346     		mov	r3, r0
 874 014a 022B     		cmp	r3, #2
 875 014c FAD9     		bls	.L44
 235:.\main.c      ****         if (UART_ReadRxData() != 'O' || UART_ReadRxData() != 'K' || UART_ReadRxData() != '\r') Erro
 876              		.loc 1 235 0
 877 014e FFF7FEFF 		bl	UART_ReadRxData
 878 0152 0346     		mov	r3, r0
 879 0154 4F2B     		cmp	r3, #79
 880 0156 09D1     		bne	.L45
 881 0158 FFF7FEFF 		bl	UART_ReadRxData
 882 015c 0346     		mov	r3, r0
 883 015e 4B2B     		cmp	r3, #75
 884 0160 04D1     		bne	.L45
 885 0162 FFF7FEFF 		bl	UART_ReadRxData
 886 0166 0346     		mov	r3, r0
 887 0168 0D2B     		cmp	r3, #13
 888 016a 03D0     		beq	.L46
 889              	.L45:
 890 016c 4FF00100 		mov	r0, #1
 891 0170 FFF7FEFF 		bl	Error_Write
 892              	.L46:
 236:.\main.c      ****     }
 237:.\main.c      ****     
 238:.\main.c      ****     Remote_Write(0x01);
 893              		.loc 1 238 0
 894 0174 4FF00100 		mov	r0, #1
 895 0178 FFF7FEFF 		bl	Remote_Write
 239:.\main.c      **** }
 896              		.loc 1 239 0
 897 017c 80BD     		pop	{r7, pc}
 898              		.cfi_endproc
 899              	.LFE34:
 900              		.size	configure_XBee, .-configure_XBee
 901 017e 00BF     		.section	.rodata
 902 00e2 0000     		.align	2
 903              	.LC23:
 904 00e4 506C6163 		.ascii	"Place a disc!\000"
 904      65206120 
 904      64697363 
 904      2100
 905 00f2 0000     		.align	2
 906              	.LC24:
 907 00f4 47616D65 		.ascii	"Game Over\000"
 907      204F7665 
 907      7200
 908 00fe 0000     		.align	2
 909              	.LC25:
 910 0100 426F6172 		.ascii	"Board Full\000"
 910      64204675 
 910      6C6C00
 911 010b 00       		.align	2
 912              	.LC26:
 913 010c 436F6C75 		.ascii	"Column Full\000"
ARM GAS  C:\DOCUME~1\david\LOCALS~1\Temp\ccLm5ouk.s 			page 22


 913      6D6E2046 
 913      756C6C00 
 914              		.section	.text.get_move,"ax",%progbits
 915              		.align	2
 916              		.global	get_move
 917              		.thumb
 918              		.thumb_func
 919              		.type	get_move, %function
 920              	get_move:
 921              	.LFB35:
 240:.\main.c      **** 
 241:.\main.c      **** 
 242:.\main.c      **** 
 243:.\main.c      **** 
 244:.\main.c      **** uint8 get_move () {
 922              		.loc 1 244 0
 923              		.cfi_startproc
 924              		@ args = 0, pretend = 0, frame = 8
 925              		@ frame_needed = 1, uses_anonymous_args = 0
 926 0000 80B5     		push	{r7, lr}
 927              	.LCFI16:
 928              		.cfi_def_cfa_offset 8
 929 0002 82B0     		sub	sp, sp, #8
 930              	.LCFI17:
 931              		.cfi_def_cfa_offset 16
 932 0004 00AF     		add	r7, sp, #0
 933              		.cfi_offset 14, -4
 934              		.cfi_offset 7, -8
 935              	.LCFI18:
 936              		.cfi_def_cfa_register 7
 245:.\main.c      ****     LCD_UpdateMessage("Place a disc!");
 937              		.loc 1 245 0
 938 0006 40F20000 		movw	r0, #:lower16:.LC23
 939 000a C0F20000 		movt	r0, #:upper16:.LC23
 940 000e FFF7FEFF 		bl	LCD_UpdateMessage
 246:.\main.c      ****     
 247:.\main.c      ****     //guide
 248:.\main.c      ****     uint8 disc = 0;
 941              		.loc 1 248 0
 942 0012 4FF00003 		mov	r3, #0
 943 0016 3B70     		strb	r3, [r7, #0]
 249:.\main.c      ****     while (player1[1][disc] || player2[1][disc]) {
 944              		.loc 1 249 0
 945 0018 13E0     		b	.L49
 946              	.L51:
 250:.\main.c      ****         if (++disc >= MATRIX_COLS) {
 947              		.loc 1 250 0
 948 001a 3B78     		ldrb	r3, [r7, #0]
 949 001c 03F10103 		add	r3, r3, #1
 950 0020 3B70     		strb	r3, [r7, #0]
 951 0022 3B78     		ldrb	r3, [r7, #0]	@ zero_extendqisi2
 952 0024 072B     		cmp	r3, #7
 953 0026 0CD9     		bls	.L49
 251:.\main.c      ****             LCD_UpdateStatus("Game Over");
 954              		.loc 1 251 0
 955 0028 40F20000 		movw	r0, #:lower16:.LC24
 956 002c C0F20000 		movt	r0, #:upper16:.LC24
ARM GAS  C:\DOCUME~1\david\LOCALS~1\Temp\ccLm5ouk.s 			page 23


 957 0030 FFF7FEFF 		bl	LCD_UpdateStatus
 252:.\main.c      ****             LCD_UpdateMessage("Board Full");
 958              		.loc 1 252 0
 959 0034 40F20000 		movw	r0, #:lower16:.LC25
 960 0038 C0F20000 		movt	r0, #:upper16:.LC25
 961 003c FFF7FEFF 		bl	LCD_UpdateMessage
 962              	.L50:
 253:.\main.c      ****             while (true);
 963              		.loc 1 253 0
 964 0040 FEE7     		b	.L50
 965              	.L49:
 966              		.loc 1 249 0
 967 0042 3A78     		ldrb	r2, [r7, #0]	@ zero_extendqisi2
 968 0044 40F20003 		movw	r3, #:lower16:player1
 969 0048 C0F20003 		movt	r3, #:upper16:player1
 970 004c 1344     		add	r3, r2, r3
 971 004e 1B7A     		ldrb	r3, [r3, #8]	@ zero_extendqisi2
 972 0050 002B     		cmp	r3, #0
 973 0052 E2D1     		bne	.L51
 974 0054 3A78     		ldrb	r2, [r7, #0]	@ zero_extendqisi2
 975 0056 40F20003 		movw	r3, #:lower16:player2
 976 005a C0F20003 		movt	r3, #:upper16:player2
 977 005e 1344     		add	r3, r2, r3
 978 0060 1B7A     		ldrb	r3, [r3, #8]	@ zero_extendqisi2
 979 0062 002B     		cmp	r3, #0
 980 0064 D9D1     		bne	.L51
 254:.\main.c      ****         }
 255:.\main.c      ****     }
 256:.\main.c      ****     
 257:.\main.c      ****     bool dropped = false;
 981              		.loc 1 257 0
 982 0066 4FF00003 		mov	r3, #0
 983 006a 7B70     		strb	r3, [r7, #1]
 984              	.L66:
 258:.\main.c      ****     do {
 259:.\main.c      ****         CapSense_UpdateEnabledBaselines();
 985              		.loc 1 259 0
 986 006c FFF7FEFF 		bl	CapSense_UpdateEnabledBaselines
 260:.\main.c      ****         CapSense_UpdateEnabledBaselines(); //Helps avoid auto-dropping?
 987              		.loc 1 260 0
 988 0070 FFF7FEFF 		bl	CapSense_UpdateEnabledBaselines
 261:.\main.c      ****         CapSense_ScanEnabledWidgets();
 989              		.loc 1 261 0
 990 0074 FFF7FEFF 		bl	CapSense_ScanEnabledWidgets
 991              	.L52:
 262:.\main.c      ****         while (CapSense_IsBusy());
 992              		.loc 1 262 0
 993 0078 FFF7FEFF 		bl	CapSense_IsBusy
 994 007c 0346     		mov	r3, r0
 995 007e 002B     		cmp	r3, #0
 996 0080 FAD1     		bne	.L52
 263:.\main.c      ****         if ((player1_turn && CapSense_CheckIsWidgetActive(CapSense_BUTTON0__BTN))
 997              		.loc 1 263 0
 998 0082 40F20003 		movw	r3, #:lower16:player1_turn
 999 0086 C0F20003 		movt	r3, #:upper16:player1_turn
 1000 008a 1B78     		ldrb	r3, [r3, #0]	@ zero_extendqisi2
 1001 008c 002B     		cmp	r3, #0
ARM GAS  C:\DOCUME~1\david\LOCALS~1\Temp\ccLm5ouk.s 			page 24


 1002 008e 06D0     		beq	.L53
 1003 0090 4FF00100 		mov	r0, #1
 1004 0094 FFF7FEFF 		bl	CapSense_CheckIsWidgetActive
 1005 0098 0346     		mov	r3, r0
 1006 009a 002B     		cmp	r3, #0
 1007 009c 10D1     		bne	.L54
 1008              	.L53:
 1009 009e 40F20003 		movw	r3, #:lower16:player1_turn
 1010 00a2 C0F20003 		movt	r3, #:upper16:player1_turn
 1011 00a6 1B78     		ldrb	r3, [r3, #0]	@ zero_extendqisi2
 1012 00a8 83F00103 		eor	r3, r3, #1
 1013 00ac DBB2     		uxtb	r3, r3
 1014 00ae 002B     		cmp	r3, #0
 1015 00b0 24D0     		beq	.L55
 264:.\main.c      ****         || (!player1_turn && CapSense_CheckIsWidgetActive(CapSense_BUTTON1__BTN))) { //Helps avoid 
 1016              		.loc 1 264 0
 1017 00b2 4FF00200 		mov	r0, #2
 1018 00b6 FFF7FEFF 		bl	CapSense_CheckIsWidgetActive
 1019 00ba 0346     		mov	r3, r0
 1020              		.loc 1 263 0
 1021 00bc 002B     		cmp	r3, #0
 1022 00be 1DD0     		beq	.L55
 1023              	.L54:
 265:.\main.c      ****             if (player1[1][disc] || player2[1][disc]) LCD_UpdateMessage("Column Full");
 1024              		.loc 1 265 0
 1025 00c0 3A78     		ldrb	r2, [r7, #0]	@ zero_extendqisi2
 1026 00c2 40F20003 		movw	r3, #:lower16:player1
 1027 00c6 C0F20003 		movt	r3, #:upper16:player1
 1028 00ca 1344     		add	r3, r2, r3
 1029 00cc 1B7A     		ldrb	r3, [r3, #8]	@ zero_extendqisi2
 1030 00ce 002B     		cmp	r3, #0
 1031 00d0 08D1     		bne	.L56
 1032 00d2 3A78     		ldrb	r2, [r7, #0]	@ zero_extendqisi2
 1033 00d4 40F20003 		movw	r3, #:lower16:player2
 1034 00d8 C0F20003 		movt	r3, #:upper16:player2
 1035 00dc 1344     		add	r3, r2, r3
 1036 00de 1B7A     		ldrb	r3, [r3, #8]	@ zero_extendqisi2
 1037 00e0 002B     		cmp	r3, #0
 1038 00e2 07D0     		beq	.L57
 1039              	.L56:
 1040 00e4 40F20000 		movw	r0, #:lower16:.LC26
 1041 00e8 C0F20000 		movt	r0, #:upper16:.LC26
 1042 00ec FFF7FEFF 		bl	LCD_UpdateMessage
 1043 00f0 00BF     		nop
 1044              		.loc 1 263 0
 1045 00f2 76E0     		b	.L59
 1046              	.L57:
 266:.\main.c      ****             else dropped = true;
 1047              		.loc 1 266 0
 1048 00f4 4FF00103 		mov	r3, #1
 1049 00f8 7B70     		strb	r3, [r7, #1]
 1050              		.loc 1 263 0
 1051 00fa 72E0     		b	.L59
 1052              	.L55:
 1053              	.LBB4:
 267:.\main.c      ****         }
 268:.\main.c      ****         else {
ARM GAS  C:\DOCUME~1\david\LOCALS~1\Temp\ccLm5ouk.s 			page 25


 269:.\main.c      ****             player1[0][disc] = player2[0][disc] = false;
 1054              		.loc 1 269 0
 1055 00fc 3978     		ldrb	r1, [r7, #0]	@ zero_extendqisi2
 1056 00fe 3A78     		ldrb	r2, [r7, #0]	@ zero_extendqisi2
 1057 0100 40F20003 		movw	r3, #:lower16:player2
 1058 0104 C0F20003 		movt	r3, #:upper16:player2
 1059 0108 4FF00000 		mov	r0, #0
 1060 010c 9854     		strb	r0, [r3, r2]
 1061 010e 40F20003 		movw	r3, #:lower16:player2
 1062 0112 C0F20003 		movt	r3, #:upper16:player2
 1063 0116 9A5C     		ldrb	r2, [r3, r2]	@ zero_extendqisi2
 1064 0118 40F20003 		movw	r3, #:lower16:player1
 1065 011c C0F20003 		movt	r3, #:upper16:player1
 1066 0120 5A54     		strb	r2, [r3, r1]
 270:.\main.c      ****             uint16 reading = (CapSense_GetCentroidPos(CapSense_LINEARSLIDER0__LS)*(MATRIX_COLS-1))/
 1067              		.loc 1 270 0
 1068 0122 4FF00000 		mov	r0, #0
 1069 0126 FFF7FEFF 		bl	CapSense_GetCentroidPos
 1070 012a 0346     		mov	r3, r0
 1071 012c 1A46     		mov	r2, r3
 1072 012e 1346     		mov	r3, r2
 1073 0130 4FEAC303 		lsl	r3, r3, #3
 1074 0134 C2EB0302 		rsb	r2, r2, r3
 1075 0138 40F2EB73 		movw	r3, #:lower16:354224107
 1076 013c C1F21D53 		movt	r3, #:upper16:354224107
 1077 0140 83FB0213 		smull	r1, r3, r3, r2
 1078 0144 4FEAE301 		asr	r1, r3, #3
 1079 0148 4FEAE273 		asr	r3, r2, #31
 1080 014c C3EB0103 		rsb	r3, r3, r1
 1081 0150 7B80     		strh	r3, [r7, #2]	@ movhi
 271:.\main.c      ****             if (reading < 8) disc = reading;
 1082              		.loc 1 271 0
 1083 0152 7B88     		ldrh	r3, [r7, #2]
 1084 0154 072B     		cmp	r3, #7
 1085 0156 01D8     		bhi	.L60
 1086 0158 7B88     		ldrh	r3, [r7, #2]	@ movhi
 1087 015a 3B70     		strb	r3, [r7, #0]
 1088              	.L60:
 272:.\main.c      ****             
 273:.\main.c      ****             //guide
 274:.\main.c      ****             int dir = 1;
 1089              		.loc 1 274 0
 1090 015c 4FF00103 		mov	r3, #1
 1091 0160 7B60     		str	r3, [r7, #4]
 275:.\main.c      ****             while (player1[1][disc] || player2[1][disc]) {
 1092              		.loc 1 275 0
 1093 0162 14E0     		b	.L61
 1094              	.L64:
 276:.\main.c      ****                 if (disc >= MATRIX_COLS-1)  dir = -1;
 1095              		.loc 1 276 0
 1096 0164 3B78     		ldrb	r3, [r7, #0]	@ zero_extendqisi2
 1097 0166 062B     		cmp	r3, #6
 1098 0168 02D9     		bls	.L62
 1099 016a 4FF0FF33 		mov	r3, #-1
 1100 016e 7B60     		str	r3, [r7, #4]
 1101              	.L62:
 277:.\main.c      ****                 if (disc == 0 && dir == -1) dir =  1; // DEBUG redundant?
ARM GAS  C:\DOCUME~1\david\LOCALS~1\Temp\ccLm5ouk.s 			page 26


 1102              		.loc 1 277 0
 1103 0170 3B78     		ldrb	r3, [r7, #0]	@ zero_extendqisi2
 1104 0172 002B     		cmp	r3, #0
 1105 0174 06D1     		bne	.L63
 1106 0176 7B68     		ldr	r3, [r7, #4]
 1107 0178 B3F1FF3F 		cmp	r3, #-1
 1108 017c 02D1     		bne	.L63
 1109 017e 4FF00103 		mov	r3, #1
 1110 0182 7B60     		str	r3, [r7, #4]
 1111              	.L63:
 278:.\main.c      ****                 disc += dir;
 1112              		.loc 1 278 0
 1113 0184 7B68     		ldr	r3, [r7, #4]
 1114 0186 DAB2     		uxtb	r2, r3
 1115 0188 3B78     		ldrb	r3, [r7, #0]
 1116 018a 1344     		add	r3, r2, r3
 1117 018c 3B70     		strb	r3, [r7, #0]
 1118              	.L61:
 1119              		.loc 1 275 0
 1120 018e 3A78     		ldrb	r2, [r7, #0]	@ zero_extendqisi2
 1121 0190 40F20003 		movw	r3, #:lower16:player1
 1122 0194 C0F20003 		movt	r3, #:upper16:player1
 1123 0198 1344     		add	r3, r2, r3
 1124 019a 1B7A     		ldrb	r3, [r3, #8]	@ zero_extendqisi2
 1125 019c 002B     		cmp	r3, #0
 1126 019e E1D1     		bne	.L64
 1127 01a0 3A78     		ldrb	r2, [r7, #0]	@ zero_extendqisi2
 1128 01a2 40F20003 		movw	r3, #:lower16:player2
 1129 01a6 C0F20003 		movt	r3, #:upper16:player2
 1130 01aa 1344     		add	r3, r2, r3
 1131 01ac 1B7A     		ldrb	r3, [r3, #8]	@ zero_extendqisi2
 1132 01ae 002B     		cmp	r3, #0
 1133 01b0 D8D1     		bne	.L64
 279:.\main.c      ****             }
 280:.\main.c      ****             if (player1_turn) player1[0][disc] = true;
 1134              		.loc 1 280 0
 1135 01b2 40F20003 		movw	r3, #:lower16:player1_turn
 1136 01b6 C0F20003 		movt	r3, #:upper16:player1_turn
 1137 01ba 1B78     		ldrb	r3, [r3, #0]	@ zero_extendqisi2
 1138 01bc 002B     		cmp	r3, #0
 1139 01be 08D0     		beq	.L65
 1140 01c0 3A78     		ldrb	r2, [r7, #0]	@ zero_extendqisi2
 1141 01c2 40F20003 		movw	r3, #:lower16:player1
 1142 01c6 C0F20003 		movt	r3, #:upper16:player1
 1143 01ca 4FF00101 		mov	r1, #1
 1144 01ce 9954     		strb	r1, [r3, r2]
 1145 01d0 07E0     		b	.L59
 1146              	.L65:
 281:.\main.c      ****             else              player2[0][disc] = true;
 1147              		.loc 1 281 0
 1148 01d2 3A78     		ldrb	r2, [r7, #0]	@ zero_extendqisi2
 1149 01d4 40F20003 		movw	r3, #:lower16:player2
 1150 01d8 C0F20003 		movt	r3, #:upper16:player2
 1151 01dc 4FF00101 		mov	r1, #1
 1152 01e0 9954     		strb	r1, [r3, r2]
 1153              	.L59:
 1154              	.LBE4:
ARM GAS  C:\DOCUME~1\david\LOCALS~1\Temp\ccLm5ouk.s 			page 27


 282:.\main.c      ****         }
 283:.\main.c      ****     } while (!dropped);
 1155              		.loc 1 283 0
 1156 01e2 7B78     		ldrb	r3, [r7, #1]
 1157 01e4 83F00103 		eor	r3, r3, #1
 1158 01e8 DBB2     		uxtb	r3, r3
 1159 01ea 002B     		cmp	r3, #0
 1160 01ec 7FF43EAF 		bne	.L66
 284:.\main.c      ****     player1[0][disc] = player2[0][disc] = false;
 1161              		.loc 1 284 0
 1162 01f0 3978     		ldrb	r1, [r7, #0]	@ zero_extendqisi2
 1163 01f2 3A78     		ldrb	r2, [r7, #0]	@ zero_extendqisi2
 1164 01f4 40F20003 		movw	r3, #:lower16:player2
 1165 01f8 C0F20003 		movt	r3, #:upper16:player2
 1166 01fc 4FF00000 		mov	r0, #0
 1167 0200 9854     		strb	r0, [r3, r2]
 1168 0202 40F20003 		movw	r3, #:lower16:player2
 1169 0206 C0F20003 		movt	r3, #:upper16:player2
 1170 020a 9A5C     		ldrb	r2, [r3, r2]	@ zero_extendqisi2
 1171 020c 40F20003 		movw	r3, #:lower16:player1
 1172 0210 C0F20003 		movt	r3, #:upper16:player1
 1173 0214 5A54     		strb	r2, [r3, r1]
 285:.\main.c      ****     return disc;
 1174              		.loc 1 285 0
 1175 0216 3B78     		ldrb	r3, [r7, #0]	@ zero_extendqisi2
 286:.\main.c      **** }
 1176              		.loc 1 286 0
 1177 0218 1846     		mov	r0, r3
 1178 021a 07F10807 		add	r7, r7, #8
 1179 021e BD46     		mov	sp, r7
 1180 0220 80BD     		pop	{r7, pc}
 1181              		.cfi_endproc
 1182              	.LFE35:
 1183              		.size	get_move, .-get_move
 1184 0222 00BF     		.section	.text.receive_move,"ax",%progbits
 1185              		.align	2
 1186              		.global	receive_move
 1187              		.thumb
 1188              		.thumb_func
 1189              		.type	receive_move, %function
 1190              	receive_move:
 1191              	.LFB36:
 287:.\main.c      **** 
 288:.\main.c      **** 
 289:.\main.c      **** 
 290:.\main.c      **** 
 291:.\main.c      **** uint8 receive_move () {
 1192              		.loc 1 291 0
 1193              		.cfi_startproc
 1194              		@ args = 0, pretend = 0, frame = 8
 1195              		@ frame_needed = 1, uses_anonymous_args = 0
 1196 0000 80B5     		push	{r7, lr}
 1197              	.LCFI19:
 1198              		.cfi_def_cfa_offset 8
 1199 0002 82B0     		sub	sp, sp, #8
 1200              	.LCFI20:
 1201              		.cfi_def_cfa_offset 16
ARM GAS  C:\DOCUME~1\david\LOCALS~1\Temp\ccLm5ouk.s 			page 28


 1202 0004 00AF     		add	r7, sp, #0
 1203              		.cfi_offset 14, -4
 1204              		.cfi_offset 7, -8
 1205              	.LCFI21:
 1206              		.cfi_def_cfa_register 7
 1207              	.L70:
 292:.\main.c      ****     play_t move;
 293:.\main.c      ****     while (true) {
 294:.\main.c      ****         receive_packet(&move);
 1208              		.loc 1 294 0
 1209 0006 07F10403 		add	r3, r7, #4
 1210 000a 1846     		mov	r0, r3
 1211 000c FFF7FEFF 		bl	receive_packet
 295:.\main.c      ****         move.row = MATRIX_ROWS-move.row;
 1212              		.loc 1 295 0
 1213 0010 3B79     		ldrb	r3, [r7, #4]	@ zero_extendqisi2
 1214 0012 C3F10803 		rsb	r3, r3, #8
 1215 0016 DBB2     		uxtb	r3, r3
 1216 0018 3B71     		strb	r3, [r7, #4]
 296:.\main.c      ****         --move.col;
 1217              		.loc 1 296 0
 1218 001a 7B79     		ldrb	r3, [r7, #5]	@ zero_extendqisi2
 1219 001c 03F1FF33 		add	r3, r3, #-1
 1220 0020 DBB2     		uxtb	r3, r3
 1221 0022 7B71     		strb	r3, [r7, #5]
 297:.\main.c      ****         if (player2[move.row][move.col]) send_packet(&last_move);
 1222              		.loc 1 297 0
 1223 0024 3B79     		ldrb	r3, [r7, #4]	@ zero_extendqisi2
 1224 0026 1946     		mov	r1, r3
 1225 0028 7B79     		ldrb	r3, [r7, #5]	@ zero_extendqisi2
 1226 002a 1A46     		mov	r2, r3
 1227 002c 40F20003 		movw	r3, #:lower16:player2
 1228 0030 C0F20003 		movt	r3, #:upper16:player2
 1229 0034 4FEAC101 		lsl	r1, r1, #3
 1230 0038 0A44     		add	r2, r1, r2
 1231 003a 1344     		add	r3, r2, r3
 1232 003c 1B78     		ldrb	r3, [r3, #0]	@ zero_extendqisi2
 1233 003e 002B     		cmp	r3, #0
 1234 0040 06D0     		beq	.L69
 1235 0042 40F20000 		movw	r0, #:lower16:last_move
 1236 0046 C0F20000 		movt	r0, #:upper16:last_move
 1237 004a FFF7FEFF 		bl	send_packet
 298:.\main.c      ****         else break;
 299:.\main.c      ****     }
 1238              		.loc 1 299 0
 1239 004e DAE7     		b	.L70
 1240              	.L69:
 300:.\main.c      ****     UART_ClearRxBuffer();
 1241              		.loc 1 300 0
 1242 0050 FFF7FEFF 		bl	UART_ClearRxBuffer
 301:.\main.c      ****     return move.col; 
 1243              		.loc 1 301 0
 1244 0054 7B79     		ldrb	r3, [r7, #5]	@ zero_extendqisi2
 302:.\main.c      **** }
 1245              		.loc 1 302 0
 1246 0056 1846     		mov	r0, r3
 1247 0058 07F10807 		add	r7, r7, #8
ARM GAS  C:\DOCUME~1\david\LOCALS~1\Temp\ccLm5ouk.s 			page 29


 1248 005c BD46     		mov	sp, r7
 1249 005e 80BD     		pop	{r7, pc}
 1250              		.cfi_endproc
 1251              	.LFE36:
 1252              		.size	receive_move, .-receive_move
 1253              		.section	.rodata
 1254              		.align	2
 1255              	.LC27:
 1256 0118 77616974 		.ascii	"waiting...\000"
 1256      696E672E 
 1256      2E2E00
 1257 0123 00       		.align	2
 1258              	.LC28:
 1259 0124 72656365 		.ascii	"received \000"
 1259      69766564 
 1259      2000
 1260 012e 0000     		.align	2
 1261              	.LC29:
 1262 0130 503200   		.ascii	"P2\000"
 1263              		.section	.text.receive_packet,"ax",%progbits
 1264              		.align	2
 1265              		.global	receive_packet
 1266              		.thumb
 1267              		.thumb_func
 1268              		.type	receive_packet, %function
 1269              	receive_packet:
 1270              	.LFB37:
 303:.\main.c      **** 
 304:.\main.c      **** 
 305:.\main.c      **** 
 306:.\main.c      **** 
 307:.\main.c      **** void receive_packet ( play_t * move ) {
 1271              		.loc 1 307 0
 1272              		.cfi_startproc
 1273              		@ args = 0, pretend = 0, frame = 16
 1274              		@ frame_needed = 1, uses_anonymous_args = 0
 1275 0000 80B5     		push	{r7, lr}
 1276              	.LCFI22:
 1277              		.cfi_def_cfa_offset 8
 1278 0002 84B0     		sub	sp, sp, #16
 1279              	.LCFI23:
 1280              		.cfi_def_cfa_offset 24
 1281 0004 00AF     		add	r7, sp, #0
 1282              		.cfi_offset 14, -4
 1283              		.cfi_offset 7, -8
 1284              	.LCFI24:
 1285              		.cfi_def_cfa_register 7
 1286 0006 7860     		str	r0, [r7, #4]
 308:.\main.c      ****     UART_ClearRxBuffer();
 1287              		.loc 1 308 0
 1288 0008 FFF7FEFF 		bl	UART_ClearRxBuffer
 1289              	.L82:
 1290              	.LBB5:
 309:.\main.c      ****     while (true) {
 310:.\main.c      ****         LCD_UpdateMessage("waiting...");
 1291              		.loc 1 310 0
 1292 000c 40F20000 		movw	r0, #:lower16:.LC27
ARM GAS  C:\DOCUME~1\david\LOCALS~1\Temp\ccLm5ouk.s 			page 30


 1293 0010 C0F20000 		movt	r0, #:upper16:.LC27
 1294 0014 FFF7FEFF 		bl	LCD_UpdateMessage
 1295              	.L73:
 311:.\main.c      ****         
 312:.\main.c      ****         while (UART_GetRxBufferSize() == 0);
 1296              		.loc 1 312 0
 1297 0018 FFF7FEFF 		bl	UART_GetRxBufferSize
 1298 001c 0346     		mov	r3, r0
 1299 001e 002B     		cmp	r3, #0
 1300 0020 FAD0     		beq	.L73
 313:.\main.c      ****         uint8 id = UART_ReadRxData();
 1301              		.loc 1 313 0
 1302 0022 FFF7FEFF 		bl	UART_ReadRxData
 1303 0026 0346     		mov	r3, r0
 1304 0028 FB73     		strb	r3, [r7, #15]
 314:.\main.c      ****         //do id = UART_ReadRxData();
 315:.\main.c      ****         //while (id != PLAYER2_ID && UART_GetRxBufferSize() > 0);
 316:.\main.c      ****         
 317:.\main.c      ****         
 318:.\main.c      ****         /* DEBUG */
 319:.\main.c      ****         LCD_UpdateMessage("received ");
 1305              		.loc 1 319 0
 1306 002a 40F20000 		movw	r0, #:lower16:.LC28
 1307 002e C0F20000 		movt	r0, #:upper16:.LC28
 1308 0032 FFF7FEFF 		bl	LCD_UpdateMessage
 320:.\main.c      ****         LCD_Position(1,9);
 1309              		.loc 1 320 0
 1310 0036 4FF00100 		mov	r0, #1
 1311 003a 4FF00901 		mov	r1, #9
 1312 003e FFF7FEFF 		bl	LCD_Position
 321:.\main.c      ****         LCD_PrintNumber(UART_GetRxBufferSize());
 1313              		.loc 1 321 0
 1314 0042 FFF7FEFF 		bl	UART_GetRxBufferSize
 1315 0046 0346     		mov	r3, r0
 1316 0048 1846     		mov	r0, r3
 1317 004a FFF7FEFF 		bl	LCD_PrintNumber
 322:.\main.c      ****         CyDelay(1000);
 1318              		.loc 1 322 0
 1319 004e 4FF47A70 		mov	r0, #1000
 1320 0052 FFF7FEFF 		bl	CyDelay
 323:.\main.c      ****         /**/
 324:.\main.c      ****         
 325:.\main.c      ****         
 326:.\main.c      ****         if (id != PLAYER2_ID) continue;
 1321              		.loc 1 326 0
 1322 0056 FB7B     		ldrb	r3, [r7, #15]	@ zero_extendqisi2
 1323 0058 072B     		cmp	r3, #7
 1324 005a 00D0     		beq	.L74
 1325 005c 3EE0     		b	.L75
 1326              	.L74:
 327:.\main.c      ****         
 328:.\main.c      ****         
 329:.\main.c      ****         /* DEBUG */
 330:.\main.c      ****         LCD_Position(1,14);
 1327              		.loc 1 330 0
 1328 005e 4FF00100 		mov	r0, #1
 1329 0062 4FF00E01 		mov	r1, #14
ARM GAS  C:\DOCUME~1\david\LOCALS~1\Temp\ccLm5ouk.s 			page 31


 1330 0066 FFF7FEFF 		bl	LCD_Position
 331:.\main.c      ****         LCD_PrintString("P2");
 1331              		.loc 1 331 0
 1332 006a 40F20000 		movw	r0, #:lower16:.LC29
 1333 006e C0F20000 		movt	r0, #:upper16:.LC29
 1334 0072 FFF7FEFF 		bl	LCD_PrintString
 332:.\main.c      ****         CyDelay(1000);
 1335              		.loc 1 332 0
 1336 0076 4FF47A70 		mov	r0, #1000
 1337 007a FFF7FEFF 		bl	CyDelay
 1338              	.L76:
 333:.\main.c      ****         /**/
 334:.\main.c      ****         
 335:.\main.c      ****         
 336:.\main.c      ****         while (UART_GetRxBufferSize() == 0);
 1339              		.loc 1 336 0
 1340 007e FFF7FEFF 		bl	UART_GetRxBufferSize
 1341 0082 0346     		mov	r3, r0
 1342 0084 002B     		cmp	r3, #0
 1343 0086 FAD0     		beq	.L76
 337:.\main.c      ****         if (UART_ReadRxData() != PACKET_TYPE); // DEBUG newer?
 1344              		.loc 1 337 0
 1345 0088 FFF7FEFF 		bl	UART_ReadRxData
 1346              	.L77:
 338:.\main.c      ****         
 339:.\main.c      ****         while (UART_GetRxBufferSize() == 0);
 1347              		.loc 1 339 0
 1348 008c FFF7FEFF 		bl	UART_GetRxBufferSize
 1349 0090 0346     		mov	r3, r0
 1350 0092 002B     		cmp	r3, #0
 1351 0094 FAD0     		beq	.L77
 340:.\main.c      ****         move->row = UART_ReadRxData();
 1352              		.loc 1 340 0
 1353 0096 FFF7FEFF 		bl	UART_ReadRxData
 1354 009a 0346     		mov	r3, r0
 1355 009c 1A46     		mov	r2, r3
 1356 009e 7B68     		ldr	r3, [r7, #4]
 1357 00a0 1A70     		strb	r2, [r3, #0]
 341:.\main.c      ****         if (move->row < 1 || move->row > MATRIX_ROWS-1) continue;
 1358              		.loc 1 341 0
 1359 00a2 7B68     		ldr	r3, [r7, #4]
 1360 00a4 1B78     		ldrb	r3, [r3, #0]	@ zero_extendqisi2
 1361 00a6 002B     		cmp	r3, #0
 1362 00a8 03D0     		beq	.L78
 1363 00aa 7B68     		ldr	r3, [r7, #4]
 1364 00ac 1B78     		ldrb	r3, [r3, #0]	@ zero_extendqisi2
 1365 00ae 072B     		cmp	r3, #7
 1366 00b0 00D9     		bls	.L79
 1367              	.L78:
 1368 00b2 13E0     		b	.L75
 1369              	.L79:
 342:.\main.c      ****         
 343:.\main.c      ****         while (UART_GetRxBufferSize() == 0);
 1370              		.loc 1 343 0
 1371 00b4 FFF7FEFF 		bl	UART_GetRxBufferSize
 1372 00b8 0346     		mov	r3, r0
 1373 00ba 002B     		cmp	r3, #0
ARM GAS  C:\DOCUME~1\david\LOCALS~1\Temp\ccLm5ouk.s 			page 32


 1374 00bc FAD0     		beq	.L79
 344:.\main.c      ****         move->col = UART_ReadRxData();
 1375              		.loc 1 344 0
 1376 00be FFF7FEFF 		bl	UART_ReadRxData
 1377 00c2 0346     		mov	r3, r0
 1378 00c4 1A46     		mov	r2, r3
 1379 00c6 7B68     		ldr	r3, [r7, #4]
 1380 00c8 5A70     		strb	r2, [r3, #1]
 345:.\main.c      ****         if (move->col < 1 || move->row > MATRIX_COLS) continue;
 1381              		.loc 1 345 0
 1382 00ca 7B68     		ldr	r3, [r7, #4]
 1383 00cc 5B78     		ldrb	r3, [r3, #1]	@ zero_extendqisi2
 1384 00ce 002B     		cmp	r3, #0
 1385 00d0 03D0     		beq	.L80
 1386 00d2 7B68     		ldr	r3, [r7, #4]
 1387 00d4 1B78     		ldrb	r3, [r3, #0]	@ zero_extendqisi2
 1388 00d6 082B     		cmp	r3, #8
 1389 00d8 01D9     		bls	.L84
 1390              	.L80:
 1391 00da 00BF     		nop
 1392              	.L75:
 1393              	.LBE5:
 346:.\main.c      ****         
 347:.\main.c      ****         break;
 348:.\main.c      ****     }
 1394              		.loc 1 348 0
 1395 00dc 96E7     		b	.L82
 1396              	.L84:
 349:.\main.c      **** }
 1397              		.loc 1 349 0
 1398 00de 00BF     		nop
 1399              	.L83:
 1400 00e0 07F11007 		add	r7, r7, #16
 1401 00e4 BD46     		mov	sp, r7
 1402 00e6 80BD     		pop	{r7, pc}
 1403              		.cfi_endproc
 1404              	.LFE37:
 1405              		.size	receive_packet, .-receive_packet
 1406              		.section	.rodata
 1407 0133 00       		.align	2
 1408              	.LC30:
 1409 0134 44656C69 		.ascii	"Delimiter\000"
 1409      6D697465 
 1409      7200
 1410 013e 0000     		.align	2
 1411              	.LC31:
 1412 0140 4C656E67 		.ascii	"Length\000"
 1412      746800
 1413 0147 00       		.align	2
 1414              	.LC32:
 1415 0148 41504920 		.ascii	"API ID\000"
 1415      494400
 1416 014f 00       		.align	2
 1417              	.LC33:
 1418 0150 307800   		.ascii	"0x\000"
 1419 0153 00       		.align	2
 1420              	.LC34:
ARM GAS  C:\DOCUME~1\david\LOCALS~1\Temp\ccLm5ouk.s 			page 33


 1421 0154 4672616D 		.ascii	"Frame ID\000"
 1421      65204944 
 1421      00
 1422 015d 000000   		.align	2
 1423              	.LC35:
 1424 0160 44657374 		.ascii	"Destination\000"
 1424      696E6174 
 1424      696F6E00 
 1425              		.align	2
 1426              	.LC36:
 1427 016c 44697361 		.ascii	"Disable ACK\000"
 1427      626C6520 
 1427      41434B00 
 1428              		.align	2
 1429              	.LC37:
 1430 0178 506C6179 		.ascii	"Player ID\000"
 1430      65722049 
 1430      4400
 1431 0182 0000     		.align	2
 1432              	.LC38:
 1433 0184 5061636B 		.ascii	"Packet Type\000"
 1433      65742054 
 1433      79706500 
 1434              		.align	2
 1435              	.LC39:
 1436 0190 526F7700 		.ascii	"Row\000"
 1437              		.align	2
 1438              	.LC40:
 1439 0194 436F6C75 		.ascii	"Column\000"
 1439      6D6E00
 1440 019b 00       		.align	2
 1441              	.LC41:
 1442 019c 43686563 		.ascii	"Checksum\000"
 1442      6B73756D 
 1442      00
 1443              		.section	.text.send_packet,"ax",%progbits
 1444              		.align	2
 1445              		.global	send_packet
 1446              		.thumb
 1447              		.thumb_func
 1448              		.type	send_packet, %function
 1449              	send_packet:
 1450              	.LFB38:
 350:.\main.c      **** 
 351:.\main.c      **** 
 352:.\main.c      **** 
 353:.\main.c      **** 
 354:.\main.c      **** void send_packet ( play_t * move ) {
 1451              		.loc 1 354 0
 1452              		.cfi_startproc
 1453              		@ args = 0, pretend = 0, frame = 24
 1454              		@ frame_needed = 1, uses_anonymous_args = 0
 1455 0000 80B5     		push	{r7, lr}
 1456              	.LCFI25:
 1457              		.cfi_def_cfa_offset 8
 1458 0002 86B0     		sub	sp, sp, #24
 1459              	.LCFI26:
ARM GAS  C:\DOCUME~1\david\LOCALS~1\Temp\ccLm5ouk.s 			page 34


 1460              		.cfi_def_cfa_offset 32
 1461 0004 00AF     		add	r7, sp, #0
 1462              		.cfi_offset 14, -4
 1463              		.cfi_offset 7, -8
 1464              	.LCFI27:
 1465              		.cfi_def_cfa_register 7
 1466 0006 7860     		str	r0, [r7, #4]
 355:.\main.c      **** 
 356:.\main.c      ****     /**************************/
 357:.\main.c      ****     char   delimiter   = '~';
 1467              		.loc 1 357 0
 1468 0008 4FF07E03 		mov	r3, #126
 1469 000c FB72     		strb	r3, [r7, #11]
 358:.\main.c      ****     uint8  api_id      = 0x01;
 1470              		.loc 1 358 0
 1471 000e 4FF00103 		mov	r3, #1
 1472 0012 3B73     		strb	r3, [r7, #12]
 359:.\main.c      ****     uint8  frame_id    = 0x00;
 1473              		.loc 1 359 0
 1474 0014 4FF00003 		mov	r3, #0
 1475 0018 7B73     		strb	r3, [r7, #13]
 360:.\main.c      ****     uint16 destination = 0xFFFF; // broadcast
 1476              		.loc 1 360 0
 1477 001a 4FF6FF73 		movw	r3, #65535
 1478 001e FB81     		strh	r3, [r7, #14]	@ movhi
 361:.\main.c      ****     uint8  disable_ack = 0x01;
 1479              		.loc 1 361 0
 1480 0020 4FF00103 		mov	r3, #1
 1481 0024 7B74     		strb	r3, [r7, #17]
 362:.\main.c      ****     /**************************/
 363:.\main.c      ****     
 364:.\main.c      ****     uint16 length = sizeof(destination) +
 365:.\main.c      ****                     sizeof(api_id) +
 366:.\main.c      ****                     sizeof(frame_id) +
 367:.\main.c      ****                     sizeof(disable_ack) +
 368:.\main.c      ****                     4; //Payload: Player ID, Packet Type, Row, Column
 1482              		.loc 1 368 0
 1483 0026 4FF00903 		mov	r3, #9
 1484 002a 7B82     		strh	r3, [r7, #18]	@ movhi
 369:.\main.c      ****     
 370:.\main.c      ****     uint8 checksum = 0xFF - (uint8) (api_id +
 371:.\main.c      ****                                      frame_id +
 372:.\main.c      ****                                     ((uint8) (destination >> 8)) +
 373:.\main.c      ****                                     ((uint8)  destination) +
 374:.\main.c      ****                                      disable_ack +
 375:.\main.c      ****                                      PLAYER1_ID +
 376:.\main.c      ****                                      PACKET_TYPE +
 377:.\main.c      ****                                      move->row +
 378:.\main.c      ****                                      move->col);
 1485              		.loc 1 378 0
 1486 002c 3A7B     		ldrb	r2, [r7, #12]
 1487 002e 7B7B     		ldrb	r3, [r7, #13]
 1488 0030 1344     		add	r3, r2, r3
 1489 0032 DAB2     		uxtb	r2, r3
 1490              		.loc 1 372 0
 1491 0034 FB89     		ldrh	r3, [r7, #14]
 1492 0036 4FEA1323 		lsr	r3, r3, #8
ARM GAS  C:\DOCUME~1\david\LOCALS~1\Temp\ccLm5ouk.s 			page 35


 1493 003a 9BB2     		uxth	r3, r3
 1494 003c DBB2     		uxtb	r3, r3
 1495              		.loc 1 378 0
 1496 003e 1344     		add	r3, r2, r3
 1497 0040 DAB2     		uxtb	r2, r3
 1498              		.loc 1 373 0
 1499 0042 FB89     		ldrh	r3, [r7, #14]	@ movhi
 1500 0044 DBB2     		uxtb	r3, r3
 1501              		.loc 1 378 0
 1502 0046 1344     		add	r3, r2, r3
 1503 0048 DAB2     		uxtb	r2, r3
 1504 004a 7B7C     		ldrb	r3, [r7, #17]
 1505 004c 1344     		add	r3, r2, r3
 1506 004e DAB2     		uxtb	r2, r3
 1507 0050 7B68     		ldr	r3, [r7, #4]
 1508 0052 1B78     		ldrb	r3, [r3, #0]	@ zero_extendqisi2
 1509 0054 1344     		add	r3, r2, r3
 1510 0056 DAB2     		uxtb	r2, r3
 1511 0058 7B68     		ldr	r3, [r7, #4]
 1512 005a 5B78     		ldrb	r3, [r3, #1]	@ zero_extendqisi2
 1513 005c 1344     		add	r3, r2, r3
 1514 005e DBB2     		uxtb	r3, r3
 1515 0060 A3F12603 		sub	r3, r3, #38
 1516 0064 DBB2     		uxtb	r3, r3
 1517 0066 6FEA0303 		mvn	r3, r3
 1518 006a 7B75     		strb	r3, [r7, #21]
 379:.\main.c      ****     
 380:.\main.c      ****     
 381:.\main.c      ****     /* DEBUG */
 382:.\main.c      ****     uint16 delay = 1000;
 1519              		.loc 1 382 0
 1520 006c 4FF47A73 		mov	r3, #1000
 1521 0070 FB82     		strh	r3, [r7, #22]	@ movhi
 383:.\main.c      ****     
 384:.\main.c      ****     LCD_UpdateStatus("Delimiter");
 1522              		.loc 1 384 0
 1523 0072 40F20000 		movw	r0, #:lower16:.LC30
 1524 0076 C0F20000 		movt	r0, #:upper16:.LC30
 1525 007a FFF7FEFF 		bl	LCD_UpdateStatus
 385:.\main.c      ****     LCD_ClearLine(1);
 1526              		.loc 1 385 0
 1527 007e 4FF00100 		mov	r0, #1
 1528 0082 FFF7FEFF 		bl	LCD_ClearLine
 386:.\main.c      ****     LCD_PutChar(delimiter);
 1529              		.loc 1 386 0
 1530 0086 FB7A     		ldrb	r3, [r7, #11]	@ zero_extendqisi2
 1531 0088 1846     		mov	r0, r3
 1532 008a FFF7FEFF 		bl	LCD_PutChar
 387:.\main.c      ****     LCD_Position(1,2);
 1533              		.loc 1 387 0
 1534 008e 4FF00100 		mov	r0, #1
 1535 0092 4FF00201 		mov	r1, #2
 1536 0096 FFF7FEFF 		bl	LCD_Position
 388:.\main.c      ****     LCD_PrintNumber(delimiter);
 1537              		.loc 1 388 0
 1538 009a FB7A     		ldrb	r3, [r7, #11]	@ zero_extendqisi2
 1539 009c 1846     		mov	r0, r3
ARM GAS  C:\DOCUME~1\david\LOCALS~1\Temp\ccLm5ouk.s 			page 36


 1540 009e FFF7FEFF 		bl	LCD_PrintNumber
 389:.\main.c      ****     CyDelay(delay);
 1541              		.loc 1 389 0
 1542 00a2 FB8A     		ldrh	r3, [r7, #22]
 1543 00a4 1846     		mov	r0, r3
 1544 00a6 FFF7FEFF 		bl	CyDelay
 390:.\main.c      ****     
 391:.\main.c      ****     LCD_UpdateStatus("Length");
 1545              		.loc 1 391 0
 1546 00aa 40F20000 		movw	r0, #:lower16:.LC31
 1547 00ae C0F20000 		movt	r0, #:upper16:.LC31
 1548 00b2 FFF7FEFF 		bl	LCD_UpdateStatus
 392:.\main.c      ****     LCD_ClearLine(1);
 1549              		.loc 1 392 0
 1550 00b6 4FF00100 		mov	r0, #1
 1551 00ba FFF7FEFF 		bl	LCD_ClearLine
 393:.\main.c      ****     LCD_PrintNumber(length);
 1552              		.loc 1 393 0
 1553 00be 7B8A     		ldrh	r3, [r7, #18]
 1554 00c0 1846     		mov	r0, r3
 1555 00c2 FFF7FEFF 		bl	LCD_PrintNumber
 394:.\main.c      ****     CyDelay(delay);
 1556              		.loc 1 394 0
 1557 00c6 FB8A     		ldrh	r3, [r7, #22]
 1558 00c8 1846     		mov	r0, r3
 1559 00ca FFF7FEFF 		bl	CyDelay
 395:.\main.c      ****     
 396:.\main.c      ****     LCD_UpdateStatus("API ID");
 1560              		.loc 1 396 0
 1561 00ce 40F20000 		movw	r0, #:lower16:.LC32
 1562 00d2 C0F20000 		movt	r0, #:upper16:.LC32
 1563 00d6 FFF7FEFF 		bl	LCD_UpdateStatus
 397:.\main.c      ****     LCD_ClearLine(1);
 1564              		.loc 1 397 0
 1565 00da 4FF00100 		mov	r0, #1
 1566 00de FFF7FEFF 		bl	LCD_ClearLine
 398:.\main.c      ****     LCD_PrintString("0x");
 1567              		.loc 1 398 0
 1568 00e2 40F20000 		movw	r0, #:lower16:.LC33
 1569 00e6 C0F20000 		movt	r0, #:upper16:.LC33
 1570 00ea FFF7FEFF 		bl	LCD_PrintString
 399:.\main.c      ****     LCD_PrintInt8(api_id);
 1571              		.loc 1 399 0
 1572 00ee 3B7B     		ldrb	r3, [r7, #12]	@ zero_extendqisi2
 1573 00f0 1846     		mov	r0, r3
 1574 00f2 FFF7FEFF 		bl	LCD_PrintInt8
 400:.\main.c      ****     CyDelay(delay);
 1575              		.loc 1 400 0
 1576 00f6 FB8A     		ldrh	r3, [r7, #22]
 1577 00f8 1846     		mov	r0, r3
 1578 00fa FFF7FEFF 		bl	CyDelay
 401:.\main.c      ****     
 402:.\main.c      ****     LCD_UpdateStatus("Frame ID");
 1579              		.loc 1 402 0
 1580 00fe 40F20000 		movw	r0, #:lower16:.LC34
 1581 0102 C0F20000 		movt	r0, #:upper16:.LC34
 1582 0106 FFF7FEFF 		bl	LCD_UpdateStatus
ARM GAS  C:\DOCUME~1\david\LOCALS~1\Temp\ccLm5ouk.s 			page 37


 403:.\main.c      ****     LCD_ClearLine(1);
 1583              		.loc 1 403 0
 1584 010a 4FF00100 		mov	r0, #1
 1585 010e FFF7FEFF 		bl	LCD_ClearLine
 404:.\main.c      ****     LCD_PrintString("0x");
 1586              		.loc 1 404 0
 1587 0112 40F20000 		movw	r0, #:lower16:.LC33
 1588 0116 C0F20000 		movt	r0, #:upper16:.LC33
 1589 011a FFF7FEFF 		bl	LCD_PrintString
 405:.\main.c      ****     LCD_PrintInt8(frame_id);
 1590              		.loc 1 405 0
 1591 011e 7B7B     		ldrb	r3, [r7, #13]	@ zero_extendqisi2
 1592 0120 1846     		mov	r0, r3
 1593 0122 FFF7FEFF 		bl	LCD_PrintInt8
 406:.\main.c      ****     CyDelay(delay);
 1594              		.loc 1 406 0
 1595 0126 FB8A     		ldrh	r3, [r7, #22]
 1596 0128 1846     		mov	r0, r3
 1597 012a FFF7FEFF 		bl	CyDelay
 407:.\main.c      ****     
 408:.\main.c      ****     LCD_UpdateStatus("Destination");
 1598              		.loc 1 408 0
 1599 012e 40F20000 		movw	r0, #:lower16:.LC35
 1600 0132 C0F20000 		movt	r0, #:upper16:.LC35
 1601 0136 FFF7FEFF 		bl	LCD_UpdateStatus
 409:.\main.c      ****     LCD_ClearLine(1);
 1602              		.loc 1 409 0
 1603 013a 4FF00100 		mov	r0, #1
 1604 013e FFF7FEFF 		bl	LCD_ClearLine
 410:.\main.c      ****     LCD_PrintString("0x");
 1605              		.loc 1 410 0
 1606 0142 40F20000 		movw	r0, #:lower16:.LC33
 1607 0146 C0F20000 		movt	r0, #:upper16:.LC33
 1608 014a FFF7FEFF 		bl	LCD_PrintString
 411:.\main.c      ****     LCD_PrintInt16(destination);
 1609              		.loc 1 411 0
 1610 014e FB89     		ldrh	r3, [r7, #14]
 1611 0150 1846     		mov	r0, r3
 1612 0152 FFF7FEFF 		bl	LCD_PrintInt16
 412:.\main.c      ****     CyDelay(delay);
 1613              		.loc 1 412 0
 1614 0156 FB8A     		ldrh	r3, [r7, #22]
 1615 0158 1846     		mov	r0, r3
 1616 015a FFF7FEFF 		bl	CyDelay
 413:.\main.c      ****     
 414:.\main.c      ****     LCD_UpdateStatus("Disable ACK");
 1617              		.loc 1 414 0
 1618 015e 40F20000 		movw	r0, #:lower16:.LC36
 1619 0162 C0F20000 		movt	r0, #:upper16:.LC36
 1620 0166 FFF7FEFF 		bl	LCD_UpdateStatus
 415:.\main.c      ****     LCD_ClearLine(1);
 1621              		.loc 1 415 0
 1622 016a 4FF00100 		mov	r0, #1
 1623 016e FFF7FEFF 		bl	LCD_ClearLine
 416:.\main.c      ****     LCD_PrintString("0x");
 1624              		.loc 1 416 0
 1625 0172 40F20000 		movw	r0, #:lower16:.LC33
ARM GAS  C:\DOCUME~1\david\LOCALS~1\Temp\ccLm5ouk.s 			page 38


 1626 0176 C0F20000 		movt	r0, #:upper16:.LC33
 1627 017a FFF7FEFF 		bl	LCD_PrintString
 417:.\main.c      ****     LCD_PrintInt8(disable_ack);
 1628              		.loc 1 417 0
 1629 017e 7B7C     		ldrb	r3, [r7, #17]	@ zero_extendqisi2
 1630 0180 1846     		mov	r0, r3
 1631 0182 FFF7FEFF 		bl	LCD_PrintInt8
 418:.\main.c      ****     CyDelay(delay);
 1632              		.loc 1 418 0
 1633 0186 FB8A     		ldrh	r3, [r7, #22]
 1634 0188 1846     		mov	r0, r3
 1635 018a FFF7FEFF 		bl	CyDelay
 419:.\main.c      ****     
 420:.\main.c      ****     LCD_UpdateStatus("Player ID");
 1636              		.loc 1 420 0
 1637 018e 40F20000 		movw	r0, #:lower16:.LC37
 1638 0192 C0F20000 		movt	r0, #:upper16:.LC37
 1639 0196 FFF7FEFF 		bl	LCD_UpdateStatus
 421:.\main.c      ****     LCD_ClearLine(1);
 1640              		.loc 1 421 0
 1641 019a 4FF00100 		mov	r0, #1
 1642 019e FFF7FEFF 		bl	LCD_ClearLine
 422:.\main.c      ****     LCD_PrintString("0x");
 1643              		.loc 1 422 0
 1644 01a2 40F20000 		movw	r0, #:lower16:.LC33
 1645 01a6 C0F20000 		movt	r0, #:upper16:.LC33
 1646 01aa FFF7FEFF 		bl	LCD_PrintString
 423:.\main.c      ****     LCD_PrintInt8(PLAYER1_ID);
 1647              		.loc 1 423 0
 1648 01ae 4FF0DA00 		mov	r0, #218
 1649 01b2 FFF7FEFF 		bl	LCD_PrintInt8
 424:.\main.c      ****     CyDelay(delay);
 1650              		.loc 1 424 0
 1651 01b6 FB8A     		ldrh	r3, [r7, #22]
 1652 01b8 1846     		mov	r0, r3
 1653 01ba FFF7FEFF 		bl	CyDelay
 425:.\main.c      ****     
 426:.\main.c      ****     LCD_UpdateStatus("Packet Type");
 1654              		.loc 1 426 0
 1655 01be 40F20000 		movw	r0, #:lower16:.LC38
 1656 01c2 C0F20000 		movt	r0, #:upper16:.LC38
 1657 01c6 FFF7FEFF 		bl	LCD_UpdateStatus
 427:.\main.c      ****     LCD_ClearLine(1);
 1658              		.loc 1 427 0
 1659 01ca 4FF00100 		mov	r0, #1
 1660 01ce FFF7FEFF 		bl	LCD_ClearLine
 428:.\main.c      ****     LCD_PrintString("0x");
 1661              		.loc 1 428 0
 1662 01d2 40F20000 		movw	r0, #:lower16:.LC33
 1663 01d6 C0F20000 		movt	r0, #:upper16:.LC33
 1664 01da FFF7FEFF 		bl	LCD_PrintString
 429:.\main.c      ****     LCD_PrintInt8(PACKET_TYPE);
 1665              		.loc 1 429 0
 1666 01de 4FF00000 		mov	r0, #0
 1667 01e2 FFF7FEFF 		bl	LCD_PrintInt8
 430:.\main.c      ****     CyDelay(delay);
 1668              		.loc 1 430 0
ARM GAS  C:\DOCUME~1\david\LOCALS~1\Temp\ccLm5ouk.s 			page 39


 1669 01e6 FB8A     		ldrh	r3, [r7, #22]
 1670 01e8 1846     		mov	r0, r3
 1671 01ea FFF7FEFF 		bl	CyDelay
 431:.\main.c      ****     
 432:.\main.c      ****     LCD_UpdateStatus("Row");
 1672              		.loc 1 432 0
 1673 01ee 40F20000 		movw	r0, #:lower16:.LC39
 1674 01f2 C0F20000 		movt	r0, #:upper16:.LC39
 1675 01f6 FFF7FEFF 		bl	LCD_UpdateStatus
 433:.\main.c      ****     LCD_ClearLine(1);
 1676              		.loc 1 433 0
 1677 01fa 4FF00100 		mov	r0, #1
 1678 01fe FFF7FEFF 		bl	LCD_ClearLine
 434:.\main.c      ****     LCD_PrintNumber(move->row);
 1679              		.loc 1 434 0
 1680 0202 7B68     		ldr	r3, [r7, #4]
 1681 0204 1B78     		ldrb	r3, [r3, #0]	@ zero_extendqisi2
 1682 0206 1846     		mov	r0, r3
 1683 0208 FFF7FEFF 		bl	LCD_PrintNumber
 435:.\main.c      ****     CyDelay(delay);
 1684              		.loc 1 435 0
 1685 020c FB8A     		ldrh	r3, [r7, #22]
 1686 020e 1846     		mov	r0, r3
 1687 0210 FFF7FEFF 		bl	CyDelay
 436:.\main.c      ****     
 437:.\main.c      ****     LCD_UpdateStatus("Column");
 1688              		.loc 1 437 0
 1689 0214 40F20000 		movw	r0, #:lower16:.LC40
 1690 0218 C0F20000 		movt	r0, #:upper16:.LC40
 1691 021c FFF7FEFF 		bl	LCD_UpdateStatus
 438:.\main.c      ****     LCD_ClearLine(1);
 1692              		.loc 1 438 0
 1693 0220 4FF00100 		mov	r0, #1
 1694 0224 FFF7FEFF 		bl	LCD_ClearLine
 439:.\main.c      ****     LCD_PrintNumber(move->col);
 1695              		.loc 1 439 0
 1696 0228 7B68     		ldr	r3, [r7, #4]
 1697 022a 5B78     		ldrb	r3, [r3, #1]	@ zero_extendqisi2
 1698 022c 1846     		mov	r0, r3
 1699 022e FFF7FEFF 		bl	LCD_PrintNumber
 440:.\main.c      ****     CyDelay(delay);
 1700              		.loc 1 440 0
 1701 0232 FB8A     		ldrh	r3, [r7, #22]
 1702 0234 1846     		mov	r0, r3
 1703 0236 FFF7FEFF 		bl	CyDelay
 441:.\main.c      ****     
 442:.\main.c      ****     LCD_UpdateStatus("Checksum");
 1704              		.loc 1 442 0
 1705 023a 40F20000 		movw	r0, #:lower16:.LC41
 1706 023e C0F20000 		movt	r0, #:upper16:.LC41
 1707 0242 FFF7FEFF 		bl	LCD_UpdateStatus
 443:.\main.c      ****     LCD_ClearLine(1);
 1708              		.loc 1 443 0
 1709 0246 4FF00100 		mov	r0, #1
 1710 024a FFF7FEFF 		bl	LCD_ClearLine
 444:.\main.c      ****     LCD_PrintString("0x");
 1711              		.loc 1 444 0
ARM GAS  C:\DOCUME~1\david\LOCALS~1\Temp\ccLm5ouk.s 			page 40


 1712 024e 40F20000 		movw	r0, #:lower16:.LC33
 1713 0252 C0F20000 		movt	r0, #:upper16:.LC33
 1714 0256 FFF7FEFF 		bl	LCD_PrintString
 445:.\main.c      ****     LCD_PrintInt8(checksum);
 1715              		.loc 1 445 0
 1716 025a 7B7D     		ldrb	r3, [r7, #21]	@ zero_extendqisi2
 1717 025c 1846     		mov	r0, r3
 1718 025e FFF7FEFF 		bl	LCD_PrintInt8
 446:.\main.c      ****     CyDelay(delay);
 1719              		.loc 1 446 0
 1720 0262 FB8A     		ldrh	r3, [r7, #22]
 1721 0264 1846     		mov	r0, r3
 1722 0266 FFF7FEFF 		bl	CyDelay
 447:.\main.c      ****     /**/
 448:.\main.c      ****     
 449:.\main.c      ****     
 450:.\main.c      ****     UART_ClearTxBuffer();
 1723              		.loc 1 450 0
 1724 026a FFF7FEFF 		bl	UART_ClearTxBuffer
 451:.\main.c      ****     UART_WriteTxData(delimiter);
 1725              		.loc 1 451 0
 1726 026e FB7A     		ldrb	r3, [r7, #11]	@ zero_extendqisi2
 1727 0270 1846     		mov	r0, r3
 1728 0272 FFF7FEFF 		bl	UART_WriteTxData
 452:.\main.c      ****     UART_WriteTxData((uint8) (length >> 8));
 1729              		.loc 1 452 0
 1730 0276 7B8A     		ldrh	r3, [r7, #18]
 1731 0278 4FEA1323 		lsr	r3, r3, #8
 1732 027c 9BB2     		uxth	r3, r3
 1733 027e DBB2     		uxtb	r3, r3
 1734 0280 1846     		mov	r0, r3
 1735 0282 FFF7FEFF 		bl	UART_WriteTxData
 453:.\main.c      ****     UART_WriteTxData((uint8)  length);
 1736              		.loc 1 453 0
 1737 0286 7B8A     		ldrh	r3, [r7, #18]	@ movhi
 1738 0288 DBB2     		uxtb	r3, r3
 1739 028a 1846     		mov	r0, r3
 1740 028c FFF7FEFF 		bl	UART_WriteTxData
 454:.\main.c      ****     UART_WriteTxData(api_id);
 1741              		.loc 1 454 0
 1742 0290 3B7B     		ldrb	r3, [r7, #12]	@ zero_extendqisi2
 1743 0292 1846     		mov	r0, r3
 1744 0294 FFF7FEFF 		bl	UART_WriteTxData
 455:.\main.c      ****     UART_WriteTxData(frame_id);
 1745              		.loc 1 455 0
 1746 0298 7B7B     		ldrb	r3, [r7, #13]	@ zero_extendqisi2
 1747 029a 1846     		mov	r0, r3
 1748 029c FFF7FEFF 		bl	UART_WriteTxData
 456:.\main.c      ****     UART_WriteTxData((uint8) (destination >> 8));
 1749              		.loc 1 456 0
 1750 02a0 FB89     		ldrh	r3, [r7, #14]
 1751 02a2 4FEA1323 		lsr	r3, r3, #8
 1752 02a6 9BB2     		uxth	r3, r3
 1753 02a8 DBB2     		uxtb	r3, r3
 1754 02aa 1846     		mov	r0, r3
 1755 02ac FFF7FEFF 		bl	UART_WriteTxData
 457:.\main.c      ****     UART_WriteTxData((uint8)  destination);
ARM GAS  C:\DOCUME~1\david\LOCALS~1\Temp\ccLm5ouk.s 			page 41


 1756              		.loc 1 457 0
 1757 02b0 FB89     		ldrh	r3, [r7, #14]	@ movhi
 1758 02b2 DBB2     		uxtb	r3, r3
 1759 02b4 1846     		mov	r0, r3
 1760 02b6 FFF7FEFF 		bl	UART_WriteTxData
 458:.\main.c      ****     UART_WriteTxData(disable_ack);
 1761              		.loc 1 458 0
 1762 02ba 7B7C     		ldrb	r3, [r7, #17]	@ zero_extendqisi2
 1763 02bc 1846     		mov	r0, r3
 1764 02be FFF7FEFF 		bl	UART_WriteTxData
 459:.\main.c      ****     UART_WriteTxData(PLAYER1_ID);
 1765              		.loc 1 459 0
 1766 02c2 4FF0DA00 		mov	r0, #218
 1767 02c6 FFF7FEFF 		bl	UART_WriteTxData
 460:.\main.c      ****     UART_WriteTxData(PACKET_TYPE);
 1768              		.loc 1 460 0
 1769 02ca 4FF00000 		mov	r0, #0
 1770 02ce FFF7FEFF 		bl	UART_WriteTxData
 461:.\main.c      ****     UART_WriteTxData(move->row);
 1771              		.loc 1 461 0
 1772 02d2 7B68     		ldr	r3, [r7, #4]
 1773 02d4 1B78     		ldrb	r3, [r3, #0]	@ zero_extendqisi2
 1774 02d6 1846     		mov	r0, r3
 1775 02d8 FFF7FEFF 		bl	UART_WriteTxData
 462:.\main.c      ****     UART_WriteTxData(move->col);
 1776              		.loc 1 462 0
 1777 02dc 7B68     		ldr	r3, [r7, #4]
 1778 02de 5B78     		ldrb	r3, [r3, #1]	@ zero_extendqisi2
 1779 02e0 1846     		mov	r0, r3
 1780 02e2 FFF7FEFF 		bl	UART_WriteTxData
 463:.\main.c      ****     UART_WriteTxData(checksum);
 1781              		.loc 1 463 0
 1782 02e6 7B7D     		ldrb	r3, [r7, #21]	@ zero_extendqisi2
 1783 02e8 1846     		mov	r0, r3
 1784 02ea FFF7FEFF 		bl	UART_WriteTxData
 464:.\main.c      **** }
 1785              		.loc 1 464 0
 1786 02ee 07F11807 		add	r7, r7, #24
 1787 02f2 BD46     		mov	sp, r7
 1788 02f4 80BD     		pop	{r7, pc}
 1789              		.cfi_endproc
 1790              	.LFE38:
 1791              		.size	send_packet, .-send_packet
 1792 02f6 00BF     		.section	.text.send_move,"ax",%progbits
 1793              		.align	2
 1794              		.global	send_move
 1795              		.thumb
 1796              		.thumb_func
 1797              		.type	send_move, %function
 1798              	send_move:
 1799              	.LFB39:
 465:.\main.c      **** 
 466:.\main.c      **** 
 467:.\main.c      **** 
 468:.\main.c      **** 
 469:.\main.c      **** void send_move ( uint8 row , uint8 col )  {
 1800              		.loc 1 469 0
ARM GAS  C:\DOCUME~1\david\LOCALS~1\Temp\ccLm5ouk.s 			page 42


 1801              		.cfi_startproc
 1802              		@ args = 0, pretend = 0, frame = 8
 1803              		@ frame_needed = 1, uses_anonymous_args = 0
 1804 0000 80B5     		push	{r7, lr}
 1805              	.LCFI28:
 1806              		.cfi_def_cfa_offset 8
 1807 0002 82B0     		sub	sp, sp, #8
 1808              	.LCFI29:
 1809              		.cfi_def_cfa_offset 16
 1810 0004 00AF     		add	r7, sp, #0
 1811              		.cfi_offset 14, -4
 1812              		.cfi_offset 7, -8
 1813              	.LCFI30:
 1814              		.cfi_def_cfa_register 7
 1815 0006 0246     		mov	r2, r0
 1816 0008 0B46     		mov	r3, r1
 1817 000a FA71     		strb	r2, [r7, #7]
 1818 000c BB71     		strb	r3, [r7, #6]
 470:.\main.c      ****     last_move.row = row;
 1819              		.loc 1 470 0
 1820 000e 40F20003 		movw	r3, #:lower16:last_move
 1821 0012 C0F20003 		movt	r3, #:upper16:last_move
 1822 0016 FA79     		ldrb	r2, [r7, #7]
 1823 0018 1A70     		strb	r2, [r3, #0]
 471:.\main.c      ****     last_move.col = col;
 1824              		.loc 1 471 0
 1825 001a 40F20003 		movw	r3, #:lower16:last_move
 1826 001e C0F20003 		movt	r3, #:upper16:last_move
 1827 0022 BA79     		ldrb	r2, [r7, #6]
 1828 0024 5A70     		strb	r2, [r3, #1]
 472:.\main.c      ****     send_packet(&last_move);
 1829              		.loc 1 472 0
 1830 0026 40F20000 		movw	r0, #:lower16:last_move
 1831 002a C0F20000 		movt	r0, #:upper16:last_move
 1832 002e FFF7FEFF 		bl	send_packet
 473:.\main.c      **** }
 1833              		.loc 1 473 0
 1834 0032 07F10807 		add	r7, r7, #8
 1835 0036 BD46     		mov	sp, r7
 1836 0038 80BD     		pop	{r7, pc}
 1837              		.cfi_endproc
 1838              	.LFE39:
 1839              		.size	send_move, .-send_move
 1840              		.section	.text.animate,"ax",%progbits
 1841              		.align	2
 1842              		.global	animate
 1843              		.thumb
 1844              		.thumb_func
 1845              		.type	animate, %function
 1846              	animate:
 1847              	.LFB40:
 474:.\main.c      **** 
 475:.\main.c      **** 
 476:.\main.c      **** 
 477:.\main.c      **** 
 478:.\main.c      **** uint8 animate ( uint8 col ) {
 1848              		.loc 1 478 0
ARM GAS  C:\DOCUME~1\david\LOCALS~1\Temp\ccLm5ouk.s 			page 43


 1849              		.cfi_startproc
 1850              		@ args = 0, pretend = 0, frame = 16
 1851              		@ frame_needed = 1, uses_anonymous_args = 0
 1852 0000 80B5     		push	{r7, lr}
 1853              	.LCFI31:
 1854              		.cfi_def_cfa_offset 8
 1855 0002 84B0     		sub	sp, sp, #16
 1856              	.LCFI32:
 1857              		.cfi_def_cfa_offset 24
 1858 0004 00AF     		add	r7, sp, #0
 1859              		.cfi_offset 14, -4
 1860              		.cfi_offset 7, -8
 1861              	.LCFI33:
 1862              		.cfi_def_cfa_register 7
 1863 0006 0346     		mov	r3, r0
 1864 0008 FB71     		strb	r3, [r7, #7]
 479:.\main.c      ****     uint8 row;
 480:.\main.c      ****     for (row=1; row < MATRIX_ROWS ;++row) {
 1865              		.loc 1 480 0
 1866 000a 4FF00103 		mov	r3, #1
 1867 000e FB73     		strb	r3, [r7, #15]
 1868 0010 6CE0     		b	.L90
 1869              	.L96:
 481:.\main.c      ****         if (player1_turn) player1[row][col] = true;
 1870              		.loc 1 481 0
 1871 0012 40F20003 		movw	r3, #:lower16:player1_turn
 1872 0016 C0F20003 		movt	r3, #:upper16:player1_turn
 1873 001a 1B78     		ldrb	r3, [r3, #0]	@ zero_extendqisi2
 1874 001c 002B     		cmp	r3, #0
 1875 001e 0DD0     		beq	.L91
 1876 0020 F97B     		ldrb	r1, [r7, #15]	@ zero_extendqisi2
 1877 0022 FA79     		ldrb	r2, [r7, #7]	@ zero_extendqisi2
 1878 0024 40F20003 		movw	r3, #:lower16:player1
 1879 0028 C0F20003 		movt	r3, #:upper16:player1
 1880 002c 4FEAC101 		lsl	r1, r1, #3
 1881 0030 0A44     		add	r2, r1, r2
 1882 0032 1344     		add	r3, r2, r3
 1883 0034 4FF00102 		mov	r2, #1
 1884 0038 1A70     		strb	r2, [r3, #0]
 1885 003a 0CE0     		b	.L92
 1886              	.L91:
 482:.\main.c      ****         else              player2[row][col] = true;
 1887              		.loc 1 482 0
 1888 003c F97B     		ldrb	r1, [r7, #15]	@ zero_extendqisi2
 1889 003e FA79     		ldrb	r2, [r7, #7]	@ zero_extendqisi2
 1890 0040 40F20003 		movw	r3, #:lower16:player2
 1891 0044 C0F20003 		movt	r3, #:upper16:player2
 1892 0048 4FEAC101 		lsl	r1, r1, #3
 1893 004c 0A44     		add	r2, r1, r2
 1894 004e 1344     		add	r3, r2, r3
 1895 0050 4FF00102 		mov	r2, #1
 1896 0054 1A70     		strb	r2, [r3, #0]
 1897              	.L92:
 483:.\main.c      ****         if (player1[row+1][col] || player2[row+1][col] || row+1 == MATRIX_ROWS) break;
 1898              		.loc 1 483 0
 1899 0056 FB7B     		ldrb	r3, [r7, #15]	@ zero_extendqisi2
 1900 0058 03F10101 		add	r1, r3, #1
ARM GAS  C:\DOCUME~1\david\LOCALS~1\Temp\ccLm5ouk.s 			page 44


 1901 005c FA79     		ldrb	r2, [r7, #7]	@ zero_extendqisi2
 1902 005e 40F20003 		movw	r3, #:lower16:player1
 1903 0062 C0F20003 		movt	r3, #:upper16:player1
 1904 0066 4FEAC101 		lsl	r1, r1, #3
 1905 006a 0A44     		add	r2, r1, r2
 1906 006c 1344     		add	r3, r2, r3
 1907 006e 1B78     		ldrb	r3, [r3, #0]	@ zero_extendqisi2
 1908 0070 002B     		cmp	r3, #0
 1909 0072 3ED1     		bne	.L93
 1910 0074 FB7B     		ldrb	r3, [r7, #15]	@ zero_extendqisi2
 1911 0076 03F10101 		add	r1, r3, #1
 1912 007a FA79     		ldrb	r2, [r7, #7]	@ zero_extendqisi2
 1913 007c 40F20003 		movw	r3, #:lower16:player2
 1914 0080 C0F20003 		movt	r3, #:upper16:player2
 1915 0084 4FEAC101 		lsl	r1, r1, #3
 1916 0088 0A44     		add	r2, r1, r2
 1917 008a 1344     		add	r3, r2, r3
 1918 008c 1B78     		ldrb	r3, [r3, #0]	@ zero_extendqisi2
 1919 008e 002B     		cmp	r3, #0
 1920 0090 2FD1     		bne	.L93
 1921 0092 FB7B     		ldrb	r3, [r7, #15]	@ zero_extendqisi2
 1922 0094 072B     		cmp	r3, #7
 1923 0096 2CD0     		beq	.L93
 484:.\main.c      ****         else CyDelay(20);
 1924              		.loc 1 484 0
 1925 0098 4FF01400 		mov	r0, #20
 1926 009c FFF7FEFF 		bl	CyDelay
 485:.\main.c      ****         if (player1_turn) player1[row][col] = false;
 1927              		.loc 1 485 0
 1928 00a0 40F20003 		movw	r3, #:lower16:player1_turn
 1929 00a4 C0F20003 		movt	r3, #:upper16:player1_turn
 1930 00a8 1B78     		ldrb	r3, [r3, #0]	@ zero_extendqisi2
 1931 00aa 002B     		cmp	r3, #0
 1932 00ac 0DD0     		beq	.L94
 1933 00ae F97B     		ldrb	r1, [r7, #15]	@ zero_extendqisi2
 1934 00b0 FA79     		ldrb	r2, [r7, #7]	@ zero_extendqisi2
 1935 00b2 40F20003 		movw	r3, #:lower16:player1
 1936 00b6 C0F20003 		movt	r3, #:upper16:player1
 1937 00ba 4FEAC101 		lsl	r1, r1, #3
 1938 00be 0A44     		add	r2, r1, r2
 1939 00c0 1344     		add	r3, r2, r3
 1940 00c2 4FF00002 		mov	r2, #0
 1941 00c6 1A70     		strb	r2, [r3, #0]
 1942 00c8 0CE0     		b	.L95
 1943              	.L94:
 486:.\main.c      ****         else              player2[row][col] = false;
 1944              		.loc 1 486 0
 1945 00ca F97B     		ldrb	r1, [r7, #15]	@ zero_extendqisi2
 1946 00cc FA79     		ldrb	r2, [r7, #7]	@ zero_extendqisi2
 1947 00ce 40F20003 		movw	r3, #:lower16:player2
 1948 00d2 C0F20003 		movt	r3, #:upper16:player2
 1949 00d6 4FEAC101 		lsl	r1, r1, #3
 1950 00da 0A44     		add	r2, r1, r2
 1951 00dc 1344     		add	r3, r2, r3
 1952 00de 4FF00002 		mov	r2, #0
 1953 00e2 1A70     		strb	r2, [r3, #0]
 1954              	.L95:
ARM GAS  C:\DOCUME~1\david\LOCALS~1\Temp\ccLm5ouk.s 			page 45


 1955              		.loc 1 480 0
 1956 00e4 FB7B     		ldrb	r3, [r7, #15]
 1957 00e6 03F10103 		add	r3, r3, #1
 1958 00ea FB73     		strb	r3, [r7, #15]
 1959              	.L90:
 1960 00ec FB7B     		ldrb	r3, [r7, #15]	@ zero_extendqisi2
 1961 00ee 072B     		cmp	r3, #7
 1962 00f0 8FD9     		bls	.L96
 1963              	.L93:
 487:.\main.c      ****     }
 488:.\main.c      ****     return row;
 1964              		.loc 1 488 0
 1965 00f2 FB7B     		ldrb	r3, [r7, #15]	@ zero_extendqisi2
 489:.\main.c      **** }
 1966              		.loc 1 489 0
 1967 00f4 1846     		mov	r0, r3
 1968 00f6 07F11007 		add	r7, r7, #16
 1969 00fa BD46     		mov	sp, r7
 1970 00fc 80BD     		pop	{r7, pc}
 1971              		.cfi_endproc
 1972              	.LFE40:
 1973              		.size	animate, .-animate
 1974 00fe 00BF     		.section	.rodata
 1975 01a5 000000   		.align	2
 1976              	.LC42:
 1977 01a8 596F7520 		.ascii	"You win!\000"
 1977      77696E21 
 1977      00
 1978              		.section	.text.winner_check,"ax",%progbits
 1979              		.align	2
 1980              		.global	winner_check
 1981              		.thumb
 1982              		.thumb_func
 1983              		.type	winner_check, %function
 1984              	winner_check:
 1985              	.LFB41:
 490:.\main.c      **** 
 491:.\main.c      **** 
 492:.\main.c      **** 
 493:.\main.c      **** 
 494:.\main.c      **** void winner_check () {
 1986              		.loc 1 494 0
 1987              		.cfi_startproc
 1988              		@ args = 0, pretend = 0, frame = 16
 1989              		@ frame_needed = 1, uses_anonymous_args = 0
 1990 0000 80B5     		push	{r7, lr}
 1991              	.LCFI34:
 1992              		.cfi_def_cfa_offset 8
 1993 0002 84B0     		sub	sp, sp, #16
 1994              	.LCFI35:
 1995              		.cfi_def_cfa_offset 24
 1996 0004 00AF     		add	r7, sp, #0
 1997              		.cfi_offset 14, -4
 1998              		.cfi_offset 7, -8
 1999              	.LCFI36:
 2000              		.cfi_def_cfa_register 7
 495:.\main.c      ****     uint8 row, col;
ARM GAS  C:\DOCUME~1\david\LOCALS~1\Temp\ccLm5ouk.s 			page 46


 496:.\main.c      ****     uint16 strobe = 100;
 2001              		.loc 1 496 0
 2002 0006 4FF06403 		mov	r3, #100
 2003 000a 7B80     		strh	r3, [r7, #2]	@ movhi
 497:.\main.c      ****     for (row=1; row < MATRIX_ROWS ;++row) {
 2004              		.loc 1 497 0
 2005 000c 4FF00103 		mov	r3, #1
 2006 0010 3B70     		strb	r3, [r7, #0]
 2007 0012 77E2     		b	.L99
 2008              	.L154:
 498:.\main.c      ****         for (col=0; col < MATRIX_COLS ;++col) {
 2009              		.loc 1 498 0
 2010 0014 4FF00003 		mov	r3, #0
 2011 0018 7B70     		strb	r3, [r7, #1]
 2012 001a 6BE2     		b	.L100
 2013              	.L153:
 2014              	.LBB6:
 499:.\main.c      ****             int offset;
 500:.\main.c      ****             
 501:.\main.c      ****             //vertical
 502:.\main.c      ****             if (row < MATRIX_ROWS-3) {
 2015              		.loc 1 502 0
 2016 001c 3B78     		ldrb	r3, [r7, #0]	@ zero_extendqisi2
 2017 001e 042B     		cmp	r3, #4
 2018 0020 00F29180 		bhi	.L101
 2019              	.LBB7:
 503:.\main.c      ****                 bool win = true;
 2020              		.loc 1 503 0
 2021 0024 4FF00103 		mov	r3, #1
 2022 0028 3B72     		strb	r3, [r7, #8]
 504:.\main.c      ****                 for (offset=0; win && offset < 4 ;++offset) {
 2023              		.loc 1 504 0
 2024 002a 4FF00003 		mov	r3, #0
 2025 002e 7B60     		str	r3, [r7, #4]
 2026 0030 39E0     		b	.L102
 2027              	.L107:
 505:.\main.c      ****                     if (player1_turn) { if (!player1[row+offset][col]) win = false; }
 2028              		.loc 1 505 0
 2029 0032 40F20003 		movw	r3, #:lower16:player1_turn
 2030 0036 C0F20003 		movt	r3, #:upper16:player1_turn
 2031 003a 1B78     		ldrb	r3, [r3, #0]	@ zero_extendqisi2
 2032 003c 002B     		cmp	r3, #0
 2033 003e 16D0     		beq	.L103
 2034 0040 3A78     		ldrb	r2, [r7, #0]	@ zero_extendqisi2
 2035 0042 7B68     		ldr	r3, [r7, #4]
 2036 0044 02EB0301 		add	r1, r2, r3
 2037 0048 7A78     		ldrb	r2, [r7, #1]	@ zero_extendqisi2
 2038 004a 40F20003 		movw	r3, #:lower16:player1
 2039 004e C0F20003 		movt	r3, #:upper16:player1
 2040 0052 4FEAC101 		lsl	r1, r1, #3
 2041 0056 0A44     		add	r2, r1, r2
 2042 0058 1344     		add	r3, r2, r3
 2043 005a 1B78     		ldrb	r3, [r3, #0]	@ zero_extendqisi2
 2044 005c 83F00103 		eor	r3, r3, #1
 2045 0060 DBB2     		uxtb	r3, r3
 2046 0062 002B     		cmp	r3, #0
 2047 0064 1AD0     		beq	.L156
ARM GAS  C:\DOCUME~1\david\LOCALS~1\Temp\ccLm5ouk.s 			page 47


 2048 0066 4FF00003 		mov	r3, #0
 2049 006a 3B72     		strb	r3, [r7, #8]
 2050 006c 17E0     		b	.L105
 2051              	.L103:
 506:.\main.c      ****                     else              { if (!player2[row+offset][col]) win = false; }
 2052              		.loc 1 506 0
 2053 006e 3A78     		ldrb	r2, [r7, #0]	@ zero_extendqisi2
 2054 0070 7B68     		ldr	r3, [r7, #4]
 2055 0072 02EB0301 		add	r1, r2, r3
 2056 0076 7A78     		ldrb	r2, [r7, #1]	@ zero_extendqisi2
 2057 0078 40F20003 		movw	r3, #:lower16:player2
 2058 007c C0F20003 		movt	r3, #:upper16:player2
 2059 0080 4FEAC101 		lsl	r1, r1, #3
 2060 0084 0A44     		add	r2, r1, r2
 2061 0086 1344     		add	r3, r2, r3
 2062 0088 1B78     		ldrb	r3, [r3, #0]	@ zero_extendqisi2
 2063 008a 83F00103 		eor	r3, r3, #1
 2064 008e DBB2     		uxtb	r3, r3
 2065 0090 002B     		cmp	r3, #0
 2066 0092 04D0     		beq	.L105
 2067 0094 4FF00003 		mov	r3, #0
 2068 0098 3B72     		strb	r3, [r7, #8]
 2069 009a 00E0     		b	.L105
 2070              	.L156:
 2071              		.loc 1 505 0
 2072 009c 00BF     		nop
 2073              	.L105:
 2074              		.loc 1 504 0
 2075 009e 7B68     		ldr	r3, [r7, #4]
 2076 00a0 03F10103 		add	r3, r3, #1
 2077 00a4 7B60     		str	r3, [r7, #4]
 2078              	.L102:
 2079 00a6 3B7A     		ldrb	r3, [r7, #8]	@ zero_extendqisi2
 2080 00a8 002B     		cmp	r3, #0
 2081 00aa 02D0     		beq	.L106
 2082 00ac 7B68     		ldr	r3, [r7, #4]
 2083 00ae 032B     		cmp	r3, #3
 2084 00b0 BFDD     		ble	.L107
 2085              	.L106:
 507:.\main.c      ****                 }
 508:.\main.c      ****                 if (win) {
 2086              		.loc 1 508 0
 2087 00b2 3B7A     		ldrb	r3, [r7, #8]	@ zero_extendqisi2
 2088 00b4 002B     		cmp	r3, #0
 2089 00b6 46D0     		beq	.L101
 2090              	.LBB8:
 509:.\main.c      ****                     LCD_UpdateMessage("You win!");
 2091              		.loc 1 509 0
 2092 00b8 40F20000 		movw	r0, #:lower16:.LC42
 2093 00bc C0F20000 		movt	r0, #:upper16:.LC42
 2094 00c0 FFF7FEFF 		bl	LCD_UpdateMessage
 510:.\main.c      ****                     bool blink = false;
 2095              		.loc 1 510 0
 2096 00c4 4FF00003 		mov	r3, #0
 2097 00c8 7B72     		strb	r3, [r7, #9]
 2098              	.L113:
 511:.\main.c      ****                     while (true) {
ARM GAS  C:\DOCUME~1\david\LOCALS~1\Temp\ccLm5ouk.s 			page 48


 512:.\main.c      ****                         for (offset=0; win && offset < 4 ;++offset) {
 2099              		.loc 1 512 0
 2100 00ca 4FF00003 		mov	r3, #0
 2101 00ce 7B60     		str	r3, [r7, #4]
 2102 00d0 29E0     		b	.L108
 2103              	.L112:
 513:.\main.c      ****                             if (player1_turn) player1[row+offset][col] = blink;
 2104              		.loc 1 513 0
 2105 00d2 40F20003 		movw	r3, #:lower16:player1_turn
 2106 00d6 C0F20003 		movt	r3, #:upper16:player1_turn
 2107 00da 1B78     		ldrb	r3, [r3, #0]	@ zero_extendqisi2
 2108 00dc 002B     		cmp	r3, #0
 2109 00de 0FD0     		beq	.L109
 2110 00e0 3A78     		ldrb	r2, [r7, #0]	@ zero_extendqisi2
 2111 00e2 7B68     		ldr	r3, [r7, #4]
 2112 00e4 02EB0301 		add	r1, r2, r3
 2113 00e8 7A78     		ldrb	r2, [r7, #1]	@ zero_extendqisi2
 2114 00ea 40F20003 		movw	r3, #:lower16:player1
 2115 00ee C0F20003 		movt	r3, #:upper16:player1
 2116 00f2 4FEAC101 		lsl	r1, r1, #3
 2117 00f6 0A44     		add	r2, r1, r2
 2118 00f8 1344     		add	r3, r2, r3
 2119 00fa 7A7A     		ldrb	r2, [r7, #9]
 2120 00fc 1A70     		strb	r2, [r3, #0]
 2121 00fe 0EE0     		b	.L110
 2122              	.L109:
 514:.\main.c      ****                             else              player2[row+offset][col] = blink;
 2123              		.loc 1 514 0
 2124 0100 3A78     		ldrb	r2, [r7, #0]	@ zero_extendqisi2
 2125 0102 7B68     		ldr	r3, [r7, #4]
 2126 0104 02EB0301 		add	r1, r2, r3
 2127 0108 7A78     		ldrb	r2, [r7, #1]	@ zero_extendqisi2
 2128 010a 40F20003 		movw	r3, #:lower16:player2
 2129 010e C0F20003 		movt	r3, #:upper16:player2
 2130 0112 4FEAC101 		lsl	r1, r1, #3
 2131 0116 0A44     		add	r2, r1, r2
 2132 0118 1344     		add	r3, r2, r3
 2133 011a 7A7A     		ldrb	r2, [r7, #9]
 2134 011c 1A70     		strb	r2, [r3, #0]
 2135              	.L110:
 2136              		.loc 1 512 0
 2137 011e 7B68     		ldr	r3, [r7, #4]
 2138 0120 03F10103 		add	r3, r3, #1
 2139 0124 7B60     		str	r3, [r7, #4]
 2140              	.L108:
 2141 0126 3B7A     		ldrb	r3, [r7, #8]	@ zero_extendqisi2
 2142 0128 002B     		cmp	r3, #0
 2143 012a 02D0     		beq	.L111
 2144 012c 7B68     		ldr	r3, [r7, #4]
 2145 012e 032B     		cmp	r3, #3
 2146 0130 CFDD     		ble	.L112
 2147              	.L111:
 515:.\main.c      ****                         }
 516:.\main.c      ****                         CyDelay(strobe);
 2148              		.loc 1 516 0
 2149 0132 7B88     		ldrh	r3, [r7, #2]
 2150 0134 1846     		mov	r0, r3
ARM GAS  C:\DOCUME~1\david\LOCALS~1\Temp\ccLm5ouk.s 			page 49


 2151 0136 FFF7FEFF 		bl	CyDelay
 517:.\main.c      ****                         blink = !blink;
 2152              		.loc 1 517 0
 2153 013a 7B7A     		ldrb	r3, [r7, #9]
 2154 013c 83F00103 		eor	r3, r3, #1
 2155 0140 DBB2     		uxtb	r3, r3
 2156 0142 7B72     		strb	r3, [r7, #9]
 518:.\main.c      ****                     }
 2157              		.loc 1 518 0
 2158 0144 C1E7     		b	.L113
 2159              	.L101:
 2160              	.LBE8:
 2161              	.LBE7:
 519:.\main.c      ****                 }
 520:.\main.c      ****             }
 521:.\main.c      ****             
 522:.\main.c      ****             //lateral
 523:.\main.c      ****             if (col < MATRIX_COLS-3) {
 2162              		.loc 1 523 0
 2163 0146 7B78     		ldrb	r3, [r7, #1]	@ zero_extendqisi2
 2164 0148 042B     		cmp	r3, #4
 2165 014a 00F28D80 		bhi	.L114
 2166              	.LBB9:
 524:.\main.c      ****                 bool win = true;
 2167              		.loc 1 524 0
 2168 014e 4FF00103 		mov	r3, #1
 2169 0152 BB72     		strb	r3, [r7, #10]
 525:.\main.c      ****                 for (offset=0; win && offset < 4 ;++offset) {
 2170              		.loc 1 525 0
 2171 0154 4FF00003 		mov	r3, #0
 2172 0158 7B60     		str	r3, [r7, #4]
 2173 015a 37E0     		b	.L115
 2174              	.L120:
 526:.\main.c      ****                     if (player1_turn) { if (!player1[row][col+offset]) win = false; }
 2175              		.loc 1 526 0
 2176 015c 40F20003 		movw	r3, #:lower16:player1_turn
 2177 0160 C0F20003 		movt	r3, #:upper16:player1_turn
 2178 0164 1B78     		ldrb	r3, [r3, #0]	@ zero_extendqisi2
 2179 0166 002B     		cmp	r3, #0
 2180 0168 15D0     		beq	.L116
 2181 016a 3978     		ldrb	r1, [r7, #0]	@ zero_extendqisi2
 2182 016c 7A78     		ldrb	r2, [r7, #1]	@ zero_extendqisi2
 2183 016e 7B68     		ldr	r3, [r7, #4]
 2184 0170 1A44     		add	r2, r2, r3
 2185 0172 40F20003 		movw	r3, #:lower16:player1
 2186 0176 C0F20003 		movt	r3, #:upper16:player1
 2187 017a 4FEAC101 		lsl	r1, r1, #3
 2188 017e 0A44     		add	r2, r1, r2
 2189 0180 1344     		add	r3, r2, r3
 2190 0182 1B78     		ldrb	r3, [r3, #0]	@ zero_extendqisi2
 2191 0184 83F00103 		eor	r3, r3, #1
 2192 0188 DBB2     		uxtb	r3, r3
 2193 018a 002B     		cmp	r3, #0
 2194 018c 19D0     		beq	.L157
 2195 018e 4FF00003 		mov	r3, #0
 2196 0192 BB72     		strb	r3, [r7, #10]
 2197 0194 16E0     		b	.L118
ARM GAS  C:\DOCUME~1\david\LOCALS~1\Temp\ccLm5ouk.s 			page 50


 2198              	.L116:
 527:.\main.c      ****                     else              { if (!player2[row][col+offset]) win = false; }
 2199              		.loc 1 527 0
 2200 0196 3978     		ldrb	r1, [r7, #0]	@ zero_extendqisi2
 2201 0198 7A78     		ldrb	r2, [r7, #1]	@ zero_extendqisi2
 2202 019a 7B68     		ldr	r3, [r7, #4]
 2203 019c 1A44     		add	r2, r2, r3
 2204 019e 40F20003 		movw	r3, #:lower16:player2
 2205 01a2 C0F20003 		movt	r3, #:upper16:player2
 2206 01a6 4FEAC101 		lsl	r1, r1, #3
 2207 01aa 0A44     		add	r2, r1, r2
 2208 01ac 1344     		add	r3, r2, r3
 2209 01ae 1B78     		ldrb	r3, [r3, #0]	@ zero_extendqisi2
 2210 01b0 83F00103 		eor	r3, r3, #1
 2211 01b4 DBB2     		uxtb	r3, r3
 2212 01b6 002B     		cmp	r3, #0
 2213 01b8 04D0     		beq	.L118
 2214 01ba 4FF00003 		mov	r3, #0
 2215 01be BB72     		strb	r3, [r7, #10]
 2216 01c0 00E0     		b	.L118
 2217              	.L157:
 2218              		.loc 1 526 0
 2219 01c2 00BF     		nop
 2220              	.L118:
 2221              		.loc 1 525 0
 2222 01c4 7B68     		ldr	r3, [r7, #4]
 2223 01c6 03F10103 		add	r3, r3, #1
 2224 01ca 7B60     		str	r3, [r7, #4]
 2225              	.L115:
 2226 01cc BB7A     		ldrb	r3, [r7, #10]	@ zero_extendqisi2
 2227 01ce 002B     		cmp	r3, #0
 2228 01d0 02D0     		beq	.L119
 2229 01d2 7B68     		ldr	r3, [r7, #4]
 2230 01d4 032B     		cmp	r3, #3
 2231 01d6 C1DD     		ble	.L120
 2232              	.L119:
 528:.\main.c      ****                 }
 529:.\main.c      ****                 if (win) {
 2233              		.loc 1 529 0
 2234 01d8 BB7A     		ldrb	r3, [r7, #10]	@ zero_extendqisi2
 2235 01da 002B     		cmp	r3, #0
 2236 01dc 44D0     		beq	.L114
 2237              	.LBB10:
 530:.\main.c      ****                     LCD_UpdateMessage("You win!");
 2238              		.loc 1 530 0
 2239 01de 40F20000 		movw	r0, #:lower16:.LC42
 2240 01e2 C0F20000 		movt	r0, #:upper16:.LC42
 2241 01e6 FFF7FEFF 		bl	LCD_UpdateMessage
 531:.\main.c      ****                     bool blink = false;
 2242              		.loc 1 531 0
 2243 01ea 4FF00003 		mov	r3, #0
 2244 01ee FB72     		strb	r3, [r7, #11]
 2245              	.L126:
 532:.\main.c      ****                     while (true) {
 533:.\main.c      ****                         for (offset=0; win && offset < 4 ;++offset) {
 2246              		.loc 1 533 0
 2247 01f0 4FF00003 		mov	r3, #0
ARM GAS  C:\DOCUME~1\david\LOCALS~1\Temp\ccLm5ouk.s 			page 51


 2248 01f4 7B60     		str	r3, [r7, #4]
 2249 01f6 27E0     		b	.L121
 2250              	.L125:
 534:.\main.c      ****                             if (player1_turn) player1[row][col+offset] = blink;
 2251              		.loc 1 534 0
 2252 01f8 40F20003 		movw	r3, #:lower16:player1_turn
 2253 01fc C0F20003 		movt	r3, #:upper16:player1_turn
 2254 0200 1B78     		ldrb	r3, [r3, #0]	@ zero_extendqisi2
 2255 0202 002B     		cmp	r3, #0
 2256 0204 0ED0     		beq	.L122
 2257 0206 3978     		ldrb	r1, [r7, #0]	@ zero_extendqisi2
 2258 0208 7A78     		ldrb	r2, [r7, #1]	@ zero_extendqisi2
 2259 020a 7B68     		ldr	r3, [r7, #4]
 2260 020c 1A44     		add	r2, r2, r3
 2261 020e 40F20003 		movw	r3, #:lower16:player1
 2262 0212 C0F20003 		movt	r3, #:upper16:player1
 2263 0216 4FEAC101 		lsl	r1, r1, #3
 2264 021a 0A44     		add	r2, r1, r2
 2265 021c 1344     		add	r3, r2, r3
 2266 021e FA7A     		ldrb	r2, [r7, #11]
 2267 0220 1A70     		strb	r2, [r3, #0]
 2268 0222 0DE0     		b	.L123
 2269              	.L122:
 535:.\main.c      ****                             else              player2[row][col+offset] = blink;
 2270              		.loc 1 535 0
 2271 0224 3978     		ldrb	r1, [r7, #0]	@ zero_extendqisi2
 2272 0226 7A78     		ldrb	r2, [r7, #1]	@ zero_extendqisi2
 2273 0228 7B68     		ldr	r3, [r7, #4]
 2274 022a 1A44     		add	r2, r2, r3
 2275 022c 40F20003 		movw	r3, #:lower16:player2
 2276 0230 C0F20003 		movt	r3, #:upper16:player2
 2277 0234 4FEAC101 		lsl	r1, r1, #3
 2278 0238 0A44     		add	r2, r1, r2
 2279 023a 1344     		add	r3, r2, r3
 2280 023c FA7A     		ldrb	r2, [r7, #11]
 2281 023e 1A70     		strb	r2, [r3, #0]
 2282              	.L123:
 2283              		.loc 1 533 0
 2284 0240 7B68     		ldr	r3, [r7, #4]
 2285 0242 03F10103 		add	r3, r3, #1
 2286 0246 7B60     		str	r3, [r7, #4]
 2287              	.L121:
 2288 0248 BB7A     		ldrb	r3, [r7, #10]	@ zero_extendqisi2
 2289 024a 002B     		cmp	r3, #0
 2290 024c 02D0     		beq	.L124
 2291 024e 7B68     		ldr	r3, [r7, #4]
 2292 0250 032B     		cmp	r3, #3
 2293 0252 D1DD     		ble	.L125
 2294              	.L124:
 536:.\main.c      ****                         }
 537:.\main.c      ****                         CyDelay(strobe);
 2295              		.loc 1 537 0
 2296 0254 7B88     		ldrh	r3, [r7, #2]
 2297 0256 1846     		mov	r0, r3
 2298 0258 FFF7FEFF 		bl	CyDelay
 538:.\main.c      ****                         blink = !blink;
 2299              		.loc 1 538 0
ARM GAS  C:\DOCUME~1\david\LOCALS~1\Temp\ccLm5ouk.s 			page 52


 2300 025c FB7A     		ldrb	r3, [r7, #11]
 2301 025e 83F00103 		eor	r3, r3, #1
 2302 0262 DBB2     		uxtb	r3, r3
 2303 0264 FB72     		strb	r3, [r7, #11]
 539:.\main.c      ****                     }
 2304              		.loc 1 539 0
 2305 0266 C3E7     		b	.L126
 2306              	.L114:
 2307              	.LBE10:
 2308              	.LBE9:
 540:.\main.c      ****                 }
 541:.\main.c      ****             }
 542:.\main.c      ****             
 543:.\main.c      ****             //down-diagonal
 544:.\main.c      ****             if (row < MATRIX_ROWS-3 && col < MATRIX_COLS-3) {
 2309              		.loc 1 544 0
 2310 0268 3B78     		ldrb	r3, [r7, #0]	@ zero_extendqisi2
 2311 026a 042B     		cmp	r3, #4
 2312 026c 00F29D80 		bhi	.L127
 2313 0270 7B78     		ldrb	r3, [r7, #1]	@ zero_extendqisi2
 2314 0272 042B     		cmp	r3, #4
 2315 0274 00F29980 		bhi	.L127
 2316              	.LBB11:
 545:.\main.c      ****                 bool win = true;
 2317              		.loc 1 545 0
 2318 0278 4FF00103 		mov	r3, #1
 2319 027c 3B73     		strb	r3, [r7, #12]
 546:.\main.c      ****                 for (offset=0; win && offset < 4 ;++offset) {
 2320              		.loc 1 546 0
 2321 027e 4FF00003 		mov	r3, #0
 2322 0282 7B60     		str	r3, [r7, #4]
 2323 0284 3DE0     		b	.L128
 2324              	.L133:
 547:.\main.c      ****                     if (player1_turn) { if (!player1[row+offset][col+offset]) win = false; }
 2325              		.loc 1 547 0
 2326 0286 40F20003 		movw	r3, #:lower16:player1_turn
 2327 028a C0F20003 		movt	r3, #:upper16:player1_turn
 2328 028e 1B78     		ldrb	r3, [r3, #0]	@ zero_extendqisi2
 2329 0290 002B     		cmp	r3, #0
 2330 0292 18D0     		beq	.L129
 2331 0294 3A78     		ldrb	r2, [r7, #0]	@ zero_extendqisi2
 2332 0296 7B68     		ldr	r3, [r7, #4]
 2333 0298 02EB0301 		add	r1, r2, r3
 2334 029c 7A78     		ldrb	r2, [r7, #1]	@ zero_extendqisi2
 2335 029e 7B68     		ldr	r3, [r7, #4]
 2336 02a0 1A44     		add	r2, r2, r3
 2337 02a2 40F20003 		movw	r3, #:lower16:player1
 2338 02a6 C0F20003 		movt	r3, #:upper16:player1
 2339 02aa 4FEAC101 		lsl	r1, r1, #3
 2340 02ae 0A44     		add	r2, r1, r2
 2341 02b0 1344     		add	r3, r2, r3
 2342 02b2 1B78     		ldrb	r3, [r3, #0]	@ zero_extendqisi2
 2343 02b4 83F00103 		eor	r3, r3, #1
 2344 02b8 DBB2     		uxtb	r3, r3
 2345 02ba 002B     		cmp	r3, #0
 2346 02bc 1CD0     		beq	.L158
 2347 02be 4FF00003 		mov	r3, #0
ARM GAS  C:\DOCUME~1\david\LOCALS~1\Temp\ccLm5ouk.s 			page 53


 2348 02c2 3B73     		strb	r3, [r7, #12]
 2349 02c4 19E0     		b	.L131
 2350              	.L129:
 548:.\main.c      ****                     else              { if (!player2[row+offset][col+offset]) win = false; }
 2351              		.loc 1 548 0
 2352 02c6 3A78     		ldrb	r2, [r7, #0]	@ zero_extendqisi2
 2353 02c8 7B68     		ldr	r3, [r7, #4]
 2354 02ca 02EB0301 		add	r1, r2, r3
 2355 02ce 7A78     		ldrb	r2, [r7, #1]	@ zero_extendqisi2
 2356 02d0 7B68     		ldr	r3, [r7, #4]
 2357 02d2 1A44     		add	r2, r2, r3
 2358 02d4 40F20003 		movw	r3, #:lower16:player2
 2359 02d8 C0F20003 		movt	r3, #:upper16:player2
 2360 02dc 4FEAC101 		lsl	r1, r1, #3
 2361 02e0 0A44     		add	r2, r1, r2
 2362 02e2 1344     		add	r3, r2, r3
 2363 02e4 1B78     		ldrb	r3, [r3, #0]	@ zero_extendqisi2
 2364 02e6 83F00103 		eor	r3, r3, #1
 2365 02ea DBB2     		uxtb	r3, r3
 2366 02ec 002B     		cmp	r3, #0
 2367 02ee 04D0     		beq	.L131
 2368 02f0 4FF00003 		mov	r3, #0
 2369 02f4 3B73     		strb	r3, [r7, #12]
 2370 02f6 00E0     		b	.L131
 2371              	.L158:
 2372              		.loc 1 547 0
 2373 02f8 00BF     		nop
 2374              	.L131:
 2375              		.loc 1 546 0
 2376 02fa 7B68     		ldr	r3, [r7, #4]
 2377 02fc 03F10103 		add	r3, r3, #1
 2378 0300 7B60     		str	r3, [r7, #4]
 2379              	.L128:
 2380 0302 3B7B     		ldrb	r3, [r7, #12]	@ zero_extendqisi2
 2381 0304 002B     		cmp	r3, #0
 2382 0306 02D0     		beq	.L132
 2383 0308 7B68     		ldr	r3, [r7, #4]
 2384 030a 032B     		cmp	r3, #3
 2385 030c BBDD     		ble	.L133
 2386              	.L132:
 549:.\main.c      ****                 }
 550:.\main.c      ****                 if (win) {
 2387              		.loc 1 550 0
 2388 030e 3B7B     		ldrb	r3, [r7, #12]	@ zero_extendqisi2
 2389 0310 002B     		cmp	r3, #0
 2390 0312 4AD0     		beq	.L127
 2391              	.LBB12:
 551:.\main.c      ****                     LCD_UpdateMessage("You win!");
 2392              		.loc 1 551 0
 2393 0314 40F20000 		movw	r0, #:lower16:.LC42
 2394 0318 C0F20000 		movt	r0, #:upper16:.LC42
 2395 031c FFF7FEFF 		bl	LCD_UpdateMessage
 552:.\main.c      ****                     bool blink = false;
 2396              		.loc 1 552 0
 2397 0320 4FF00003 		mov	r3, #0
 2398 0324 7B73     		strb	r3, [r7, #13]
 2399              	.L139:
ARM GAS  C:\DOCUME~1\david\LOCALS~1\Temp\ccLm5ouk.s 			page 54


 553:.\main.c      ****                     while (true) {
 554:.\main.c      ****                         for (offset=0; win && offset < 4 ;++offset) {
 2400              		.loc 1 554 0
 2401 0326 4FF00003 		mov	r3, #0
 2402 032a 7B60     		str	r3, [r7, #4]
 2403 032c 2DE0     		b	.L134
 2404              	.L138:
 555:.\main.c      ****                             if (player1_turn) player1[row+offset][col+offset] = blink;
 2405              		.loc 1 555 0
 2406 032e 40F20003 		movw	r3, #:lower16:player1_turn
 2407 0332 C0F20003 		movt	r3, #:upper16:player1_turn
 2408 0336 1B78     		ldrb	r3, [r3, #0]	@ zero_extendqisi2
 2409 0338 002B     		cmp	r3, #0
 2410 033a 11D0     		beq	.L135
 2411 033c 3A78     		ldrb	r2, [r7, #0]	@ zero_extendqisi2
 2412 033e 7B68     		ldr	r3, [r7, #4]
 2413 0340 02EB0301 		add	r1, r2, r3
 2414 0344 7A78     		ldrb	r2, [r7, #1]	@ zero_extendqisi2
 2415 0346 7B68     		ldr	r3, [r7, #4]
 2416 0348 1A44     		add	r2, r2, r3
 2417 034a 40F20003 		movw	r3, #:lower16:player1
 2418 034e C0F20003 		movt	r3, #:upper16:player1
 2419 0352 4FEAC101 		lsl	r1, r1, #3
 2420 0356 0A44     		add	r2, r1, r2
 2421 0358 1344     		add	r3, r2, r3
 2422 035a 7A7B     		ldrb	r2, [r7, #13]
 2423 035c 1A70     		strb	r2, [r3, #0]
 2424 035e 10E0     		b	.L136
 2425              	.L135:
 556:.\main.c      ****                             else              player2[row+offset][col+offset] = blink;
 2426              		.loc 1 556 0
 2427 0360 3A78     		ldrb	r2, [r7, #0]	@ zero_extendqisi2
 2428 0362 7B68     		ldr	r3, [r7, #4]
 2429 0364 02EB0301 		add	r1, r2, r3
 2430 0368 7A78     		ldrb	r2, [r7, #1]	@ zero_extendqisi2
 2431 036a 7B68     		ldr	r3, [r7, #4]
 2432 036c 1A44     		add	r2, r2, r3
 2433 036e 40F20003 		movw	r3, #:lower16:player2
 2434 0372 C0F20003 		movt	r3, #:upper16:player2
 2435 0376 4FEAC101 		lsl	r1, r1, #3
 2436 037a 0A44     		add	r2, r1, r2
 2437 037c 1344     		add	r3, r2, r3
 2438 037e 7A7B     		ldrb	r2, [r7, #13]
 2439 0380 1A70     		strb	r2, [r3, #0]
 2440              	.L136:
 2441              		.loc 1 554 0
 2442 0382 7B68     		ldr	r3, [r7, #4]
 2443 0384 03F10103 		add	r3, r3, #1
 2444 0388 7B60     		str	r3, [r7, #4]
 2445              	.L134:
 2446 038a 3B7B     		ldrb	r3, [r7, #12]	@ zero_extendqisi2
 2447 038c 002B     		cmp	r3, #0
 2448 038e 02D0     		beq	.L137
 2449 0390 7B68     		ldr	r3, [r7, #4]
 2450 0392 032B     		cmp	r3, #3
 2451 0394 CBDD     		ble	.L138
 2452              	.L137:
ARM GAS  C:\DOCUME~1\david\LOCALS~1\Temp\ccLm5ouk.s 			page 55


 557:.\main.c      ****                         }
 558:.\main.c      ****                         CyDelay(strobe);
 2453              		.loc 1 558 0
 2454 0396 7B88     		ldrh	r3, [r7, #2]
 2455 0398 1846     		mov	r0, r3
 2456 039a FFF7FEFF 		bl	CyDelay
 559:.\main.c      ****                         blink = !blink;
 2457              		.loc 1 559 0
 2458 039e 7B7B     		ldrb	r3, [r7, #13]
 2459 03a0 83F00103 		eor	r3, r3, #1
 2460 03a4 DBB2     		uxtb	r3, r3
 2461 03a6 7B73     		strb	r3, [r7, #13]
 560:.\main.c      ****                     }
 2462              		.loc 1 560 0
 2463 03a8 BDE7     		b	.L139
 2464              	.L127:
 2465              	.LBE12:
 2466              	.LBE11:
 561:.\main.c      ****                 }
 562:.\main.c      ****             }
 563:.\main.c      ****             
 564:.\main.c      ****             //up-diagonal
 565:.\main.c      ****             if (row > 3 && col < MATRIX_COLS-3) {
 2467              		.loc 1 565 0
 2468 03aa 3B78     		ldrb	r3, [r7, #0]	@ zero_extendqisi2
 2469 03ac 032B     		cmp	r3, #3
 2470 03ae 40F29D80 		bls	.L140
 2471 03b2 7B78     		ldrb	r3, [r7, #1]	@ zero_extendqisi2
 2472 03b4 042B     		cmp	r3, #4
 2473 03b6 00F29980 		bhi	.L140
 2474              	.LBB13:
 566:.\main.c      ****                 bool win = true;
 2475              		.loc 1 566 0
 2476 03ba 4FF00103 		mov	r3, #1
 2477 03be BB73     		strb	r3, [r7, #14]
 567:.\main.c      ****                 for (offset=0; win && offset < 4 ;++offset) {
 2478              		.loc 1 567 0
 2479 03c0 4FF00003 		mov	r3, #0
 2480 03c4 7B60     		str	r3, [r7, #4]
 2481 03c6 3DE0     		b	.L141
 2482              	.L146:
 568:.\main.c      ****                     if (player1_turn) { if (!player1[row-offset][col+offset]) win = false; }
 2483              		.loc 1 568 0
 2484 03c8 40F20003 		movw	r3, #:lower16:player1_turn
 2485 03cc C0F20003 		movt	r3, #:upper16:player1_turn
 2486 03d0 1B78     		ldrb	r3, [r3, #0]	@ zero_extendqisi2
 2487 03d2 002B     		cmp	r3, #0
 2488 03d4 18D0     		beq	.L142
 2489 03d6 3A78     		ldrb	r2, [r7, #0]	@ zero_extendqisi2
 2490 03d8 7B68     		ldr	r3, [r7, #4]
 2491 03da C3EB0201 		rsb	r1, r3, r2
 2492 03de 7A78     		ldrb	r2, [r7, #1]	@ zero_extendqisi2
 2493 03e0 7B68     		ldr	r3, [r7, #4]
 2494 03e2 1A44     		add	r2, r2, r3
 2495 03e4 40F20003 		movw	r3, #:lower16:player1
 2496 03e8 C0F20003 		movt	r3, #:upper16:player1
 2497 03ec 4FEAC101 		lsl	r1, r1, #3
ARM GAS  C:\DOCUME~1\david\LOCALS~1\Temp\ccLm5ouk.s 			page 56


 2498 03f0 0A44     		add	r2, r1, r2
 2499 03f2 1344     		add	r3, r2, r3
 2500 03f4 1B78     		ldrb	r3, [r3, #0]	@ zero_extendqisi2
 2501 03f6 83F00103 		eor	r3, r3, #1
 2502 03fa DBB2     		uxtb	r3, r3
 2503 03fc 002B     		cmp	r3, #0
 2504 03fe 1CD0     		beq	.L159
 2505 0400 4FF00003 		mov	r3, #0
 2506 0404 BB73     		strb	r3, [r7, #14]
 2507 0406 19E0     		b	.L144
 2508              	.L142:
 569:.\main.c      ****                     else              { if (!player2[row-offset][col+offset]) win = false; }
 2509              		.loc 1 569 0
 2510 0408 3A78     		ldrb	r2, [r7, #0]	@ zero_extendqisi2
 2511 040a 7B68     		ldr	r3, [r7, #4]
 2512 040c C3EB0201 		rsb	r1, r3, r2
 2513 0410 7A78     		ldrb	r2, [r7, #1]	@ zero_extendqisi2
 2514 0412 7B68     		ldr	r3, [r7, #4]
 2515 0414 1A44     		add	r2, r2, r3
 2516 0416 40F20003 		movw	r3, #:lower16:player2
 2517 041a C0F20003 		movt	r3, #:upper16:player2
 2518 041e 4FEAC101 		lsl	r1, r1, #3
 2519 0422 0A44     		add	r2, r1, r2
 2520 0424 1344     		add	r3, r2, r3
 2521 0426 1B78     		ldrb	r3, [r3, #0]	@ zero_extendqisi2
 2522 0428 83F00103 		eor	r3, r3, #1
 2523 042c DBB2     		uxtb	r3, r3
 2524 042e 002B     		cmp	r3, #0
 2525 0430 04D0     		beq	.L144
 2526 0432 4FF00003 		mov	r3, #0
 2527 0436 BB73     		strb	r3, [r7, #14]
 2528 0438 00E0     		b	.L144
 2529              	.L159:
 2530              		.loc 1 568 0
 2531 043a 00BF     		nop
 2532              	.L144:
 2533              		.loc 1 567 0
 2534 043c 7B68     		ldr	r3, [r7, #4]
 2535 043e 03F10103 		add	r3, r3, #1
 2536 0442 7B60     		str	r3, [r7, #4]
 2537              	.L141:
 2538 0444 BB7B     		ldrb	r3, [r7, #14]	@ zero_extendqisi2
 2539 0446 002B     		cmp	r3, #0
 2540 0448 02D0     		beq	.L145
 2541 044a 7B68     		ldr	r3, [r7, #4]
 2542 044c 032B     		cmp	r3, #3
 2543 044e BBDD     		ble	.L146
 2544              	.L145:
 570:.\main.c      ****                 }
 571:.\main.c      ****                 if (win) {
 2545              		.loc 1 571 0
 2546 0450 BB7B     		ldrb	r3, [r7, #14]	@ zero_extendqisi2
 2547 0452 002B     		cmp	r3, #0
 2548 0454 4AD0     		beq	.L140
 2549              	.LBB14:
 572:.\main.c      ****                     LCD_UpdateMessage("You win!");
 2550              		.loc 1 572 0
ARM GAS  C:\DOCUME~1\david\LOCALS~1\Temp\ccLm5ouk.s 			page 57


 2551 0456 40F20000 		movw	r0, #:lower16:.LC42
 2552 045a C0F20000 		movt	r0, #:upper16:.LC42
 2553 045e FFF7FEFF 		bl	LCD_UpdateMessage
 573:.\main.c      ****                     bool blink = false;
 2554              		.loc 1 573 0
 2555 0462 4FF00003 		mov	r3, #0
 2556 0466 FB73     		strb	r3, [r7, #15]
 2557              	.L152:
 574:.\main.c      ****                     while (true) {
 575:.\main.c      ****                         for (offset=0; win && offset < 4 ;++offset) {
 2558              		.loc 1 575 0
 2559 0468 4FF00003 		mov	r3, #0
 2560 046c 7B60     		str	r3, [r7, #4]
 2561 046e 2DE0     		b	.L147
 2562              	.L151:
 576:.\main.c      ****                             if (player1_turn) player1[row-offset][col+offset] = blink;
 2563              		.loc 1 576 0
 2564 0470 40F20003 		movw	r3, #:lower16:player1_turn
 2565 0474 C0F20003 		movt	r3, #:upper16:player1_turn
 2566 0478 1B78     		ldrb	r3, [r3, #0]	@ zero_extendqisi2
 2567 047a 002B     		cmp	r3, #0
 2568 047c 11D0     		beq	.L148
 2569 047e 3A78     		ldrb	r2, [r7, #0]	@ zero_extendqisi2
 2570 0480 7B68     		ldr	r3, [r7, #4]
 2571 0482 C3EB0201 		rsb	r1, r3, r2
 2572 0486 7A78     		ldrb	r2, [r7, #1]	@ zero_extendqisi2
 2573 0488 7B68     		ldr	r3, [r7, #4]
 2574 048a 1A44     		add	r2, r2, r3
 2575 048c 40F20003 		movw	r3, #:lower16:player1
 2576 0490 C0F20003 		movt	r3, #:upper16:player1
 2577 0494 4FEAC101 		lsl	r1, r1, #3
 2578 0498 0A44     		add	r2, r1, r2
 2579 049a 1344     		add	r3, r2, r3
 2580 049c FA7B     		ldrb	r2, [r7, #15]
 2581 049e 1A70     		strb	r2, [r3, #0]
 2582 04a0 10E0     		b	.L149
 2583              	.L148:
 577:.\main.c      ****                             else              player2[row-offset][col+offset] = blink;
 2584              		.loc 1 577 0
 2585 04a2 3A78     		ldrb	r2, [r7, #0]	@ zero_extendqisi2
 2586 04a4 7B68     		ldr	r3, [r7, #4]
 2587 04a6 C3EB0201 		rsb	r1, r3, r2
 2588 04aa 7A78     		ldrb	r2, [r7, #1]	@ zero_extendqisi2
 2589 04ac 7B68     		ldr	r3, [r7, #4]
 2590 04ae 1A44     		add	r2, r2, r3
 2591 04b0 40F20003 		movw	r3, #:lower16:player2
 2592 04b4 C0F20003 		movt	r3, #:upper16:player2
 2593 04b8 4FEAC101 		lsl	r1, r1, #3
 2594 04bc 0A44     		add	r2, r1, r2
 2595 04be 1344     		add	r3, r2, r3
 2596 04c0 FA7B     		ldrb	r2, [r7, #15]
 2597 04c2 1A70     		strb	r2, [r3, #0]
 2598              	.L149:
 2599              		.loc 1 575 0
 2600 04c4 7B68     		ldr	r3, [r7, #4]
 2601 04c6 03F10103 		add	r3, r3, #1
 2602 04ca 7B60     		str	r3, [r7, #4]
ARM GAS  C:\DOCUME~1\david\LOCALS~1\Temp\ccLm5ouk.s 			page 58


 2603              	.L147:
 2604 04cc BB7B     		ldrb	r3, [r7, #14]	@ zero_extendqisi2
 2605 04ce 002B     		cmp	r3, #0
 2606 04d0 02D0     		beq	.L150
 2607 04d2 7B68     		ldr	r3, [r7, #4]
 2608 04d4 032B     		cmp	r3, #3
 2609 04d6 CBDD     		ble	.L151
 2610              	.L150:
 578:.\main.c      ****                         }
 579:.\main.c      ****                         CyDelay(strobe);
 2611              		.loc 1 579 0
 2612 04d8 7B88     		ldrh	r3, [r7, #2]
 2613 04da 1846     		mov	r0, r3
 2614 04dc FFF7FEFF 		bl	CyDelay
 580:.\main.c      ****                         blink = !blink;
 2615              		.loc 1 580 0
 2616 04e0 FB7B     		ldrb	r3, [r7, #15]
 2617 04e2 83F00103 		eor	r3, r3, #1
 2618 04e6 DBB2     		uxtb	r3, r3
 2619 04e8 FB73     		strb	r3, [r7, #15]
 581:.\main.c      ****                     }
 2620              		.loc 1 581 0
 2621 04ea BDE7     		b	.L152
 2622              	.L140:
 2623              	.LBE14:
 2624              	.LBE13:
 2625              	.LBE6:
 2626              		.loc 1 498 0
 2627 04ec 7B78     		ldrb	r3, [r7, #1]
 2628 04ee 03F10103 		add	r3, r3, #1
 2629 04f2 7B70     		strb	r3, [r7, #1]
 2630              	.L100:
 2631 04f4 7B78     		ldrb	r3, [r7, #1]	@ zero_extendqisi2
 2632 04f6 072B     		cmp	r3, #7
 2633 04f8 7FF690AD 		bls	.L153
 2634              		.loc 1 497 0
 2635 04fc 3B78     		ldrb	r3, [r7, #0]
 2636 04fe 03F10103 		add	r3, r3, #1
 2637 0502 3B70     		strb	r3, [r7, #0]
 2638              	.L99:
 2639 0504 3B78     		ldrb	r3, [r7, #0]	@ zero_extendqisi2
 2640 0506 072B     		cmp	r3, #7
 2641 0508 7FF684AD 		bls	.L154
 582:.\main.c      ****                 }
 583:.\main.c      ****             }  
 584:.\main.c      ****         }
 585:.\main.c      ****     }
 586:.\main.c      **** }
 2642              		.loc 1 586 0
 2643 050c 07F11007 		add	r7, r7, #16
 2644 0510 BD46     		mov	sp, r7
 2645 0512 80BD     		pop	{r7, pc}
 2646              		.cfi_endproc
 2647              	.LFE41:
 2648              		.size	winner_check, .-winner_check
 2649              		.section	.rodata
 2650 01b1 000000   		.align	2
ARM GAS  C:\DOCUME~1\david\LOCALS~1\Temp\ccLm5ouk.s 			page 59


 2651              	.LC43:
 2652 01b4 636C6561 		.ascii	"cleaning...\000"
 2652      6E696E67 
 2652      2E2E2E00 
 2653              		.section	.text.cleanup,"ax",%progbits
 2654              		.align	2
 2655              		.global	cleanup
 2656              		.thumb
 2657              		.thumb_func
 2658              		.type	cleanup, %function
 2659              	cleanup:
 2660              	.LFB42:
 587:.\main.c      **** 
 588:.\main.c      **** 
 589:.\main.c      **** 
 590:.\main.c      **** 
 591:.\main.c      **** void cleanup () {
 2661              		.loc 1 591 0
 2662              		.cfi_startproc
 2663              		@ args = 0, pretend = 0, frame = 0
 2664              		@ frame_needed = 1, uses_anonymous_args = 0
 2665 0000 80B5     		push	{r7, lr}
 2666              	.LCFI37:
 2667              		.cfi_def_cfa_offset 8
 2668 0002 00AF     		add	r7, sp, #0
 2669              		.cfi_offset 14, -4
 2670              		.cfi_offset 7, -8
 2671              	.LCFI38:
 2672              		.cfi_def_cfa_register 7
 592:.\main.c      ****     LCD_UpdateStatus("cleaning...");
 2673              		.loc 1 592 0
 2674 0004 40F20000 		movw	r0, #:lower16:.LC43
 2675 0008 C0F20000 		movt	r0, #:upper16:.LC43
 2676 000c FFF7FEFF 		bl	LCD_UpdateStatus
 593:.\main.c      ****     
 594:.\main.c      ****     LCD_UpdateMessage("display");
 2677              		.loc 1 594 0
 2678 0010 40F20000 		movw	r0, #:lower16:.LC14
 2679 0014 C0F20000 		movt	r0, #:upper16:.LC14
 2680 0018 FFF7FEFF 		bl	LCD_UpdateMessage
 595:.\main.c      ****     Beam_Stop();
 2681              		.loc 1 595 0
 2682 001c FFF7FEFF 		bl	Beam_Stop
 596:.\main.c      ****     
 597:.\main.c      ****     if (!player2_local) {
 2683              		.loc 1 597 0
 2684 0020 40F20003 		movw	r3, #:lower16:player2_local
 2685 0024 C0F20003 		movt	r3, #:upper16:player2_local
 2686 0028 1B78     		ldrb	r3, [r3, #0]	@ zero_extendqisi2
 2687 002a 83F00103 		eor	r3, r3, #1
 2688 002e DBB2     		uxtb	r3, r3
 2689 0030 002B     		cmp	r3, #0
 2690 0032 07D0     		beq	.L161
 598:.\main.c      ****         LCD_UpdateMessage("UART");
 2691              		.loc 1 598 0
 2692 0034 40F20000 		movw	r0, #:lower16:.LC12
 2693 0038 C0F20000 		movt	r0, #:upper16:.LC12
ARM GAS  C:\DOCUME~1\david\LOCALS~1\Temp\ccLm5ouk.s 			page 60


 2694 003c FFF7FEFF 		bl	LCD_UpdateMessage
 599:.\main.c      ****         UART_Stop();
 2695              		.loc 1 599 0
 2696 0040 FFF7FEFF 		bl	UART_Stop
 2697              	.L161:
 600:.\main.c      ****     }
 601:.\main.c      ****     
 602:.\main.c      ****     LCD_UpdateMessage("CapSense");
 2698              		.loc 1 602 0
 2699 0044 40F20000 		movw	r0, #:lower16:.LC8
 2700 0048 C0F20000 		movt	r0, #:upper16:.LC8
 2701 004c FFF7FEFF 		bl	LCD_UpdateMessage
 603:.\main.c      ****     CapSense_Stop();
 2702              		.loc 1 603 0
 2703 0050 FFF7FEFF 		bl	CapSense_Stop
 604:.\main.c      ****     
 605:.\main.c      ****     LCD_UpdateMessage("timer");
 2704              		.loc 1 605 0
 2705 0054 40F20000 		movw	r0, #:lower16:.LC7
 2706 0058 C0F20000 		movt	r0, #:upper16:.LC7
 2707 005c FFF7FEFF 		bl	LCD_UpdateMessage
 606:.\main.c      ****     Timer_Stop();
 2708              		.loc 1 606 0
 2709 0060 FFF7FEFF 		bl	Timer_Stop
 607:.\main.c      ****     
 608:.\main.c      ****     LCD_UpdateMessage("matrix");
 2710              		.loc 1 608 0
 2711 0064 40F20000 		movw	r0, #:lower16:.LC5
 2712 0068 C0F20000 		movt	r0, #:upper16:.LC5
 2713 006c FFF7FEFF 		bl	LCD_UpdateMessage
 609:.\main.c      ****     matrix_deluminate();
 2714              		.loc 1 609 0
 2715 0070 FFF7FEFF 		bl	matrix_deluminate
 610:.\main.c      ****     
 611:.\main.c      ****     LCD_UpdateMessage("board");
 2716              		.loc 1 611 0
 2717 0074 40F20000 		movw	r0, #:lower16:.LC4
 2718 0078 C0F20000 		movt	r0, #:upper16:.LC4
 2719 007c FFF7FEFF 		bl	LCD_UpdateMessage
 612:.\main.c      ****     clear_board();
 2720              		.loc 1 612 0
 2721 0080 FFF7FEFF 		bl	clear_board
 613:.\main.c      ****     
 614:.\main.c      ****     LCD_Stop();
 2722              		.loc 1 614 0
 2723 0084 FFF7FEFF 		bl	LCD_Stop
 615:.\main.c      **** }
 2724              		.loc 1 615 0
 2725 0088 80BD     		pop	{r7, pc}
 2726              		.cfi_endproc
 2727              	.LFE42:
 2728              		.size	cleanup, .-cleanup
 2729 008a 00BF     		.text
 2730              	.Letext0: