ARM GAS  C:\Users\dmtucker\AppData\Local\Temp\cc0zdEfi.s 			page 1


   1              		.syntax unified
   2              		.cpu cortex-m3
   3              		.fpu softvfp
   4              		.eabi_attribute 20, 1
   5              		.eabi_attribute 21, 1
   6              		.eabi_attribute 23, 3
   7              		.eabi_attribute 24, 1
   8              		.eabi_attribute 25, 1
   9              		.eabi_attribute 26, 1
  10              		.eabi_attribute 30, 6
  11              		.eabi_attribute 18, 4
  12              		.thumb
  13              		.file	"CapSense_Pins.c"
  20 0000 9D000000 		.text
  20      02006600 
  20      00000201 
  20      FB0E0D00 
  20      01010101 
  21              	.Ltext0:
  22              		.cfi_sections	.debug_frame
  23              		.section	.text.CapSense_SetAllSensorsDriveMode,"ax",%progbits
  24              		.align	2
  25              		.global	CapSense_SetAllSensorsDriveMode
  26              		.thumb
  27              		.thumb_func
  28              		.type	CapSense_SetAllSensorsDriveMode, %function
  29              	CapSense_SetAllSensorsDriveMode:
  30              	.LFB0:
  31              		.file 1 ".\\Generated_Source\\PSoC5\\CapSense_Pins.c"
   1:.\Generated_Source\PSoC5/CapSense_Pins.c **** /*******************************************************************************
   2:.\Generated_Source\PSoC5/CapSense_Pins.c **** * File Name: CapSense_Pins.c
   3:.\Generated_Source\PSoC5/CapSense_Pins.c **** * Version 3.30
   4:.\Generated_Source\PSoC5/CapSense_Pins.c **** *
   5:.\Generated_Source\PSoC5/CapSense_Pins.c **** * Description:
   6:.\Generated_Source\PSoC5/CapSense_Pins.c **** *  This file contains API to enable firmware control of a Pins component.
   7:.\Generated_Source\PSoC5/CapSense_Pins.c **** *
   8:.\Generated_Source\PSoC5/CapSense_Pins.c **** * Note:
   9:.\Generated_Source\PSoC5/CapSense_Pins.c **** *
  10:.\Generated_Source\PSoC5/CapSense_Pins.c **** ********************************************************************************
  11:.\Generated_Source\PSoC5/CapSense_Pins.c **** * Copyright 2008-2012, Cypress Semiconductor Corporation.  All rights reserved.
  12:.\Generated_Source\PSoC5/CapSense_Pins.c **** * You may use this file only in accordance with the license, terms, conditions,
  13:.\Generated_Source\PSoC5/CapSense_Pins.c **** * disclaimers, and limitations in the end user license agreement accompanying
  14:.\Generated_Source\PSoC5/CapSense_Pins.c **** * the software package with which this file was provided.
  15:.\Generated_Source\PSoC5/CapSense_Pins.c **** *******************************************************************************/
  16:.\Generated_Source\PSoC5/CapSense_Pins.c **** 
  17:.\Generated_Source\PSoC5/CapSense_Pins.c **** #include "CapSense_Pins.h"
  18:.\Generated_Source\PSoC5/CapSense_Pins.c **** 
  19:.\Generated_Source\PSoC5/CapSense_Pins.c **** 
  20:.\Generated_Source\PSoC5/CapSense_Pins.c **** /*******************************************************************************
  21:.\Generated_Source\PSoC5/CapSense_Pins.c **** * Function Name: CapSense_SetAllSensorsDriveMode
  22:.\Generated_Source\PSoC5/CapSense_Pins.c **** ********************************************************************************
ARM GAS  C:\Users\dmtucker\AppData\Local\Temp\cc0zdEfi.s 			page 2


  23:.\Generated_Source\PSoC5/CapSense_Pins.c **** *
  24:.\Generated_Source\PSoC5/CapSense_Pins.c **** * Summary:
  25:.\Generated_Source\PSoC5/CapSense_Pins.c **** *  Sets the drive mode for the all pins used by capacitive sensors within 
  26:.\Generated_Source\PSoC5/CapSense_Pins.c **** *  CapSense component.
  27:.\Generated_Source\PSoC5/CapSense_Pins.c **** * 
  28:.\Generated_Source\PSoC5/CapSense_Pins.c **** * Parameters:  
  29:.\Generated_Source\PSoC5/CapSense_Pins.c **** *  mode: Desired drive mode.
  30:.\Generated_Source\PSoC5/CapSense_Pins.c **** *
  31:.\Generated_Source\PSoC5/CapSense_Pins.c **** * Return: 
  32:.\Generated_Source\PSoC5/CapSense_Pins.c **** *  None
  33:.\Generated_Source\PSoC5/CapSense_Pins.c **** *
  34:.\Generated_Source\PSoC5/CapSense_Pins.c **** *******************************************************************************/
  35:.\Generated_Source\PSoC5/CapSense_Pins.c **** void CapSense_SetAllSensorsDriveMode(uint8 mode) 
  36:.\Generated_Source\PSoC5/CapSense_Pins.c **** {
  32              		.loc 1 36 0
  33              		.cfi_startproc
  34              		@ args = 0, pretend = 0, frame = 8
  35              		@ frame_needed = 1, uses_anonymous_args = 0
  36              		@ link register save eliminated.
  37 0000 80B4     		push	{r7}
  38              	.LCFI0:
  39              		.cfi_def_cfa_offset 4
  40 0002 83B0     		sub	sp, sp, #12
  41              	.LCFI1:
  42              		.cfi_def_cfa_offset 16
  43 0004 00AF     		add	r7, sp, #0
  44              		.cfi_offset 7, -4
  45              	.LCFI2:
  46              		.cfi_def_cfa_register 7
  47 0006 0346     		mov	r3, r0
  48 0008 FB71     		strb	r3, [r7, #7]
  37:.\Generated_Source\PSoC5/CapSense_Pins.c ****     /* Set pins drive mode */
  38:.\Generated_Source\PSoC5/CapSense_Pins.c ****     CyPins_SetPinDriveMode(CapSense_PortCH0__Button0__BTN, mode);
  49              		.loc 1 38 0
  50 000a 45F22D03 		movw	r3, #:lower16:1073762349
  51 000e C4F20003 		movt	r3, #:upper16:1073762349
  52 0012 45F22D02 		movw	r2, #:lower16:1073762349
  53 0016 C4F20002 		movt	r2, #:upper16:1073762349
  54 001a 1278     		ldrb	r2, [r2, #0]
  55 001c D2B2     		uxtb	r2, r2
  56 001e D1B2     		uxtb	r1, r2
  57 0020 01F0F101 		and	r1, r1, #241
  58 0024 FA79     		ldrb	r2, [r7, #7]	@ zero_extendqisi2
  59 0026 D2B2     		uxtb	r2, r2
  60 0028 02F00E02 		and	r2, r2, #14
  61 002c 41EA0202 		orr	r2, r1, r2
  62 0030 D2B2     		uxtb	r2, r2
  63 0032 D2B2     		uxtb	r2, r2
  64 0034 1A70     		strb	r2, [r3, #0]
  39:.\Generated_Source\PSoC5/CapSense_Pins.c ****     CyPins_SetPinDriveMode(CapSense_PortCH0__Button1__BTN, mode);
  65              		.loc 1 39 0
  66 0036 45F22E03 		movw	r3, #:lower16:1073762350
  67 003a C4F20003 		movt	r3, #:upper16:1073762350
  68 003e 45F22E02 		movw	r2, #:lower16:1073762350
  69 0042 C4F20002 		movt	r2, #:upper16:1073762350
  70 0046 1278     		ldrb	r2, [r2, #0]
  71 0048 D2B2     		uxtb	r2, r2
ARM GAS  C:\Users\dmtucker\AppData\Local\Temp\cc0zdEfi.s 			page 3


  72 004a D1B2     		uxtb	r1, r2
  73 004c 01F0F101 		and	r1, r1, #241
  74 0050 FA79     		ldrb	r2, [r7, #7]	@ zero_extendqisi2
  75 0052 D2B2     		uxtb	r2, r2
  76 0054 02F00E02 		and	r2, r2, #14
  77 0058 41EA0202 		orr	r2, r1, r2
  78 005c D2B2     		uxtb	r2, r2
  79 005e D2B2     		uxtb	r2, r2
  80 0060 1A70     		strb	r2, [r3, #0]
  40:.\Generated_Source\PSoC5/CapSense_Pins.c ****     CyPins_SetPinDriveMode(CapSense_PortCH0__LinearSlider0_e0__LS, mode);
  81              		.loc 1 40 0
  82 0062 45F22803 		movw	r3, #:lower16:1073762344
  83 0066 C4F20003 		movt	r3, #:upper16:1073762344
  84 006a 45F22802 		movw	r2, #:lower16:1073762344
  85 006e C4F20002 		movt	r2, #:upper16:1073762344
  86 0072 1278     		ldrb	r2, [r2, #0]
  87 0074 D2B2     		uxtb	r2, r2
  88 0076 D1B2     		uxtb	r1, r2
  89 0078 01F0F101 		and	r1, r1, #241
  90 007c FA79     		ldrb	r2, [r7, #7]	@ zero_extendqisi2
  91 007e D2B2     		uxtb	r2, r2
  92 0080 02F00E02 		and	r2, r2, #14
  93 0084 41EA0202 		orr	r2, r1, r2
  94 0088 D2B2     		uxtb	r2, r2
  95 008a D2B2     		uxtb	r2, r2
  96 008c 1A70     		strb	r2, [r3, #0]
  41:.\Generated_Source\PSoC5/CapSense_Pins.c ****     CyPins_SetPinDriveMode(CapSense_PortCH0__LinearSlider0_e1__LS, mode);
  97              		.loc 1 41 0
  98 008e 45F22903 		movw	r3, #:lower16:1073762345
  99 0092 C4F20003 		movt	r3, #:upper16:1073762345
 100 0096 45F22902 		movw	r2, #:lower16:1073762345
 101 009a C4F20002 		movt	r2, #:upper16:1073762345
 102 009e 1278     		ldrb	r2, [r2, #0]
 103 00a0 D2B2     		uxtb	r2, r2
 104 00a2 D1B2     		uxtb	r1, r2
 105 00a4 01F0F101 		and	r1, r1, #241
 106 00a8 FA79     		ldrb	r2, [r7, #7]	@ zero_extendqisi2
 107 00aa D2B2     		uxtb	r2, r2
 108 00ac 02F00E02 		and	r2, r2, #14
 109 00b0 41EA0202 		orr	r2, r1, r2
 110 00b4 D2B2     		uxtb	r2, r2
 111 00b6 D2B2     		uxtb	r2, r2
 112 00b8 1A70     		strb	r2, [r3, #0]
  42:.\Generated_Source\PSoC5/CapSense_Pins.c ****     CyPins_SetPinDriveMode(CapSense_PortCH0__LinearSlider0_e2__LS, mode);
 113              		.loc 1 42 0
 114 00ba 45F22A03 		movw	r3, #:lower16:1073762346
 115 00be C4F20003 		movt	r3, #:upper16:1073762346
 116 00c2 45F22A02 		movw	r2, #:lower16:1073762346
 117 00c6 C4F20002 		movt	r2, #:upper16:1073762346
 118 00ca 1278     		ldrb	r2, [r2, #0]
 119 00cc D2B2     		uxtb	r2, r2
 120 00ce D1B2     		uxtb	r1, r2
 121 00d0 01F0F101 		and	r1, r1, #241
 122 00d4 FA79     		ldrb	r2, [r7, #7]	@ zero_extendqisi2
 123 00d6 D2B2     		uxtb	r2, r2
 124 00d8 02F00E02 		and	r2, r2, #14
 125 00dc 41EA0202 		orr	r2, r1, r2
ARM GAS  C:\Users\dmtucker\AppData\Local\Temp\cc0zdEfi.s 			page 4


 126 00e0 D2B2     		uxtb	r2, r2
 127 00e2 D2B2     		uxtb	r2, r2
 128 00e4 1A70     		strb	r2, [r3, #0]
  43:.\Generated_Source\PSoC5/CapSense_Pins.c ****     CyPins_SetPinDriveMode(CapSense_PortCH0__LinearSlider0_e3__LS, mode);
 129              		.loc 1 43 0
 130 00e6 45F22B03 		movw	r3, #:lower16:1073762347
 131 00ea C4F20003 		movt	r3, #:upper16:1073762347
 132 00ee 45F22B02 		movw	r2, #:lower16:1073762347
 133 00f2 C4F20002 		movt	r2, #:upper16:1073762347
 134 00f6 1278     		ldrb	r2, [r2, #0]
 135 00f8 D2B2     		uxtb	r2, r2
 136 00fa D1B2     		uxtb	r1, r2
 137 00fc 01F0F101 		and	r1, r1, #241
 138 0100 FA79     		ldrb	r2, [r7, #7]	@ zero_extendqisi2
 139 0102 D2B2     		uxtb	r2, r2
 140 0104 02F00E02 		and	r2, r2, #14
 141 0108 41EA0202 		orr	r2, r1, r2
 142 010c D2B2     		uxtb	r2, r2
 143 010e D2B2     		uxtb	r2, r2
 144 0110 1A70     		strb	r2, [r3, #0]
  44:.\Generated_Source\PSoC5/CapSense_Pins.c ****     CyPins_SetPinDriveMode(CapSense_PortCH0__LinearSlider0_e4__LS, mode);
 145              		.loc 1 44 0
 146 0112 45F22C03 		movw	r3, #:lower16:1073762348
 147 0116 C4F20003 		movt	r3, #:upper16:1073762348
 148 011a 45F22C02 		movw	r2, #:lower16:1073762348
 149 011e C4F20002 		movt	r2, #:upper16:1073762348
 150 0122 1278     		ldrb	r2, [r2, #0]
 151 0124 D2B2     		uxtb	r2, r2
 152 0126 D1B2     		uxtb	r1, r2
 153 0128 01F0F101 		and	r1, r1, #241
 154 012c FA79     		ldrb	r2, [r7, #7]	@ zero_extendqisi2
 155 012e D2B2     		uxtb	r2, r2
 156 0130 02F00E02 		and	r2, r2, #14
 157 0134 41EA0202 		orr	r2, r1, r2
 158 0138 D2B2     		uxtb	r2, r2
 159 013a D2B2     		uxtb	r2, r2
 160 013c 1A70     		strb	r2, [r3, #0]
  45:.\Generated_Source\PSoC5/CapSense_Pins.c **** 
  46:.\Generated_Source\PSoC5/CapSense_Pins.c **** }
 161              		.loc 1 46 0
 162 013e 07F10C07 		add	r7, r7, #12
 163 0142 BD46     		mov	sp, r7
 164 0144 80BC     		pop	{r7}
 165 0146 7047     		bx	lr
 166              		.cfi_endproc
 167              	.LFE0:
 168              		.size	CapSense_SetAllSensorsDriveMode, .-CapSense_SetAllSensorsDriveMode
 169              		.section	.text.CapSense_SetAllCmodsDriveMode,"ax",%progbits
 170              		.align	2
 171              		.global	CapSense_SetAllCmodsDriveMode
 172              		.thumb
 173              		.thumb_func
 174              		.type	CapSense_SetAllCmodsDriveMode, %function
 175              	CapSense_SetAllCmodsDriveMode:
 176              	.LFB1:
  47:.\Generated_Source\PSoC5/CapSense_Pins.c **** 
  48:.\Generated_Source\PSoC5/CapSense_Pins.c **** 
ARM GAS  C:\Users\dmtucker\AppData\Local\Temp\cc0zdEfi.s 			page 5


  49:.\Generated_Source\PSoC5/CapSense_Pins.c **** 
  50:.\Generated_Source\PSoC5/CapSense_Pins.c **** /*******************************************************************************
  51:.\Generated_Source\PSoC5/CapSense_Pins.c **** * Function Name: CapSense_SetAllCmodsDriveMode
  52:.\Generated_Source\PSoC5/CapSense_Pins.c **** ********************************************************************************
  53:.\Generated_Source\PSoC5/CapSense_Pins.c **** *
  54:.\Generated_Source\PSoC5/CapSense_Pins.c **** * Summary:
  55:.\Generated_Source\PSoC5/CapSense_Pins.c **** *  Sets the drive mode for the all pins used by Cmod capacitors within CapSense 
  56:.\Generated_Source\PSoC5/CapSense_Pins.c **** *  component.
  57:.\Generated_Source\PSoC5/CapSense_Pins.c **** * 
  58:.\Generated_Source\PSoC5/CapSense_Pins.c **** * Parameters:  
  59:.\Generated_Source\PSoC5/CapSense_Pins.c **** *  mode: Desired drive mode.
  60:.\Generated_Source\PSoC5/CapSense_Pins.c **** *
  61:.\Generated_Source\PSoC5/CapSense_Pins.c **** * Return: 
  62:.\Generated_Source\PSoC5/CapSense_Pins.c **** *  None
  63:.\Generated_Source\PSoC5/CapSense_Pins.c **** *
  64:.\Generated_Source\PSoC5/CapSense_Pins.c **** *******************************************************************************/
  65:.\Generated_Source\PSoC5/CapSense_Pins.c **** void CapSense_SetAllCmodsDriveMode(uint8 mode) 
  66:.\Generated_Source\PSoC5/CapSense_Pins.c **** {
 177              		.loc 1 66 0
 178              		.cfi_startproc
 179              		@ args = 0, pretend = 0, frame = 8
 180              		@ frame_needed = 1, uses_anonymous_args = 0
 181              		@ link register save eliminated.
 182 0000 80B4     		push	{r7}
 183              	.LCFI3:
 184              		.cfi_def_cfa_offset 4
 185 0002 83B0     		sub	sp, sp, #12
 186              	.LCFI4:
 187              		.cfi_def_cfa_offset 16
 188 0004 00AF     		add	r7, sp, #0
 189              		.cfi_offset 7, -4
 190              	.LCFI5:
 191              		.cfi_def_cfa_register 7
 192 0006 0346     		mov	r3, r0
 193 0008 FB71     		strb	r3, [r7, #7]
  67:.\Generated_Source\PSoC5/CapSense_Pins.c ****    /* Set pins drive mode */
  68:.\Generated_Source\PSoC5/CapSense_Pins.c ****     CyPins_SetPinDriveMode(CapSense_CmodCH0_Cmod_CH0, mode);
 194              		.loc 1 68 0
 195 000a 45F27D03 		movw	r3, #:lower16:1073762429
 196 000e C4F20003 		movt	r3, #:upper16:1073762429
 197 0012 45F27D02 		movw	r2, #:lower16:1073762429
 198 0016 C4F20002 		movt	r2, #:upper16:1073762429
 199 001a 1278     		ldrb	r2, [r2, #0]
 200 001c D2B2     		uxtb	r2, r2
 201 001e D1B2     		uxtb	r1, r2
 202 0020 01F0F101 		and	r1, r1, #241
 203 0024 FA79     		ldrb	r2, [r7, #7]	@ zero_extendqisi2
 204 0026 D2B2     		uxtb	r2, r2
 205 0028 02F00E02 		and	r2, r2, #14
 206 002c 41EA0202 		orr	r2, r1, r2
 207 0030 D2B2     		uxtb	r2, r2
 208 0032 D2B2     		uxtb	r2, r2
 209 0034 1A70     		strb	r2, [r3, #0]
  69:.\Generated_Source\PSoC5/CapSense_Pins.c **** 
  70:.\Generated_Source\PSoC5/CapSense_Pins.c **** }
 210              		.loc 1 70 0
 211 0036 07F10C07 		add	r7, r7, #12
ARM GAS  C:\Users\dmtucker\AppData\Local\Temp\cc0zdEfi.s 			page 6


 212 003a BD46     		mov	sp, r7
 213 003c 80BC     		pop	{r7}
 214 003e 7047     		bx	lr
 215              		.cfi_endproc
 216              	.LFE1:
 217              		.size	CapSense_SetAllCmodsDriveMode, .-CapSense_SetAllCmodsDriveMode
 218              		.text
 219              	.Letext0: