ARM GAS  C:\Users\dmtucker\AppData\Local\Temp\cccUoJvr.s 			page 1


   1              		.syntax unified
   2              		.cpu cortex-m3
   3              		.fpu softvfp
   4              		.eabi_attribute 20, 1
   5              		.eabi_attribute 21, 1
   6              		.eabi_attribute 23, 3
   7              		.eabi_attribute 24, 1
   8              		.eabi_attribute 25, 1
   9              		.eabi_attribute 26, 1
  10              		.eabi_attribute 30, 6
  11              		.eabi_attribute 18, 4
  12              		.thumb
  13              		.file	"display.c"
  20 0000 A7000000 		.text
  20      02004900 
  20      00000201 
  20      FB0E0D00 
  20      01010101 
  21              	.Ltext0:
  22              		.cfi_sections	.debug_frame
  23              		.section	.rodata
  24              		.align	2
  25              	.LC0:
  26 0000 20202020 		.ascii	"                \000"
  26      20202020 
  26      20202020 
  26      20202020 
  26      00
  27 0011 000000   		.section	.text.LCD_ClearLine,"ax",%progbits
  28              		.align	2
  29              		.global	LCD_ClearLine
  30              		.thumb
  31              		.thumb_func
  32              		.type	LCD_ClearLine, %function
  33              	LCD_ClearLine:
  34              	.LFB29:
  35              		.file 1 ".\\display.c"
   1:.\display.c   **** #include <device.h>
   2:.\display.c   **** 
   3:.\display.c   **** 
   4:.\display.c   **** 
   5:.\display.c   **** 
   6:.\display.c   **** void LCD_ClearLine (int line) {
  36              		.loc 1 6 0
  37              		.cfi_startproc
  38              		@ args = 0, pretend = 0, frame = 8
  39              		@ frame_needed = 1, uses_anonymous_args = 0
  40 0000 80B5     		push	{r7, lr}
  41              	.LCFI0:
  42              		.cfi_def_cfa_offset 8
  43 0002 82B0     		sub	sp, sp, #8
ARM GAS  C:\Users\dmtucker\AppData\Local\Temp\cccUoJvr.s 			page 2


  44              	.LCFI1:
  45              		.cfi_def_cfa_offset 16
  46 0004 00AF     		add	r7, sp, #0
  47              		.cfi_offset 14, -4
  48              		.cfi_offset 7, -8
  49              	.LCFI2:
  50              		.cfi_def_cfa_register 7
  51 0006 7860     		str	r0, [r7, #4]
   7:.\display.c   ****     LCD_Position(line,0);
  52              		.loc 1 7 0
  53 0008 7B68     		ldr	r3, [r7, #4]
  54 000a DBB2     		uxtb	r3, r3
  55 000c 1846     		mov	r0, r3
  56 000e 4FF00001 		mov	r1, #0
  57 0012 FFF7FEFF 		bl	LCD_Position
   8:.\display.c   ****     LCD_PrintString("                ");
  58              		.loc 1 8 0
  59 0016 40F20000 		movw	r0, #:lower16:.LC0
  60 001a C0F20000 		movt	r0, #:upper16:.LC0
  61 001e FFF7FEFF 		bl	LCD_PrintString
   9:.\display.c   **** }
  62              		.loc 1 9 0
  63 0022 07F10807 		add	r7, r7, #8
  64 0026 BD46     		mov	sp, r7
  65 0028 80BD     		pop	{r7, pc}
  66              		.cfi_endproc
  67              	.LFE29:
  68              		.size	LCD_ClearLine, .-LCD_ClearLine
  69 002a 00BF     		.section	.text.LCD_UpdateStatus,"ax",%progbits
  70              		.align	2
  71              		.global	LCD_UpdateStatus
  72              		.thumb
  73              		.thumb_func
  74              		.type	LCD_UpdateStatus, %function
  75              	LCD_UpdateStatus:
  76              	.LFB30:
  10:.\display.c   **** 
  11:.\display.c   **** 
  12:.\display.c   **** 
  13:.\display.c   **** 
  14:.\display.c   **** void LCD_UpdateStatus (const char string[]) {
  77              		.loc 1 14 0
  78              		.cfi_startproc
  79              		@ args = 0, pretend = 0, frame = 8
  80              		@ frame_needed = 1, uses_anonymous_args = 0
  81 0000 80B5     		push	{r7, lr}
  82              	.LCFI3:
  83              		.cfi_def_cfa_offset 8
  84 0002 82B0     		sub	sp, sp, #8
  85              	.LCFI4:
  86              		.cfi_def_cfa_offset 16
  87 0004 00AF     		add	r7, sp, #0
  88              		.cfi_offset 14, -4
  89              		.cfi_offset 7, -8
  90              	.LCFI5:
  91              		.cfi_def_cfa_register 7
  92 0006 7860     		str	r0, [r7, #4]
ARM GAS  C:\Users\dmtucker\AppData\Local\Temp\cccUoJvr.s 			page 3


  15:.\display.c   ****     LCD_ClearDisplay();
  93              		.loc 1 15 0
  94 0008 4FF00100 		mov	r0, #1
  95 000c FFF7FEFF 		bl	LCD_WriteControl
  16:.\display.c   ****     LCD_Position(0,0);
  96              		.loc 1 16 0
  97 0010 4FF00000 		mov	r0, #0
  98 0014 4FF00001 		mov	r1, #0
  99 0018 FFF7FEFF 		bl	LCD_Position
  17:.\display.c   ****     LCD_PrintString(string);
 100              		.loc 1 17 0
 101 001c 7868     		ldr	r0, [r7, #4]
 102 001e FFF7FEFF 		bl	LCD_PrintString
  18:.\display.c   **** }
 103              		.loc 1 18 0
 104 0022 07F10807 		add	r7, r7, #8
 105 0026 BD46     		mov	sp, r7
 106 0028 80BD     		pop	{r7, pc}
 107              		.cfi_endproc
 108              	.LFE30:
 109              		.size	LCD_UpdateStatus, .-LCD_UpdateStatus
 110 002a 00BF     		.section	.text.LCD_UpdateMessage,"ax",%progbits
 111              		.align	2
 112              		.global	LCD_UpdateMessage
 113              		.thumb
 114              		.thumb_func
 115              		.type	LCD_UpdateMessage, %function
 116              	LCD_UpdateMessage:
 117              	.LFB31:
  19:.\display.c   **** 
  20:.\display.c   **** 
  21:.\display.c   **** 
  22:.\display.c   **** 
  23:.\display.c   **** void LCD_UpdateMessage (const char string[]) {
 118              		.loc 1 23 0
 119              		.cfi_startproc
 120              		@ args = 0, pretend = 0, frame = 8
 121              		@ frame_needed = 1, uses_anonymous_args = 0
 122 0000 80B5     		push	{r7, lr}
 123              	.LCFI6:
 124              		.cfi_def_cfa_offset 8
 125 0002 82B0     		sub	sp, sp, #8
 126              	.LCFI7:
 127              		.cfi_def_cfa_offset 16
 128 0004 00AF     		add	r7, sp, #0
 129              		.cfi_offset 14, -4
 130              		.cfi_offset 7, -8
 131              	.LCFI8:
 132              		.cfi_def_cfa_register 7
 133 0006 7860     		str	r0, [r7, #4]
  24:.\display.c   ****     LCD_ClearLine(1);
 134              		.loc 1 24 0
 135 0008 4FF00100 		mov	r0, #1
 136 000c FFF7FEFF 		bl	LCD_ClearLine
  25:.\display.c   ****     LCD_Position(1,0);
 137              		.loc 1 25 0
 138 0010 4FF00100 		mov	r0, #1
ARM GAS  C:\Users\dmtucker\AppData\Local\Temp\cccUoJvr.s 			page 4


 139 0014 4FF00001 		mov	r1, #0
 140 0018 FFF7FEFF 		bl	LCD_Position
  26:.\display.c   ****     LCD_PrintString(string);
 141              		.loc 1 26 0
 142 001c 7868     		ldr	r0, [r7, #4]
 143 001e FFF7FEFF 		bl	LCD_PrintString
  27:.\display.c   **** }
 144              		.loc 1 27 0
 145 0022 07F10807 		add	r7, r7, #8
 146 0026 BD46     		mov	sp, r7
 147 0028 80BD     		pop	{r7, pc}
 148              		.cfi_endproc
 149              	.LFE31:
 150              		.size	LCD_UpdateMessage, .-LCD_UpdateMessage
 151 002a 00BF     		.section	.text.LCD_Spin,"ax",%progbits
 152              		.align	2
 153              		.global	LCD_Spin
 154              		.thumb
 155              		.thumb_func
 156              		.type	LCD_Spin, %function
 157              	LCD_Spin:
 158              	.LFB32:
  28:.\display.c   **** 
  29:.\display.c   **** 
  30:.\display.c   **** 
  31:.\display.c   **** 
  32:.\display.c   **** void LCD_Spin (int row, int col, int speed, int count) {
 159              		.loc 1 32 0
 160              		.cfi_startproc
 161              		@ args = 0, pretend = 0, frame = 16
 162              		@ frame_needed = 1, uses_anonymous_args = 0
 163 0000 80B5     		push	{r7, lr}
 164              	.LCFI9:
 165              		.cfi_def_cfa_offset 8
 166 0002 84B0     		sub	sp, sp, #16
 167              	.LCFI10:
 168              		.cfi_def_cfa_offset 24
 169 0004 00AF     		add	r7, sp, #0
 170              		.cfi_offset 14, -4
 171              		.cfi_offset 7, -8
 172              	.LCFI11:
 173              		.cfi_def_cfa_register 7
 174 0006 F860     		str	r0, [r7, #12]
 175 0008 B960     		str	r1, [r7, #8]
 176 000a 7A60     		str	r2, [r7, #4]
 177 000c 3B60     		str	r3, [r7, #0]
  33:.\display.c   ****     while (count-- > 0) {
 178              		.loc 1 33 0
 179 000e 5BE0     		b	.L8
 180              	.L9:
  34:.\display.c   ****         LCD_Position(row,col);
 181              		.loc 1 34 0
 182 0010 FB68     		ldr	r3, [r7, #12]
 183 0012 DAB2     		uxtb	r2, r3
 184 0014 BB68     		ldr	r3, [r7, #8]
 185 0016 DBB2     		uxtb	r3, r3
 186 0018 1046     		mov	r0, r2
ARM GAS  C:\Users\dmtucker\AppData\Local\Temp\cccUoJvr.s 			page 5


 187 001a 1946     		mov	r1, r3
 188 001c FFF7FEFF 		bl	LCD_Position
  35:.\display.c   ****         LCD_PutChar('|');
 189              		.loc 1 35 0
 190 0020 4FF07C00 		mov	r0, #124
 191 0024 FFF7FEFF 		bl	LCD_PutChar
  36:.\display.c   ****         CyDelay(speed/4);
 192              		.loc 1 36 0
 193 0028 7B68     		ldr	r3, [r7, #4]
 194 002a 03F10302 		add	r2, r3, #3
 195 002e 002B     		cmp	r3, #0
 196 0030 B8BF     		it	lt
 197 0032 1346     		movlt	r3, r2
 198 0034 4FEAA303 		asr	r3, r3, #2
 199 0038 1846     		mov	r0, r3
 200 003a FFF7FEFF 		bl	CyDelay
  37:.\display.c   ****         LCD_Position(row,col);
 201              		.loc 1 37 0
 202 003e FB68     		ldr	r3, [r7, #12]
 203 0040 DAB2     		uxtb	r2, r3
 204 0042 BB68     		ldr	r3, [r7, #8]
 205 0044 DBB2     		uxtb	r3, r3
 206 0046 1046     		mov	r0, r2
 207 0048 1946     		mov	r1, r3
 208 004a FFF7FEFF 		bl	LCD_Position
  38:.\display.c   ****         LCD_PutChar('/');
 209              		.loc 1 38 0
 210 004e 4FF02F00 		mov	r0, #47
 211 0052 FFF7FEFF 		bl	LCD_PutChar
  39:.\display.c   ****         CyDelay(speed/4);
 212              		.loc 1 39 0
 213 0056 7B68     		ldr	r3, [r7, #4]
 214 0058 03F10302 		add	r2, r3, #3
 215 005c 002B     		cmp	r3, #0
 216 005e B8BF     		it	lt
 217 0060 1346     		movlt	r3, r2
 218 0062 4FEAA303 		asr	r3, r3, #2
 219 0066 1846     		mov	r0, r3
 220 0068 FFF7FEFF 		bl	CyDelay
  40:.\display.c   ****         LCD_Position(row,col);
 221              		.loc 1 40 0
 222 006c FB68     		ldr	r3, [r7, #12]
 223 006e DAB2     		uxtb	r2, r3
 224 0070 BB68     		ldr	r3, [r7, #8]
 225 0072 DBB2     		uxtb	r3, r3
 226 0074 1046     		mov	r0, r2
 227 0076 1946     		mov	r1, r3
 228 0078 FFF7FEFF 		bl	LCD_Position
  41:.\display.c   ****         LCD_PutChar('-');
 229              		.loc 1 41 0
 230 007c 4FF02D00 		mov	r0, #45
 231 0080 FFF7FEFF 		bl	LCD_PutChar
  42:.\display.c   ****         CyDelay(speed/4);
 232              		.loc 1 42 0
 233 0084 7B68     		ldr	r3, [r7, #4]
 234 0086 03F10302 		add	r2, r3, #3
 235 008a 002B     		cmp	r3, #0
ARM GAS  C:\Users\dmtucker\AppData\Local\Temp\cccUoJvr.s 			page 6


 236 008c B8BF     		it	lt
 237 008e 1346     		movlt	r3, r2
 238 0090 4FEAA303 		asr	r3, r3, #2
 239 0094 1846     		mov	r0, r3
 240 0096 FFF7FEFF 		bl	CyDelay
  43:.\display.c   ****         LCD_Position(row,col);
 241              		.loc 1 43 0
 242 009a FB68     		ldr	r3, [r7, #12]
 243 009c DAB2     		uxtb	r2, r3
 244 009e BB68     		ldr	r3, [r7, #8]
 245 00a0 DBB2     		uxtb	r3, r3
 246 00a2 1046     		mov	r0, r2
 247 00a4 1946     		mov	r1, r3
 248 00a6 FFF7FEFF 		bl	LCD_Position
  44:.\display.c   ****         LCD_PutChar('\\');
 249              		.loc 1 44 0
 250 00aa 4FF05C00 		mov	r0, #92
 251 00ae FFF7FEFF 		bl	LCD_PutChar
  45:.\display.c   ****         CyDelay(speed/4);
 252              		.loc 1 45 0
 253 00b2 7B68     		ldr	r3, [r7, #4]
 254 00b4 03F10302 		add	r2, r3, #3
 255 00b8 002B     		cmp	r3, #0
 256 00ba B8BF     		it	lt
 257 00bc 1346     		movlt	r3, r2
 258 00be 4FEAA303 		asr	r3, r3, #2
 259 00c2 1846     		mov	r0, r3
 260 00c4 FFF7FEFF 		bl	CyDelay
 261              	.L8:
 262              		.loc 1 33 0
 263 00c8 3B68     		ldr	r3, [r7, #0]
 264 00ca 002B     		cmp	r3, #0
 265 00cc D4BF     		ite	le
 266 00ce 0023     		movle	r3, #0
 267 00d0 0123     		movgt	r3, #1
 268 00d2 DBB2     		uxtb	r3, r3
 269 00d4 3A68     		ldr	r2, [r7, #0]
 270 00d6 02F1FF32 		add	r2, r2, #-1
 271 00da 3A60     		str	r2, [r7, #0]
 272 00dc 002B     		cmp	r3, #0
 273 00de 97D1     		bne	.L9
  46:.\display.c   ****     }
  47:.\display.c   **** }
 274              		.loc 1 47 0
 275 00e0 07F11007 		add	r7, r7, #16
 276 00e4 BD46     		mov	sp, r7
 277 00e6 80BD     		pop	{r7, pc}
 278              		.cfi_endproc
 279              	.LFE32:
 280              		.size	LCD_Spin, .-LCD_Spin
 281              		.text
 282              	.Letext0: