ARM GAS  C:\Users\dmtucker\AppData\Local\Temp\ccZJkpEN.s 			page 1


   1              		.syntax unified
   2              		.cpu cortex-m3
   3              		.fpu softvfp
   4              		.eabi_attribute 20, 1
   5              		.eabi_attribute 21, 1
   6              		.eabi_attribute 23, 3
   7              		.eabi_attribute 24, 1
   8              		.eabi_attribute 25, 1
   9              		.eabi_attribute 26, 1
  10              		.eabi_attribute 30, 6
  11              		.eabi_attribute 18, 4
  12              		.thumb
  13              		.file	"main.c"
  14              		.section	.debug_abbrev,"",%progbits
  15              	.Ldebug_abbrev0:
  16              		.section	.debug_info,"",%progbits
  17              	.Ldebug_info0:
  18              		.section	.debug_line,"",%progbits
  19              	.Ldebug_line0:
  20 0000 08020000 		.text
  20      02005300 
  20      00000201 
  20      FB0E0D00 
  20      01010101 
  21              	.Ltext0:
  22              		.cfi_sections	.debug_frame
  23              		.comm	player1,64,4
  24              		.comm	player2,64,4
  25              		.global	player1_color
  26              		.data
  27              		.type	player1_color, %object
  28              		.size	player1_color, 1
  29              	player1_color:
  30 0000 01       		.byte	1
  31              		.global	player2_color
  32              		.type	player2_color, %object
  33              		.size	player2_color, 1
  34              	player2_color:
  35 0001 04       		.byte	4
  36              		.global	player1_turn
  37              		.type	player1_turn, %object
  38              		.size	player1_turn, 1
  39              	player1_turn:
  40 0002 01       		.byte	1
  41              		.global	player2_local
  42              		.type	player2_local, %object
  43              		.size	player2_local, 1
  44              	player2_local:
  45 0003 01       		.byte	1
  46              		.global	locating
  47              		.bss
  48              		.type	locating, %object
  49              		.size	locating, 1
  50              	locating:
  51 0000 00       		.space	1
  52              		.section	.text.toggle,"ax",%progbits
  53              		.align	2
ARM GAS  C:\Users\dmtucker\AppData\Local\Temp\ccZJkpEN.s 			page 2


  54              		.global	toggle
  55              		.thumb
  56              		.thumb_func
  57              		.type	toggle, %function
  58              	toggle:
  59              	.LFB29:
  60              		.file 1 ".\\main.c"
   1:.\main.c      **** #include <device.h>
   2:.\main.c      **** #include <stdbool.h>
   3:.\main.c      **** #include <display.h>
   4:.\main.c      **** #include <matrix.h>
   5:.\main.c      **** 
   6:.\main.c      **** #define BUS_CLK_FREQ    24000000 // Hz
   7:.\main.c      **** #define REFRESH_RATE    1000     // [370,BUS_CLK_FREQ] Hz
   8:.\main.c      **** #define XBEE_GUARD_TIME 1000     // ms
   9:.\main.c      **** #define XBEE_CHANNEL    0x0F
  10:.\main.c      **** #define PLAYER1_ID      0xDA
  11:.\main.c      **** #define PLAYER2_ID      0x07
  12:.\main.c      **** 
  13:.\main.c      **** bool  player1[MATRIX_ROWS][MATRIX_COLS];
  14:.\main.c      **** bool  player2[MATRIX_ROWS][MATRIX_COLS];
  15:.\main.c      **** uint8 player1_color = RED;
  16:.\main.c      **** uint8 player2_color = BLUE;
  17:.\main.c      **** bool  player1_turn  = true;
  18:.\main.c      **** bool  player2_local = true;
  19:.\main.c      **** 
  20:.\main.c      **** /* remote play */
  21:.\main.c      **** typedef struct packet {
  22:.\main.c      ****     char   delimiter;
  23:.\main.c      ****     uint16 length;
  24:.\main.c      ****     uint8  api_id;
  25:.\main.c      ****     uint8  frame_id;
  26:.\main.c      ****     uint16 destination;
  27:.\main.c      ****     uint8  disable_ack;
  28:.\main.c      ****     uint8  player_id;
  29:.\main.c      ****     uint8  packet_type;
  30:.\main.c      ****     uint8  row;
  31:.\main.c      ****     uint8  col;
  32:.\main.c      ****     uint8  checksum;
  33:.\main.c      **** } packet_t;
  34:.\main.c      **** 
  35:.\main.c      **** 
  36:.\main.c      **** 
  37:.\main.c      **** 
  38:.\main.c      **** bool locating = false;
  39:.\main.c      **** CY_ISR (toggle) { if (locating) player2_local = !player2_local; }
  61              		.loc 1 39 0
  62              		.cfi_startproc
  63              		@ args = 0, pretend = 0, frame = 0
  64              		@ frame_needed = 1, uses_anonymous_args = 0
  65              		@ link register save eliminated.
  66 0000 80B4     		push	{r7}
  67              	.LCFI0:
  68              		.cfi_def_cfa_offset 4
  69 0002 00AF     		add	r7, sp, #0
  70              		.cfi_offset 7, -4
  71              	.LCFI1:
ARM GAS  C:\Users\dmtucker\AppData\Local\Temp\ccZJkpEN.s 			page 3


  72              		.cfi_def_cfa_register 7
  73              		.loc 1 39 0
  74 0004 40F20003 		movw	r3, #:lower16:locating
  75 0008 C0F20003 		movt	r3, #:upper16:locating
  76 000c 1B78     		ldrb	r3, [r3, #0]	@ zero_extendqisi2
  77 000e 002B     		cmp	r3, #0
  78 0010 0DD0     		beq	.L3
  79 0012 40F20003 		movw	r3, #:lower16:player2_local
  80 0016 C0F20003 		movt	r3, #:upper16:player2_local
  81 001a 1B78     		ldrb	r3, [r3, #0]	@ zero_extendqisi2
  82 001c 83F00103 		eor	r3, r3, #1
  83 0020 DBB2     		uxtb	r3, r3
  84 0022 DAB2     		uxtb	r2, r3
  85 0024 40F20003 		movw	r3, #:lower16:player2_local
  86 0028 C0F20003 		movt	r3, #:upper16:player2_local
  87 002c 1A70     		strb	r2, [r3, #0]
  88              	.L3:
  89 002e BD46     		mov	sp, r7
  90 0030 80BC     		pop	{r7}
  91 0032 7047     		bx	lr
  92              		.cfi_endproc
  93              	.LFE29:
  94              		.size	toggle, .-toggle
  95              		.section	.rodata
  96              		.align	2
  97              	.LC0:
  98 0000 436F6E66 		.ascii	"Config\000"
  98      696700
  99 0007 00       		.align	2
 100              	.LC1:
 101 0008 2B2B2B00 		.ascii	"+++\000"
 102              		.align	2
 103              	.LC2:
 104 000c 41544150 		.ascii	"ATAP1\000"
 104      3100
 105 0012 0000     		.align	2
 106              	.LC3:
 107 0014 41544150 		.ascii	"ATAP1\015\000"
 107      310D00
 108 001b 00       		.align	2
 109              	.LC4:
 110 001c 41544348 		.ascii	"ATCH 0x0F\000"
 110      20307830 
 110      4600
 111 0026 0000     		.align	2
 112              	.LC5:
 113 0028 41544348 		.ascii	"ATCH\000"
 113      00
 114 002d 000000   		.align	2
 115              	.LC6:
 116 0030 4154434E 		.ascii	"ATCN\000"
 116      00
 117 0035 000000   		.align	2
 118              	.LC7:
 119 0038 4154434E 		.ascii	"ATCN\015\000"
 119      0D00
 120              		.section	.text.configure_XBee,"ax",%progbits
ARM GAS  C:\Users\dmtucker\AppData\Local\Temp\ccZJkpEN.s 			page 4


 121              		.align	2
 122              		.global	configure_XBee
 123              		.thumb
 124              		.thumb_func
 125              		.type	configure_XBee, %function
 126              	configure_XBee:
 127              	.LFB30:
  40:.\main.c      **** 
  41:.\main.c      **** 
  42:.\main.c      **** 
  43:.\main.c      **** 
  44:.\main.c      **** void configure_XBee () {
 128              		.loc 1 44 0
 129              		.cfi_startproc
 130              		@ args = 0, pretend = 0, frame = 0
 131              		@ frame_needed = 1, uses_anonymous_args = 0
 132 0000 80B5     		push	{r7, lr}
 133              	.LCFI2:
 134              		.cfi_def_cfa_offset 8
 135 0002 00AF     		add	r7, sp, #0
 136              		.cfi_offset 14, -4
 137              		.cfi_offset 7, -8
 138              	.LCFI3:
 139              		.cfi_def_cfa_register 7
  45:.\main.c      ****     LCD_Position(1,8); // DEBUG
 140              		.loc 1 45 0
 141 0004 4FF00100 		mov	r0, #1
 142 0008 4FF00801 		mov	r1, #8
 143 000c FFF7FEFF 		bl	LCD_Position
  46:.\main.c      ****     LCD_PrintString("Config"); // DEBUG
 144              		.loc 1 46 0
 145 0010 40F20000 		movw	r0, #:lower16:.LC0
 146 0014 C0F20000 		movt	r0, #:upper16:.LC0
 147 0018 FFF7FEFF 		bl	LCD_PrintString
 148              	.L7:
  47:.\main.c      ****     do {
  48:.\main.c      ****         CyDelay(XBEE_GUARD_TIME);
 149              		.loc 1 48 0
 150 001c 4FF47A70 		mov	r0, #1000
 151 0020 FFF7FEFF 		bl	CyDelay
  49:.\main.c      ****         UART_PutString("+++");
 152              		.loc 1 49 0
 153 0024 40F20000 		movw	r0, #:lower16:.LC1
 154 0028 C0F20000 		movt	r0, #:upper16:.LC1
 155 002c FFF7FEFF 		bl	UART_PutString
  50:.\main.c      ****         CyDelay(XBEE_GUARD_TIME);
 156              		.loc 1 50 0
 157 0030 4FF47A70 		mov	r0, #1000
 158 0034 FFF7FEFF 		bl	CyDelay
 159              	.L5:
  51:.\main.c      ****         while (!(UART_ReadRxStatus() & UART_RX_STS_FIFO_NOTEMPTY));
 160              		.loc 1 51 0
 161 0038 FFF7FEFF 		bl	UART_ReadRxStatus
 162 003c 0346     		mov	r3, r0
 163 003e 03F02003 		and	r3, r3, #32
 164 0042 002B     		cmp	r3, #0
 165 0044 F8D0     		beq	.L5
ARM GAS  C:\Users\dmtucker\AppData\Local\Temp\ccZJkpEN.s 			page 5


  52:.\main.c      ****         LCD_Position(1,15); // DEBUG
 166              		.loc 1 52 0
 167 0046 4FF00100 		mov	r0, #1
 168 004a 4FF00F01 		mov	r1, #15
 169 004e FFF7FEFF 		bl	LCD_Position
  53:.\main.c      ****         LCD_PutChar('x'); // DEBUG
 170              		.loc 1 53 0
 171 0052 4FF07800 		mov	r0, #120
 172 0056 FFF7FEFF 		bl	LCD_PutChar
  54:.\main.c      ****     }
  55:.\main.c      ****     while (UART_ReadRxData() != 'O' && UART_ReadRxData() != 'K' && UART_ReadRxData() != '\r');
 173              		.loc 1 55 0
 174 005a FFF7FEFF 		bl	UART_ReadRxData
 175 005e 0346     		mov	r3, r0
 176 0060 4F2B     		cmp	r3, #79
 177 0062 09D0     		beq	.L6
 178 0064 FFF7FEFF 		bl	UART_ReadRxData
 179 0068 0346     		mov	r3, r0
 180 006a 4B2B     		cmp	r3, #75
 181 006c 04D0     		beq	.L6
 182 006e FFF7FEFF 		bl	UART_ReadRxData
 183 0072 0346     		mov	r3, r0
 184 0074 0D2B     		cmp	r3, #13
 185 0076 D1D1     		bne	.L7
 186              	.L6:
  56:.\main.c      ****     LCD_Position(1,8); // DEBUG
 187              		.loc 1 56 0
 188 0078 4FF00100 		mov	r0, #1
 189 007c 4FF00801 		mov	r1, #8
 190 0080 FFF7FEFF 		bl	LCD_Position
  57:.\main.c      ****     LCD_PrintString("ATAP1"); // DEBUG
 191              		.loc 1 57 0
 192 0084 40F20000 		movw	r0, #:lower16:.LC2
 193 0088 C0F20000 		movt	r0, #:upper16:.LC2
 194 008c FFF7FEFF 		bl	LCD_PrintString
  58:.\main.c      ****     UART_PutString("ATAP1\r");
 195              		.loc 1 58 0
 196 0090 40F20000 		movw	r0, #:lower16:.LC3
 197 0094 C0F20000 		movt	r0, #:upper16:.LC3
 198 0098 FFF7FEFF 		bl	UART_PutString
 199              	.L9:
  59:.\main.c      ****     while (UART_ReadRxData() != 'O' && UART_ReadRxData() != 'K' && UART_ReadRxData() != '\r');
 200              		.loc 1 59 0
 201 009c FFF7FEFF 		bl	UART_ReadRxData
 202 00a0 0346     		mov	r3, r0
 203 00a2 4F2B     		cmp	r3, #79
 204 00a4 09D0     		beq	.L8
 205 00a6 FFF7FEFF 		bl	UART_ReadRxData
 206 00aa 0346     		mov	r3, r0
 207 00ac 4B2B     		cmp	r3, #75
 208 00ae 04D0     		beq	.L8
 209 00b0 FFF7FEFF 		bl	UART_ReadRxData
 210 00b4 0346     		mov	r3, r0
 211 00b6 0D2B     		cmp	r3, #13
 212 00b8 F0D1     		bne	.L9
 213              	.L8:
  60:.\main.c      ****     LCD_Position(1,8); // DEBUG
ARM GAS  C:\Users\dmtucker\AppData\Local\Temp\ccZJkpEN.s 			page 6


 214              		.loc 1 60 0
 215 00ba 4FF00100 		mov	r0, #1
 216 00be 4FF00801 		mov	r1, #8
 217 00c2 FFF7FEFF 		bl	LCD_Position
  61:.\main.c      ****     LCD_PrintString("ATCH 0x0F"); // DEBUG
 218              		.loc 1 61 0
 219 00c6 40F20000 		movw	r0, #:lower16:.LC4
 220 00ca C0F20000 		movt	r0, #:upper16:.LC4
 221 00ce FFF7FEFF 		bl	LCD_PrintString
  62:.\main.c      ****     UART_PutString("ATCH");
 222              		.loc 1 62 0
 223 00d2 40F20000 		movw	r0, #:lower16:.LC5
 224 00d6 C0F20000 		movt	r0, #:upper16:.LC5
 225 00da FFF7FEFF 		bl	UART_PutString
  63:.\main.c      ****     UART_WriteTxData(XBEE_CHANNEL);
 226              		.loc 1 63 0
 227 00de 4FF00F00 		mov	r0, #15
 228 00e2 FFF7FEFF 		bl	UART_WriteTxData
  64:.\main.c      ****     UART_PutChar('\r');
 229              		.loc 1 64 0
 230 00e6 4FF00D00 		mov	r0, #13
 231 00ea FFF7FEFF 		bl	UART_PutChar
 232              	.L11:
  65:.\main.c      ****     while (UART_ReadRxData() != 'O' && UART_ReadRxData() != 'K' && UART_ReadRxData() != '\r');
 233              		.loc 1 65 0
 234 00ee FFF7FEFF 		bl	UART_ReadRxData
 235 00f2 0346     		mov	r3, r0
 236 00f4 4F2B     		cmp	r3, #79
 237 00f6 09D0     		beq	.L10
 238 00f8 FFF7FEFF 		bl	UART_ReadRxData
 239 00fc 0346     		mov	r3, r0
 240 00fe 4B2B     		cmp	r3, #75
 241 0100 04D0     		beq	.L10
 242 0102 FFF7FEFF 		bl	UART_ReadRxData
 243 0106 0346     		mov	r3, r0
 244 0108 0D2B     		cmp	r3, #13
 245 010a F0D1     		bne	.L11
 246              	.L10:
  66:.\main.c      ****     //UART_PutString("ATWR\r");
  67:.\main.c      ****     //while (UART_ReadRxData() != 'O' && UART_ReadRxData() != 'K' && UART_ReadRxData() != '\r');
  68:.\main.c      ****     LCD_Position(1,8); // DEBUG
 247              		.loc 1 68 0
 248 010c 4FF00100 		mov	r0, #1
 249 0110 4FF00801 		mov	r1, #8
 250 0114 FFF7FEFF 		bl	LCD_Position
  69:.\main.c      ****     LCD_PrintString("ATCN"); // DEBUG
 251              		.loc 1 69 0
 252 0118 40F20000 		movw	r0, #:lower16:.LC6
 253 011c C0F20000 		movt	r0, #:upper16:.LC6
 254 0120 FFF7FEFF 		bl	LCD_PrintString
  70:.\main.c      ****     UART_PutString("ATCN\r");
 255              		.loc 1 70 0
 256 0124 40F20000 		movw	r0, #:lower16:.LC7
 257 0128 C0F20000 		movt	r0, #:upper16:.LC7
 258 012c FFF7FEFF 		bl	UART_PutString
  71:.\main.c      ****     //while (UART_ReadRxData() != 'O' && UART_ReadRxData() != 'K' && UART_ReadRxData() != '\r');
  72:.\main.c      ****     RemoteLED_Write(0x01);
ARM GAS  C:\Users\dmtucker\AppData\Local\Temp\ccZJkpEN.s 			page 7


 259              		.loc 1 72 0
 260 0130 4FF00100 		mov	r0, #1
 261 0134 FFF7FEFF 		bl	RemoteLED_Write
  73:.\main.c      **** }
 262              		.loc 1 73 0
 263 0138 80BD     		pop	{r7, pc}
 264              		.cfi_endproc
 265              	.LFE30:
 266              		.size	configure_XBee, .-configure_XBee
 267 013a 00BF     		.section	.text.send_packet,"ax",%progbits
 268              		.align	2
 269              		.global	send_packet
 270              		.thumb
 271              		.thumb_func
 272              		.type	send_packet, %function
 273              	send_packet:
 274              	.LFB31:
  74:.\main.c      **** 
  75:.\main.c      **** 
  76:.\main.c      **** 
  77:.\main.c      **** 
  78:.\main.c      **** void send_packet ( packet_t * move ) {
 275              		.loc 1 78 0
 276              		.cfi_startproc
 277              		@ args = 0, pretend = 0, frame = 8
 278              		@ frame_needed = 1, uses_anonymous_args = 0
 279 0000 80B5     		push	{r7, lr}
 280              	.LCFI4:
 281              		.cfi_def_cfa_offset 8
 282 0002 82B0     		sub	sp, sp, #8
 283              	.LCFI5:
 284              		.cfi_def_cfa_offset 16
 285 0004 00AF     		add	r7, sp, #0
 286              		.cfi_offset 14, -4
 287              		.cfi_offset 7, -8
 288              	.LCFI6:
 289              		.cfi_def_cfa_register 7
 290 0006 7860     		str	r0, [r7, #4]
  79:.\main.c      ****     UART_WriteTxData(move->delimiter);
 291              		.loc 1 79 0
 292 0008 7B68     		ldr	r3, [r7, #4]
 293 000a 1B78     		ldrb	r3, [r3, #0]	@ zero_extendqisi2
 294 000c 1846     		mov	r0, r3
 295 000e FFF7FEFF 		bl	UART_WriteTxData
  80:.\main.c      ****     UART_WriteTxData((uint8) (move->length >> 4));
 296              		.loc 1 80 0
 297 0012 7B68     		ldr	r3, [r7, #4]
 298 0014 5B88     		ldrh	r3, [r3, #2]
 299 0016 4FEA1313 		lsr	r3, r3, #4
 300 001a 9BB2     		uxth	r3, r3
 301 001c DBB2     		uxtb	r3, r3
 302 001e 1846     		mov	r0, r3
 303 0020 FFF7FEFF 		bl	UART_WriteTxData
  81:.\main.c      ****     UART_WriteTxData((uint8) move->length);
 304              		.loc 1 81 0
 305 0024 7B68     		ldr	r3, [r7, #4]
 306 0026 5B88     		ldrh	r3, [r3, #2]
ARM GAS  C:\Users\dmtucker\AppData\Local\Temp\ccZJkpEN.s 			page 8


 307 0028 DBB2     		uxtb	r3, r3
 308 002a 1846     		mov	r0, r3
 309 002c FFF7FEFF 		bl	UART_WriteTxData
  82:.\main.c      ****     UART_WriteTxData(move->api_id);
 310              		.loc 1 82 0
 311 0030 7B68     		ldr	r3, [r7, #4]
 312 0032 1B79     		ldrb	r3, [r3, #4]	@ zero_extendqisi2
 313 0034 1846     		mov	r0, r3
 314 0036 FFF7FEFF 		bl	UART_WriteTxData
  83:.\main.c      ****     UART_WriteTxData(move->frame_id);
 315              		.loc 1 83 0
 316 003a 7B68     		ldr	r3, [r7, #4]
 317 003c 5B79     		ldrb	r3, [r3, #5]	@ zero_extendqisi2
 318 003e 1846     		mov	r0, r3
 319 0040 FFF7FEFF 		bl	UART_WriteTxData
  84:.\main.c      ****     UART_WriteTxData((uint8) (move->destination >> 4));
 320              		.loc 1 84 0
 321 0044 7B68     		ldr	r3, [r7, #4]
 322 0046 DB88     		ldrh	r3, [r3, #6]
 323 0048 4FEA1313 		lsr	r3, r3, #4
 324 004c 9BB2     		uxth	r3, r3
 325 004e DBB2     		uxtb	r3, r3
 326 0050 1846     		mov	r0, r3
 327 0052 FFF7FEFF 		bl	UART_WriteTxData
  85:.\main.c      ****     UART_WriteTxData((uint8) (move->destination));
 328              		.loc 1 85 0
 329 0056 7B68     		ldr	r3, [r7, #4]
 330 0058 DB88     		ldrh	r3, [r3, #6]
 331 005a DBB2     		uxtb	r3, r3
 332 005c 1846     		mov	r0, r3
 333 005e FFF7FEFF 		bl	UART_WriteTxData
  86:.\main.c      ****     UART_WriteTxData(move->disable_ack);
 334              		.loc 1 86 0
 335 0062 7B68     		ldr	r3, [r7, #4]
 336 0064 1B7A     		ldrb	r3, [r3, #8]	@ zero_extendqisi2
 337 0066 1846     		mov	r0, r3
 338 0068 FFF7FEFF 		bl	UART_WriteTxData
  87:.\main.c      ****     UART_WriteTxData(move->player_id);
 339              		.loc 1 87 0
 340 006c 7B68     		ldr	r3, [r7, #4]
 341 006e 5B7A     		ldrb	r3, [r3, #9]	@ zero_extendqisi2
 342 0070 1846     		mov	r0, r3
 343 0072 FFF7FEFF 		bl	UART_WriteTxData
  88:.\main.c      ****     UART_WriteTxData(move->packet_type);
 344              		.loc 1 88 0
 345 0076 7B68     		ldr	r3, [r7, #4]
 346 0078 9B7A     		ldrb	r3, [r3, #10]	@ zero_extendqisi2
 347 007a 1846     		mov	r0, r3
 348 007c FFF7FEFF 		bl	UART_WriteTxData
  89:.\main.c      ****     UART_WriteTxData(move->row);
 349              		.loc 1 89 0
 350 0080 7B68     		ldr	r3, [r7, #4]
 351 0082 DB7A     		ldrb	r3, [r3, #11]	@ zero_extendqisi2
 352 0084 1846     		mov	r0, r3
 353 0086 FFF7FEFF 		bl	UART_WriteTxData
  90:.\main.c      ****     UART_WriteTxData(move->col);
 354              		.loc 1 90 0
ARM GAS  C:\Users\dmtucker\AppData\Local\Temp\ccZJkpEN.s 			page 9


 355 008a 7B68     		ldr	r3, [r7, #4]
 356 008c 1B7B     		ldrb	r3, [r3, #12]	@ zero_extendqisi2
 357 008e 1846     		mov	r0, r3
 358 0090 FFF7FEFF 		bl	UART_WriteTxData
  91:.\main.c      ****     UART_WriteTxData(move->checksum);
 359              		.loc 1 91 0
 360 0094 7B68     		ldr	r3, [r7, #4]
 361 0096 5B7B     		ldrb	r3, [r3, #13]	@ zero_extendqisi2
 362 0098 1846     		mov	r0, r3
 363 009a FFF7FEFF 		bl	UART_WriteTxData
  92:.\main.c      **** }
 364              		.loc 1 92 0
 365 009e 07F10807 		add	r7, r7, #8
 366 00a2 BD46     		mov	sp, r7
 367 00a4 80BD     		pop	{r7, pc}
 368              		.cfi_endproc
 369              	.LFE31:
 370              		.size	send_packet, .-send_packet
 371 00a6 00BF     		.section	.text.receive_packet,"ax",%progbits
 372              		.align	2
 373              		.global	receive_packet
 374              		.thumb
 375              		.thumb_func
 376              		.type	receive_packet, %function
 377              	receive_packet:
 378              	.LFB32:
  93:.\main.c      **** 
  94:.\main.c      **** 
  95:.\main.c      **** 
  96:.\main.c      **** 
  97:.\main.c      **** void receive_packet ( packet_t * move ) {
 379              		.loc 1 97 0
 380              		.cfi_startproc
 381              		@ args = 0, pretend = 0, frame = 8
 382              		@ frame_needed = 1, uses_anonymous_args = 0
 383 0000 80B5     		push	{r7, lr}
 384              	.LCFI7:
 385              		.cfi_def_cfa_offset 8
 386 0002 82B0     		sub	sp, sp, #8
 387              	.LCFI8:
 388              		.cfi_def_cfa_offset 16
 389 0004 00AF     		add	r7, sp, #0
 390              		.cfi_offset 14, -4
 391              		.cfi_offset 7, -8
 392              	.LCFI9:
 393              		.cfi_def_cfa_register 7
 394 0006 7860     		str	r0, [r7, #4]
 395              	.L16:
  98:.\main.c      ****     
  99:.\main.c      ****     do { while (!(UART_ReadRxStatus() & UART_RX_STS_FIFO_NOTEMPTY)); }
 396              		.loc 1 99 0
 397 0008 FFF7FEFF 		bl	UART_ReadRxStatus
 398 000c 0346     		mov	r3, r0
 399 000e 03F02003 		and	r3, r3, #32
 400 0012 002B     		cmp	r3, #0
 401 0014 F8D0     		beq	.L16
 100:.\main.c      ****     while (UART_ReadRxData() != '~');
ARM GAS  C:\Users\dmtucker\AppData\Local\Temp\ccZJkpEN.s 			page 10


 402              		.loc 1 100 0
 403 0016 FFF7FEFF 		bl	UART_ReadRxData
 404 001a 0346     		mov	r3, r0
 405 001c 7E2B     		cmp	r3, #126
 406 001e F3D1     		bne	.L16
 101:.\main.c      ****     move->delimiter = '~';
 407              		.loc 1 101 0
 408 0020 7B68     		ldr	r3, [r7, #4]
 409 0022 4FF07E02 		mov	r2, #126
 410 0026 1A70     		strb	r2, [r3, #0]
 411              	.L17:
 102:.\main.c      ****     
 103:.\main.c      ****     while (!(UART_ReadRxStatus() & UART_RX_STS_FIFO_NOTEMPTY));
 412              		.loc 1 103 0
 413 0028 FFF7FEFF 		bl	UART_ReadRxStatus
 414 002c 0346     		mov	r3, r0
 415 002e 03F02003 		and	r3, r3, #32
 416 0032 002B     		cmp	r3, #0
 417 0034 F8D0     		beq	.L17
 104:.\main.c      ****     move->length = UART_ReadRxData();
 418              		.loc 1 104 0
 419 0036 FFF7FEFF 		bl	UART_ReadRxData
 420 003a 0346     		mov	r3, r0
 421 003c 1A46     		mov	r2, r3
 422 003e 7B68     		ldr	r3, [r7, #4]
 423 0040 5A80     		strh	r2, [r3, #2]	@ movhi
 105:.\main.c      ****     move->length <<= 8;
 424              		.loc 1 105 0
 425 0042 7B68     		ldr	r3, [r7, #4]
 426 0044 5B88     		ldrh	r3, [r3, #2]
 427 0046 4FEA0323 		lsl	r3, r3, #8
 428 004a 9AB2     		uxth	r2, r3
 429 004c 7B68     		ldr	r3, [r7, #4]
 430 004e 5A80     		strh	r2, [r3, #2]	@ movhi
 106:.\main.c      ****     //while (!(UART_ReadRxStatus() & UART_RX_STS_FIFO_NOTEMPTY));
 107:.\main.c      ****     move->length = UART_ReadRxData(); //not quite
 431              		.loc 1 107 0
 432 0050 FFF7FEFF 		bl	UART_ReadRxData
 433 0054 0346     		mov	r3, r0
 434 0056 1A46     		mov	r2, r3
 435 0058 7B68     		ldr	r3, [r7, #4]
 436 005a 5A80     		strh	r2, [r3, #2]	@ movhi
 437              	.L18:
 108:.\main.c      ****     
 109:.\main.c      ****     while (!(UART_ReadRxStatus() & UART_RX_STS_FIFO_NOTEMPTY));
 438              		.loc 1 109 0
 439 005c FFF7FEFF 		bl	UART_ReadRxStatus
 440 0060 0346     		mov	r3, r0
 441 0062 03F02003 		and	r3, r3, #32
 442 0066 002B     		cmp	r3, #0
 443 0068 F8D0     		beq	.L18
 110:.\main.c      ****     move->api_id = UART_ReadRxData();
 444              		.loc 1 110 0
 445 006a FFF7FEFF 		bl	UART_ReadRxData
 446 006e 0346     		mov	r3, r0
 447 0070 1A46     		mov	r2, r3
 448 0072 7B68     		ldr	r3, [r7, #4]
ARM GAS  C:\Users\dmtucker\AppData\Local\Temp\ccZJkpEN.s 			page 11


 449 0074 1A71     		strb	r2, [r3, #4]
 450              	.L19:
 111:.\main.c      ****     if (move->api_id != 0x01); //???
 112:.\main.c      ****     
 113:.\main.c      ****     while (!(UART_ReadRxStatus() & UART_RX_STS_FIFO_NOTEMPTY));
 451              		.loc 1 113 0
 452 0076 FFF7FEFF 		bl	UART_ReadRxStatus
 453 007a 0346     		mov	r3, r0
 454 007c 03F02003 		and	r3, r3, #32
 455 0080 002B     		cmp	r3, #0
 456 0082 F8D0     		beq	.L19
 114:.\main.c      ****     move->frame_id = UART_ReadRxData();
 457              		.loc 1 114 0
 458 0084 FFF7FEFF 		bl	UART_ReadRxData
 459 0088 0346     		mov	r3, r0
 460 008a 1A46     		mov	r2, r3
 461 008c 7B68     		ldr	r3, [r7, #4]
 462 008e 5A71     		strb	r2, [r3, #5]
 463              	.L20:
 115:.\main.c      ****     if (move->frame_id != 0x00); //maybe this needs to be a sequence #?
 116:.\main.c      ****     
 117:.\main.c      ****     while (!(UART_ReadRxStatus() & UART_RX_STS_FIFO_NOTEMPTY));
 464              		.loc 1 117 0
 465 0090 FFF7FEFF 		bl	UART_ReadRxStatus
 466 0094 0346     		mov	r3, r0
 467 0096 03F02003 		and	r3, r3, #32
 468 009a 002B     		cmp	r3, #0
 469 009c F8D0     		beq	.L20
 118:.\main.c      ****     move->destination = UART_ReadRxData();
 470              		.loc 1 118 0
 471 009e FFF7FEFF 		bl	UART_ReadRxData
 472 00a2 0346     		mov	r3, r0
 473 00a4 1A46     		mov	r2, r3
 474 00a6 7B68     		ldr	r3, [r7, #4]
 475 00a8 DA80     		strh	r2, [r3, #6]	@ movhi
 119:.\main.c      ****     move->destination <<= 8;
 476              		.loc 1 119 0
 477 00aa 7B68     		ldr	r3, [r7, #4]
 478 00ac DB88     		ldrh	r3, [r3, #6]
 479 00ae 4FEA0323 		lsl	r3, r3, #8
 480 00b2 9AB2     		uxth	r2, r3
 481 00b4 7B68     		ldr	r3, [r7, #4]
 482 00b6 DA80     		strh	r2, [r3, #6]	@ movhi
 120:.\main.c      ****     //while (!(UART_ReadRxStatus() & UART_RX_STS_FIFO_NOTEMPTY));
 121:.\main.c      ****     move->destination = UART_ReadRxData(); //not quite
 483              		.loc 1 121 0
 484 00b8 FFF7FEFF 		bl	UART_ReadRxData
 485 00bc 0346     		mov	r3, r0
 486 00be 1A46     		mov	r2, r3
 487 00c0 7B68     		ldr	r3, [r7, #4]
 488 00c2 DA80     		strh	r2, [r3, #6]	@ movhi
 489              	.L21:
 122:.\main.c      ****     if (move->destination != 0xFFFF); //???
 123:.\main.c      ****     
 124:.\main.c      ****     while (!(UART_ReadRxStatus() & UART_RX_STS_FIFO_NOTEMPTY));
 490              		.loc 1 124 0
 491 00c4 FFF7FEFF 		bl	UART_ReadRxStatus
ARM GAS  C:\Users\dmtucker\AppData\Local\Temp\ccZJkpEN.s 			page 12


 492 00c8 0346     		mov	r3, r0
 493 00ca 03F02003 		and	r3, r3, #32
 494 00ce 002B     		cmp	r3, #0
 495 00d0 F8D0     		beq	.L21
 125:.\main.c      ****     move->disable_ack = UART_ReadRxData();
 496              		.loc 1 125 0
 497 00d2 FFF7FEFF 		bl	UART_ReadRxData
 498 00d6 0346     		mov	r3, r0
 499 00d8 1A46     		mov	r2, r3
 500 00da 7B68     		ldr	r3, [r7, #4]
 501 00dc 1A72     		strb	r2, [r3, #8]
 502              	.L22:
 126:.\main.c      ****     if (move->disable_ack != 0x01); //ack?
 127:.\main.c      ****     
 128:.\main.c      ****     while (!(UART_ReadRxStatus() & UART_RX_STS_FIFO_NOTEMPTY));
 503              		.loc 1 128 0
 504 00de FFF7FEFF 		bl	UART_ReadRxStatus
 505 00e2 0346     		mov	r3, r0
 506 00e4 03F02003 		and	r3, r3, #32
 507 00e8 002B     		cmp	r3, #0
 508 00ea F8D0     		beq	.L22
 129:.\main.c      ****     move->player_id = UART_ReadRxData();
 509              		.loc 1 129 0
 510 00ec FFF7FEFF 		bl	UART_ReadRxData
 511 00f0 0346     		mov	r3, r0
 512 00f2 1A46     		mov	r2, r3
 513 00f4 7B68     		ldr	r3, [r7, #4]
 514 00f6 5A72     		strb	r2, [r3, #9]
 515              	.L23:
 130:.\main.c      ****     if (move->player_id != PLAYER2_ID); //not meant for me?
 131:.\main.c      ****     
 132:.\main.c      ****     while (!(UART_ReadRxStatus() & UART_RX_STS_FIFO_NOTEMPTY));
 516              		.loc 1 132 0
 517 00f8 FFF7FEFF 		bl	UART_ReadRxStatus
 518 00fc 0346     		mov	r3, r0
 519 00fe 03F02003 		and	r3, r3, #32
 520 0102 002B     		cmp	r3, #0
 521 0104 F8D0     		beq	.L23
 133:.\main.c      ****     move->packet_type = UART_ReadRxData();
 522              		.loc 1 133 0
 523 0106 FFF7FEFF 		bl	UART_ReadRxData
 524 010a 0346     		mov	r3, r0
 525 010c 1A46     		mov	r2, r3
 526 010e 7B68     		ldr	r3, [r7, #4]
 527 0110 9A72     		strb	r2, [r3, #10]
 528              	.L24:
 134:.\main.c      ****     if (move->packet_type != 0x00); //a later version is trying to play with this game
 135:.\main.c      ****     
 136:.\main.c      ****     while (!(UART_ReadRxStatus() & UART_RX_STS_FIFO_NOTEMPTY));
 529              		.loc 1 136 0
 530 0112 FFF7FEFF 		bl	UART_ReadRxStatus
 531 0116 0346     		mov	r3, r0
 532 0118 03F02003 		and	r3, r3, #32
 533 011c 002B     		cmp	r3, #0
 534 011e F8D0     		beq	.L24
 137:.\main.c      ****     move->row = UART_ReadRxData();
 535              		.loc 1 137 0
ARM GAS  C:\Users\dmtucker\AppData\Local\Temp\ccZJkpEN.s 			page 13


 536 0120 FFF7FEFF 		bl	UART_ReadRxData
 537 0124 0346     		mov	r3, r0
 538 0126 1A46     		mov	r2, r3
 539 0128 7B68     		ldr	r3, [r7, #4]
 540 012a DA72     		strb	r2, [r3, #11]
 541              	.L25:
 138:.\main.c      ****     
 139:.\main.c      ****     while (!(UART_ReadRxStatus() & UART_RX_STS_FIFO_NOTEMPTY));
 542              		.loc 1 139 0
 543 012c FFF7FEFF 		bl	UART_ReadRxStatus
 544 0130 0346     		mov	r3, r0
 545 0132 03F02003 		and	r3, r3, #32
 546 0136 002B     		cmp	r3, #0
 547 0138 F8D0     		beq	.L25
 140:.\main.c      ****     move->col = UART_ReadRxData();
 548              		.loc 1 140 0
 549 013a FFF7FEFF 		bl	UART_ReadRxData
 550 013e 0346     		mov	r3, r0
 551 0140 1A46     		mov	r2, r3
 552 0142 7B68     		ldr	r3, [r7, #4]
 553 0144 1A73     		strb	r2, [r3, #12]
 554              	.L26:
 141:.\main.c      ****     
 142:.\main.c      ****     while (!(UART_ReadRxStatus() & UART_RX_STS_FIFO_NOTEMPTY));
 555              		.loc 1 142 0
 556 0146 FFF7FEFF 		bl	UART_ReadRxStatus
 557 014a 0346     		mov	r3, r0
 558 014c 03F02003 		and	r3, r3, #32
 559 0150 002B     		cmp	r3, #0
 560 0152 F8D0     		beq	.L26
 143:.\main.c      ****     move->checksum = UART_ReadRxData();
 561              		.loc 1 143 0
 562 0154 FFF7FEFF 		bl	UART_ReadRxData
 563 0158 0346     		mov	r3, r0
 564 015a 1A46     		mov	r2, r3
 565 015c 7B68     		ldr	r3, [r7, #4]
 566 015e 5A73     		strb	r2, [r3, #13]
 144:.\main.c      ****     if ((move->api_id +
 145:.\main.c      ****          move->frame_id +
 146:.\main.c      ****          move->destination +
 147:.\main.c      ****          move->disable_ack +
 148:.\main.c      ****          move->player_id +
 149:.\main.c      ****          move->packet_type +
 150:.\main.c      ****          move->row +
 151:.\main.c      ****          move->col + 
 152:.\main.c      ****          move->checksum) == 0xFF);//bad checksum, silently discard?
 153:.\main.c      **** }
 567              		.loc 1 153 0
 568 0160 07F10807 		add	r7, r7, #8
 569 0164 BD46     		mov	sp, r7
 570 0166 80BD     		pop	{r7, pc}
 571              		.cfi_endproc
 572              	.LFE32:
 573              		.size	receive_packet, .-receive_packet
 574              		.section	.text.clear_board,"ax",%progbits
 575              		.align	2
 576              		.global	clear_board
ARM GAS  C:\Users\dmtucker\AppData\Local\Temp\ccZJkpEN.s 			page 14


 577              		.thumb
 578              		.thumb_func
 579              		.type	clear_board, %function
 580              	clear_board:
 581              	.LFB33:
 154:.\main.c      **** /**/
 155:.\main.c      **** 
 156:.\main.c      **** 
 157:.\main.c      **** 
 158:.\main.c      **** 
 159:.\main.c      **** void clear_board () {
 582              		.loc 1 159 0
 583              		.cfi_startproc
 584              		@ args = 0, pretend = 0, frame = 8
 585              		@ frame_needed = 1, uses_anonymous_args = 0
 586              		@ link register save eliminated.
 587 0000 80B4     		push	{r7}
 588              	.LCFI10:
 589              		.cfi_def_cfa_offset 4
 590 0002 83B0     		sub	sp, sp, #12
 591              	.LCFI11:
 592              		.cfi_def_cfa_offset 16
 593 0004 00AF     		add	r7, sp, #0
 594              		.cfi_offset 7, -4
 595              	.LCFI12:
 596              		.cfi_def_cfa_register 7
 160:.\main.c      ****     uint8 r, c;
 161:.\main.c      ****     for (r=0; r < MATRIX_ROWS ;++r) {
 597              		.loc 1 161 0
 598 0006 4FF00003 		mov	r3, #0
 599 000a BB71     		strb	r3, [r7, #6]
 600 000c 28E0     		b	.L29
 601              	.L32:
 162:.\main.c      ****         for (c=0; c < MATRIX_COLS ;++c) {
 602              		.loc 1 162 0
 603 000e 4FF00003 		mov	r3, #0
 604 0012 FB71     		strb	r3, [r7, #7]
 605 0014 1DE0     		b	.L30
 606              	.L31:
 163:.\main.c      ****             player1[r][c] = false;
 607              		.loc 1 163 0
 608 0016 B979     		ldrb	r1, [r7, #6]	@ zero_extendqisi2
 609 0018 FA79     		ldrb	r2, [r7, #7]	@ zero_extendqisi2
 610 001a 40F20003 		movw	r3, #:lower16:player1
 611 001e C0F20003 		movt	r3, #:upper16:player1
 612 0022 4FEAC101 		lsl	r1, r1, #3
 613 0026 0A44     		add	r2, r1, r2
 614 0028 1344     		add	r3, r2, r3
 615 002a 4FF00002 		mov	r2, #0
 616 002e 1A70     		strb	r2, [r3, #0]
 164:.\main.c      ****             player2[r][c] = false;
 617              		.loc 1 164 0
 618 0030 B979     		ldrb	r1, [r7, #6]	@ zero_extendqisi2
 619 0032 FA79     		ldrb	r2, [r7, #7]	@ zero_extendqisi2
 620 0034 40F20003 		movw	r3, #:lower16:player2
 621 0038 C0F20003 		movt	r3, #:upper16:player2
 622 003c 4FEAC101 		lsl	r1, r1, #3
ARM GAS  C:\Users\dmtucker\AppData\Local\Temp\ccZJkpEN.s 			page 15


 623 0040 0A44     		add	r2, r1, r2
 624 0042 1344     		add	r3, r2, r3
 625 0044 4FF00002 		mov	r2, #0
 626 0048 1A70     		strb	r2, [r3, #0]
 627              		.loc 1 162 0
 628 004a FB79     		ldrb	r3, [r7, #7]
 629 004c 03F10103 		add	r3, r3, #1
 630 0050 FB71     		strb	r3, [r7, #7]
 631              	.L30:
 632 0052 FB79     		ldrb	r3, [r7, #7]	@ zero_extendqisi2
 633 0054 072B     		cmp	r3, #7
 634 0056 DED9     		bls	.L31
 635              		.loc 1 161 0
 636 0058 BB79     		ldrb	r3, [r7, #6]
 637 005a 03F10103 		add	r3, r3, #1
 638 005e BB71     		strb	r3, [r7, #6]
 639              	.L29:
 640 0060 BB79     		ldrb	r3, [r7, #6]	@ zero_extendqisi2
 641 0062 072B     		cmp	r3, #7
 642 0064 D3D9     		bls	.L32
 165:.\main.c      ****         }
 166:.\main.c      ****     }
 167:.\main.c      **** }
 643              		.loc 1 167 0
 644 0066 07F10C07 		add	r7, r7, #12
 645 006a BD46     		mov	sp, r7
 646 006c 80BC     		pop	{r7}
 647 006e 7047     		bx	lr
 648              		.cfi_endproc
 649              	.LFE33:
 650              		.size	clear_board, .-clear_board
 651              		.section	.rodata
 652 003e 0000     		.align	2
 653              	.LC8:
 654 0040 596F7520 		.ascii	"You win!\000"
 654      77696E21 
 654      00
 655              		.section	.text.winner_check,"ax",%progbits
 656              		.align	2
 657              		.global	winner_check
 658              		.thumb
 659              		.thumb_func
 660              		.type	winner_check, %function
 661              	winner_check:
 662              	.LFB34:
 168:.\main.c      **** 
 169:.\main.c      **** 
 170:.\main.c      **** 
 171:.\main.c      **** 
 172:.\main.c      **** void winner_check () {
 663              		.loc 1 172 0
 664              		.cfi_startproc
 665              		@ args = 0, pretend = 0, frame = 24
 666              		@ frame_needed = 1, uses_anonymous_args = 0
 667 0000 80B5     		push	{r7, lr}
 668              	.LCFI13:
 669              		.cfi_def_cfa_offset 8
ARM GAS  C:\Users\dmtucker\AppData\Local\Temp\ccZJkpEN.s 			page 16


 670 0002 86B0     		sub	sp, sp, #24
 671              	.LCFI14:
 672              		.cfi_def_cfa_offset 32
 673 0004 00AF     		add	r7, sp, #0
 674              		.cfi_offset 14, -4
 675              		.cfi_offset 7, -8
 676              	.LCFI15:
 677              		.cfi_def_cfa_register 7
 173:.\main.c      ****     int r, c;
 174:.\main.c      ****     for (r=1; r < MATRIX_ROWS ;++r) {
 678              		.loc 1 174 0
 679 0006 4FF00103 		mov	r3, #1
 680 000a 7B60     		str	r3, [r7, #4]
 681 000c 77E2     		b	.L35
 682              	.L90:
 175:.\main.c      ****         for (c=0; c < MATRIX_COLS ;++c) {
 683              		.loc 1 175 0
 684 000e 4FF00003 		mov	r3, #0
 685 0012 BB60     		str	r3, [r7, #8]
 686 0014 6BE2     		b	.L36
 687              	.L89:
 688              	.LBB2:
 176:.\main.c      ****             int offset;
 177:.\main.c      ****             
 178:.\main.c      ****             //vertical
 179:.\main.c      ****             if (r < MATRIX_ROWS-3) {
 689              		.loc 1 179 0
 690 0016 7B68     		ldr	r3, [r7, #4]
 691 0018 042B     		cmp	r3, #4
 692 001a 00F39180 		bgt	.L37
 693              	.LBB3:
 180:.\main.c      ****                 bool win = true;
 694              		.loc 1 180 0
 695 001e 4FF00103 		mov	r3, #1
 696 0022 3B74     		strb	r3, [r7, #16]
 181:.\main.c      ****                 for (offset=0; win && offset < 4 ;++offset) {
 697              		.loc 1 181 0
 698 0024 4FF00003 		mov	r3, #0
 699 0028 FB60     		str	r3, [r7, #12]
 700 002a 39E0     		b	.L38
 701              	.L43:
 182:.\main.c      ****                     if (player1_turn) { if (!player1[r+offset][c]) win = false; }
 702              		.loc 1 182 0
 703 002c 40F20003 		movw	r3, #:lower16:player1_turn
 704 0030 C0F20003 		movt	r3, #:upper16:player1_turn
 705 0034 1B78     		ldrb	r3, [r3, #0]	@ zero_extendqisi2
 706 0036 002B     		cmp	r3, #0
 707 0038 16D0     		beq	.L39
 708 003a 7A68     		ldr	r2, [r7, #4]
 709 003c FB68     		ldr	r3, [r7, #12]
 710 003e 02EB0301 		add	r1, r2, r3
 711 0042 BA68     		ldr	r2, [r7, #8]
 712 0044 40F20003 		movw	r3, #:lower16:player1
 713 0048 C0F20003 		movt	r3, #:upper16:player1
 714 004c 4FEAC101 		lsl	r1, r1, #3
 715 0050 0A44     		add	r2, r1, r2
 716 0052 1344     		add	r3, r2, r3
ARM GAS  C:\Users\dmtucker\AppData\Local\Temp\ccZJkpEN.s 			page 17


 717 0054 1B78     		ldrb	r3, [r3, #0]	@ zero_extendqisi2
 718 0056 83F00103 		eor	r3, r3, #1
 719 005a DBB2     		uxtb	r3, r3
 720 005c 002B     		cmp	r3, #0
 721 005e 1AD0     		beq	.L92
 722 0060 4FF00003 		mov	r3, #0
 723 0064 3B74     		strb	r3, [r7, #16]
 724 0066 17E0     		b	.L41
 725              	.L39:
 183:.\main.c      ****                     else              { if (!player2[r+offset][c]) win = false; }
 726              		.loc 1 183 0
 727 0068 7A68     		ldr	r2, [r7, #4]
 728 006a FB68     		ldr	r3, [r7, #12]
 729 006c 02EB0301 		add	r1, r2, r3
 730 0070 BA68     		ldr	r2, [r7, #8]
 731 0072 40F20003 		movw	r3, #:lower16:player2
 732 0076 C0F20003 		movt	r3, #:upper16:player2
 733 007a 4FEAC101 		lsl	r1, r1, #3
 734 007e 0A44     		add	r2, r1, r2
 735 0080 1344     		add	r3, r2, r3
 736 0082 1B78     		ldrb	r3, [r3, #0]	@ zero_extendqisi2
 737 0084 83F00103 		eor	r3, r3, #1
 738 0088 DBB2     		uxtb	r3, r3
 739 008a 002B     		cmp	r3, #0
 740 008c 04D0     		beq	.L41
 741 008e 4FF00003 		mov	r3, #0
 742 0092 3B74     		strb	r3, [r7, #16]
 743 0094 00E0     		b	.L41
 744              	.L92:
 745              		.loc 1 182 0
 746 0096 00BF     		nop
 747              	.L41:
 748              		.loc 1 181 0
 749 0098 FB68     		ldr	r3, [r7, #12]
 750 009a 03F10103 		add	r3, r3, #1
 751 009e FB60     		str	r3, [r7, #12]
 752              	.L38:
 753 00a0 3B7C     		ldrb	r3, [r7, #16]	@ zero_extendqisi2
 754 00a2 002B     		cmp	r3, #0
 755 00a4 02D0     		beq	.L42
 756 00a6 FB68     		ldr	r3, [r7, #12]
 757 00a8 032B     		cmp	r3, #3
 758 00aa BFDD     		ble	.L43
 759              	.L42:
 184:.\main.c      ****                 }
 185:.\main.c      ****                 if (win) {
 760              		.loc 1 185 0
 761 00ac 3B7C     		ldrb	r3, [r7, #16]	@ zero_extendqisi2
 762 00ae 002B     		cmp	r3, #0
 763 00b0 46D0     		beq	.L37
 764              	.LBB4:
 186:.\main.c      ****                     LCD_UpdateMessage("You win!");
 765              		.loc 1 186 0
 766 00b2 40F20000 		movw	r0, #:lower16:.LC8
 767 00b6 C0F20000 		movt	r0, #:upper16:.LC8
 768 00ba FFF7FEFF 		bl	LCD_UpdateMessage
 187:.\main.c      ****                     bool blink = false;
ARM GAS  C:\Users\dmtucker\AppData\Local\Temp\ccZJkpEN.s 			page 18


 769              		.loc 1 187 0
 770 00be 4FF00003 		mov	r3, #0
 771 00c2 7B74     		strb	r3, [r7, #17]
 772              	.L49:
 188:.\main.c      ****                     while (true) {
 189:.\main.c      ****                         for (offset=0; win && offset < 4 ;++offset) {
 773              		.loc 1 189 0
 774 00c4 4FF00003 		mov	r3, #0
 775 00c8 FB60     		str	r3, [r7, #12]
 776 00ca 29E0     		b	.L44
 777              	.L48:
 190:.\main.c      ****                             if (player1_turn) player1[r+offset][c] = blink;
 778              		.loc 1 190 0
 779 00cc 40F20003 		movw	r3, #:lower16:player1_turn
 780 00d0 C0F20003 		movt	r3, #:upper16:player1_turn
 781 00d4 1B78     		ldrb	r3, [r3, #0]	@ zero_extendqisi2
 782 00d6 002B     		cmp	r3, #0
 783 00d8 0FD0     		beq	.L45
 784 00da 7A68     		ldr	r2, [r7, #4]
 785 00dc FB68     		ldr	r3, [r7, #12]
 786 00de 02EB0301 		add	r1, r2, r3
 787 00e2 BA68     		ldr	r2, [r7, #8]
 788 00e4 40F20003 		movw	r3, #:lower16:player1
 789 00e8 C0F20003 		movt	r3, #:upper16:player1
 790 00ec 4FEAC101 		lsl	r1, r1, #3
 791 00f0 0A44     		add	r2, r1, r2
 792 00f2 1344     		add	r3, r2, r3
 793 00f4 7A7C     		ldrb	r2, [r7, #17]
 794 00f6 1A70     		strb	r2, [r3, #0]
 795 00f8 0EE0     		b	.L46
 796              	.L45:
 191:.\main.c      ****                             else              player2[r+offset][c] = blink;
 797              		.loc 1 191 0
 798 00fa 7A68     		ldr	r2, [r7, #4]
 799 00fc FB68     		ldr	r3, [r7, #12]
 800 00fe 02EB0301 		add	r1, r2, r3
 801 0102 BA68     		ldr	r2, [r7, #8]
 802 0104 40F20003 		movw	r3, #:lower16:player2
 803 0108 C0F20003 		movt	r3, #:upper16:player2
 804 010c 4FEAC101 		lsl	r1, r1, #3
 805 0110 0A44     		add	r2, r1, r2
 806 0112 1344     		add	r3, r2, r3
 807 0114 7A7C     		ldrb	r2, [r7, #17]
 808 0116 1A70     		strb	r2, [r3, #0]
 809              	.L46:
 810              		.loc 1 189 0
 811 0118 FB68     		ldr	r3, [r7, #12]
 812 011a 03F10103 		add	r3, r3, #1
 813 011e FB60     		str	r3, [r7, #12]
 814              	.L44:
 815 0120 3B7C     		ldrb	r3, [r7, #16]	@ zero_extendqisi2
 816 0122 002B     		cmp	r3, #0
 817 0124 02D0     		beq	.L47
 818 0126 FB68     		ldr	r3, [r7, #12]
 819 0128 032B     		cmp	r3, #3
 820 012a CFDD     		ble	.L48
 821              	.L47:
ARM GAS  C:\Users\dmtucker\AppData\Local\Temp\ccZJkpEN.s 			page 19


 192:.\main.c      ****                         }
 193:.\main.c      ****                         CyDelay(100);
 822              		.loc 1 193 0
 823 012c 4FF06400 		mov	r0, #100
 824 0130 FFF7FEFF 		bl	CyDelay
 194:.\main.c      ****                         blink = !blink;
 825              		.loc 1 194 0
 826 0134 7B7C     		ldrb	r3, [r7, #17]
 827 0136 83F00103 		eor	r3, r3, #1
 828 013a DBB2     		uxtb	r3, r3
 829 013c 7B74     		strb	r3, [r7, #17]
 195:.\main.c      ****                     }
 830              		.loc 1 195 0
 831 013e C1E7     		b	.L49
 832              	.L37:
 833              	.LBE4:
 834              	.LBE3:
 196:.\main.c      ****                 }
 197:.\main.c      ****             }
 198:.\main.c      ****             
 199:.\main.c      ****             //lateral
 200:.\main.c      ****             if (c < MATRIX_COLS-3) {
 835              		.loc 1 200 0
 836 0140 BB68     		ldr	r3, [r7, #8]
 837 0142 042B     		cmp	r3, #4
 838 0144 00F38D80 		bgt	.L50
 839              	.LBB5:
 201:.\main.c      ****                 bool win = true;
 840              		.loc 1 201 0
 841 0148 4FF00103 		mov	r3, #1
 842 014c BB74     		strb	r3, [r7, #18]
 202:.\main.c      ****                 for (offset=0; win && offset < 4 ;++offset) {
 843              		.loc 1 202 0
 844 014e 4FF00003 		mov	r3, #0
 845 0152 FB60     		str	r3, [r7, #12]
 846 0154 37E0     		b	.L51
 847              	.L56:
 203:.\main.c      ****                     if (player1_turn) { if (!player1[r][c+offset]) win = false; }
 848              		.loc 1 203 0
 849 0156 40F20003 		movw	r3, #:lower16:player1_turn
 850 015a C0F20003 		movt	r3, #:upper16:player1_turn
 851 015e 1B78     		ldrb	r3, [r3, #0]	@ zero_extendqisi2
 852 0160 002B     		cmp	r3, #0
 853 0162 15D0     		beq	.L52
 854 0164 7968     		ldr	r1, [r7, #4]
 855 0166 BA68     		ldr	r2, [r7, #8]
 856 0168 FB68     		ldr	r3, [r7, #12]
 857 016a 1A44     		add	r2, r2, r3
 858 016c 40F20003 		movw	r3, #:lower16:player1
 859 0170 C0F20003 		movt	r3, #:upper16:player1
 860 0174 4FEAC101 		lsl	r1, r1, #3
 861 0178 0A44     		add	r2, r1, r2
 862 017a 1344     		add	r3, r2, r3
 863 017c 1B78     		ldrb	r3, [r3, #0]	@ zero_extendqisi2
 864 017e 83F00103 		eor	r3, r3, #1
 865 0182 DBB2     		uxtb	r3, r3
 866 0184 002B     		cmp	r3, #0
ARM GAS  C:\Users\dmtucker\AppData\Local\Temp\ccZJkpEN.s 			page 20


 867 0186 19D0     		beq	.L93
 868 0188 4FF00003 		mov	r3, #0
 869 018c BB74     		strb	r3, [r7, #18]
 870 018e 16E0     		b	.L54
 871              	.L52:
 204:.\main.c      ****                     else              { if (!player2[r][c+offset]) win = false; }
 872              		.loc 1 204 0
 873 0190 7968     		ldr	r1, [r7, #4]
 874 0192 BA68     		ldr	r2, [r7, #8]
 875 0194 FB68     		ldr	r3, [r7, #12]
 876 0196 1A44     		add	r2, r2, r3
 877 0198 40F20003 		movw	r3, #:lower16:player2
 878 019c C0F20003 		movt	r3, #:upper16:player2
 879 01a0 4FEAC101 		lsl	r1, r1, #3
 880 01a4 0A44     		add	r2, r1, r2
 881 01a6 1344     		add	r3, r2, r3
 882 01a8 1B78     		ldrb	r3, [r3, #0]	@ zero_extendqisi2
 883 01aa 83F00103 		eor	r3, r3, #1
 884 01ae DBB2     		uxtb	r3, r3
 885 01b0 002B     		cmp	r3, #0
 886 01b2 04D0     		beq	.L54
 887 01b4 4FF00003 		mov	r3, #0
 888 01b8 BB74     		strb	r3, [r7, #18]
 889 01ba 00E0     		b	.L54
 890              	.L93:
 891              		.loc 1 203 0
 892 01bc 00BF     		nop
 893              	.L54:
 894              		.loc 1 202 0
 895 01be FB68     		ldr	r3, [r7, #12]
 896 01c0 03F10103 		add	r3, r3, #1
 897 01c4 FB60     		str	r3, [r7, #12]
 898              	.L51:
 899 01c6 BB7C     		ldrb	r3, [r7, #18]	@ zero_extendqisi2
 900 01c8 002B     		cmp	r3, #0
 901 01ca 02D0     		beq	.L55
 902 01cc FB68     		ldr	r3, [r7, #12]
 903 01ce 032B     		cmp	r3, #3
 904 01d0 C1DD     		ble	.L56
 905              	.L55:
 205:.\main.c      ****                 }
 206:.\main.c      ****                 if (win) {
 906              		.loc 1 206 0
 907 01d2 BB7C     		ldrb	r3, [r7, #18]	@ zero_extendqisi2
 908 01d4 002B     		cmp	r3, #0
 909 01d6 44D0     		beq	.L50
 910              	.LBB6:
 207:.\main.c      ****                     LCD_UpdateMessage("You win!");
 911              		.loc 1 207 0
 912 01d8 40F20000 		movw	r0, #:lower16:.LC8
 913 01dc C0F20000 		movt	r0, #:upper16:.LC8
 914 01e0 FFF7FEFF 		bl	LCD_UpdateMessage
 208:.\main.c      ****                     bool blink = false;
 915              		.loc 1 208 0
 916 01e4 4FF00003 		mov	r3, #0
 917 01e8 FB74     		strb	r3, [r7, #19]
 918              	.L62:
ARM GAS  C:\Users\dmtucker\AppData\Local\Temp\ccZJkpEN.s 			page 21


 209:.\main.c      ****                     while (true) {
 210:.\main.c      ****                         for (offset=0; win && offset < 4 ;++offset) {
 919              		.loc 1 210 0
 920 01ea 4FF00003 		mov	r3, #0
 921 01ee FB60     		str	r3, [r7, #12]
 922 01f0 27E0     		b	.L57
 923              	.L61:
 211:.\main.c      ****                             if (player1_turn) player1[r][c+offset] = blink;
 924              		.loc 1 211 0
 925 01f2 40F20003 		movw	r3, #:lower16:player1_turn
 926 01f6 C0F20003 		movt	r3, #:upper16:player1_turn
 927 01fa 1B78     		ldrb	r3, [r3, #0]	@ zero_extendqisi2
 928 01fc 002B     		cmp	r3, #0
 929 01fe 0ED0     		beq	.L58
 930 0200 7968     		ldr	r1, [r7, #4]
 931 0202 BA68     		ldr	r2, [r7, #8]
 932 0204 FB68     		ldr	r3, [r7, #12]
 933 0206 1A44     		add	r2, r2, r3
 934 0208 40F20003 		movw	r3, #:lower16:player1
 935 020c C0F20003 		movt	r3, #:upper16:player1
 936 0210 4FEAC101 		lsl	r1, r1, #3
 937 0214 0A44     		add	r2, r1, r2
 938 0216 1344     		add	r3, r2, r3
 939 0218 FA7C     		ldrb	r2, [r7, #19]
 940 021a 1A70     		strb	r2, [r3, #0]
 941 021c 0DE0     		b	.L59
 942              	.L58:
 212:.\main.c      ****                             else              player2[r][c+offset] = blink;
 943              		.loc 1 212 0
 944 021e 7968     		ldr	r1, [r7, #4]
 945 0220 BA68     		ldr	r2, [r7, #8]
 946 0222 FB68     		ldr	r3, [r7, #12]
 947 0224 1A44     		add	r2, r2, r3
 948 0226 40F20003 		movw	r3, #:lower16:player2
 949 022a C0F20003 		movt	r3, #:upper16:player2
 950 022e 4FEAC101 		lsl	r1, r1, #3
 951 0232 0A44     		add	r2, r1, r2
 952 0234 1344     		add	r3, r2, r3
 953 0236 FA7C     		ldrb	r2, [r7, #19]
 954 0238 1A70     		strb	r2, [r3, #0]
 955              	.L59:
 956              		.loc 1 210 0
 957 023a FB68     		ldr	r3, [r7, #12]
 958 023c 03F10103 		add	r3, r3, #1
 959 0240 FB60     		str	r3, [r7, #12]
 960              	.L57:
 961 0242 BB7C     		ldrb	r3, [r7, #18]	@ zero_extendqisi2
 962 0244 002B     		cmp	r3, #0
 963 0246 02D0     		beq	.L60
 964 0248 FB68     		ldr	r3, [r7, #12]
 965 024a 032B     		cmp	r3, #3
 966 024c D1DD     		ble	.L61
 967              	.L60:
 213:.\main.c      ****                         }
 214:.\main.c      ****                         CyDelay(100);
 968              		.loc 1 214 0
 969 024e 4FF06400 		mov	r0, #100
ARM GAS  C:\Users\dmtucker\AppData\Local\Temp\ccZJkpEN.s 			page 22


 970 0252 FFF7FEFF 		bl	CyDelay
 215:.\main.c      ****                         blink = !blink;
 971              		.loc 1 215 0
 972 0256 FB7C     		ldrb	r3, [r7, #19]
 973 0258 83F00103 		eor	r3, r3, #1
 974 025c DBB2     		uxtb	r3, r3
 975 025e FB74     		strb	r3, [r7, #19]
 216:.\main.c      ****                     }
 976              		.loc 1 216 0
 977 0260 C3E7     		b	.L62
 978              	.L50:
 979              	.LBE6:
 980              	.LBE5:
 217:.\main.c      ****                 }
 218:.\main.c      ****             }
 219:.\main.c      ****             
 220:.\main.c      ****             //down-diagonal
 221:.\main.c      ****             if (r < MATRIX_ROWS-3 && c < MATRIX_COLS-3) {
 981              		.loc 1 221 0
 982 0262 7B68     		ldr	r3, [r7, #4]
 983 0264 042B     		cmp	r3, #4
 984 0266 00F39D80 		bgt	.L63
 985 026a BB68     		ldr	r3, [r7, #8]
 986 026c 042B     		cmp	r3, #4
 987 026e 00F39980 		bgt	.L63
 988              	.LBB7:
 222:.\main.c      ****                 bool win = true;
 989              		.loc 1 222 0
 990 0272 4FF00103 		mov	r3, #1
 991 0276 3B75     		strb	r3, [r7, #20]
 223:.\main.c      ****                 for (offset=0; win && offset < 4 ;++offset) {
 992              		.loc 1 223 0
 993 0278 4FF00003 		mov	r3, #0
 994 027c FB60     		str	r3, [r7, #12]
 995 027e 3DE0     		b	.L64
 996              	.L69:
 224:.\main.c      ****                     if (player1_turn) { if (!player1[r+offset][c+offset]) win = false; }
 997              		.loc 1 224 0
 998 0280 40F20003 		movw	r3, #:lower16:player1_turn
 999 0284 C0F20003 		movt	r3, #:upper16:player1_turn
 1000 0288 1B78     		ldrb	r3, [r3, #0]	@ zero_extendqisi2
 1001 028a 002B     		cmp	r3, #0
 1002 028c 18D0     		beq	.L65
 1003 028e 7A68     		ldr	r2, [r7, #4]
 1004 0290 FB68     		ldr	r3, [r7, #12]
 1005 0292 02EB0301 		add	r1, r2, r3
 1006 0296 BA68     		ldr	r2, [r7, #8]
 1007 0298 FB68     		ldr	r3, [r7, #12]
 1008 029a 1A44     		add	r2, r2, r3
 1009 029c 40F20003 		movw	r3, #:lower16:player1
 1010 02a0 C0F20003 		movt	r3, #:upper16:player1
 1011 02a4 4FEAC101 		lsl	r1, r1, #3
 1012 02a8 0A44     		add	r2, r1, r2
 1013 02aa 1344     		add	r3, r2, r3
 1014 02ac 1B78     		ldrb	r3, [r3, #0]	@ zero_extendqisi2
 1015 02ae 83F00103 		eor	r3, r3, #1
 1016 02b2 DBB2     		uxtb	r3, r3
ARM GAS  C:\Users\dmtucker\AppData\Local\Temp\ccZJkpEN.s 			page 23


 1017 02b4 002B     		cmp	r3, #0
 1018 02b6 1CD0     		beq	.L94
 1019 02b8 4FF00003 		mov	r3, #0
 1020 02bc 3B75     		strb	r3, [r7, #20]
 1021 02be 19E0     		b	.L67
 1022              	.L65:
 225:.\main.c      ****                     else              { if (!player2[r+offset][c+offset]) win = false; }
 1023              		.loc 1 225 0
 1024 02c0 7A68     		ldr	r2, [r7, #4]
 1025 02c2 FB68     		ldr	r3, [r7, #12]
 1026 02c4 02EB0301 		add	r1, r2, r3
 1027 02c8 BA68     		ldr	r2, [r7, #8]
 1028 02ca FB68     		ldr	r3, [r7, #12]
 1029 02cc 1A44     		add	r2, r2, r3
 1030 02ce 40F20003 		movw	r3, #:lower16:player2
 1031 02d2 C0F20003 		movt	r3, #:upper16:player2
 1032 02d6 4FEAC101 		lsl	r1, r1, #3
 1033 02da 0A44     		add	r2, r1, r2
 1034 02dc 1344     		add	r3, r2, r3
 1035 02de 1B78     		ldrb	r3, [r3, #0]	@ zero_extendqisi2
 1036 02e0 83F00103 		eor	r3, r3, #1
 1037 02e4 DBB2     		uxtb	r3, r3
 1038 02e6 002B     		cmp	r3, #0
 1039 02e8 04D0     		beq	.L67
 1040 02ea 4FF00003 		mov	r3, #0
 1041 02ee 3B75     		strb	r3, [r7, #20]
 1042 02f0 00E0     		b	.L67
 1043              	.L94:
 1044              		.loc 1 224 0
 1045 02f2 00BF     		nop
 1046              	.L67:
 1047              		.loc 1 223 0
 1048 02f4 FB68     		ldr	r3, [r7, #12]
 1049 02f6 03F10103 		add	r3, r3, #1
 1050 02fa FB60     		str	r3, [r7, #12]
 1051              	.L64:
 1052 02fc 3B7D     		ldrb	r3, [r7, #20]	@ zero_extendqisi2
 1053 02fe 002B     		cmp	r3, #0
 1054 0300 02D0     		beq	.L68
 1055 0302 FB68     		ldr	r3, [r7, #12]
 1056 0304 032B     		cmp	r3, #3
 1057 0306 BBDD     		ble	.L69
 1058              	.L68:
 226:.\main.c      ****                 }
 227:.\main.c      ****                 if (win) {
 1059              		.loc 1 227 0
 1060 0308 3B7D     		ldrb	r3, [r7, #20]	@ zero_extendqisi2
 1061 030a 002B     		cmp	r3, #0
 1062 030c 4AD0     		beq	.L63
 1063              	.LBB8:
 228:.\main.c      ****                     LCD_UpdateMessage("You win!");
 1064              		.loc 1 228 0
 1065 030e 40F20000 		movw	r0, #:lower16:.LC8
 1066 0312 C0F20000 		movt	r0, #:upper16:.LC8
 1067 0316 FFF7FEFF 		bl	LCD_UpdateMessage
 229:.\main.c      ****                     bool blink = false;
 1068              		.loc 1 229 0
ARM GAS  C:\Users\dmtucker\AppData\Local\Temp\ccZJkpEN.s 			page 24


 1069 031a 4FF00003 		mov	r3, #0
 1070 031e 7B75     		strb	r3, [r7, #21]
 1071              	.L75:
 230:.\main.c      ****                     while (true) {
 231:.\main.c      ****                         for (offset=0; win && offset < 4 ;++offset) {
 1072              		.loc 1 231 0
 1073 0320 4FF00003 		mov	r3, #0
 1074 0324 FB60     		str	r3, [r7, #12]
 1075 0326 2DE0     		b	.L70
 1076              	.L74:
 232:.\main.c      ****                             if (player1_turn) player1[r+offset][c+offset] = blink;
 1077              		.loc 1 232 0
 1078 0328 40F20003 		movw	r3, #:lower16:player1_turn
 1079 032c C0F20003 		movt	r3, #:upper16:player1_turn
 1080 0330 1B78     		ldrb	r3, [r3, #0]	@ zero_extendqisi2
 1081 0332 002B     		cmp	r3, #0
 1082 0334 11D0     		beq	.L71
 1083 0336 7A68     		ldr	r2, [r7, #4]
 1084 0338 FB68     		ldr	r3, [r7, #12]
 1085 033a 02EB0301 		add	r1, r2, r3
 1086 033e BA68     		ldr	r2, [r7, #8]
 1087 0340 FB68     		ldr	r3, [r7, #12]
 1088 0342 1A44     		add	r2, r2, r3
 1089 0344 40F20003 		movw	r3, #:lower16:player1
 1090 0348 C0F20003 		movt	r3, #:upper16:player1
 1091 034c 4FEAC101 		lsl	r1, r1, #3
 1092 0350 0A44     		add	r2, r1, r2
 1093 0352 1344     		add	r3, r2, r3
 1094 0354 7A7D     		ldrb	r2, [r7, #21]
 1095 0356 1A70     		strb	r2, [r3, #0]
 1096 0358 10E0     		b	.L72
 1097              	.L71:
 233:.\main.c      ****                             else              player2[r+offset][c+offset] = blink;
 1098              		.loc 1 233 0
 1099 035a 7A68     		ldr	r2, [r7, #4]
 1100 035c FB68     		ldr	r3, [r7, #12]
 1101 035e 02EB0301 		add	r1, r2, r3
 1102 0362 BA68     		ldr	r2, [r7, #8]
 1103 0364 FB68     		ldr	r3, [r7, #12]
 1104 0366 1A44     		add	r2, r2, r3
 1105 0368 40F20003 		movw	r3, #:lower16:player2
 1106 036c C0F20003 		movt	r3, #:upper16:player2
 1107 0370 4FEAC101 		lsl	r1, r1, #3
 1108 0374 0A44     		add	r2, r1, r2
 1109 0376 1344     		add	r3, r2, r3
 1110 0378 7A7D     		ldrb	r2, [r7, #21]
 1111 037a 1A70     		strb	r2, [r3, #0]
 1112              	.L72:
 1113              		.loc 1 231 0
 1114 037c FB68     		ldr	r3, [r7, #12]
 1115 037e 03F10103 		add	r3, r3, #1
 1116 0382 FB60     		str	r3, [r7, #12]
 1117              	.L70:
 1118 0384 3B7D     		ldrb	r3, [r7, #20]	@ zero_extendqisi2
 1119 0386 002B     		cmp	r3, #0
 1120 0388 02D0     		beq	.L73
 1121 038a FB68     		ldr	r3, [r7, #12]
ARM GAS  C:\Users\dmtucker\AppData\Local\Temp\ccZJkpEN.s 			page 25


 1122 038c 032B     		cmp	r3, #3
 1123 038e CBDD     		ble	.L74
 1124              	.L73:
 234:.\main.c      ****                         }
 235:.\main.c      ****                         CyDelay(100);
 1125              		.loc 1 235 0
 1126 0390 4FF06400 		mov	r0, #100
 1127 0394 FFF7FEFF 		bl	CyDelay
 236:.\main.c      ****                         blink = !blink;
 1128              		.loc 1 236 0
 1129 0398 7B7D     		ldrb	r3, [r7, #21]
 1130 039a 83F00103 		eor	r3, r3, #1
 1131 039e DBB2     		uxtb	r3, r3
 1132 03a0 7B75     		strb	r3, [r7, #21]
 237:.\main.c      ****                     }
 1133              		.loc 1 237 0
 1134 03a2 BDE7     		b	.L75
 1135              	.L63:
 1136              	.LBE8:
 1137              	.LBE7:
 238:.\main.c      ****                 }
 239:.\main.c      ****             }
 240:.\main.c      ****             
 241:.\main.c      ****             //up-diagonal
 242:.\main.c      ****             if (r > 3 && c < MATRIX_COLS-3) {
 1138              		.loc 1 242 0
 1139 03a4 7B68     		ldr	r3, [r7, #4]
 1140 03a6 032B     		cmp	r3, #3
 1141 03a8 40F39D80 		ble	.L76
 1142 03ac BB68     		ldr	r3, [r7, #8]
 1143 03ae 042B     		cmp	r3, #4
 1144 03b0 00F39980 		bgt	.L76
 1145              	.LBB9:
 243:.\main.c      ****                 bool win = true;
 1146              		.loc 1 243 0
 1147 03b4 4FF00103 		mov	r3, #1
 1148 03b8 BB75     		strb	r3, [r7, #22]
 244:.\main.c      ****                 for (offset=0; win && offset < 4 ;++offset) {
 1149              		.loc 1 244 0
 1150 03ba 4FF00003 		mov	r3, #0
 1151 03be FB60     		str	r3, [r7, #12]
 1152 03c0 3DE0     		b	.L77
 1153              	.L82:
 245:.\main.c      ****                     if (player1_turn) { if (!player1[r-offset][c+offset]) win = false; }
 1154              		.loc 1 245 0
 1155 03c2 40F20003 		movw	r3, #:lower16:player1_turn
 1156 03c6 C0F20003 		movt	r3, #:upper16:player1_turn
 1157 03ca 1B78     		ldrb	r3, [r3, #0]	@ zero_extendqisi2
 1158 03cc 002B     		cmp	r3, #0
 1159 03ce 18D0     		beq	.L78
 1160 03d0 7A68     		ldr	r2, [r7, #4]
 1161 03d2 FB68     		ldr	r3, [r7, #12]
 1162 03d4 C3EB0201 		rsb	r1, r3, r2
 1163 03d8 BA68     		ldr	r2, [r7, #8]
 1164 03da FB68     		ldr	r3, [r7, #12]
 1165 03dc 1A44     		add	r2, r2, r3
 1166 03de 40F20003 		movw	r3, #:lower16:player1
ARM GAS  C:\Users\dmtucker\AppData\Local\Temp\ccZJkpEN.s 			page 26


 1167 03e2 C0F20003 		movt	r3, #:upper16:player1
 1168 03e6 4FEAC101 		lsl	r1, r1, #3
 1169 03ea 0A44     		add	r2, r1, r2
 1170 03ec 1344     		add	r3, r2, r3
 1171 03ee 1B78     		ldrb	r3, [r3, #0]	@ zero_extendqisi2
 1172 03f0 83F00103 		eor	r3, r3, #1
 1173 03f4 DBB2     		uxtb	r3, r3
 1174 03f6 002B     		cmp	r3, #0
 1175 03f8 1CD0     		beq	.L95
 1176 03fa 4FF00003 		mov	r3, #0
 1177 03fe BB75     		strb	r3, [r7, #22]
 1178 0400 19E0     		b	.L80
 1179              	.L78:
 246:.\main.c      ****                     else              { if (!player2[r-offset][c+offset]) win = false; }
 1180              		.loc 1 246 0
 1181 0402 7A68     		ldr	r2, [r7, #4]
 1182 0404 FB68     		ldr	r3, [r7, #12]
 1183 0406 C3EB0201 		rsb	r1, r3, r2
 1184 040a BA68     		ldr	r2, [r7, #8]
 1185 040c FB68     		ldr	r3, [r7, #12]
 1186 040e 1A44     		add	r2, r2, r3
 1187 0410 40F20003 		movw	r3, #:lower16:player2
 1188 0414 C0F20003 		movt	r3, #:upper16:player2
 1189 0418 4FEAC101 		lsl	r1, r1, #3
 1190 041c 0A44     		add	r2, r1, r2
 1191 041e 1344     		add	r3, r2, r3
 1192 0420 1B78     		ldrb	r3, [r3, #0]	@ zero_extendqisi2
 1193 0422 83F00103 		eor	r3, r3, #1
 1194 0426 DBB2     		uxtb	r3, r3
 1195 0428 002B     		cmp	r3, #0
 1196 042a 04D0     		beq	.L80
 1197 042c 4FF00003 		mov	r3, #0
 1198 0430 BB75     		strb	r3, [r7, #22]
 1199 0432 00E0     		b	.L80
 1200              	.L95:
 1201              		.loc 1 245 0
 1202 0434 00BF     		nop
 1203              	.L80:
 1204              		.loc 1 244 0
 1205 0436 FB68     		ldr	r3, [r7, #12]
 1206 0438 03F10103 		add	r3, r3, #1
 1207 043c FB60     		str	r3, [r7, #12]
 1208              	.L77:
 1209 043e BB7D     		ldrb	r3, [r7, #22]	@ zero_extendqisi2
 1210 0440 002B     		cmp	r3, #0
 1211 0442 02D0     		beq	.L81
 1212 0444 FB68     		ldr	r3, [r7, #12]
 1213 0446 032B     		cmp	r3, #3
 1214 0448 BBDD     		ble	.L82
 1215              	.L81:
 247:.\main.c      ****                 }
 248:.\main.c      ****                 if (win) {
 1216              		.loc 1 248 0
 1217 044a BB7D     		ldrb	r3, [r7, #22]	@ zero_extendqisi2
 1218 044c 002B     		cmp	r3, #0
 1219 044e 4AD0     		beq	.L76
 1220              	.LBB10:
ARM GAS  C:\Users\dmtucker\AppData\Local\Temp\ccZJkpEN.s 			page 27


 249:.\main.c      ****                     LCD_UpdateMessage("You win!");
 1221              		.loc 1 249 0
 1222 0450 40F20000 		movw	r0, #:lower16:.LC8
 1223 0454 C0F20000 		movt	r0, #:upper16:.LC8
 1224 0458 FFF7FEFF 		bl	LCD_UpdateMessage
 250:.\main.c      ****                     bool blink = false;
 1225              		.loc 1 250 0
 1226 045c 4FF00003 		mov	r3, #0
 1227 0460 FB75     		strb	r3, [r7, #23]
 1228              	.L88:
 251:.\main.c      ****                     while (true) {
 252:.\main.c      ****                         for (offset=0; win && offset < 4 ;++offset) {
 1229              		.loc 1 252 0
 1230 0462 4FF00003 		mov	r3, #0
 1231 0466 FB60     		str	r3, [r7, #12]
 1232 0468 2DE0     		b	.L83
 1233              	.L87:
 253:.\main.c      ****                             if (player1_turn) player1[r-offset][c+offset] = blink;
 1234              		.loc 1 253 0
 1235 046a 40F20003 		movw	r3, #:lower16:player1_turn
 1236 046e C0F20003 		movt	r3, #:upper16:player1_turn
 1237 0472 1B78     		ldrb	r3, [r3, #0]	@ zero_extendqisi2
 1238 0474 002B     		cmp	r3, #0
 1239 0476 11D0     		beq	.L84
 1240 0478 7A68     		ldr	r2, [r7, #4]
 1241 047a FB68     		ldr	r3, [r7, #12]
 1242 047c C3EB0201 		rsb	r1, r3, r2
 1243 0480 BA68     		ldr	r2, [r7, #8]
 1244 0482 FB68     		ldr	r3, [r7, #12]
 1245 0484 1A44     		add	r2, r2, r3
 1246 0486 40F20003 		movw	r3, #:lower16:player1
 1247 048a C0F20003 		movt	r3, #:upper16:player1
 1248 048e 4FEAC101 		lsl	r1, r1, #3
 1249 0492 0A44     		add	r2, r1, r2
 1250 0494 1344     		add	r3, r2, r3
 1251 0496 FA7D     		ldrb	r2, [r7, #23]
 1252 0498 1A70     		strb	r2, [r3, #0]
 1253 049a 10E0     		b	.L85
 1254              	.L84:
 254:.\main.c      ****                             else              player2[r-offset][c+offset] = blink;
 1255              		.loc 1 254 0
 1256 049c 7A68     		ldr	r2, [r7, #4]
 1257 049e FB68     		ldr	r3, [r7, #12]
 1258 04a0 C3EB0201 		rsb	r1, r3, r2
 1259 04a4 BA68     		ldr	r2, [r7, #8]
 1260 04a6 FB68     		ldr	r3, [r7, #12]
 1261 04a8 1A44     		add	r2, r2, r3
 1262 04aa 40F20003 		movw	r3, #:lower16:player2
 1263 04ae C0F20003 		movt	r3, #:upper16:player2
 1264 04b2 4FEAC101 		lsl	r1, r1, #3
 1265 04b6 0A44     		add	r2, r1, r2
 1266 04b8 1344     		add	r3, r2, r3
 1267 04ba FA7D     		ldrb	r2, [r7, #23]
 1268 04bc 1A70     		strb	r2, [r3, #0]
 1269              	.L85:
 1270              		.loc 1 252 0
 1271 04be FB68     		ldr	r3, [r7, #12]
ARM GAS  C:\Users\dmtucker\AppData\Local\Temp\ccZJkpEN.s 			page 28


 1272 04c0 03F10103 		add	r3, r3, #1
 1273 04c4 FB60     		str	r3, [r7, #12]
 1274              	.L83:
 1275 04c6 BB7D     		ldrb	r3, [r7, #22]	@ zero_extendqisi2
 1276 04c8 002B     		cmp	r3, #0
 1277 04ca 02D0     		beq	.L86
 1278 04cc FB68     		ldr	r3, [r7, #12]
 1279 04ce 032B     		cmp	r3, #3
 1280 04d0 CBDD     		ble	.L87
 1281              	.L86:
 255:.\main.c      ****                         }
 256:.\main.c      ****                         CyDelay(100);
 1282              		.loc 1 256 0
 1283 04d2 4FF06400 		mov	r0, #100
 1284 04d6 FFF7FEFF 		bl	CyDelay
 257:.\main.c      ****                         blink = !blink;
 1285              		.loc 1 257 0
 1286 04da FB7D     		ldrb	r3, [r7, #23]
 1287 04dc 83F00103 		eor	r3, r3, #1
 1288 04e0 DBB2     		uxtb	r3, r3
 1289 04e2 FB75     		strb	r3, [r7, #23]
 258:.\main.c      ****                     }
 1290              		.loc 1 258 0
 1291 04e4 BDE7     		b	.L88
 1292              	.L76:
 1293              	.LBE10:
 1294              	.LBE9:
 1295              	.LBE2:
 1296              		.loc 1 175 0
 1297 04e6 BB68     		ldr	r3, [r7, #8]
 1298 04e8 03F10103 		add	r3, r3, #1
 1299 04ec BB60     		str	r3, [r7, #8]
 1300              	.L36:
 1301 04ee BB68     		ldr	r3, [r7, #8]
 1302 04f0 072B     		cmp	r3, #7
 1303 04f2 7FF790AD 		ble	.L89
 1304              		.loc 1 174 0
 1305 04f6 7B68     		ldr	r3, [r7, #4]
 1306 04f8 03F10103 		add	r3, r3, #1
 1307 04fc 7B60     		str	r3, [r7, #4]
 1308              	.L35:
 1309 04fe 7B68     		ldr	r3, [r7, #4]
 1310 0500 072B     		cmp	r3, #7
 1311 0502 7FF784AD 		ble	.L90
 259:.\main.c      ****                 }
 260:.\main.c      ****             }  
 261:.\main.c      ****         }
 262:.\main.c      ****     }
 263:.\main.c      **** }
 1312              		.loc 1 263 0
 1313 0506 07F11807 		add	r7, r7, #24
 1314 050a BD46     		mov	sp, r7
 1315 050c 80BD     		pop	{r7, pc}
 1316              		.cfi_endproc
 1317              	.LFE34:
 1318              		.size	winner_check, .-winner_check
 1319              		.global	row
ARM GAS  C:\Users\dmtucker\AppData\Local\Temp\ccZJkpEN.s 			page 29


 1320 050e 00BF     		.data
 1321              		.type	row, %object
 1322              		.size	row, 1
 1323              	row:
 1324 0004 FF       		.byte	-1
 1325              		.global	col
 1326              		.type	col, %object
 1327              		.size	col, 1
 1328              	col:
 1329 0005 FF       		.byte	-1
 1330              		.section	.text.refresh,"ax",%progbits
 1331              		.align	2
 1332              		.global	refresh
 1333              		.thumb
 1334              		.thumb_func
 1335              		.type	refresh, %function
 1336              	refresh:
 1337              	.LFB35:
 264:.\main.c      **** 
 265:.\main.c      **** 
 266:.\main.c      **** 
 267:.\main.c      **** 
 268:.\main.c      **** uint8 row = -1, col = -1;
 269:.\main.c      **** CY_ISR (refresh) {
 1338              		.loc 1 269 0
 1339              		.cfi_startproc
 1340              		@ args = 0, pretend = 0, frame = 8
 1341              		@ frame_needed = 1, uses_anonymous_args = 0
 1342 0000 80B5     		push	{r7, lr}
 1343              	.LCFI16:
 1344              		.cfi_def_cfa_offset 8
 1345 0002 82B0     		sub	sp, sp, #8
 1346              	.LCFI17:
 1347              		.cfi_def_cfa_offset 16
 1348 0004 00AF     		add	r7, sp, #0
 1349              		.cfi_offset 14, -4
 1350              		.cfi_offset 7, -8
 1351              	.LCFI18:
 1352              		.cfi_def_cfa_register 7
 270:.\main.c      ****     if (SERIAL) {
 271:.\main.c      ****         matrix_deluminate();
 1353              		.loc 1 271 0
 1354 0006 FFF7FEFF 		bl	matrix_deluminate
 272:.\main.c      ****         if (++col > MATRIX_ROWS) col = 0;
 1355              		.loc 1 272 0
 1356 000a 40F20003 		movw	r3, #:lower16:col
 1357 000e C0F20003 		movt	r3, #:upper16:col
 1358 0012 1B78     		ldrb	r3, [r3, #0]	@ zero_extendqisi2
 1359 0014 03F10103 		add	r3, r3, #1
 1360 0018 DAB2     		uxtb	r2, r3
 1361 001a 40F20003 		movw	r3, #:lower16:col
 1362 001e C0F20003 		movt	r3, #:upper16:col
 1363 0022 1A70     		strb	r2, [r3, #0]
 1364 0024 40F20003 		movw	r3, #:lower16:col
 1365 0028 C0F20003 		movt	r3, #:upper16:col
 1366 002c 1B78     		ldrb	r3, [r3, #0]	@ zero_extendqisi2
 1367 002e 082B     		cmp	r3, #8
ARM GAS  C:\Users\dmtucker\AppData\Local\Temp\ccZJkpEN.s 			page 30


 1368 0030 06D9     		bls	.L97
 1369 0032 40F20003 		movw	r3, #:lower16:col
 1370 0036 C0F20003 		movt	r3, #:upper16:col
 1371 003a 4FF00002 		mov	r2, #0
 1372 003e 1A70     		strb	r2, [r3, #0]
 1373              	.L97:
 273:.\main.c      ****         for (row=0; row < MATRIX_COLS ;++row) {
 1374              		.loc 1 273 0
 1375 0040 40F20003 		movw	r3, #:lower16:row
 1376 0044 C0F20003 		movt	r3, #:upper16:row
 1377 0048 4FF00002 		mov	r2, #0
 1378 004c 1A70     		strb	r2, [r3, #0]
 1379 004e 66E0     		b	.L98
 1380              	.L101:
 274:.\main.c      ****             if (player1[row][col]) matrix_illuminate(row,col,player1_color);
 1381              		.loc 1 274 0
 1382 0050 40F20003 		movw	r3, #:lower16:row
 1383 0054 C0F20003 		movt	r3, #:upper16:row
 1384 0058 1B78     		ldrb	r3, [r3, #0]	@ zero_extendqisi2
 1385 005a 1946     		mov	r1, r3
 1386 005c 40F20003 		movw	r3, #:lower16:col
 1387 0060 C0F20003 		movt	r3, #:upper16:col
 1388 0064 1B78     		ldrb	r3, [r3, #0]	@ zero_extendqisi2
 1389 0066 1A46     		mov	r2, r3
 1390 0068 40F20003 		movw	r3, #:lower16:player1
 1391 006c C0F20003 		movt	r3, #:upper16:player1
 1392 0070 4FEAC101 		lsl	r1, r1, #3
 1393 0074 0A44     		add	r2, r1, r2
 1394 0076 1344     		add	r3, r2, r3
 1395 0078 1B78     		ldrb	r3, [r3, #0]	@ zero_extendqisi2
 1396 007a 002B     		cmp	r3, #0
 1397 007c 15D0     		beq	.L99
 1398 007e 40F20003 		movw	r3, #:lower16:row
 1399 0082 C0F20003 		movt	r3, #:upper16:row
 1400 0086 1B78     		ldrb	r3, [r3, #0]	@ zero_extendqisi2
 1401 0088 1946     		mov	r1, r3
 1402 008a 40F20003 		movw	r3, #:lower16:col
 1403 008e C0F20003 		movt	r3, #:upper16:col
 1404 0092 1B78     		ldrb	r3, [r3, #0]	@ zero_extendqisi2
 1405 0094 1A46     		mov	r2, r3
 1406 0096 40F20003 		movw	r3, #:lower16:player1_color
 1407 009a C0F20003 		movt	r3, #:upper16:player1_color
 1408 009e 1B78     		ldrb	r3, [r3, #0]	@ zero_extendqisi2
 1409 00a0 0846     		mov	r0, r1
 1410 00a2 1146     		mov	r1, r2
 1411 00a4 1A46     		mov	r2, r3
 1412 00a6 FFF7FEFF 		bl	matrix_illuminate
 1413              	.L99:
 275:.\main.c      ****             if (player2[row][col]) matrix_illuminate(row,col,player2_color);
 1414              		.loc 1 275 0
 1415 00aa 40F20003 		movw	r3, #:lower16:row
 1416 00ae C0F20003 		movt	r3, #:upper16:row
 1417 00b2 1B78     		ldrb	r3, [r3, #0]	@ zero_extendqisi2
 1418 00b4 1946     		mov	r1, r3
 1419 00b6 40F20003 		movw	r3, #:lower16:col
 1420 00ba C0F20003 		movt	r3, #:upper16:col
 1421 00be 1B78     		ldrb	r3, [r3, #0]	@ zero_extendqisi2
ARM GAS  C:\Users\dmtucker\AppData\Local\Temp\ccZJkpEN.s 			page 31


 1422 00c0 1A46     		mov	r2, r3
 1423 00c2 40F20003 		movw	r3, #:lower16:player2
 1424 00c6 C0F20003 		movt	r3, #:upper16:player2
 1425 00ca 4FEAC101 		lsl	r1, r1, #3
 1426 00ce 0A44     		add	r2, r1, r2
 1427 00d0 1344     		add	r3, r2, r3
 1428 00d2 1B78     		ldrb	r3, [r3, #0]	@ zero_extendqisi2
 1429 00d4 002B     		cmp	r3, #0
 1430 00d6 15D0     		beq	.L100
 1431 00d8 40F20003 		movw	r3, #:lower16:row
 1432 00dc C0F20003 		movt	r3, #:upper16:row
 1433 00e0 1B78     		ldrb	r3, [r3, #0]	@ zero_extendqisi2
 1434 00e2 1946     		mov	r1, r3
 1435 00e4 40F20003 		movw	r3, #:lower16:col
 1436 00e8 C0F20003 		movt	r3, #:upper16:col
 1437 00ec 1B78     		ldrb	r3, [r3, #0]	@ zero_extendqisi2
 1438 00ee 1A46     		mov	r2, r3
 1439 00f0 40F20003 		movw	r3, #:lower16:player2_color
 1440 00f4 C0F20003 		movt	r3, #:upper16:player2_color
 1441 00f8 1B78     		ldrb	r3, [r3, #0]	@ zero_extendqisi2
 1442 00fa 0846     		mov	r0, r1
 1443 00fc 1146     		mov	r1, r2
 1444 00fe 1A46     		mov	r2, r3
 1445 0100 FFF7FEFF 		bl	matrix_illuminate
 1446              	.L100:
 1447              		.loc 1 273 0
 1448 0104 40F20003 		movw	r3, #:lower16:row
 1449 0108 C0F20003 		movt	r3, #:upper16:row
 1450 010c 1B78     		ldrb	r3, [r3, #0]	@ zero_extendqisi2
 1451 010e 03F10103 		add	r3, r3, #1
 1452 0112 DAB2     		uxtb	r2, r3
 1453 0114 40F20003 		movw	r3, #:lower16:row
 1454 0118 C0F20003 		movt	r3, #:upper16:row
 1455 011c 1A70     		strb	r2, [r3, #0]
 1456              	.L98:
 1457 011e 40F20003 		movw	r3, #:lower16:row
 1458 0122 C0F20003 		movt	r3, #:upper16:row
 1459 0126 1B78     		ldrb	r3, [r3, #0]	@ zero_extendqisi2
 1460 0128 072B     		cmp	r3, #7
 1461 012a 91D9     		bls	.L101
 276:.\main.c      ****         }
 277:.\main.c      ****     }
 278:.\main.c      ****     else {
 279:.\main.c      ****         uint16 cells = MATRIX_ROWS*MATRIX_COLS;
 280:.\main.c      ****         while (cells-- > 0) {
 281:.\main.c      ****             if (++col > MATRIX_COLS) {
 282:.\main.c      ****                 col = 0;
 283:.\main.c      ****                 if (++row > MATRIX_ROWS) row = 0;
 284:.\main.c      ****             }
 285:.\main.c      ****             if (player1[row][col]) {
 286:.\main.c      ****                 matrix_deluminate();
 287:.\main.c      ****                 matrix_illuminate(row,col,player1_color);
 288:.\main.c      ****                 break;
 289:.\main.c      ****             }
 290:.\main.c      ****             if (player2[row][col]) {
 291:.\main.c      ****                 matrix_deluminate();
 292:.\main.c      ****                 matrix_illuminate(row,col,player2_color);
ARM GAS  C:\Users\dmtucker\AppData\Local\Temp\ccZJkpEN.s 			page 32


 293:.\main.c      ****                 break;
 294:.\main.c      ****             }
 295:.\main.c      ****         }
 296:.\main.c      ****     }
 297:.\main.c      **** }
 1462              		.loc 1 297 0
 1463 012c 07F10807 		add	r7, r7, #8
 1464 0130 BD46     		mov	sp, r7
 1465 0132 80BD     		pop	{r7, pc}
 1466              		.cfi_endproc
 1467              	.LFE35:
 1468              		.size	refresh, .-refresh
 1469              		.section	.rodata
 1470 0049 000000   		.align	2
 1471              	.LC9:
 1472 004c 696E6974 		.ascii	"initializing...\000"
 1472      69616C69 
 1472      7A696E67 
 1472      2E2E2E00 
 1473              		.align	2
 1474              	.LC10:
 1475 005c 626F6172 		.ascii	"board\000"
 1475      6400
 1476 0062 0000     		.align	2
 1477              	.LC11:
 1478 0064 6D617472 		.ascii	"matrix\000"
 1478      697800
 1479 006b 00       		.align	2
 1480              	.LC12:
 1481 006c 696E7465 		.ascii	"interrupts\000"
 1481      72727570 
 1481      747300
 1482 0077 00       		.align	2
 1483              	.LC13:
 1484 0078 74696D65 		.ascii	"timer\000"
 1484      7200
 1485 007e 0000     		.align	2
 1486              	.LC14:
 1487 0080 63617073 		.ascii	"capsense\000"
 1487      656E7365 
 1487      00
 1488 0089 000000   		.align	2
 1489              	.LC15:
 1490 008c 6C6F6361 		.ascii	"locate opponent\000"
 1490      7465206F 
 1490      70706F6E 
 1490      656E7400 
 1491              		.align	2
 1492              	.LC16:
 1493 009c 6C6F6361 		.ascii	"local\000"
 1493      6C00
 1494 00a2 0000     		.align	2
 1495              	.LC17:
 1496 00a4 72656D6F 		.ascii	"remote\000"
 1496      746500
 1497 00ab 00       		.align	2
 1498              	.LC18:
ARM GAS  C:\Users\dmtucker\AppData\Local\Temp\ccZJkpEN.s 			page 33


 1499 00ac 55415254 		.ascii	"UART\000"
 1499      00
 1500 00b1 000000   		.align	2
 1501              	.LC19:
 1502 00b4 58426565 		.ascii	"XBee\000"
 1502      00
 1503 00b9 000000   		.align	2
 1504              	.LC20:
 1505 00bc 436F6E6E 		.ascii	"Connect 4\000"
 1505      65637420 
 1505      3400
 1506 00c6 0000     		.align	2
 1507              	.LC21:
 1508 00c8 506C6179 		.ascii	"Player 1\000"
 1508      65722031 
 1508      00
 1509 00d1 000000   		.align	2
 1510              	.LC22:
 1511 00d4 506C6179 		.ascii	"Player 2\000"
 1511      65722032 
 1511      00
 1512 00dd 000000   		.align	2
 1513              	.LC23:
 1514 00e0 506C6163 		.ascii	"Place a disc!\000"
 1514      65206120 
 1514      64697363 
 1514      2100
 1515 00ee 0000     		.align	2
 1516              	.LC24:
 1517 00f0 47616D65 		.ascii	"Game Over\000"
 1517      204F7665 
 1517      7200
 1518 00fa 0000     		.align	2
 1519              	.LC25:
 1520 00fc 426F6172 		.ascii	"Board Full\000"
 1520      64204675 
 1520      6C6C00
 1521 0107 00       		.align	2
 1522              	.LC26:
 1523 0108 436F6C75 		.ascii	"Column Full\000"
 1523      6D6E2046 
 1523      756C6C00 
 1524              		.align	2
 1525              	.LC27:
 1526 0114 494D504C 		.ascii	"IMPLEMENTED\000"
 1526      454D454E 
 1526      54454400 
 1527              		.align	2
 1528              	.LC28:
 1529 0120 6D6F7665 		.ascii	"move sent\000"
 1529      2073656E 
 1529      7400
 1530 012a 0000     		.align	2
 1531              	.LC29:
 1532 012c 554E494D 		.ascii	"UNIMPLEMENTED\000"
 1532      504C454D 
 1532      454E5445 
ARM GAS  C:\Users\dmtucker\AppData\Local\Temp\ccZJkpEN.s 			page 34


 1532      4400
 1533 013a 0000     		.align	2
 1534              	.LC30:
 1535 013c 77616974 		.ascii	"waiting for move\000"
 1535      696E6720 
 1535      666F7220 
 1535      6D6F7665 
 1535      00
 1536 014d 000000   		.section	.text.main,"ax",%progbits
 1537              		.align	2
 1538              		.global	main
 1539              		.thumb
 1540              		.thumb_func
 1541              		.type	main, %function
 1542              	main:
 1543              	.LFB36:
 298:.\main.c      **** 
 299:.\main.c      **** 
 300:.\main.c      **** 
 301:.\main.c      **** 
 302:.\main.c      **** void main () {
 1544              		.loc 1 302 0
 1545              		.cfi_startproc
 1546              		@ args = 0, pretend = 0, frame = 40
 1547              		@ frame_needed = 1, uses_anonymous_args = 0
 1548 0000 80B5     		push	{r7, lr}
 1549              	.LCFI19:
 1550              		.cfi_def_cfa_offset 8
 1551 0002 8AB0     		sub	sp, sp, #40
 1552              	.LCFI20:
 1553              		.cfi_def_cfa_offset 48
 1554 0004 00AF     		add	r7, sp, #0
 1555              		.cfi_offset 14, -4
 1556              		.cfi_offset 7, -8
 1557              	.LCFI21:
 1558              		.cfi_def_cfa_register 7
 303:.\main.c      ****     LCD_Start();
 1559              		.loc 1 303 0
 1560 0006 FFF7FEFF 		bl	LCD_Start
 304:.\main.c      ****     LCD_UpdateStatus("initializing...");
 1561              		.loc 1 304 0
 1562 000a 40F20000 		movw	r0, #:lower16:.LC9
 1563 000e C0F20000 		movt	r0, #:upper16:.LC9
 1564 0012 FFF7FEFF 		bl	LCD_UpdateStatus
 305:.\main.c      ****     LCD_UpdateMessage("board");
 1565              		.loc 1 305 0
 1566 0016 40F20000 		movw	r0, #:lower16:.LC10
 1567 001a C0F20000 		movt	r0, #:upper16:.LC10
 1568 001e FFF7FEFF 		bl	LCD_UpdateMessage
 306:.\main.c      ****     clear_board();
 1569              		.loc 1 306 0
 1570 0022 FFF7FEFF 		bl	clear_board
 307:.\main.c      ****     LCD_UpdateMessage("matrix");
 1571              		.loc 1 307 0
 1572 0026 40F20000 		movw	r0, #:lower16:.LC11
 1573 002a C0F20000 		movt	r0, #:upper16:.LC11
 1574 002e FFF7FEFF 		bl	LCD_UpdateMessage
ARM GAS  C:\Users\dmtucker\AppData\Local\Temp\ccZJkpEN.s 			page 35


 308:.\main.c      ****     matrix_test(true,false);
 1575              		.loc 1 308 0
 1576 0032 4FF00100 		mov	r0, #1
 1577 0036 4FF00001 		mov	r1, #0
 1578 003a FFF7FEFF 		bl	matrix_test
 309:.\main.c      ****     matrix_deluminate();
 1579              		.loc 1 309 0
 1580 003e FFF7FEFF 		bl	matrix_deluminate
 310:.\main.c      ****     LCD_UpdateMessage("interrupts");
 1581              		.loc 1 310 0
 1582 0042 40F20000 		movw	r0, #:lower16:.LC12
 1583 0046 C0F20000 		movt	r0, #:upper16:.LC12
 1584 004a FFF7FEFF 		bl	LCD_UpdateMessage
 311:.\main.c      ****     CyGlobalIntEnable;
 1585              		.loc 1 311 0
 1586              	@ 311 ".\main.c" 1
 1587 004e 62B6     		CPSIE   i
 1588              	@ 0 "" 2
 312:.\main.c      ****     Beam_StartEx(refresh);
 1589              		.loc 1 312 0
 1590              		.thumb
 1591 0050 40F20000 		movw	r0, #:lower16:refresh
 1592 0054 C0F20000 		movt	r0, #:upper16:refresh
 1593 0058 FFF7FEFF 		bl	Beam_StartEx
 313:.\main.c      ****     Location_StartEx(toggle);
 1594              		.loc 1 313 0
 1595 005c 40F20000 		movw	r0, #:lower16:toggle
 1596 0060 C0F20000 		movt	r0, #:upper16:toggle
 1597 0064 FFF7FEFF 		bl	Location_StartEx
 314:.\main.c      ****     LCD_UpdateMessage("timer");
 1598              		.loc 1 314 0
 1599 0068 40F20000 		movw	r0, #:lower16:.LC13
 1600 006c C0F20000 		movt	r0, #:upper16:.LC13
 1601 0070 FFF7FEFF 		bl	LCD_UpdateMessage
 315:.\main.c      ****     Timer_Start();
 1602              		.loc 1 315 0
 1603 0074 FFF7FEFF 		bl	Timer_Start
 316:.\main.c      ****     Timer_WritePeriod(BUS_CLK_FREQ/REFRESH_RATE);
 1604              		.loc 1 316 0
 1605 0078 45F6C050 		movw	r0, #24000
 1606 007c FFF7FEFF 		bl	Timer_WritePeriod
 317:.\main.c      ****     LCD_UpdateMessage("capsense");
 1607              		.loc 1 317 0
 1608 0080 40F20000 		movw	r0, #:lower16:.LC14
 1609 0084 C0F20000 		movt	r0, #:upper16:.LC14
 1610 0088 FFF7FEFF 		bl	LCD_UpdateMessage
 318:.\main.c      ****     CapSense_Start();
 1611              		.loc 1 318 0
 1612 008c FFF7FEFF 		bl	CapSense_Start
 319:.\main.c      ****     CapSense_InitializeAllBaselines();
 1613              		.loc 1 319 0
 1614 0090 FFF7FEFF 		bl	CapSense_InitializeAllBaselines
 320:.\main.c      ****     
 321:.\main.c      ****     LCD_UpdateStatus("locate opponent");
 1615              		.loc 1 321 0
 1616 0094 40F20000 		movw	r0, #:lower16:.LC15
 1617 0098 C0F20000 		movt	r0, #:upper16:.LC15
ARM GAS  C:\Users\dmtucker\AppData\Local\Temp\ccZJkpEN.s 			page 36


 1618 009c FFF7FEFF 		bl	LCD_UpdateStatus
 322:.\main.c      ****     locating = true;
 1619              		.loc 1 322 0
 1620 00a0 40F20003 		movw	r3, #:lower16:locating
 1621 00a4 C0F20003 		movt	r3, #:upper16:locating
 1622 00a8 4FF00102 		mov	r2, #1
 1623 00ac 1A70     		strb	r2, [r3, #0]
 323:.\main.c      ****     uint8 t;
 324:.\main.c      ****     for (t=5; t > 0 ;--t) {
 1624              		.loc 1 324 0
 1625 00ae 4FF00503 		mov	r3, #5
 1626 00b2 BB77     		strb	r3, [r7, #30]
 1627 00b4 28E0     		b	.L104
 1628              	.L107:
 325:.\main.c      ****         LCD_UpdateMessage((player2_local) ? "local" : "remote");
 1629              		.loc 1 325 0
 1630 00b6 40F20003 		movw	r3, #:lower16:player2_local
 1631 00ba C0F20003 		movt	r3, #:upper16:player2_local
 1632 00be 1B78     		ldrb	r3, [r3, #0]	@ zero_extendqisi2
 1633 00c0 002B     		cmp	r3, #0
 1634 00c2 04D0     		beq	.L105
 1635 00c4 40F20003 		movw	r3, #:lower16:.LC16
 1636 00c8 C0F20003 		movt	r3, #:upper16:.LC16
 1637 00cc 03E0     		b	.L106
 1638              	.L105:
 1639 00ce 40F20003 		movw	r3, #:lower16:.LC17
 1640 00d2 C0F20003 		movt	r3, #:upper16:.LC17
 1641              	.L106:
 1642 00d6 1846     		mov	r0, r3
 1643 00d8 FFF7FEFF 		bl	LCD_UpdateMessage
 326:.\main.c      ****         CyDelay(500);
 1644              		.loc 1 326 0
 1645 00dc 4FF4FA70 		mov	r0, #500
 1646 00e0 FFF7FEFF 		bl	CyDelay
 327:.\main.c      ****         LCD_Position(1,15);
 1647              		.loc 1 327 0
 1648 00e4 4FF00100 		mov	r0, #1
 1649 00e8 4FF00F01 		mov	r1, #15
 1650 00ec FFF7FEFF 		bl	LCD_Position
 328:.\main.c      ****         LCD_PrintNumber(t);
 1651              		.loc 1 328 0
 1652 00f0 BB7F     		ldrb	r3, [r7, #30]	@ zero_extendqisi2
 1653 00f2 1846     		mov	r0, r3
 1654 00f4 FFF7FEFF 		bl	LCD_PrintNumber
 329:.\main.c      ****         CyDelay(500);
 1655              		.loc 1 329 0
 1656 00f8 4FF4FA70 		mov	r0, #500
 1657 00fc FFF7FEFF 		bl	CyDelay
 1658              		.loc 1 324 0
 1659 0100 BB7F     		ldrb	r3, [r7, #30]
 1660 0102 03F1FF33 		add	r3, r3, #-1
 1661 0106 BB77     		strb	r3, [r7, #30]
 1662              	.L104:
 1663 0108 BB7F     		ldrb	r3, [r7, #30]	@ zero_extendqisi2
 1664 010a 002B     		cmp	r3, #0
 1665 010c D3D1     		bne	.L107
 330:.\main.c      ****     }
ARM GAS  C:\Users\dmtucker\AppData\Local\Temp\ccZJkpEN.s 			page 37


 331:.\main.c      ****     locating = false;
 1666              		.loc 1 331 0
 1667 010e 40F20003 		movw	r3, #:lower16:locating
 1668 0112 C0F20003 		movt	r3, #:upper16:locating
 1669 0116 4FF00002 		mov	r2, #0
 1670 011a 1A70     		strb	r2, [r3, #0]
 332:.\main.c      ****     if (!player2_local) {
 1671              		.loc 1 332 0
 1672 011c 40F20003 		movw	r3, #:lower16:player2_local
 1673 0120 C0F20003 		movt	r3, #:upper16:player2_local
 1674 0124 1B78     		ldrb	r3, [r3, #0]	@ zero_extendqisi2
 1675 0126 83F00103 		eor	r3, r3, #1
 1676 012a DBB2     		uxtb	r3, r3
 1677 012c 002B     		cmp	r3, #0
 1678 012e 19D0     		beq	.L108
 333:.\main.c      ****         LCD_UpdateStatus("initializing...");
 1679              		.loc 1 333 0
 1680 0130 40F20000 		movw	r0, #:lower16:.LC9
 1681 0134 C0F20000 		movt	r0, #:upper16:.LC9
 1682 0138 FFF7FEFF 		bl	LCD_UpdateStatus
 334:.\main.c      ****         LCD_UpdateMessage("UART");
 1683              		.loc 1 334 0
 1684 013c 40F20000 		movw	r0, #:lower16:.LC18
 1685 0140 C0F20000 		movt	r0, #:upper16:.LC18
 1686 0144 FFF7FEFF 		bl	LCD_UpdateMessage
 335:.\main.c      ****         UART_Start();
 1687              		.loc 1 335 0
 1688 0148 FFF7FEFF 		bl	UART_Start
 336:.\main.c      ****         UART_ClearTxBuffer();
 1689              		.loc 1 336 0
 1690 014c FFF7FEFF 		bl	UART_ClearTxBuffer
 337:.\main.c      ****         UART_ClearRxBuffer();
 1691              		.loc 1 337 0
 1692 0150 FFF7FEFF 		bl	UART_ClearRxBuffer
 338:.\main.c      ****         LCD_UpdateMessage("XBee");
 1693              		.loc 1 338 0
 1694 0154 40F20000 		movw	r0, #:lower16:.LC19
 1695 0158 C0F20000 		movt	r0, #:upper16:.LC19
 1696 015c FFF7FEFF 		bl	LCD_UpdateMessage
 339:.\main.c      ****         configure_XBee();
 1697              		.loc 1 339 0
 1698 0160 FFF7FEFF 		bl	configure_XBee
 1699              	.L108:
 340:.\main.c      ****     }
 341:.\main.c      ****     
 342:.\main.c      ****     
 343:.\main.c      ****     LCD_UpdateStatus("Connect 4");
 1700              		.loc 1 343 0
 1701 0164 40F20000 		movw	r0, #:lower16:.LC20
 1702 0168 C0F20000 		movt	r0, #:upper16:.LC20
 1703 016c FFF7FEFF 		bl	LCD_UpdateStatus
 1704              	.L140:
 344:.\main.c      ****     while (true) {
 345:.\main.c      ****         if (player1_turn || player2_local) {
 1705              		.loc 1 345 0
 1706 0170 40F20003 		movw	r3, #:lower16:player1_turn
 1707 0174 C0F20003 		movt	r3, #:upper16:player1_turn
ARM GAS  C:\Users\dmtucker\AppData\Local\Temp\ccZJkpEN.s 			page 38


 1708 0178 1B78     		ldrb	r3, [r3, #0]	@ zero_extendqisi2
 1709 017a 002B     		cmp	r3, #0
 1710 017c 07D1     		bne	.L109
 1711 017e 40F20003 		movw	r3, #:lower16:player2_local
 1712 0182 C0F20003 		movt	r3, #:upper16:player2_local
 1713 0186 1B78     		ldrb	r3, [r3, #0]	@ zero_extendqisi2
 1714 0188 002B     		cmp	r3, #0
 1715 018a 00F00282 		beq	.L110
 1716              	.L109:
 1717              	.LBB11:
 346:.\main.c      ****             LCD_UpdateStatus((player1_turn) ? "Player 1" : "Player 2");
 1718              		.loc 1 346 0
 1719 018e 40F20003 		movw	r3, #:lower16:player1_turn
 1720 0192 C0F20003 		movt	r3, #:upper16:player1_turn
 1721 0196 1B78     		ldrb	r3, [r3, #0]	@ zero_extendqisi2
 1722 0198 002B     		cmp	r3, #0
 1723 019a 04D0     		beq	.L111
 1724 019c 40F20003 		movw	r3, #:lower16:.LC21
 1725 01a0 C0F20003 		movt	r3, #:upper16:.LC21
 1726 01a4 03E0     		b	.L112
 1727              	.L111:
 1728 01a6 40F20003 		movw	r3, #:lower16:.LC22
 1729 01aa C0F20003 		movt	r3, #:upper16:.LC22
 1730              	.L112:
 1731 01ae 1846     		mov	r0, r3
 1732 01b0 FFF7FEFF 		bl	LCD_UpdateStatus
 347:.\main.c      ****             LCD_UpdateMessage("Place a disc!");
 1733              		.loc 1 347 0
 1734 01b4 40F20000 		movw	r0, #:lower16:.LC23
 1735 01b8 C0F20000 		movt	r0, #:upper16:.LC23
 1736 01bc FFF7FEFF 		bl	LCD_UpdateMessage
 348:.\main.c      ****             uint8 disc = 0;
 1737              		.loc 1 348 0
 1738 01c0 4FF00003 		mov	r3, #0
 1739 01c4 FB77     		strb	r3, [r7, #31]
 349:.\main.c      ****             while (player1[1][disc] || player2[1][disc]) {
 1740              		.loc 1 349 0
 1741 01c6 13E0     		b	.L113
 1742              	.L115:
 350:.\main.c      ****                 if (++disc >= MATRIX_COLS) {
 1743              		.loc 1 350 0
 1744 01c8 FB7F     		ldrb	r3, [r7, #31]
 1745 01ca 03F10103 		add	r3, r3, #1
 1746 01ce FB77     		strb	r3, [r7, #31]
 1747 01d0 FB7F     		ldrb	r3, [r7, #31]	@ zero_extendqisi2
 1748 01d2 072B     		cmp	r3, #7
 1749 01d4 0CD9     		bls	.L113
 351:.\main.c      ****                     LCD_UpdateStatus("Game Over");
 1750              		.loc 1 351 0
 1751 01d6 40F20000 		movw	r0, #:lower16:.LC24
 1752 01da C0F20000 		movt	r0, #:upper16:.LC24
 1753 01de FFF7FEFF 		bl	LCD_UpdateStatus
 352:.\main.c      ****                     LCD_UpdateMessage("Board Full");
 1754              		.loc 1 352 0
 1755 01e2 40F20000 		movw	r0, #:lower16:.LC25
 1756 01e6 C0F20000 		movt	r0, #:upper16:.LC25
 1757 01ea FFF7FEFF 		bl	LCD_UpdateMessage
ARM GAS  C:\Users\dmtucker\AppData\Local\Temp\ccZJkpEN.s 			page 39


 1758              	.L114:
 353:.\main.c      ****                     while (true);
 1759              		.loc 1 353 0
 1760 01ee FEE7     		b	.L114
 1761              	.L113:
 1762              		.loc 1 349 0
 1763 01f0 FA7F     		ldrb	r2, [r7, #31]	@ zero_extendqisi2
 1764 01f2 40F20003 		movw	r3, #:lower16:player1
 1765 01f6 C0F20003 		movt	r3, #:upper16:player1
 1766 01fa 1344     		add	r3, r2, r3
 1767 01fc 1B7A     		ldrb	r3, [r3, #8]	@ zero_extendqisi2
 1768 01fe 002B     		cmp	r3, #0
 1769 0200 E2D1     		bne	.L115
 1770 0202 FA7F     		ldrb	r2, [r7, #31]	@ zero_extendqisi2
 1771 0204 40F20003 		movw	r3, #:lower16:player2
 1772 0208 C0F20003 		movt	r3, #:upper16:player2
 1773 020c 1344     		add	r3, r2, r3
 1774 020e 1B7A     		ldrb	r3, [r3, #8]	@ zero_extendqisi2
 1775 0210 002B     		cmp	r3, #0
 1776 0212 D9D1     		bne	.L115
 354:.\main.c      ****                 }
 355:.\main.c      ****             }
 356:.\main.c      ****             bool dropped = false;
 1777              		.loc 1 356 0
 1778 0214 4FF00003 		mov	r3, #0
 1779 0218 87F82030 		strb	r3, [r7, #32]
 1780              	.L130:
 357:.\main.c      ****             do {
 358:.\main.c      ****                 CapSense_UpdateEnabledBaselines();
 1781              		.loc 1 358 0
 1782 021c FFF7FEFF 		bl	CapSense_UpdateEnabledBaselines
 359:.\main.c      ****                 CapSense_UpdateEnabledBaselines(); //Helps avoid auto-dropping for some reason.
 1783              		.loc 1 359 0
 1784 0220 FFF7FEFF 		bl	CapSense_UpdateEnabledBaselines
 360:.\main.c      ****                 CapSense_ScanEnabledWidgets();
 1785              		.loc 1 360 0
 1786 0224 FFF7FEFF 		bl	CapSense_ScanEnabledWidgets
 1787              	.L116:
 361:.\main.c      ****                 while (CapSense_IsBusy());
 1788              		.loc 1 361 0
 1789 0228 FFF7FEFF 		bl	CapSense_IsBusy
 1790 022c 0346     		mov	r3, r0
 1791 022e 002B     		cmp	r3, #0
 1792 0230 FAD1     		bne	.L116
 362:.\main.c      ****                 if ((player1_turn && CapSense_CheckIsWidgetActive(CapSense_BUTTON0__BTN))
 1793              		.loc 1 362 0
 1794 0232 40F20003 		movw	r3, #:lower16:player1_turn
 1795 0236 C0F20003 		movt	r3, #:upper16:player1_turn
 1796 023a 1B78     		ldrb	r3, [r3, #0]	@ zero_extendqisi2
 1797 023c 002B     		cmp	r3, #0
 1798 023e 06D0     		beq	.L117
 1799 0240 4FF00100 		mov	r0, #1
 1800 0244 FFF7FEFF 		bl	CapSense_CheckIsWidgetActive
 1801 0248 0346     		mov	r3, r0
 1802 024a 002B     		cmp	r3, #0
 1803 024c 10D1     		bne	.L118
 1804              	.L117:
ARM GAS  C:\Users\dmtucker\AppData\Local\Temp\ccZJkpEN.s 			page 40


 1805 024e 40F20003 		movw	r3, #:lower16:player1_turn
 1806 0252 C0F20003 		movt	r3, #:upper16:player1_turn
 1807 0256 1B78     		ldrb	r3, [r3, #0]	@ zero_extendqisi2
 1808 0258 83F00103 		eor	r3, r3, #1
 1809 025c DBB2     		uxtb	r3, r3
 1810 025e 002B     		cmp	r3, #0
 1811 0260 25D0     		beq	.L119
 363:.\main.c      ****                 || (!player1_turn && CapSense_CheckIsWidgetActive(CapSense_BUTTON1__BTN))) { //Help
 1812              		.loc 1 363 0
 1813 0262 4FF00200 		mov	r0, #2
 1814 0266 FFF7FEFF 		bl	CapSense_CheckIsWidgetActive
 1815 026a 0346     		mov	r3, r0
 1816              		.loc 1 362 0
 1817 026c 002B     		cmp	r3, #0
 1818 026e 1ED0     		beq	.L119
 1819              	.L118:
 364:.\main.c      ****                     if (player1[1][disc] || player2[1][disc]) LCD_UpdateMessage("Column Full");
 1820              		.loc 1 364 0
 1821 0270 FA7F     		ldrb	r2, [r7, #31]	@ zero_extendqisi2
 1822 0272 40F20003 		movw	r3, #:lower16:player1
 1823 0276 C0F20003 		movt	r3, #:upper16:player1
 1824 027a 1344     		add	r3, r2, r3
 1825 027c 1B7A     		ldrb	r3, [r3, #8]	@ zero_extendqisi2
 1826 027e 002B     		cmp	r3, #0
 1827 0280 08D1     		bne	.L120
 1828 0282 FA7F     		ldrb	r2, [r7, #31]	@ zero_extendqisi2
 1829 0284 40F20003 		movw	r3, #:lower16:player2
 1830 0288 C0F20003 		movt	r3, #:upper16:player2
 1831 028c 1344     		add	r3, r2, r3
 1832 028e 1B7A     		ldrb	r3, [r3, #8]	@ zero_extendqisi2
 1833 0290 002B     		cmp	r3, #0
 1834 0292 07D0     		beq	.L121
 1835              	.L120:
 1836 0294 40F20000 		movw	r0, #:lower16:.LC26
 1837 0298 C0F20000 		movt	r0, #:upper16:.LC26
 1838 029c FFF7FEFF 		bl	LCD_UpdateMessage
 1839 02a0 00BF     		nop
 1840              		.loc 1 362 0
 1841 02a2 77E0     		b	.L123
 1842              	.L121:
 365:.\main.c      ****                     else dropped = true;
 1843              		.loc 1 365 0
 1844 02a4 4FF00103 		mov	r3, #1
 1845 02a8 87F82030 		strb	r3, [r7, #32]
 1846              		.loc 1 362 0
 1847 02ac 72E0     		b	.L123
 1848              	.L119:
 1849              	.LBB12:
 366:.\main.c      ****                 }
 367:.\main.c      ****                 else {
 368:.\main.c      ****                     player1[0][disc] = player2[0][disc] = false;
 1850              		.loc 1 368 0
 1851 02ae F97F     		ldrb	r1, [r7, #31]	@ zero_extendqisi2
 1852 02b0 FA7F     		ldrb	r2, [r7, #31]	@ zero_extendqisi2
 1853 02b2 40F20003 		movw	r3, #:lower16:player2
 1854 02b6 C0F20003 		movt	r3, #:upper16:player2
 1855 02ba 4FF00000 		mov	r0, #0
ARM GAS  C:\Users\dmtucker\AppData\Local\Temp\ccZJkpEN.s 			page 41


 1856 02be 9854     		strb	r0, [r3, r2]
 1857 02c0 40F20003 		movw	r3, #:lower16:player2
 1858 02c4 C0F20003 		movt	r3, #:upper16:player2
 1859 02c8 9A5C     		ldrb	r2, [r3, r2]	@ zero_extendqisi2
 1860 02ca 40F20003 		movw	r3, #:lower16:player1
 1861 02ce C0F20003 		movt	r3, #:upper16:player1
 1862 02d2 5A54     		strb	r2, [r3, r1]
 369:.\main.c      ****                     uint16 reading = (CapSense_GetCentroidPos(CapSense_LINEARSLIDER0__LS)*(MATRIX_C
 1863              		.loc 1 369 0
 1864 02d4 4FF00000 		mov	r0, #0
 1865 02d8 FFF7FEFF 		bl	CapSense_GetCentroidPos
 1866 02dc 0346     		mov	r3, r0
 1867 02de 1A46     		mov	r2, r3
 1868 02e0 1346     		mov	r3, r2
 1869 02e2 4FEAC303 		lsl	r3, r3, #3
 1870 02e6 C2EB0302 		rsb	r2, r2, r3
 1871 02ea 40F2EB73 		movw	r3, #:lower16:354224107
 1872 02ee C1F21D53 		movt	r3, #:upper16:354224107
 1873 02f2 83FB0213 		smull	r1, r3, r3, r2
 1874 02f6 4FEAE301 		asr	r1, r3, #3
 1875 02fa 4FEAE273 		asr	r3, r2, #31
 1876 02fe C3EB0103 		rsb	r3, r3, r1
 1877 0302 7B84     		strh	r3, [r7, #34]	@ movhi
 370:.\main.c      ****                     if (reading < 8) disc = reading;
 1878              		.loc 1 370 0
 1879 0304 7B8C     		ldrh	r3, [r7, #34]
 1880 0306 072B     		cmp	r3, #7
 1881 0308 01D8     		bhi	.L124
 1882 030a 7B8C     		ldrh	r3, [r7, #34]	@ movhi
 1883 030c FB77     		strb	r3, [r7, #31]
 1884              	.L124:
 371:.\main.c      ****                     
 372:.\main.c      ****                     //guide the disc
 373:.\main.c      ****                     int dir = 1;
 1885              		.loc 1 373 0
 1886 030e 4FF00103 		mov	r3, #1
 1887 0312 7B62     		str	r3, [r7, #36]
 374:.\main.c      ****                     while (player1[1][disc] || player2[1][disc]) {
 1888              		.loc 1 374 0
 1889 0314 14E0     		b	.L125
 1890              	.L128:
 375:.\main.c      ****                         if (disc >= MATRIX_COLS-1)  dir = -1;
 1891              		.loc 1 375 0
 1892 0316 FB7F     		ldrb	r3, [r7, #31]	@ zero_extendqisi2
 1893 0318 062B     		cmp	r3, #6
 1894 031a 02D9     		bls	.L126
 1895 031c 4FF0FF33 		mov	r3, #-1
 1896 0320 7B62     		str	r3, [r7, #36]
 1897              	.L126:
 376:.\main.c      ****                         if (disc == 0 && dir == -1) dir =  1; // There may be redundancy here.
 1898              		.loc 1 376 0
 1899 0322 FB7F     		ldrb	r3, [r7, #31]	@ zero_extendqisi2
 1900 0324 002B     		cmp	r3, #0
 1901 0326 06D1     		bne	.L127
 1902 0328 7B6A     		ldr	r3, [r7, #36]
 1903 032a B3F1FF3F 		cmp	r3, #-1
 1904 032e 02D1     		bne	.L127
ARM GAS  C:\Users\dmtucker\AppData\Local\Temp\ccZJkpEN.s 			page 42


 1905 0330 4FF00103 		mov	r3, #1
 1906 0334 7B62     		str	r3, [r7, #36]
 1907              	.L127:
 377:.\main.c      ****                         disc += dir;
 1908              		.loc 1 377 0
 1909 0336 7B6A     		ldr	r3, [r7, #36]
 1910 0338 DAB2     		uxtb	r2, r3
 1911 033a FB7F     		ldrb	r3, [r7, #31]
 1912 033c 1344     		add	r3, r2, r3
 1913 033e FB77     		strb	r3, [r7, #31]
 1914              	.L125:
 1915              		.loc 1 374 0
 1916 0340 FA7F     		ldrb	r2, [r7, #31]	@ zero_extendqisi2
 1917 0342 40F20003 		movw	r3, #:lower16:player1
 1918 0346 C0F20003 		movt	r3, #:upper16:player1
 1919 034a 1344     		add	r3, r2, r3
 1920 034c 1B7A     		ldrb	r3, [r3, #8]	@ zero_extendqisi2
 1921 034e 002B     		cmp	r3, #0
 1922 0350 E1D1     		bne	.L128
 1923 0352 FA7F     		ldrb	r2, [r7, #31]	@ zero_extendqisi2
 1924 0354 40F20003 		movw	r3, #:lower16:player2
 1925 0358 C0F20003 		movt	r3, #:upper16:player2
 1926 035c 1344     		add	r3, r2, r3
 1927 035e 1B7A     		ldrb	r3, [r3, #8]	@ zero_extendqisi2
 1928 0360 002B     		cmp	r3, #0
 1929 0362 D8D1     		bne	.L128
 378:.\main.c      ****                     }
 379:.\main.c      ****                     if (player1_turn) player1[0][disc] = true;
 1930              		.loc 1 379 0
 1931 0364 40F20003 		movw	r3, #:lower16:player1_turn
 1932 0368 C0F20003 		movt	r3, #:upper16:player1_turn
 1933 036c 1B78     		ldrb	r3, [r3, #0]	@ zero_extendqisi2
 1934 036e 002B     		cmp	r3, #0
 1935 0370 08D0     		beq	.L129
 1936 0372 FA7F     		ldrb	r2, [r7, #31]	@ zero_extendqisi2
 1937 0374 40F20003 		movw	r3, #:lower16:player1
 1938 0378 C0F20003 		movt	r3, #:upper16:player1
 1939 037c 4FF00101 		mov	r1, #1
 1940 0380 9954     		strb	r1, [r3, r2]
 1941 0382 07E0     		b	.L123
 1942              	.L129:
 380:.\main.c      ****                     else              player2[0][disc] = true;
 1943              		.loc 1 380 0
 1944 0384 FA7F     		ldrb	r2, [r7, #31]	@ zero_extendqisi2
 1945 0386 40F20003 		movw	r3, #:lower16:player2
 1946 038a C0F20003 		movt	r3, #:upper16:player2
 1947 038e 4FF00101 		mov	r1, #1
 1948 0392 9954     		strb	r1, [r3, r2]
 1949              	.L123:
 1950              	.LBE12:
 381:.\main.c      ****                 }
 382:.\main.c      ****             } while (!dropped);
 1951              		.loc 1 382 0
 1952 0394 97F82030 		ldrb	r3, [r7, #32]
 1953 0398 83F00103 		eor	r3, r3, #1
 1954 039c DBB2     		uxtb	r3, r3
 1955 039e 002B     		cmp	r3, #0
ARM GAS  C:\Users\dmtucker\AppData\Local\Temp\ccZJkpEN.s 			page 43


 1956 03a0 7FF43CAF 		bne	.L130
 383:.\main.c      ****             
 384:.\main.c      ****             //animate drop
 385:.\main.c      ****             player1[0][disc] = player2[0][disc] = false;
 1957              		.loc 1 385 0
 1958 03a4 F97F     		ldrb	r1, [r7, #31]	@ zero_extendqisi2
 1959 03a6 FA7F     		ldrb	r2, [r7, #31]	@ zero_extendqisi2
 1960 03a8 40F20003 		movw	r3, #:lower16:player2
 1961 03ac C0F20003 		movt	r3, #:upper16:player2
 1962 03b0 4FF00000 		mov	r0, #0
 1963 03b4 9854     		strb	r0, [r3, r2]
 1964 03b6 40F20003 		movw	r3, #:lower16:player2
 1965 03ba C0F20003 		movt	r3, #:upper16:player2
 1966 03be 9A5C     		ldrb	r2, [r3, r2]	@ zero_extendqisi2
 1967 03c0 40F20003 		movw	r3, #:lower16:player1
 1968 03c4 C0F20003 		movt	r3, #:upper16:player1
 1969 03c8 5A54     		strb	r2, [r3, r1]
 386:.\main.c      ****             uint8 r;
 387:.\main.c      ****             for (r=1; r < MATRIX_ROWS ;++r) {
 1970              		.loc 1 387 0
 1971 03ca 4FF00103 		mov	r3, #1
 1972 03ce 87F82130 		strb	r3, [r7, #33]
 1973 03d2 75E0     		b	.L131
 1974              	.L137:
 388:.\main.c      ****                 if (player1_turn) player1[r][disc] = true;
 1975              		.loc 1 388 0
 1976 03d4 40F20003 		movw	r3, #:lower16:player1_turn
 1977 03d8 C0F20003 		movt	r3, #:upper16:player1_turn
 1978 03dc 1B78     		ldrb	r3, [r3, #0]	@ zero_extendqisi2
 1979 03de 002B     		cmp	r3, #0
 1980 03e0 0ED0     		beq	.L132
 1981 03e2 97F82110 		ldrb	r1, [r7, #33]	@ zero_extendqisi2
 1982 03e6 FA7F     		ldrb	r2, [r7, #31]	@ zero_extendqisi2
 1983 03e8 40F20003 		movw	r3, #:lower16:player1
 1984 03ec C0F20003 		movt	r3, #:upper16:player1
 1985 03f0 4FEAC101 		lsl	r1, r1, #3
 1986 03f4 0A44     		add	r2, r1, r2
 1987 03f6 1344     		add	r3, r2, r3
 1988 03f8 4FF00102 		mov	r2, #1
 1989 03fc 1A70     		strb	r2, [r3, #0]
 1990 03fe 0DE0     		b	.L133
 1991              	.L132:
 389:.\main.c      ****                 else              player2[r][disc] = true;
 1992              		.loc 1 389 0
 1993 0400 97F82110 		ldrb	r1, [r7, #33]	@ zero_extendqisi2
 1994 0404 FA7F     		ldrb	r2, [r7, #31]	@ zero_extendqisi2
 1995 0406 40F20003 		movw	r3, #:lower16:player2
 1996 040a C0F20003 		movt	r3, #:upper16:player2
 1997 040e 4FEAC101 		lsl	r1, r1, #3
 1998 0412 0A44     		add	r2, r1, r2
 1999 0414 1344     		add	r3, r2, r3
 2000 0416 4FF00102 		mov	r2, #1
 2001 041a 1A70     		strb	r2, [r3, #0]
 2002              	.L133:
 390:.\main.c      ****                 if (player1[r+1][disc] || player2[r+1][disc] || r+1 == MATRIX_ROWS) break;
 2003              		.loc 1 390 0
 2004 041c 97F82130 		ldrb	r3, [r7, #33]	@ zero_extendqisi2
ARM GAS  C:\Users\dmtucker\AppData\Local\Temp\ccZJkpEN.s 			page 44


 2005 0420 03F10101 		add	r1, r3, #1
 2006 0424 FA7F     		ldrb	r2, [r7, #31]	@ zero_extendqisi2
 2007 0426 40F20003 		movw	r3, #:lower16:player1
 2008 042a C0F20003 		movt	r3, #:upper16:player1
 2009 042e 4FEAC101 		lsl	r1, r1, #3
 2010 0432 0A44     		add	r2, r1, r2
 2011 0434 1344     		add	r3, r2, r3
 2012 0436 1B78     		ldrb	r3, [r3, #0]	@ zero_extendqisi2
 2013 0438 002B     		cmp	r3, #0
 2014 043a 45D1     		bne	.L134
 2015 043c 97F82130 		ldrb	r3, [r7, #33]	@ zero_extendqisi2
 2016 0440 03F10101 		add	r1, r3, #1
 2017 0444 FA7F     		ldrb	r2, [r7, #31]	@ zero_extendqisi2
 2018 0446 40F20003 		movw	r3, #:lower16:player2
 2019 044a C0F20003 		movt	r3, #:upper16:player2
 2020 044e 4FEAC101 		lsl	r1, r1, #3
 2021 0452 0A44     		add	r2, r1, r2
 2022 0454 1344     		add	r3, r2, r3
 2023 0456 1B78     		ldrb	r3, [r3, #0]	@ zero_extendqisi2
 2024 0458 002B     		cmp	r3, #0
 2025 045a 35D1     		bne	.L134
 2026 045c 97F82130 		ldrb	r3, [r7, #33]	@ zero_extendqisi2
 2027 0460 072B     		cmp	r3, #7
 2028 0462 31D0     		beq	.L134
 391:.\main.c      ****                 else CyDelay(100);
 2029              		.loc 1 391 0
 2030 0464 4FF06400 		mov	r0, #100
 2031 0468 FFF7FEFF 		bl	CyDelay
 392:.\main.c      ****                 if (player1_turn) player1[r][disc] = false;
 2032              		.loc 1 392 0
 2033 046c 40F20003 		movw	r3, #:lower16:player1_turn
 2034 0470 C0F20003 		movt	r3, #:upper16:player1_turn
 2035 0474 1B78     		ldrb	r3, [r3, #0]	@ zero_extendqisi2
 2036 0476 002B     		cmp	r3, #0
 2037 0478 0ED0     		beq	.L135
 2038 047a 97F82110 		ldrb	r1, [r7, #33]	@ zero_extendqisi2
 2039 047e FA7F     		ldrb	r2, [r7, #31]	@ zero_extendqisi2
 2040 0480 40F20003 		movw	r3, #:lower16:player1
 2041 0484 C0F20003 		movt	r3, #:upper16:player1
 2042 0488 4FEAC101 		lsl	r1, r1, #3
 2043 048c 0A44     		add	r2, r1, r2
 2044 048e 1344     		add	r3, r2, r3
 2045 0490 4FF00002 		mov	r2, #0
 2046 0494 1A70     		strb	r2, [r3, #0]
 2047 0496 0DE0     		b	.L136
 2048              	.L135:
 393:.\main.c      ****                 else              player2[r][disc] = false;
 2049              		.loc 1 393 0
 2050 0498 97F82110 		ldrb	r1, [r7, #33]	@ zero_extendqisi2
 2051 049c FA7F     		ldrb	r2, [r7, #31]	@ zero_extendqisi2
 2052 049e 40F20003 		movw	r3, #:lower16:player2
 2053 04a2 C0F20003 		movt	r3, #:upper16:player2
 2054 04a6 4FEAC101 		lsl	r1, r1, #3
 2055 04aa 0A44     		add	r2, r1, r2
 2056 04ac 1344     		add	r3, r2, r3
 2057 04ae 4FF00002 		mov	r2, #0
 2058 04b2 1A70     		strb	r2, [r3, #0]
ARM GAS  C:\Users\dmtucker\AppData\Local\Temp\ccZJkpEN.s 			page 45


 2059              	.L136:
 2060              		.loc 1 387 0
 2061 04b4 97F82130 		ldrb	r3, [r7, #33]
 2062 04b8 03F10103 		add	r3, r3, #1
 2063 04bc 87F82130 		strb	r3, [r7, #33]
 2064              	.L131:
 2065 04c0 97F82130 		ldrb	r3, [r7, #33]	@ zero_extendqisi2
 2066 04c4 072B     		cmp	r3, #7
 2067 04c6 85D9     		bls	.L137
 2068              	.L134:
 394:.\main.c      ****             }
 395:.\main.c      ****             if (!player2_local) {
 2069              		.loc 1 395 0
 2070 04c8 40F20003 		movw	r3, #:lower16:player2_local
 2071 04cc C0F20003 		movt	r3, #:upper16:player2_local
 2072 04d0 1B78     		ldrb	r3, [r3, #0]	@ zero_extendqisi2
 2073 04d2 83F00103 		eor	r3, r3, #1
 2074 04d6 DBB2     		uxtb	r3, r3
 2075 04d8 002B     		cmp	r3, #0
 2076 04da 49D0     		beq	.L138
 2077              	.LBB13:
 396:.\main.c      ****                 packet_t move;
 397:.\main.c      ****                 move.delimiter   = '~';
 2078              		.loc 1 397 0
 2079 04dc 4FF07E03 		mov	r3, #126
 2080 04e0 3B74     		strb	r3, [r7, #16]
 398:.\main.c      ****                 move.length      = sizeof(move) - (sizeof(move.delimiter) +
 2081              		.loc 1 398 0
 2082 04e2 4FF00A03 		mov	r3, #10
 2083 04e6 7B82     		strh	r3, [r7, #18]	@ movhi
 399:.\main.c      ****                                                    sizeof(move.length) +
 400:.\main.c      ****                                                    sizeof(move.checksum));
 401:.\main.c      ****                 move.api_id      = 0x01;
 2084              		.loc 1 401 0
 2085 04e8 4FF00103 		mov	r3, #1
 2086 04ec 3B75     		strb	r3, [r7, #20]
 402:.\main.c      ****                 move.frame_id    = 0x00;
 2087              		.loc 1 402 0
 2088 04ee 4FF00003 		mov	r3, #0
 2089 04f2 7B75     		strb	r3, [r7, #21]
 403:.\main.c      ****                 move.destination = 0xFFFF;
 2090              		.loc 1 403 0
 2091 04f4 4FF6FF73 		movw	r3, #65535
 2092 04f8 FB82     		strh	r3, [r7, #22]	@ movhi
 404:.\main.c      ****                 move.disable_ack = 0x01;
 2093              		.loc 1 404 0
 2094 04fa 4FF00103 		mov	r3, #1
 2095 04fe 3B76     		strb	r3, [r7, #24]
 405:.\main.c      ****                 move.player_id   = PLAYER1_ID;
 2096              		.loc 1 405 0
 2097 0500 6FF02503 		mvn	r3, #37
 2098 0504 7B76     		strb	r3, [r7, #25]
 406:.\main.c      ****                 move.packet_type = 0x00;
 2099              		.loc 1 406 0
 2100 0506 4FF00003 		mov	r3, #0
 2101 050a BB76     		strb	r3, [r7, #26]
 407:.\main.c      ****                 move.row         = r;
ARM GAS  C:\Users\dmtucker\AppData\Local\Temp\ccZJkpEN.s 			page 46


 2102              		.loc 1 407 0
 2103 050c 97F82130 		ldrb	r3, [r7, #33]
 2104 0510 FB76     		strb	r3, [r7, #27]
 408:.\main.c      ****                 move.col         = disc;
 2105              		.loc 1 408 0
 2106 0512 FB7F     		ldrb	r3, [r7, #31]
 2107 0514 3B77     		strb	r3, [r7, #28]
 409:.\main.c      ****                 move.checksum    = 0xFF - (uint8) (move.api_id +
 2108              		.loc 1 409 0
 2109 0516 3A7D     		ldrb	r2, [r7, #20]	@ zero_extendqisi2
 2110 0518 7B7D     		ldrb	r3, [r7, #21]	@ zero_extendqisi2
 2111 051a 1344     		add	r3, r2, r3
 2112 051c DAB2     		uxtb	r2, r3
 2113 051e FB8A     		ldrh	r3, [r7, #22]
 2114 0520 DBB2     		uxtb	r3, r3
 2115 0522 1344     		add	r3, r2, r3
 2116 0524 DAB2     		uxtb	r2, r3
 2117 0526 3B7E     		ldrb	r3, [r7, #24]	@ zero_extendqisi2
 2118 0528 1344     		add	r3, r2, r3
 2119 052a DAB2     		uxtb	r2, r3
 2120 052c 7B7E     		ldrb	r3, [r7, #25]	@ zero_extendqisi2
 2121 052e 1344     		add	r3, r2, r3
 2122 0530 DAB2     		uxtb	r2, r3
 2123 0532 BB7E     		ldrb	r3, [r7, #26]	@ zero_extendqisi2
 2124 0534 1344     		add	r3, r2, r3
 2125 0536 DAB2     		uxtb	r2, r3
 2126 0538 FB7E     		ldrb	r3, [r7, #27]	@ zero_extendqisi2
 2127 053a 1344     		add	r3, r2, r3
 2128 053c DAB2     		uxtb	r2, r3
 2129 053e 3B7F     		ldrb	r3, [r7, #28]	@ zero_extendqisi2
 2130 0540 1344     		add	r3, r2, r3
 2131 0542 DBB2     		uxtb	r3, r3
 2132 0544 6FEA0303 		mvn	r3, r3
 2133 0548 DBB2     		uxtb	r3, r3
 2134 054a 7B77     		strb	r3, [r7, #29]
 410:.\main.c      ****                                                    move.frame_id +
 411:.\main.c      ****                                                    move.destination +
 412:.\main.c      ****                                                    move.disable_ack +
 413:.\main.c      ****                                                    move.player_id +
 414:.\main.c      ****                                                    move.packet_type +
 415:.\main.c      ****                                                    move.row +
 416:.\main.c      ****                                                    move.col);
 417:.\main.c      ****                 send_packet(&move);
 2135              		.loc 1 417 0
 2136 054c 07F11003 		add	r3, r7, #16
 2137 0550 1846     		mov	r0, r3
 2138 0552 FFF7FEFF 		bl	send_packet
 418:.\main.c      ****                 
 419:.\main.c      ****                 LCD_UpdateStatus("IMPLEMENTED"); // DEBUG
 2139              		.loc 1 419 0
 2140 0556 40F20000 		movw	r0, #:lower16:.LC27
 2141 055a C0F20000 		movt	r0, #:upper16:.LC27
 2142 055e FFF7FEFF 		bl	LCD_UpdateStatus
 420:.\main.c      ****                 LCD_UpdateMessage("move sent"); // DEBUG
 2143              		.loc 1 420 0
 2144 0562 40F20000 		movw	r0, #:lower16:.LC28
 2145 0566 C0F20000 		movt	r0, #:upper16:.LC28
ARM GAS  C:\Users\dmtucker\AppData\Local\Temp\ccZJkpEN.s 			page 47


 2146 056a FFF7FEFF 		bl	LCD_UpdateMessage
 2147              	.L139:
 421:.\main.c      ****                 while (true); // DEBUG
 2148              		.loc 1 421 0
 2149 056e FEE7     		b	.L139
 2150              	.L138:
 2151              	.LBE13:
 422:.\main.c      ****             }
 423:.\main.c      ****             
 424:.\main.c      ****             winner_check();
 2152              		.loc 1 424 0
 2153 0570 FFF7FEFF 		bl	winner_check
 425:.\main.c      ****             player1_turn = !player1_turn;
 2154              		.loc 1 425 0
 2155 0574 40F20003 		movw	r3, #:lower16:player1_turn
 2156 0578 C0F20003 		movt	r3, #:upper16:player1_turn
 2157 057c 1B78     		ldrb	r3, [r3, #0]	@ zero_extendqisi2
 2158 057e 83F00103 		eor	r3, r3, #1
 2159 0582 DBB2     		uxtb	r3, r3
 2160 0584 DAB2     		uxtb	r2, r3
 2161 0586 40F20003 		movw	r3, #:lower16:player1_turn
 2162 058a C0F20003 		movt	r3, #:upper16:player1_turn
 2163 058e 1A70     		strb	r2, [r3, #0]
 2164              	.LBE11:
 426:.\main.c      ****         }
 427:.\main.c      ****         else {
 428:.\main.c      ****             LCD_UpdateMessage("Player 2");
 429:.\main.c      ****             packet_t move;
 430:.\main.c      ****             receive_packet(&move);
 431:.\main.c      ****             
 432:.\main.c      ****             LCD_UpdateStatus("UNIMPLEMENTED"); // DEBUG
 433:.\main.c      ****             LCD_UpdateMessage("waiting for move"); // DEBUG
 434:.\main.c      ****             while (true); // DEBUG
 435:.\main.c      ****             
 436:.\main.c      ****             player1_turn = true;
 437:.\main.c      ****         }
 438:.\main.c      ****     }
 2165              		.loc 1 438 0
 2166 0590 EEE5     		b	.L140
 2167              	.L110:
 2168              	.LBB14:
 2169              		.loc 1 428 0
 2170 0592 40F20000 		movw	r0, #:lower16:.LC22
 2171 0596 C0F20000 		movt	r0, #:upper16:.LC22
 2172 059a FFF7FEFF 		bl	LCD_UpdateMessage
 2173              		.loc 1 430 0
 2174 059e 3B46     		mov	r3, r7
 2175 05a0 1846     		mov	r0, r3
 2176 05a2 FFF7FEFF 		bl	receive_packet
 2177              		.loc 1 432 0
 2178 05a6 40F20000 		movw	r0, #:lower16:.LC29
 2179 05aa C0F20000 		movt	r0, #:upper16:.LC29
 2180 05ae FFF7FEFF 		bl	LCD_UpdateStatus
 2181              		.loc 1 433 0
 2182 05b2 40F20000 		movw	r0, #:lower16:.LC30
 2183 05b6 C0F20000 		movt	r0, #:upper16:.LC30
 2184 05ba FFF7FEFF 		bl	LCD_UpdateMessage
ARM GAS  C:\Users\dmtucker\AppData\Local\Temp\ccZJkpEN.s 			page 48


 2185              	.L141:
 2186              		.loc 1 434 0
 2187 05be FEE7     		b	.L141
 2188              	.LBE14:
 2189              		.cfi_endproc
 2190              	.LFE36:
 2191              		.size	main, .-main
 2192              		.text
 2193              	.Letext0:
 2194              		.section	.debug_loc,"",%progbits
 2195              	.Ldebug_loc0:
 2196              	.LLST0:
 2197 0000 00000000 		.4byte	.LFB29
 2198 0004 02000000 		.4byte	.LCFI0
 2199 0008 0100     		.2byte	0x1
 2200 000a 5D       		.byte	0x5d
 2201 000b 02000000 		.4byte	.LCFI0
 2202 000f 04000000 		.4byte	.LCFI1
 2203 0013 0200     		.2byte	0x2
 2204 0015 7D       		.byte	0x7d
 2205 0016 04       		.sleb128 4
 2206 0017 04000000 		.4byte	.LCFI1
 2207 001b 34000000 		.4byte	.LFE29
 2208 001f 0200     		.2byte	0x2
 2209 0021 77       		.byte	0x77
 2210 0022 04       		.sleb128 4
 2211 0023 00000000 		.4byte	0x0
 2212 0027 00000000 		.4byte	0x0
 2213              	.LLST1:
 2214 002b 00000000 		.4byte	.LFB30
 2215 002f 02000000 		.4byte	.LCFI2
 2216 0033 0100     		.2byte	0x1
 2217 0035 5D       		.byte	0x5d
 2218 0036 02000000 		.4byte	.LCFI2
 2219 003a 04000000 		.4byte	.LCFI3
 2220 003e 0200     		.2byte	0x2
 2221 0040 7D       		.byte	0x7d
 2222 0041 08       		.sleb128 8
 2223 0042 04000000 		.4byte	.LCFI3
 2224 0046 3A010000 		.4byte	.LFE30
 2225 004a 0200     		.2byte	0x2
 2226 004c 77       		.byte	0x77
 2227 004d 08       		.sleb128 8
 2228 004e 00000000 		.4byte	0x0
 2229 0052 00000000 		.4byte	0x0
 2230              	.LLST2:
 2231 0056 00000000 		.4byte	.LFB31
 2232 005a 02000000 		.4byte	.LCFI4
 2233 005e 0100     		.2byte	0x1
 2234 0060 5D       		.byte	0x5d
 2235 0061 02000000 		.4byte	.LCFI4
 2236 0065 04000000 		.4byte	.LCFI5
 2237 0069 0200     		.2byte	0x2
 2238 006b 7D       		.byte	0x7d
 2239 006c 08       		.sleb128 8
 2240 006d 04000000 		.4byte	.LCFI5
 2241 0071 06000000 		.4byte	.LCFI6
ARM GAS  C:\Users\dmtucker\AppData\Local\Temp\ccZJkpEN.s 			page 49


 2242 0075 0200     		.2byte	0x2
 2243 0077 7D       		.byte	0x7d
 2244 0078 10       		.sleb128 16
 2245 0079 06000000 		.4byte	.LCFI6
 2246 007d A6000000 		.4byte	.LFE31
 2247 0081 0200     		.2byte	0x2
 2248 0083 77       		.byte	0x77
 2249 0084 10       		.sleb128 16
 2250 0085 00000000 		.4byte	0x0
 2251 0089 00000000 		.4byte	0x0
 2252              	.LLST3:
 2253 008d 00000000 		.4byte	.LFB32
 2254 0091 02000000 		.4byte	.LCFI7
 2255 0095 0100     		.2byte	0x1
 2256 0097 5D       		.byte	0x5d
 2257 0098 02000000 		.4byte	.LCFI7
 2258 009c 04000000 		.4byte	.LCFI8
 2259 00a0 0200     		.2byte	0x2
 2260 00a2 7D       		.byte	0x7d
 2261 00a3 08       		.sleb128 8
 2262 00a4 04000000 		.4byte	.LCFI8
 2263 00a8 06000000 		.4byte	.LCFI9
 2264 00ac 0200     		.2byte	0x2
 2265 00ae 7D       		.byte	0x7d
 2266 00af 10       		.sleb128 16
 2267 00b0 06000000 		.4byte	.LCFI9
 2268 00b4 68010000 		.4byte	.LFE32
 2269 00b8 0200     		.2byte	0x2
 2270 00ba 77       		.byte	0x77
 2271 00bb 10       		.sleb128 16
 2272 00bc 00000000 		.4byte	0x0
 2273 00c0 00000000 		.4byte	0x0
 2274              	.LLST4:
 2275 00c4 00000000 		.4byte	.LFB33
 2276 00c8 02000000 		.4byte	.LCFI10
 2277 00cc 0100     		.2byte	0x1
 2278 00ce 5D       		.byte	0x5d
 2279 00cf 02000000 		.4byte	.LCFI10
 2280 00d3 04000000 		.4byte	.LCFI11
 2281 00d7 0200     		.2byte	0x2
 2282 00d9 7D       		.byte	0x7d
 2283 00da 04       		.sleb128 4
 2284 00db 04000000 		.4byte	.LCFI11
 2285 00df 06000000 		.4byte	.LCFI12
 2286 00e3 0200     		.2byte	0x2
 2287 00e5 7D       		.byte	0x7d
 2288 00e6 10       		.sleb128 16
 2289 00e7 06000000 		.4byte	.LCFI12
 2290 00eb 70000000 		.4byte	.LFE33
 2291 00ef 0200     		.2byte	0x2
 2292 00f1 77       		.byte	0x77
 2293 00f2 10       		.sleb128 16
 2294 00f3 00000000 		.4byte	0x0
 2295 00f7 00000000 		.4byte	0x0
 2296              	.LLST5:
 2297 00fb 00000000 		.4byte	.LFB34
 2298 00ff 02000000 		.4byte	.LCFI13
ARM GAS  C:\Users\dmtucker\AppData\Local\Temp\ccZJkpEN.s 			page 50


 2299 0103 0100     		.2byte	0x1
 2300 0105 5D       		.byte	0x5d
 2301 0106 02000000 		.4byte	.LCFI13
 2302 010a 04000000 		.4byte	.LCFI14
 2303 010e 0200     		.2byte	0x2
 2304 0110 7D       		.byte	0x7d
 2305 0111 08       		.sleb128 8
 2306 0112 04000000 		.4byte	.LCFI14
 2307 0116 06000000 		.4byte	.LCFI15
 2308 011a 0200     		.2byte	0x2
 2309 011c 7D       		.byte	0x7d
 2310 011d 20       		.sleb128 32
 2311 011e 06000000 		.4byte	.LCFI15
 2312 0122 0E050000 		.4byte	.LFE34
 2313 0126 0200     		.2byte	0x2
 2314 0128 77       		.byte	0x77
 2315 0129 20       		.sleb128 32
 2316 012a 00000000 		.4byte	0x0
 2317 012e 00000000 		.4byte	0x0
 2318              	.LLST6:
 2319 0132 00000000 		.4byte	.LFB35
 2320 0136 02000000 		.4byte	.LCFI16
 2321 013a 0100     		.2byte	0x1
 2322 013c 5D       		.byte	0x5d
 2323 013d 02000000 		.4byte	.LCFI16
 2324 0141 04000000 		.4byte	.LCFI17
 2325 0145 0200     		.2byte	0x2
 2326 0147 7D       		.byte	0x7d
 2327 0148 08       		.sleb128 8
 2328 0149 04000000 		.4byte	.LCFI17
 2329 014d 06000000 		.4byte	.LCFI18
 2330 0151 0200     		.2byte	0x2
 2331 0153 7D       		.byte	0x7d
 2332 0154 10       		.sleb128 16
 2333 0155 06000000 		.4byte	.LCFI18
 2334 0159 34010000 		.4byte	.LFE35
 2335 015d 0200     		.2byte	0x2
 2336 015f 77       		.byte	0x77
 2337 0160 10       		.sleb128 16
 2338 0161 00000000 		.4byte	0x0
 2339 0165 00000000 		.4byte	0x0
 2340              	.LLST7:
 2341 0169 00000000 		.4byte	.LFB36
 2342 016d 02000000 		.4byte	.LCFI19
 2343 0171 0100     		.2byte	0x1
 2344 0173 5D       		.byte	0x5d
 2345 0174 02000000 		.4byte	.LCFI19
 2346 0178 04000000 		.4byte	.LCFI20
 2347 017c 0200     		.2byte	0x2
 2348 017e 7D       		.byte	0x7d
 2349 017f 08       		.sleb128 8
 2350 0180 04000000 		.4byte	.LCFI20
 2351 0184 06000000 		.4byte	.LCFI21
 2352 0188 0200     		.2byte	0x2
 2353 018a 7D       		.byte	0x7d
 2354 018b 30       		.sleb128 48
 2355 018c 06000000 		.4byte	.LCFI21
ARM GAS  C:\Users\dmtucker\AppData\Local\Temp\ccZJkpEN.s 			page 51


 2356 0190 C0050000 		.4byte	.LFE36
 2357 0194 0200     		.2byte	0x2
 2358 0196 77       		.byte	0x77
 2359 0197 30       		.sleb128 48
 2360 0198 00000000 		.4byte	0x0
 2361 019c 00000000 		.4byte	0x0
 2362              		.file 2 "./Generated_Source/PSoC5/cytypes.h"
 2363              		.file 3 "./Generated_Source/PSoC5/core_cm3.h"
 2364              		.section	.debug_info
 2365 0000 B9040000 		.4byte	0x4b9
 2366 0004 0200     		.2byte	0x2
 2367 0006 00000000 		.4byte	.Ldebug_abbrev0
 2368 000a 04       		.byte	0x4
 2369 000b 01       		.uleb128 0x1
 2370 000c BC010000 		.4byte	.LASF46
 2371 0010 01       		.byte	0x1
 2372 0011 A7000000 		.4byte	.LASF47
 2373 0015 E7000000 		.4byte	.LASF48
 2374 0019 00000000 		.4byte	0x0
 2375 001d 00000000 		.4byte	0x0
 2376 0021 00000000 		.4byte	.Ldebug_ranges0+0x0
 2377 0025 00000000 		.4byte	.Ldebug_line0
 2378 0029 02       		.uleb128 0x2
 2379 002a 01       		.byte	0x1
 2380 002b 06       		.byte	0x6
 2381 002c DB000000 		.4byte	.LASF0
 2382 0030 02       		.uleb128 0x2
 2383 0031 01       		.byte	0x1
 2384 0032 08       		.byte	0x8
 2385 0033 19010000 		.4byte	.LASF1
 2386 0037 02       		.uleb128 0x2
 2387 0038 02       		.byte	0x2
 2388 0039 05       		.byte	0x5
 2389 003a 2E010000 		.4byte	.LASF2
 2390 003e 02       		.uleb128 0x2
 2391 003f 02       		.byte	0x2
 2392 0040 07       		.byte	0x7
 2393 0041 C2000000 		.4byte	.LASF3
 2394 0045 02       		.uleb128 0x2
 2395 0046 04       		.byte	0x4
 2396 0047 05       		.byte	0x5
 2397 0048 01020000 		.4byte	.LASF4
 2398 004c 02       		.uleb128 0x2
 2399 004d 04       		.byte	0x4
 2400 004e 07       		.byte	0x7
 2401 004f B0000000 		.4byte	.LASF5
 2402 0053 02       		.uleb128 0x2
 2403 0054 08       		.byte	0x8
 2404 0055 05       		.byte	0x5
 2405 0056 00000000 		.4byte	.LASF6
 2406 005a 02       		.uleb128 0x2
 2407 005b 08       		.byte	0x8
 2408 005c 07       		.byte	0x7
 2409 005d 76010000 		.4byte	.LASF7
 2410 0061 03       		.uleb128 0x3
 2411 0062 04       		.byte	0x4
 2412 0063 05       		.byte	0x5
ARM GAS  C:\Users\dmtucker\AppData\Local\Temp\ccZJkpEN.s 			page 52


 2413 0064 696E7400 		.ascii	"int\000"
 2414 0068 02       		.uleb128 0x2
 2415 0069 04       		.byte	0x4
 2416 006a 07       		.byte	0x7
 2417 006b 62010000 		.4byte	.LASF8
 2418 006f 04       		.uleb128 0x4
 2419 0070 FB010000 		.4byte	.LASF9
 2420 0074 02       		.byte	0x2
 2421 0075 4C       		.byte	0x4c
 2422 0076 30000000 		.4byte	0x30
 2423 007a 04       		.uleb128 0x4
 2424 007b 3F010000 		.4byte	.LASF10
 2425 007f 02       		.byte	0x2
 2426 0080 4D       		.byte	0x4d
 2427 0081 3E000000 		.4byte	0x3e
 2428 0085 02       		.uleb128 0x2
 2429 0086 04       		.byte	0x4
 2430 0087 04       		.byte	0x4
 2431 0088 73000000 		.4byte	.LASF11
 2432 008c 02       		.uleb128 0x2
 2433 008d 08       		.byte	0x8
 2434 008e 04       		.byte	0x4
 2435 008f 27010000 		.4byte	.LASF12
 2436 0093 02       		.uleb128 0x2
 2437 0094 01       		.byte	0x1
 2438 0095 08       		.byte	0x8
 2439 0096 C8010000 		.4byte	.LASF13
 2440 009a 05       		.uleb128 0x5
 2441 009b 04       		.byte	0x4
 2442 009c 07       		.byte	0x7
 2443 009d 06       		.uleb128 0x6
 2444 009e 38010000 		.4byte	.LASF49
 2445 00a2 0E       		.byte	0xe
 2446 00a3 01       		.byte	0x1
 2447 00a4 15       		.byte	0x15
 2448 00a5 44010000 		.4byte	0x144
 2449 00a9 07       		.uleb128 0x7
 2450 00aa 0F010000 		.4byte	.LASF14
 2451 00ae 01       		.byte	0x1
 2452 00af 16       		.byte	0x16
 2453 00b0 93000000 		.4byte	0x93
 2454 00b4 02       		.byte	0x2
 2455 00b5 23       		.byte	0x23
 2456 00b6 00       		.uleb128 0x0
 2457 00b7 07       		.uleb128 0x7
 2458 00b8 0A020000 		.4byte	.LASF15
 2459 00bc 01       		.byte	0x1
 2460 00bd 17       		.byte	0x17
 2461 00be 7A000000 		.4byte	0x7a
 2462 00c2 02       		.byte	0x2
 2463 00c3 23       		.byte	0x23
 2464 00c4 02       		.uleb128 0x2
 2465 00c5 07       		.uleb128 0x7
 2466 00c6 6F010000 		.4byte	.LASF16
 2467 00ca 01       		.byte	0x1
 2468 00cb 18       		.byte	0x18
 2469 00cc 6F000000 		.4byte	0x6f
ARM GAS  C:\Users\dmtucker\AppData\Local\Temp\ccZJkpEN.s 			page 53


 2470 00d0 02       		.byte	0x2
 2471 00d1 23       		.byte	0x23
 2472 00d2 04       		.uleb128 0x4
 2473 00d3 07       		.uleb128 0x7
 2474 00d4 CD010000 		.4byte	.LASF17
 2475 00d8 01       		.byte	0x1
 2476 00d9 19       		.byte	0x19
 2477 00da 6F000000 		.4byte	0x6f
 2478 00de 02       		.byte	0x2
 2479 00df 23       		.byte	0x23
 2480 00e0 05       		.uleb128 0x5
 2481 00e1 07       		.uleb128 0x7
 2482 00e2 58000000 		.4byte	.LASF18
 2483 00e6 01       		.byte	0x1
 2484 00e7 1A       		.byte	0x1a
 2485 00e8 7A000000 		.4byte	0x7a
 2486 00ec 02       		.byte	0x2
 2487 00ed 23       		.byte	0x23
 2488 00ee 06       		.uleb128 0x6
 2489 00ef 07       		.uleb128 0x7
 2490 00f0 85000000 		.4byte	.LASF19
 2491 00f4 01       		.byte	0x1
 2492 00f5 1B       		.byte	0x1b
 2493 00f6 6F000000 		.4byte	0x6f
 2494 00fa 02       		.byte	0x2
 2495 00fb 23       		.byte	0x23
 2496 00fc 08       		.uleb128 0x8
 2497 00fd 07       		.uleb128 0x7
 2498 00fe 46010000 		.4byte	.LASF20
 2499 0102 01       		.byte	0x1
 2500 0103 1C       		.byte	0x1c
 2501 0104 6F000000 		.4byte	0x6f
 2502 0108 02       		.byte	0x2
 2503 0109 23       		.byte	0x23
 2504 010a 09       		.uleb128 0x9
 2505 010b 07       		.uleb128 0x7
 2506 010c 8D010000 		.4byte	.LASF21
 2507 0110 01       		.byte	0x1
 2508 0111 1D       		.byte	0x1d
 2509 0112 6F000000 		.4byte	0x6f
 2510 0116 02       		.byte	0x2
 2511 0117 23       		.byte	0x23
 2512 0118 0A       		.uleb128 0xa
 2513 0119 08       		.uleb128 0x8
 2514 011a 726F7700 		.ascii	"row\000"
 2515 011e 01       		.byte	0x1
 2516 011f 1E       		.byte	0x1e
 2517 0120 6F000000 		.4byte	0x6f
 2518 0124 02       		.byte	0x2
 2519 0125 23       		.byte	0x23
 2520 0126 0B       		.uleb128 0xb
 2521 0127 08       		.uleb128 0x8
 2522 0128 636F6C00 		.ascii	"col\000"
 2523 012c 01       		.byte	0x1
 2524 012d 1F       		.byte	0x1f
 2525 012e 6F000000 		.4byte	0x6f
 2526 0132 02       		.byte	0x2
ARM GAS  C:\Users\dmtucker\AppData\Local\Temp\ccZJkpEN.s 			page 54


 2527 0133 23       		.byte	0x23
 2528 0134 0C       		.uleb128 0xc
 2529 0135 07       		.uleb128 0x7
 2530 0136 D6010000 		.4byte	.LASF22
 2531 013a 01       		.byte	0x1
 2532 013b 20       		.byte	0x20
 2533 013c 6F000000 		.4byte	0x6f
 2534 0140 02       		.byte	0x2
 2535 0141 23       		.byte	0x23
 2536 0142 0D       		.uleb128 0xd
 2537 0143 00       		.byte	0x0
 2538 0144 04       		.uleb128 0x4
 2539 0145 20020000 		.4byte	.LASF23
 2540 0149 01       		.byte	0x1
 2541 014a 21       		.byte	0x21
 2542 014b 9D000000 		.4byte	0x9d
 2543 014f 09       		.uleb128 0x9
 2544 0150 01       		.byte	0x1
 2545 0151 6C000000 		.4byte	.LASF32
 2546 0155 01       		.byte	0x1
 2547 0156 27       		.byte	0x27
 2548 0157 01       		.byte	0x1
 2549 0158 00000000 		.4byte	.LFB29
 2550 015c 34000000 		.4byte	.LFE29
 2551 0160 00000000 		.4byte	.LLST0
 2552 0164 0A       		.uleb128 0xa
 2553 0165 01       		.byte	0x1
 2554 0166 99010000 		.4byte	.LASF50
 2555 016a 01       		.byte	0x1
 2556 016b 2C       		.byte	0x2c
 2557 016c 00000000 		.4byte	.LFB30
 2558 0170 3A010000 		.4byte	.LFE30
 2559 0174 2B000000 		.4byte	.LLST1
 2560 0178 0B       		.uleb128 0xb
 2561 0179 01       		.byte	0x1
 2562 017a 79000000 		.4byte	.LASF24
 2563 017e 01       		.byte	0x1
 2564 017f 4E       		.byte	0x4e
 2565 0180 01       		.byte	0x1
 2566 0181 00000000 		.4byte	.LFB31
 2567 0185 A6000000 		.4byte	.LFE31
 2568 0189 56000000 		.4byte	.LLST2
 2569 018d A0010000 		.4byte	0x1a0
 2570 0191 0C       		.uleb128 0xc
 2571 0192 33000000 		.4byte	.LASF26
 2572 0196 01       		.byte	0x1
 2573 0197 4E       		.byte	0x4e
 2574 0198 A0010000 		.4byte	0x1a0
 2575 019c 02       		.byte	0x2
 2576 019d 91       		.byte	0x91
 2577 019e 74       		.sleb128 -12
 2578 019f 00       		.byte	0x0
 2579 01a0 0D       		.uleb128 0xd
 2580 01a1 04       		.byte	0x4
 2581 01a2 44010000 		.4byte	0x144
 2582 01a6 0B       		.uleb128 0xb
 2583 01a7 01       		.byte	0x1
ARM GAS  C:\Users\dmtucker\AppData\Local\Temp\ccZJkpEN.s 			page 55


 2584 01a8 24000000 		.4byte	.LASF25
 2585 01ac 01       		.byte	0x1
 2586 01ad 61       		.byte	0x61
 2587 01ae 01       		.byte	0x1
 2588 01af 00000000 		.4byte	.LFB32
 2589 01b3 68010000 		.4byte	.LFE32
 2590 01b7 8D000000 		.4byte	.LLST3
 2591 01bb CE010000 		.4byte	0x1ce
 2592 01bf 0C       		.uleb128 0xc
 2593 01c0 33000000 		.4byte	.LASF26
 2594 01c4 01       		.byte	0x1
 2595 01c5 61       		.byte	0x61
 2596 01c6 A0010000 		.4byte	0x1a0
 2597 01ca 02       		.byte	0x2
 2598 01cb 91       		.byte	0x91
 2599 01cc 74       		.sleb128 -12
 2600 01cd 00       		.byte	0x0
 2601 01ce 0E       		.uleb128 0xe
 2602 01cf 01       		.byte	0x1
 2603 01d0 A8010000 		.4byte	.LASF27
 2604 01d4 01       		.byte	0x1
 2605 01d5 9F       		.byte	0x9f
 2606 01d6 00000000 		.4byte	.LFB33
 2607 01da 70000000 		.4byte	.LFE33
 2608 01de C4000000 		.4byte	.LLST4
 2609 01e2 FF010000 		.4byte	0x1ff
 2610 01e6 0F       		.uleb128 0xf
 2611 01e7 7200     		.ascii	"r\000"
 2612 01e9 01       		.byte	0x1
 2613 01ea A0       		.byte	0xa0
 2614 01eb 6F000000 		.4byte	0x6f
 2615 01ef 02       		.byte	0x2
 2616 01f0 91       		.byte	0x91
 2617 01f1 76       		.sleb128 -10
 2618 01f2 0F       		.uleb128 0xf
 2619 01f3 6300     		.ascii	"c\000"
 2620 01f5 01       		.byte	0x1
 2621 01f6 A0       		.byte	0xa0
 2622 01f7 6F000000 		.4byte	0x6f
 2623 01fb 02       		.byte	0x2
 2624 01fc 91       		.byte	0x91
 2625 01fd 77       		.sleb128 -9
 2626 01fe 00       		.byte	0x0
 2627 01ff 0E       		.uleb128 0xe
 2628 0200 01       		.byte	0x1
 2629 0201 46000000 		.4byte	.LASF28
 2630 0205 01       		.byte	0x1
 2631 0206 AC       		.byte	0xac
 2632 0207 00000000 		.4byte	.LFB34
 2633 020b 0E050000 		.4byte	.LFE34
 2634 020f FB000000 		.4byte	.LLST5
 2635 0213 14030000 		.4byte	0x314
 2636 0217 0F       		.uleb128 0xf
 2637 0218 7200     		.ascii	"r\000"
 2638 021a 01       		.byte	0x1
 2639 021b AD       		.byte	0xad
 2640 021c 61000000 		.4byte	0x61
ARM GAS  C:\Users\dmtucker\AppData\Local\Temp\ccZJkpEN.s 			page 56


 2641 0220 02       		.byte	0x2
 2642 0221 91       		.byte	0x91
 2643 0222 64       		.sleb128 -28
 2644 0223 0F       		.uleb128 0xf
 2645 0224 6300     		.ascii	"c\000"
 2646 0226 01       		.byte	0x1
 2647 0227 AD       		.byte	0xad
 2648 0228 61000000 		.4byte	0x61
 2649 022c 02       		.byte	0x2
 2650 022d 91       		.byte	0x91
 2651 022e 68       		.sleb128 -24
 2652 022f 10       		.uleb128 0x10
 2653 0230 16000000 		.4byte	.LBB2
 2654 0234 E6040000 		.4byte	.LBE2
 2655 0238 11       		.uleb128 0x11
 2656 0239 E7010000 		.4byte	.LASF29
 2657 023d 01       		.byte	0x1
 2658 023e B0       		.byte	0xb0
 2659 023f 61000000 		.4byte	0x61
 2660 0243 02       		.byte	0x2
 2661 0244 91       		.byte	0x91
 2662 0245 6C       		.sleb128 -20
 2663 0246 12       		.uleb128 0x12
 2664 0247 1E000000 		.4byte	.LBB3
 2665 024b 40010000 		.4byte	.LBE3
 2666 024f 7A020000 		.4byte	0x27a
 2667 0253 0F       		.uleb128 0xf
 2668 0254 77696E00 		.ascii	"win\000"
 2669 0258 01       		.byte	0x1
 2670 0259 B4       		.byte	0xb4
 2671 025a 14030000 		.4byte	0x314
 2672 025e 02       		.byte	0x2
 2673 025f 91       		.byte	0x91
 2674 0260 70       		.sleb128 -16
 2675 0261 10       		.uleb128 0x10
 2676 0262 B2000000 		.4byte	.LBB4
 2677 0266 40010000 		.4byte	.LBE4
 2678 026a 11       		.uleb128 0x11
 2679 026b D5000000 		.4byte	.LASF30
 2680 026f 01       		.byte	0x1
 2681 0270 BB       		.byte	0xbb
 2682 0271 14030000 		.4byte	0x314
 2683 0275 02       		.byte	0x2
 2684 0276 91       		.byte	0x91
 2685 0277 71       		.sleb128 -15
 2686 0278 00       		.byte	0x0
 2687 0279 00       		.byte	0x0
 2688 027a 12       		.uleb128 0x12
 2689 027b 48010000 		.4byte	.LBB5
 2690 027f 62020000 		.4byte	.LBE5
 2691 0283 AE020000 		.4byte	0x2ae
 2692 0287 0F       		.uleb128 0xf
 2693 0288 77696E00 		.ascii	"win\000"
 2694 028c 01       		.byte	0x1
 2695 028d C9       		.byte	0xc9
 2696 028e 14030000 		.4byte	0x314
 2697 0292 02       		.byte	0x2
ARM GAS  C:\Users\dmtucker\AppData\Local\Temp\ccZJkpEN.s 			page 57


 2698 0293 91       		.byte	0x91
 2699 0294 72       		.sleb128 -14
 2700 0295 10       		.uleb128 0x10
 2701 0296 D8010000 		.4byte	.LBB6
 2702 029a 62020000 		.4byte	.LBE6
 2703 029e 11       		.uleb128 0x11
 2704 029f D5000000 		.4byte	.LASF30
 2705 02a3 01       		.byte	0x1
 2706 02a4 D0       		.byte	0xd0
 2707 02a5 14030000 		.4byte	0x314
 2708 02a9 02       		.byte	0x2
 2709 02aa 91       		.byte	0x91
 2710 02ab 73       		.sleb128 -13
 2711 02ac 00       		.byte	0x0
 2712 02ad 00       		.byte	0x0
 2713 02ae 12       		.uleb128 0x12
 2714 02af 72020000 		.4byte	.LBB7
 2715 02b3 A4030000 		.4byte	.LBE7
 2716 02b7 E2020000 		.4byte	0x2e2
 2717 02bb 0F       		.uleb128 0xf
 2718 02bc 77696E00 		.ascii	"win\000"
 2719 02c0 01       		.byte	0x1
 2720 02c1 DE       		.byte	0xde
 2721 02c2 14030000 		.4byte	0x314
 2722 02c6 02       		.byte	0x2
 2723 02c7 91       		.byte	0x91
 2724 02c8 74       		.sleb128 -12
 2725 02c9 10       		.uleb128 0x10
 2726 02ca 0E030000 		.4byte	.LBB8
 2727 02ce A4030000 		.4byte	.LBE8
 2728 02d2 11       		.uleb128 0x11
 2729 02d3 D5000000 		.4byte	.LASF30
 2730 02d7 01       		.byte	0x1
 2731 02d8 E5       		.byte	0xe5
 2732 02d9 14030000 		.4byte	0x314
 2733 02dd 02       		.byte	0x2
 2734 02de 91       		.byte	0x91
 2735 02df 75       		.sleb128 -11
 2736 02e0 00       		.byte	0x0
 2737 02e1 00       		.byte	0x0
 2738 02e2 10       		.uleb128 0x10
 2739 02e3 B4030000 		.4byte	.LBB9
 2740 02e7 E6040000 		.4byte	.LBE9
 2741 02eb 0F       		.uleb128 0xf
 2742 02ec 77696E00 		.ascii	"win\000"
 2743 02f0 01       		.byte	0x1
 2744 02f1 F3       		.byte	0xf3
 2745 02f2 14030000 		.4byte	0x314
 2746 02f6 02       		.byte	0x2
 2747 02f7 91       		.byte	0x91
 2748 02f8 76       		.sleb128 -10
 2749 02f9 10       		.uleb128 0x10
 2750 02fa 50040000 		.4byte	.LBB10
 2751 02fe E6040000 		.4byte	.LBE10
 2752 0302 11       		.uleb128 0x11
 2753 0303 D5000000 		.4byte	.LASF30
 2754 0307 01       		.byte	0x1
ARM GAS  C:\Users\dmtucker\AppData\Local\Temp\ccZJkpEN.s 			page 58


 2755 0308 FA       		.byte	0xfa
 2756 0309 14030000 		.4byte	0x314
 2757 030d 02       		.byte	0x2
 2758 030e 91       		.byte	0x91
 2759 030f 77       		.sleb128 -9
 2760 0310 00       		.byte	0x0
 2761 0311 00       		.byte	0x0
 2762 0312 00       		.byte	0x0
 2763 0313 00       		.byte	0x0
 2764 0314 02       		.uleb128 0x2
 2765 0315 01       		.byte	0x1
 2766 0316 02       		.byte	0x2
 2767 0317 1A020000 		.4byte	.LASF31
 2768 031b 13       		.uleb128 0x13
 2769 031c 01       		.byte	0x1
 2770 031d B4010000 		.4byte	.LASF33
 2771 0321 01       		.byte	0x1
 2772 0322 0D01     		.2byte	0x10d
 2773 0324 01       		.byte	0x1
 2774 0325 00000000 		.4byte	.LFB35
 2775 0329 34010000 		.4byte	.LFE35
 2776 032d 32010000 		.4byte	.LLST6
 2777 0331 14       		.uleb128 0x14
 2778 0332 01       		.byte	0x1
 2779 0333 5D010000 		.4byte	.LASF34
 2780 0337 01       		.byte	0x1
 2781 0338 2E01     		.2byte	0x12e
 2782 033a 00000000 		.4byte	.LFB36
 2783 033e C0050000 		.4byte	.LFE36
 2784 0342 69010000 		.4byte	.LLST7
 2785 0346 EF030000 		.4byte	0x3ef
 2786 034a 15       		.uleb128 0x15
 2787 034b 7400     		.ascii	"t\000"
 2788 034d 01       		.byte	0x1
 2789 034e 4301     		.2byte	0x143
 2790 0350 6F000000 		.4byte	0x6f
 2791 0354 02       		.byte	0x2
 2792 0355 91       		.byte	0x91
 2793 0356 6E       		.sleb128 -18
 2794 0357 12       		.uleb128 0x12
 2795 0358 8E010000 		.4byte	.LBB11
 2796 035c 90050000 		.4byte	.LBE11
 2797 0360 D5030000 		.4byte	0x3d5
 2798 0364 16       		.uleb128 0x16
 2799 0365 53000000 		.4byte	.LASF35
 2800 0369 01       		.byte	0x1
 2801 036a 5C01     		.2byte	0x15c
 2802 036c 6F000000 		.4byte	0x6f
 2803 0370 02       		.byte	0x2
 2804 0371 91       		.byte	0x91
 2805 0372 6F       		.sleb128 -17
 2806 0373 16       		.uleb128 0x16
 2807 0374 DF010000 		.4byte	.LASF36
 2808 0378 01       		.byte	0x1
 2809 0379 6401     		.2byte	0x164
 2810 037b 14030000 		.4byte	0x314
 2811 037f 02       		.byte	0x2
ARM GAS  C:\Users\dmtucker\AppData\Local\Temp\ccZJkpEN.s 			page 59


 2812 0380 91       		.byte	0x91
 2813 0381 70       		.sleb128 -16
 2814 0382 15       		.uleb128 0x15
 2815 0383 7200     		.ascii	"r\000"
 2816 0385 01       		.byte	0x1
 2817 0386 8201     		.2byte	0x182
 2818 0388 6F000000 		.4byte	0x6f
 2819 038c 02       		.byte	0x2
 2820 038d 91       		.byte	0x91
 2821 038e 71       		.sleb128 -15
 2822 038f 12       		.uleb128 0x12
 2823 0390 AE020000 		.4byte	.LBB12
 2824 0394 94030000 		.4byte	.LBE12
 2825 0398 BB030000 		.4byte	0x3bb
 2826 039c 16       		.uleb128 0x16
 2827 039d 64000000 		.4byte	.LASF37
 2828 03a1 01       		.byte	0x1
 2829 03a2 7101     		.2byte	0x171
 2830 03a4 7A000000 		.4byte	0x7a
 2831 03a8 02       		.byte	0x2
 2832 03a9 91       		.byte	0x91
 2833 03aa 72       		.sleb128 -14
 2834 03ab 15       		.uleb128 0x15
 2835 03ac 64697200 		.ascii	"dir\000"
 2836 03b0 01       		.byte	0x1
 2837 03b1 7501     		.2byte	0x175
 2838 03b3 61000000 		.4byte	0x61
 2839 03b7 02       		.byte	0x2
 2840 03b8 91       		.byte	0x91
 2841 03b9 74       		.sleb128 -12
 2842 03ba 00       		.byte	0x0
 2843 03bb 10       		.uleb128 0x10
 2844 03bc DC040000 		.4byte	.LBB13
 2845 03c0 70050000 		.4byte	.LBE13
 2846 03c4 16       		.uleb128 0x16
 2847 03c5 33000000 		.4byte	.LASF26
 2848 03c9 01       		.byte	0x1
 2849 03ca 8C01     		.2byte	0x18c
 2850 03cc 44010000 		.4byte	0x144
 2851 03d0 02       		.byte	0x2
 2852 03d1 91       		.byte	0x91
 2853 03d2 60       		.sleb128 -32
 2854 03d3 00       		.byte	0x0
 2855 03d4 00       		.byte	0x0
 2856 03d5 10       		.uleb128 0x10
 2857 03d6 92050000 		.4byte	.LBB14
 2858 03da C0050000 		.4byte	.LBE14
 2859 03de 16       		.uleb128 0x16
 2860 03df 33000000 		.4byte	.LASF26
 2861 03e3 01       		.byte	0x1
 2862 03e4 AD01     		.2byte	0x1ad
 2863 03e6 44010000 		.4byte	0x144
 2864 03ea 02       		.byte	0x2
 2865 03eb 91       		.byte	0x91
 2866 03ec 50       		.sleb128 -48
 2867 03ed 00       		.byte	0x0
 2868 03ee 00       		.byte	0x0
ARM GAS  C:\Users\dmtucker\AppData\Local\Temp\ccZJkpEN.s 			page 60


 2869 03ef 17       		.uleb128 0x17
 2870 03f0 50010000 		.4byte	.LASF38
 2871 03f4 03       		.byte	0x3
 2872 03f5 CE06     		.2byte	0x6ce
 2873 03f7 FD030000 		.4byte	0x3fd
 2874 03fb 01       		.byte	0x1
 2875 03fc 01       		.byte	0x1
 2876 03fd 18       		.uleb128 0x18
 2877 03fe 61000000 		.4byte	0x61
 2878 0402 19       		.uleb128 0x19
 2879 0403 14030000 		.4byte	0x314
 2880 0407 18040000 		.4byte	0x418
 2881 040b 1A       		.uleb128 0x1a
 2882 040c 9A000000 		.4byte	0x9a
 2883 0410 07       		.byte	0x7
 2884 0411 1A       		.uleb128 0x1a
 2885 0412 9A000000 		.4byte	0x9a
 2886 0416 07       		.byte	0x7
 2887 0417 00       		.byte	0x0
 2888 0418 1B       		.uleb128 0x1b
 2889 0419 0E000000 		.4byte	.LASF39
 2890 041d 01       		.byte	0x1
 2891 041e 0D       		.byte	0xd
 2892 041f 02040000 		.4byte	0x402
 2893 0423 01       		.byte	0x1
 2894 0424 05       		.byte	0x5
 2895 0425 03       		.byte	0x3
 2896 0426 00000000 		.4byte	player1
 2897 042a 1B       		.uleb128 0x1b
 2898 042b 9F000000 		.4byte	.LASF40
 2899 042f 01       		.byte	0x1
 2900 0430 0E       		.byte	0xe
 2901 0431 02040000 		.4byte	0x402
 2902 0435 01       		.byte	0x1
 2903 0436 05       		.byte	0x5
 2904 0437 03       		.byte	0x3
 2905 0438 00000000 		.4byte	player2
 2906 043c 1B       		.uleb128 0x1b
 2907 043d 91000000 		.4byte	.LASF41
 2908 0441 01       		.byte	0x1
 2909 0442 0F       		.byte	0xf
 2910 0443 6F000000 		.4byte	0x6f
 2911 0447 01       		.byte	0x1
 2912 0448 05       		.byte	0x5
 2913 0449 03       		.byte	0x3
 2914 044a 00000000 		.4byte	player1_color
 2915 044e 1B       		.uleb128 0x1b
 2916 044f 38000000 		.4byte	.LASF42
 2917 0453 01       		.byte	0x1
 2918 0454 10       		.byte	0x10
 2919 0455 6F000000 		.4byte	0x6f
 2920 0459 01       		.byte	0x1
 2921 045a 05       		.byte	0x5
 2922 045b 03       		.byte	0x3
 2923 045c 00000000 		.4byte	player2_color
 2924 0460 1B       		.uleb128 0x1b
 2925 0461 EE010000 		.4byte	.LASF43
ARM GAS  C:\Users\dmtucker\AppData\Local\Temp\ccZJkpEN.s 			page 61


 2926 0465 01       		.byte	0x1
 2927 0466 11       		.byte	0x11
 2928 0467 14030000 		.4byte	0x314
 2929 046b 01       		.byte	0x1
 2930 046c 05       		.byte	0x5
 2931 046d 03       		.byte	0x3
 2932 046e 00000000 		.4byte	player1_turn
 2933 0472 1B       		.uleb128 0x1b
 2934 0473 16000000 		.4byte	.LASF44
 2935 0477 01       		.byte	0x1
 2936 0478 12       		.byte	0x12
 2937 0479 14030000 		.4byte	0x314
 2938 047d 01       		.byte	0x1
 2939 047e 05       		.byte	0x5
 2940 047f 03       		.byte	0x3
 2941 0480 00000000 		.4byte	player2_local
 2942 0484 1B       		.uleb128 0x1b
 2943 0485 11020000 		.4byte	.LASF45
 2944 0489 01       		.byte	0x1
 2945 048a 26       		.byte	0x26
 2946 048b 14030000 		.4byte	0x314
 2947 048f 01       		.byte	0x1
 2948 0490 05       		.byte	0x5
 2949 0491 03       		.byte	0x3
 2950 0492 00000000 		.4byte	locating
 2951 0496 1C       		.uleb128 0x1c
 2952 0497 726F7700 		.ascii	"row\000"
 2953 049b 01       		.byte	0x1
 2954 049c 0C01     		.2byte	0x10c
 2955 049e 6F000000 		.4byte	0x6f
 2956 04a2 01       		.byte	0x1
 2957 04a3 05       		.byte	0x5
 2958 04a4 03       		.byte	0x3
 2959 04a5 00000000 		.4byte	row
 2960 04a9 1C       		.uleb128 0x1c
 2961 04aa 636F6C00 		.ascii	"col\000"
 2962 04ae 01       		.byte	0x1
 2963 04af 0C01     		.2byte	0x10c
 2964 04b1 6F000000 		.4byte	0x6f
 2965 04b5 01       		.byte	0x1
 2966 04b6 05       		.byte	0x5
 2967 04b7 03       		.byte	0x3
 2968 04b8 00000000 		.4byte	col
 2969 04bc 00       		.byte	0x0
 2970              		.section	.debug_abbrev
 2971 0000 01       		.uleb128 0x1
 2972 0001 11       		.uleb128 0x11
 2973 0002 01       		.byte	0x1
 2974 0003 25       		.uleb128 0x25
 2975 0004 0E       		.uleb128 0xe
 2976 0005 13       		.uleb128 0x13
 2977 0006 0B       		.uleb128 0xb
 2978 0007 03       		.uleb128 0x3
 2979 0008 0E       		.uleb128 0xe
 2980 0009 1B       		.uleb128 0x1b
 2981 000a 0E       		.uleb128 0xe
 2982 000b 11       		.uleb128 0x11
ARM GAS  C:\Users\dmtucker\AppData\Local\Temp\ccZJkpEN.s 			page 62


 2983 000c 01       		.uleb128 0x1
 2984 000d 52       		.uleb128 0x52
 2985 000e 01       		.uleb128 0x1
 2986 000f 55       		.uleb128 0x55
 2987 0010 06       		.uleb128 0x6
 2988 0011 10       		.uleb128 0x10
 2989 0012 06       		.uleb128 0x6
 2990 0013 00       		.byte	0x0
 2991 0014 00       		.byte	0x0
 2992 0015 02       		.uleb128 0x2
 2993 0016 24       		.uleb128 0x24
 2994 0017 00       		.byte	0x0
 2995 0018 0B       		.uleb128 0xb
 2996 0019 0B       		.uleb128 0xb
 2997 001a 3E       		.uleb128 0x3e
 2998 001b 0B       		.uleb128 0xb
 2999 001c 03       		.uleb128 0x3
 3000 001d 0E       		.uleb128 0xe
 3001 001e 00       		.byte	0x0
 3002 001f 00       		.byte	0x0
 3003 0020 03       		.uleb128 0x3
 3004 0021 24       		.uleb128 0x24
 3005 0022 00       		.byte	0x0
 3006 0023 0B       		.uleb128 0xb
 3007 0024 0B       		.uleb128 0xb
 3008 0025 3E       		.uleb128 0x3e
 3009 0026 0B       		.uleb128 0xb
 3010 0027 03       		.uleb128 0x3
 3011 0028 08       		.uleb128 0x8
 3012 0029 00       		.byte	0x0
 3013 002a 00       		.byte	0x0
 3014 002b 04       		.uleb128 0x4
 3015 002c 16       		.uleb128 0x16
 3016 002d 00       		.byte	0x0
 3017 002e 03       		.uleb128 0x3
 3018 002f 0E       		.uleb128 0xe
 3019 0030 3A       		.uleb128 0x3a
 3020 0031 0B       		.uleb128 0xb
 3021 0032 3B       		.uleb128 0x3b
 3022 0033 0B       		.uleb128 0xb
 3023 0034 49       		.uleb128 0x49
 3024 0035 13       		.uleb128 0x13
 3025 0036 00       		.byte	0x0
 3026 0037 00       		.byte	0x0
 3027 0038 05       		.uleb128 0x5
 3028 0039 24       		.uleb128 0x24
 3029 003a 00       		.byte	0x0
 3030 003b 0B       		.uleb128 0xb
 3031 003c 0B       		.uleb128 0xb
 3032 003d 3E       		.uleb128 0x3e
 3033 003e 0B       		.uleb128 0xb
 3034 003f 00       		.byte	0x0
 3035 0040 00       		.byte	0x0
 3036 0041 06       		.uleb128 0x6
 3037 0042 13       		.uleb128 0x13
 3038 0043 01       		.byte	0x1
 3039 0044 03       		.uleb128 0x3
ARM GAS  C:\Users\dmtucker\AppData\Local\Temp\ccZJkpEN.s 			page 63


 3040 0045 0E       		.uleb128 0xe
 3041 0046 0B       		.uleb128 0xb
 3042 0047 0B       		.uleb128 0xb
 3043 0048 3A       		.uleb128 0x3a
 3044 0049 0B       		.uleb128 0xb
 3045 004a 3B       		.uleb128 0x3b
 3046 004b 0B       		.uleb128 0xb
 3047 004c 01       		.uleb128 0x1
 3048 004d 13       		.uleb128 0x13
 3049 004e 00       		.byte	0x0
 3050 004f 00       		.byte	0x0
 3051 0050 07       		.uleb128 0x7
 3052 0051 0D       		.uleb128 0xd
 3053 0052 00       		.byte	0x0
 3054 0053 03       		.uleb128 0x3
 3055 0054 0E       		.uleb128 0xe
 3056 0055 3A       		.uleb128 0x3a
 3057 0056 0B       		.uleb128 0xb
 3058 0057 3B       		.uleb128 0x3b
 3059 0058 0B       		.uleb128 0xb
 3060 0059 49       		.uleb128 0x49
 3061 005a 13       		.uleb128 0x13
 3062 005b 38       		.uleb128 0x38
 3063 005c 0A       		.uleb128 0xa
 3064 005d 00       		.byte	0x0
 3065 005e 00       		.byte	0x0
 3066 005f 08       		.uleb128 0x8
 3067 0060 0D       		.uleb128 0xd
 3068 0061 00       		.byte	0x0
 3069 0062 03       		.uleb128 0x3
 3070 0063 08       		.uleb128 0x8
 3071 0064 3A       		.uleb128 0x3a
 3072 0065 0B       		.uleb128 0xb
 3073 0066 3B       		.uleb128 0x3b
 3074 0067 0B       		.uleb128 0xb
 3075 0068 49       		.uleb128 0x49
 3076 0069 13       		.uleb128 0x13
 3077 006a 38       		.uleb128 0x38
 3078 006b 0A       		.uleb128 0xa
 3079 006c 00       		.byte	0x0
 3080 006d 00       		.byte	0x0
 3081 006e 09       		.uleb128 0x9
 3082 006f 2E       		.uleb128 0x2e
 3083 0070 00       		.byte	0x0
 3084 0071 3F       		.uleb128 0x3f
 3085 0072 0C       		.uleb128 0xc
 3086 0073 03       		.uleb128 0x3
 3087 0074 0E       		.uleb128 0xe
 3088 0075 3A       		.uleb128 0x3a
 3089 0076 0B       		.uleb128 0xb
 3090 0077 3B       		.uleb128 0x3b
 3091 0078 0B       		.uleb128 0xb
 3092 0079 27       		.uleb128 0x27
 3093 007a 0C       		.uleb128 0xc
 3094 007b 11       		.uleb128 0x11
 3095 007c 01       		.uleb128 0x1
 3096 007d 12       		.uleb128 0x12
ARM GAS  C:\Users\dmtucker\AppData\Local\Temp\ccZJkpEN.s 			page 64


 3097 007e 01       		.uleb128 0x1
 3098 007f 40       		.uleb128 0x40
 3099 0080 06       		.uleb128 0x6
 3100 0081 00       		.byte	0x0
 3101 0082 00       		.byte	0x0
 3102 0083 0A       		.uleb128 0xa
 3103 0084 2E       		.uleb128 0x2e
 3104 0085 00       		.byte	0x0
 3105 0086 3F       		.uleb128 0x3f
 3106 0087 0C       		.uleb128 0xc
 3107 0088 03       		.uleb128 0x3
 3108 0089 0E       		.uleb128 0xe
 3109 008a 3A       		.uleb128 0x3a
 3110 008b 0B       		.uleb128 0xb
 3111 008c 3B       		.uleb128 0x3b
 3112 008d 0B       		.uleb128 0xb
 3113 008e 11       		.uleb128 0x11
 3114 008f 01       		.uleb128 0x1
 3115 0090 12       		.uleb128 0x12
 3116 0091 01       		.uleb128 0x1
 3117 0092 40       		.uleb128 0x40
 3118 0093 06       		.uleb128 0x6
 3119 0094 00       		.byte	0x0
 3120 0095 00       		.byte	0x0
 3121 0096 0B       		.uleb128 0xb
 3122 0097 2E       		.uleb128 0x2e
 3123 0098 01       		.byte	0x1
 3124 0099 3F       		.uleb128 0x3f
 3125 009a 0C       		.uleb128 0xc
 3126 009b 03       		.uleb128 0x3
 3127 009c 0E       		.uleb128 0xe
 3128 009d 3A       		.uleb128 0x3a
 3129 009e 0B       		.uleb128 0xb
 3130 009f 3B       		.uleb128 0x3b
 3131 00a0 0B       		.uleb128 0xb
 3132 00a1 27       		.uleb128 0x27
 3133 00a2 0C       		.uleb128 0xc
 3134 00a3 11       		.uleb128 0x11
 3135 00a4 01       		.uleb128 0x1
 3136 00a5 12       		.uleb128 0x12
 3137 00a6 01       		.uleb128 0x1
 3138 00a7 40       		.uleb128 0x40
 3139 00a8 06       		.uleb128 0x6
 3140 00a9 01       		.uleb128 0x1
 3141 00aa 13       		.uleb128 0x13
 3142 00ab 00       		.byte	0x0
 3143 00ac 00       		.byte	0x0
 3144 00ad 0C       		.uleb128 0xc
 3145 00ae 05       		.uleb128 0x5
 3146 00af 00       		.byte	0x0
 3147 00b0 03       		.uleb128 0x3
 3148 00b1 0E       		.uleb128 0xe
 3149 00b2 3A       		.uleb128 0x3a
 3150 00b3 0B       		.uleb128 0xb
 3151 00b4 3B       		.uleb128 0x3b
 3152 00b5 0B       		.uleb128 0xb
 3153 00b6 49       		.uleb128 0x49
ARM GAS  C:\Users\dmtucker\AppData\Local\Temp\ccZJkpEN.s 			page 65


 3154 00b7 13       		.uleb128 0x13
 3155 00b8 02       		.uleb128 0x2
 3156 00b9 0A       		.uleb128 0xa
 3157 00ba 00       		.byte	0x0
 3158 00bb 00       		.byte	0x0
 3159 00bc 0D       		.uleb128 0xd
 3160 00bd 0F       		.uleb128 0xf
 3161 00be 00       		.byte	0x0
 3162 00bf 0B       		.uleb128 0xb
 3163 00c0 0B       		.uleb128 0xb
 3164 00c1 49       		.uleb128 0x49
 3165 00c2 13       		.uleb128 0x13
 3166 00c3 00       		.byte	0x0
 3167 00c4 00       		.byte	0x0
 3168 00c5 0E       		.uleb128 0xe
 3169 00c6 2E       		.uleb128 0x2e
 3170 00c7 01       		.byte	0x1
 3171 00c8 3F       		.uleb128 0x3f
 3172 00c9 0C       		.uleb128 0xc
 3173 00ca 03       		.uleb128 0x3
 3174 00cb 0E       		.uleb128 0xe
 3175 00cc 3A       		.uleb128 0x3a
 3176 00cd 0B       		.uleb128 0xb
 3177 00ce 3B       		.uleb128 0x3b
 3178 00cf 0B       		.uleb128 0xb
 3179 00d0 11       		.uleb128 0x11
 3180 00d1 01       		.uleb128 0x1
 3181 00d2 12       		.uleb128 0x12
 3182 00d3 01       		.uleb128 0x1
 3183 00d4 40       		.uleb128 0x40
 3184 00d5 06       		.uleb128 0x6
 3185 00d6 01       		.uleb128 0x1
 3186 00d7 13       		.uleb128 0x13
 3187 00d8 00       		.byte	0x0
 3188 00d9 00       		.byte	0x0
 3189 00da 0F       		.uleb128 0xf
 3190 00db 34       		.uleb128 0x34
 3191 00dc 00       		.byte	0x0
 3192 00dd 03       		.uleb128 0x3
 3193 00de 08       		.uleb128 0x8
 3194 00df 3A       		.uleb128 0x3a
 3195 00e0 0B       		.uleb128 0xb
 3196 00e1 3B       		.uleb128 0x3b
 3197 00e2 0B       		.uleb128 0xb
 3198 00e3 49       		.uleb128 0x49
 3199 00e4 13       		.uleb128 0x13
 3200 00e5 02       		.uleb128 0x2
 3201 00e6 0A       		.uleb128 0xa
 3202 00e7 00       		.byte	0x0
 3203 00e8 00       		.byte	0x0
 3204 00e9 10       		.uleb128 0x10
 3205 00ea 0B       		.uleb128 0xb
 3206 00eb 01       		.byte	0x1
 3207 00ec 11       		.uleb128 0x11
 3208 00ed 01       		.uleb128 0x1
 3209 00ee 12       		.uleb128 0x12
 3210 00ef 01       		.uleb128 0x1
ARM GAS  C:\Users\dmtucker\AppData\Local\Temp\ccZJkpEN.s 			page 66


 3211 00f0 00       		.byte	0x0
 3212 00f1 00       		.byte	0x0
 3213 00f2 11       		.uleb128 0x11
 3214 00f3 34       		.uleb128 0x34
 3215 00f4 00       		.byte	0x0
 3216 00f5 03       		.uleb128 0x3
 3217 00f6 0E       		.uleb128 0xe
 3218 00f7 3A       		.uleb128 0x3a
 3219 00f8 0B       		.uleb128 0xb
 3220 00f9 3B       		.uleb128 0x3b
 3221 00fa 0B       		.uleb128 0xb
 3222 00fb 49       		.uleb128 0x49
 3223 00fc 13       		.uleb128 0x13
 3224 00fd 02       		.uleb128 0x2
 3225 00fe 0A       		.uleb128 0xa
 3226 00ff 00       		.byte	0x0
 3227 0100 00       		.byte	0x0
 3228 0101 12       		.uleb128 0x12
 3229 0102 0B       		.uleb128 0xb
 3230 0103 01       		.byte	0x1
 3231 0104 11       		.uleb128 0x11
 3232 0105 01       		.uleb128 0x1
 3233 0106 12       		.uleb128 0x12
 3234 0107 01       		.uleb128 0x1
 3235 0108 01       		.uleb128 0x1
 3236 0109 13       		.uleb128 0x13
 3237 010a 00       		.byte	0x0
 3238 010b 00       		.byte	0x0
 3239 010c 13       		.uleb128 0x13
 3240 010d 2E       		.uleb128 0x2e
 3241 010e 00       		.byte	0x0
 3242 010f 3F       		.uleb128 0x3f
 3243 0110 0C       		.uleb128 0xc
 3244 0111 03       		.uleb128 0x3
 3245 0112 0E       		.uleb128 0xe
 3246 0113 3A       		.uleb128 0x3a
 3247 0114 0B       		.uleb128 0xb
 3248 0115 3B       		.uleb128 0x3b
 3249 0116 05       		.uleb128 0x5
 3250 0117 27       		.uleb128 0x27
 3251 0118 0C       		.uleb128 0xc
 3252 0119 11       		.uleb128 0x11
 3253 011a 01       		.uleb128 0x1
 3254 011b 12       		.uleb128 0x12
 3255 011c 01       		.uleb128 0x1
 3256 011d 40       		.uleb128 0x40
 3257 011e 06       		.uleb128 0x6
 3258 011f 00       		.byte	0x0
 3259 0120 00       		.byte	0x0
 3260 0121 14       		.uleb128 0x14
 3261 0122 2E       		.uleb128 0x2e
 3262 0123 01       		.byte	0x1
 3263 0124 3F       		.uleb128 0x3f
 3264 0125 0C       		.uleb128 0xc
 3265 0126 03       		.uleb128 0x3
 3266 0127 0E       		.uleb128 0xe
 3267 0128 3A       		.uleb128 0x3a
ARM GAS  C:\Users\dmtucker\AppData\Local\Temp\ccZJkpEN.s 			page 67


 3268 0129 0B       		.uleb128 0xb
 3269 012a 3B       		.uleb128 0x3b
 3270 012b 05       		.uleb128 0x5
 3271 012c 11       		.uleb128 0x11
 3272 012d 01       		.uleb128 0x1
 3273 012e 12       		.uleb128 0x12
 3274 012f 01       		.uleb128 0x1
 3275 0130 40       		.uleb128 0x40
 3276 0131 06       		.uleb128 0x6
 3277 0132 01       		.uleb128 0x1
 3278 0133 13       		.uleb128 0x13
 3279 0134 00       		.byte	0x0
 3280 0135 00       		.byte	0x0
 3281 0136 15       		.uleb128 0x15
 3282 0137 34       		.uleb128 0x34
 3283 0138 00       		.byte	0x0
 3284 0139 03       		.uleb128 0x3
 3285 013a 08       		.uleb128 0x8
 3286 013b 3A       		.uleb128 0x3a
 3287 013c 0B       		.uleb128 0xb
 3288 013d 3B       		.uleb128 0x3b
 3289 013e 05       		.uleb128 0x5
 3290 013f 49       		.uleb128 0x49
 3291 0140 13       		.uleb128 0x13
 3292 0141 02       		.uleb128 0x2
 3293 0142 0A       		.uleb128 0xa
 3294 0143 00       		.byte	0x0
 3295 0144 00       		.byte	0x0
 3296 0145 16       		.uleb128 0x16
 3297 0146 34       		.uleb128 0x34
 3298 0147 00       		.byte	0x0
 3299 0148 03       		.uleb128 0x3
 3300 0149 0E       		.uleb128 0xe
 3301 014a 3A       		.uleb128 0x3a
 3302 014b 0B       		.uleb128 0xb
 3303 014c 3B       		.uleb128 0x3b
 3304 014d 05       		.uleb128 0x5
 3305 014e 49       		.uleb128 0x49
 3306 014f 13       		.uleb128 0x13
 3307 0150 02       		.uleb128 0x2
 3308 0151 0A       		.uleb128 0xa
 3309 0152 00       		.byte	0x0
 3310 0153 00       		.byte	0x0
 3311 0154 17       		.uleb128 0x17
 3312 0155 34       		.uleb128 0x34
 3313 0156 00       		.byte	0x0
 3314 0157 03       		.uleb128 0x3
 3315 0158 0E       		.uleb128 0xe
 3316 0159 3A       		.uleb128 0x3a
 3317 015a 0B       		.uleb128 0xb
 3318 015b 3B       		.uleb128 0x3b
 3319 015c 05       		.uleb128 0x5
 3320 015d 49       		.uleb128 0x49
 3321 015e 13       		.uleb128 0x13
 3322 015f 3F       		.uleb128 0x3f
 3323 0160 0C       		.uleb128 0xc
 3324 0161 3C       		.uleb128 0x3c
ARM GAS  C:\Users\dmtucker\AppData\Local\Temp\ccZJkpEN.s 			page 68


 3325 0162 0C       		.uleb128 0xc
 3326 0163 00       		.byte	0x0
 3327 0164 00       		.byte	0x0
 3328 0165 18       		.uleb128 0x18
 3329 0166 35       		.uleb128 0x35
 3330 0167 00       		.byte	0x0
 3331 0168 49       		.uleb128 0x49
 3332 0169 13       		.uleb128 0x13
 3333 016a 00       		.byte	0x0
 3334 016b 00       		.byte	0x0
 3335 016c 19       		.uleb128 0x19
 3336 016d 01       		.uleb128 0x1
 3337 016e 01       		.byte	0x1
 3338 016f 49       		.uleb128 0x49
 3339 0170 13       		.uleb128 0x13
 3340 0171 01       		.uleb128 0x1
 3341 0172 13       		.uleb128 0x13
 3342 0173 00       		.byte	0x0
 3343 0174 00       		.byte	0x0
 3344 0175 1A       		.uleb128 0x1a
 3345 0176 21       		.uleb128 0x21
 3346 0177 00       		.byte	0x0
 3347 0178 49       		.uleb128 0x49
 3348 0179 13       		.uleb128 0x13
 3349 017a 2F       		.uleb128 0x2f
 3350 017b 0B       		.uleb128 0xb
 3351 017c 00       		.byte	0x0
 3352 017d 00       		.byte	0x0
 3353 017e 1B       		.uleb128 0x1b
 3354 017f 34       		.uleb128 0x34
 3355 0180 00       		.byte	0x0
 3356 0181 03       		.uleb128 0x3
 3357 0182 0E       		.uleb128 0xe
 3358 0183 3A       		.uleb128 0x3a
 3359 0184 0B       		.uleb128 0xb
 3360 0185 3B       		.uleb128 0x3b
 3361 0186 0B       		.uleb128 0xb
 3362 0187 49       		.uleb128 0x49
 3363 0188 13       		.uleb128 0x13
 3364 0189 3F       		.uleb128 0x3f
 3365 018a 0C       		.uleb128 0xc
 3366 018b 02       		.uleb128 0x2
 3367 018c 0A       		.uleb128 0xa
 3368 018d 00       		.byte	0x0
 3369 018e 00       		.byte	0x0
 3370 018f 1C       		.uleb128 0x1c
 3371 0190 34       		.uleb128 0x34
 3372 0191 00       		.byte	0x0
 3373 0192 03       		.uleb128 0x3
 3374 0193 08       		.uleb128 0x8
 3375 0194 3A       		.uleb128 0x3a
 3376 0195 0B       		.uleb128 0xb
 3377 0196 3B       		.uleb128 0x3b
 3378 0197 05       		.uleb128 0x5
 3379 0198 49       		.uleb128 0x49
 3380 0199 13       		.uleb128 0x13
 3381 019a 3F       		.uleb128 0x3f
ARM GAS  C:\Users\dmtucker\AppData\Local\Temp\ccZJkpEN.s 			page 69


 3382 019b 0C       		.uleb128 0xc
 3383 019c 02       		.uleb128 0x2
 3384 019d 0A       		.uleb128 0xa
 3385 019e 00       		.byte	0x0
 3386 019f 00       		.byte	0x0
 3387 01a0 00       		.byte	0x0
 3388              		.section	.debug_pubnames,"",%progbits
 3389 0000 01010000 		.4byte	0x101
 3390 0004 0200     		.2byte	0x2
 3391 0006 00000000 		.4byte	.Ldebug_info0
 3392 000a BD040000 		.4byte	0x4bd
 3393 000e 4F010000 		.4byte	0x14f
 3394 0012 746F6767 		.ascii	"toggle\000"
 3394      6C6500
 3395 0019 64010000 		.4byte	0x164
 3396 001d 636F6E66 		.ascii	"configure_XBee\000"
 3396      69677572 
 3396      655F5842 
 3396      656500
 3397 002c 78010000 		.4byte	0x178
 3398 0030 73656E64 		.ascii	"send_packet\000"
 3398      5F706163 
 3398      6B657400 
 3399 003c A6010000 		.4byte	0x1a6
 3400 0040 72656365 		.ascii	"receive_packet\000"
 3400      6976655F 
 3400      7061636B 
 3400      657400
 3401 004f CE010000 		.4byte	0x1ce
 3402 0053 636C6561 		.ascii	"clear_board\000"
 3402      725F626F 
 3402      61726400 
 3403 005f FF010000 		.4byte	0x1ff
 3404 0063 77696E6E 		.ascii	"winner_check\000"
 3404      65725F63 
 3404      6865636B 
 3404      00
 3405 0070 1B030000 		.4byte	0x31b
 3406 0074 72656672 		.ascii	"refresh\000"
 3406      65736800 
 3407 007c 31030000 		.4byte	0x331
 3408 0080 6D61696E 		.ascii	"main\000"
 3408      00
 3409 0085 18040000 		.4byte	0x418
 3410 0089 706C6179 		.ascii	"player1\000"
 3410      65723100 
 3411 0091 2A040000 		.4byte	0x42a
 3412 0095 706C6179 		.ascii	"player2\000"
 3412      65723200 
 3413 009d 3C040000 		.4byte	0x43c
 3414 00a1 706C6179 		.ascii	"player1_color\000"
 3414      6572315F 
 3414      636F6C6F 
 3414      7200
 3415 00af 4E040000 		.4byte	0x44e
 3416 00b3 706C6179 		.ascii	"player2_color\000"
 3416      6572325F 
ARM GAS  C:\Users\dmtucker\AppData\Local\Temp\ccZJkpEN.s 			page 70


 3416      636F6C6F 
 3416      7200
 3417 00c1 60040000 		.4byte	0x460
 3418 00c5 706C6179 		.ascii	"player1_turn\000"
 3418      6572315F 
 3418      7475726E 
 3418      00
 3419 00d2 72040000 		.4byte	0x472
 3420 00d6 706C6179 		.ascii	"player2_local\000"
 3420      6572325F 
 3420      6C6F6361 
 3420      6C00
 3421 00e4 84040000 		.4byte	0x484
 3422 00e8 6C6F6361 		.ascii	"locating\000"
 3422      74696E67 
 3422      00
 3423 00f1 96040000 		.4byte	0x496
 3424 00f5 726F7700 		.ascii	"row\000"
 3425 00f9 A9040000 		.4byte	0x4a9
 3426 00fd 636F6C00 		.ascii	"col\000"
 3427 0101 00000000 		.4byte	0x0
 3428              		.section	.debug_aranges,"",%progbits
 3429 0000 54000000 		.4byte	0x54
 3430 0004 0200     		.2byte	0x2
 3431 0006 00000000 		.4byte	.Ldebug_info0
 3432 000a 04       		.byte	0x4
 3433 000b 00       		.byte	0x0
 3434 000c 0000     		.2byte	0x0
 3435 000e 0000     		.2byte	0x0
 3436 0010 00000000 		.4byte	.LFB29
 3437 0014 34000000 		.4byte	.LFE29-.LFB29
 3438 0018 00000000 		.4byte	.LFB30
 3439 001c 3A010000 		.4byte	.LFE30-.LFB30
 3440 0020 00000000 		.4byte	.LFB31
 3441 0024 A6000000 		.4byte	.LFE31-.LFB31
 3442 0028 00000000 		.4byte	.LFB32
 3443 002c 68010000 		.4byte	.LFE32-.LFB32
 3444 0030 00000000 		.4byte	.LFB33
 3445 0034 70000000 		.4byte	.LFE33-.LFB33
 3446 0038 00000000 		.4byte	.LFB34
 3447 003c 0E050000 		.4byte	.LFE34-.LFB34
 3448 0040 00000000 		.4byte	.LFB35
 3449 0044 34010000 		.4byte	.LFE35-.LFB35
 3450 0048 00000000 		.4byte	.LFB36
 3451 004c C0050000 		.4byte	.LFE36-.LFB36
 3452 0050 00000000 		.4byte	0x0
 3453 0054 00000000 		.4byte	0x0
 3454              		.section	.debug_ranges,"",%progbits
 3455              	.Ldebug_ranges0:
 3456 0000 00000000 		.4byte	.Ltext0
 3457 0004 00000000 		.4byte	.Letext0
 3458 0008 00000000 		.4byte	.LFB29
 3459 000c 34000000 		.4byte	.LFE29
 3460 0010 00000000 		.4byte	.LFB30
 3461 0014 3A010000 		.4byte	.LFE30
 3462 0018 00000000 		.4byte	.LFB31
 3463 001c A6000000 		.4byte	.LFE31
ARM GAS  C:\Users\dmtucker\AppData\Local\Temp\ccZJkpEN.s 			page 71


 3464 0020 00000000 		.4byte	.LFB32
 3465 0024 68010000 		.4byte	.LFE32
 3466 0028 00000000 		.4byte	.LFB33
 3467 002c 70000000 		.4byte	.LFE33
 3468 0030 00000000 		.4byte	.LFB34
 3469 0034 0E050000 		.4byte	.LFE34
 3470 0038 00000000 		.4byte	.LFB35
 3471 003c 34010000 		.4byte	.LFE35
 3472 0040 00000000 		.4byte	.LFB36
 3473 0044 C0050000 		.4byte	.LFE36
 3474 0048 00000000 		.4byte	0x0
 3475 004c 00000000 		.4byte	0x0
 3476              		.section	.debug_str,"MS",%progbits,1
 3477              	.LASF6:
 3478 0000 6C6F6E67 		.ascii	"long long int\000"
 3478      206C6F6E 
 3478      6720696E 
 3478      7400
 3479              	.LASF39:
 3480 000e 706C6179 		.ascii	"player1\000"
 3480      65723100 
 3481              	.LASF44:
 3482 0016 706C6179 		.ascii	"player2_local\000"
 3482      6572325F 
 3482      6C6F6361 
 3482      6C00
 3483              	.LASF25:
 3484 0024 72656365 		.ascii	"receive_packet\000"
 3484      6976655F 
 3484      7061636B 
 3484      657400
 3485              	.LASF26:
 3486 0033 6D6F7665 		.ascii	"move\000"
 3486      00
 3487              	.LASF42:
 3488 0038 706C6179 		.ascii	"player2_color\000"
 3488      6572325F 
 3488      636F6C6F 
 3488      7200
 3489              	.LASF28:
 3490 0046 77696E6E 		.ascii	"winner_check\000"
 3490      65725F63 
 3490      6865636B 
 3490      00
 3491              	.LASF35:
 3492 0053 64697363 		.ascii	"disc\000"
 3492      00
 3493              	.LASF18:
 3494 0058 64657374 		.ascii	"destination\000"
 3494      696E6174 
 3494      696F6E00 
 3495              	.LASF37:
 3496 0064 72656164 		.ascii	"reading\000"
 3496      696E6700 
 3497              	.LASF32:
 3498 006c 746F6767 		.ascii	"toggle\000"
 3498      6C6500
ARM GAS  C:\Users\dmtucker\AppData\Local\Temp\ccZJkpEN.s 			page 72


 3499              	.LASF11:
 3500 0073 666C6F61 		.ascii	"float\000"
 3500      7400
 3501              	.LASF24:
 3502 0079 73656E64 		.ascii	"send_packet\000"
 3502      5F706163 
 3502      6B657400 
 3503              	.LASF19:
 3504 0085 64697361 		.ascii	"disable_ack\000"
 3504      626C655F 
 3504      61636B00 
 3505              	.LASF41:
 3506 0091 706C6179 		.ascii	"player1_color\000"
 3506      6572315F 
 3506      636F6C6F 
 3506      7200
 3507              	.LASF40:
 3508 009f 706C6179 		.ascii	"player2\000"
 3508      65723200 
 3509              	.LASF47:
 3510 00a7 2E5C6D61 		.ascii	".\\main.c\000"
 3510      696E2E63 
 3510      00
 3511              	.LASF5:
 3512 00b0 6C6F6E67 		.ascii	"long unsigned int\000"
 3512      20756E73 
 3512      69676E65 
 3512      6420696E 
 3512      7400
 3513              	.LASF3:
 3514 00c2 73686F72 		.ascii	"short unsigned int\000"
 3514      7420756E 
 3514      7369676E 
 3514      65642069 
 3514      6E7400
 3515              	.LASF30:
 3516 00d5 626C696E 		.ascii	"blink\000"
 3516      6B00
 3517              	.LASF0:
 3518 00db 7369676E 		.ascii	"signed char\000"
 3518      65642063 
 3518      68617200 
 3519              	.LASF48:
 3520 00e7 463A5C50 		.ascii	"F:\\PSoC Creator\\connect4\\connect4.cydsn\000"
 3520      536F4320 
 3520      43726561 
 3520      746F725C 
 3520      636F6E6E 
 3521              	.LASF14:
 3522 010f 64656C69 		.ascii	"delimiter\000"
 3522      6D697465 
 3522      7200
 3523              	.LASF1:
 3524 0119 756E7369 		.ascii	"unsigned char\000"
 3524      676E6564 
 3524      20636861 
 3524      7200
ARM GAS  C:\Users\dmtucker\AppData\Local\Temp\ccZJkpEN.s 			page 73


 3525              	.LASF12:
 3526 0127 646F7562 		.ascii	"double\000"
 3526      6C6500
 3527              	.LASF2:
 3528 012e 73686F72 		.ascii	"short int\000"
 3528      7420696E 
 3528      7400
 3529              	.LASF49:
 3530 0138 7061636B 		.ascii	"packet\000"
 3530      657400
 3531              	.LASF10:
 3532 013f 75696E74 		.ascii	"uint16\000"
 3532      313600
 3533              	.LASF20:
 3534 0146 706C6179 		.ascii	"player_id\000"
 3534      65725F69 
 3534      6400
 3535              	.LASF38:
 3536 0150 49544D5F 		.ascii	"ITM_RxBuffer\000"
 3536      52784275 
 3536      66666572 
 3536      00
 3537              	.LASF34:
 3538 015d 6D61696E 		.ascii	"main\000"
 3538      00
 3539              	.LASF8:
 3540 0162 756E7369 		.ascii	"unsigned int\000"
 3540      676E6564 
 3540      20696E74 
 3540      00
 3541              	.LASF16:
 3542 016f 6170695F 		.ascii	"api_id\000"
 3542      696400
 3543              	.LASF7:
 3544 0176 6C6F6E67 		.ascii	"long long unsigned int\000"
 3544      206C6F6E 
 3544      6720756E 
 3544      7369676E 
 3544      65642069 
 3545              	.LASF21:
 3546 018d 7061636B 		.ascii	"packet_type\000"
 3546      65745F74 
 3546      79706500 
 3547              	.LASF50:
 3548 0199 636F6E66 		.ascii	"configure_XBee\000"
 3548      69677572 
 3548      655F5842 
 3548      656500
 3549              	.LASF27:
 3550 01a8 636C6561 		.ascii	"clear_board\000"
 3550      725F626F 
 3550      61726400 
 3551              	.LASF33:
 3552 01b4 72656672 		.ascii	"refresh\000"
 3552      65736800 
 3553              	.LASF46:
 3554 01bc 474E5520 		.ascii	"GNU C 4.4.1\000"
ARM GAS  C:\Users\dmtucker\AppData\Local\Temp\ccZJkpEN.s 			page 74


 3554      4320342E 
 3554      342E3100 
 3555              	.LASF13:
 3556 01c8 63686172 		.ascii	"char\000"
 3556      00
 3557              	.LASF17:
 3558 01cd 6672616D 		.ascii	"frame_id\000"
 3558      655F6964 
 3558      00
 3559              	.LASF22:
 3560 01d6 63686563 		.ascii	"checksum\000"
 3560      6B73756D 
 3560      00
 3561              	.LASF36:
 3562 01df 64726F70 		.ascii	"dropped\000"
 3562      70656400 
 3563              	.LASF29:
 3564 01e7 6F666673 		.ascii	"offset\000"
 3564      657400
 3565              	.LASF43:
 3566 01ee 706C6179 		.ascii	"player1_turn\000"
 3566      6572315F 
 3566      7475726E 
 3566      00
 3567              	.LASF9:
 3568 01fb 75696E74 		.ascii	"uint8\000"
 3568      3800
 3569              	.LASF4:
 3570 0201 6C6F6E67 		.ascii	"long int\000"
 3570      20696E74 
 3570      00
 3571              	.LASF15:
 3572 020a 6C656E67 		.ascii	"length\000"
 3572      746800
 3573              	.LASF45:
 3574 0211 6C6F6361 		.ascii	"locating\000"
 3574      74696E67 
 3574      00
 3575              	.LASF31:
 3576 021a 5F426F6F 		.ascii	"_Bool\000"
 3576      6C00
 3577              	.LASF23:
 3578 0220 7061636B 		.ascii	"packet_t\000"
 3578      65745F74 
 3578      00
 3579              		.ident	"GCC: (Sourcery G++ Lite 2010q1-188) 4.4.1"
