ARM GAS  C:\DOCUME~1\david\LOCALS~1\Temp\ccpBwY6D.s 			page 1


   1              		.syntax unified
   2              		.cpu cortex-m3
   3              		.fpu softvfp
   4              		.eabi_attribute 20, 1
   5              		.eabi_attribute 21, 1
   6              		.eabi_attribute 23, 3
   7              		.eabi_attribute 24, 1
   8              		.eabi_attribute 25, 1
   9              		.eabi_attribute 26, 1
  10              		.eabi_attribute 30, 6
  11              		.eabi_attribute 18, 4
  12              		.thumb
  13              		.file	"main.c"
  20 0000 CA000000 		.text
  20      02005300 
  20      00000201 
  20      FB0E0D00 
  20      01010101 
  21              	.Ltext0:
  22              		.cfi_sections	.debug_frame
  23              		.section	.rodata
  24              		.align	2
  25              	.LC0:
  26 0000 20202020 		.ascii	"                \000"
  26      20202020 
  26      20202020 
  26      20202020 
  26      00
  27 0011 000000   		.align	2
  28              	.LC1:
  29 0014 58426565 		.ascii	"XBee Config\000"
  29      20436F6E 
  29      66696700 
  30              		.align	2
  31              	.LC2:
  32 0020 2B2B2B00 		.ascii	"+++\000"
  33              		.align	2
  34              	.LC3:
  35 0024 20202020 		.ascii	"    \000"
  35      00
  36              		.section	.text.configure_XBee,"ax",%progbits
  37              		.align	2
  38              		.global	configure_XBee
  39              		.thumb
  40              		.thumb_func
  41              		.type	configure_XBee, %function
  42              	configure_XBee:
  43              	.LFB29:
  44              		.file 1 ".\\main.c"
   1:.\main.c      **** #include <device.h>
   2:.\main.c      **** #include <stdbool.h>
ARM GAS  C:\DOCUME~1\david\LOCALS~1\Temp\ccpBwY6D.s 			page 2


   3:.\main.c      **** 
   4:.\main.c      **** #define XBEE_GUARD_TIME 1000 // ms
   5:.\main.c      **** #define XBEE_CHANNEL    0x0F
   6:.\main.c      **** 
   7:.\main.c      **** void configure_XBee () {
  45              		.loc 1 7 0
  46              		.cfi_startproc
  47              		@ args = 0, pretend = 0, frame = 8
  48              		@ frame_needed = 1, uses_anonymous_args = 0
  49 0000 80B5     		push	{r7, lr}
  50              	.LCFI0:
  51              		.cfi_def_cfa_offset 8
  52 0002 82B0     		sub	sp, sp, #8
  53              	.LCFI1:
  54              		.cfi_def_cfa_offset 16
  55 0004 00AF     		add	r7, sp, #0
  56              		.cfi_offset 14, -4
  57              		.cfi_offset 7, -8
  58              	.LCFI2:
  59              		.cfi_def_cfa_register 7
   8:.\main.c      ****     LCD_Position(0,0);
  60              		.loc 1 8 0
  61 0006 4FF00000 		mov	r0, #0
  62 000a 4FF00001 		mov	r1, #0
  63 000e FFF7FEFF 		bl	LCD_Position
   9:.\main.c      ****     LCD_PrintString("                ");
  64              		.loc 1 9 0
  65 0012 40F20000 		movw	r0, #:lower16:.LC0
  66 0016 C0F20000 		movt	r0, #:upper16:.LC0
  67 001a FFF7FEFF 		bl	LCD_PrintString
  10:.\main.c      ****     LCD_Position(0,0);
  68              		.loc 1 10 0
  69 001e 4FF00000 		mov	r0, #0
  70 0022 4FF00001 		mov	r1, #0
  71 0026 FFF7FEFF 		bl	LCD_Position
  11:.\main.c      ****     LCD_PrintString("XBee Config");
  72              		.loc 1 11 0
  73 002a 40F20000 		movw	r0, #:lower16:.LC1
  74 002e C0F20000 		movt	r0, #:upper16:.LC1
  75 0032 FFF7FEFF 		bl	LCD_PrintString
  76              	.L5:
  77              	.LBB2:
  12:.\main.c      ****     uint8 x, y, z;
  13:.\main.c      ****     do {
  14:.\main.c      ****         //do {
  15:.\main.c      ****             TestLED_Write(0xFF);
  78              		.loc 1 15 0
  79 0036 4FF0FF00 		mov	r0, #255
  80 003a FFF7FEFF 		bl	TestLED_Write
  16:.\main.c      ****             CyDelay(XBEE_GUARD_TIME);
  81              		.loc 1 16 0
  82 003e 4FF47A70 		mov	r0, #1000
  83 0042 FFF7FEFF 		bl	CyDelay
  17:.\main.c      ****             UART_PutString("+++");
  84              		.loc 1 17 0
  85 0046 40F20000 		movw	r0, #:lower16:.LC2
  86 004a C0F20000 		movt	r0, #:upper16:.LC2
ARM GAS  C:\DOCUME~1\david\LOCALS~1\Temp\ccpBwY6D.s 			page 3


  87 004e FFF7FEFF 		bl	UART_PutString
  18:.\main.c      ****             TestLED_Write(0x00);
  88              		.loc 1 18 0
  89 0052 4FF00000 		mov	r0, #0
  90 0056 FFF7FEFF 		bl	TestLED_Write
  19:.\main.c      ****             CyDelay(XBEE_GUARD_TIME);
  91              		.loc 1 19 0
  92 005a 4FF47A70 		mov	r0, #1000
  93 005e FFF7FEFF 		bl	CyDelay
  94              	.L2:
  20:.\main.c      ****         //}
  21:.\main.c      ****         while (!(UART_ReadRxStatus() & UART_RX_STS_FIFO_NOTEMPTY));
  95              		.loc 1 21 0
  96 0062 FFF7FEFF 		bl	UART_ReadRxStatus
  97 0066 0346     		mov	r3, r0
  98 0068 03F02003 		and	r3, r3, #32
  99 006c 002B     		cmp	r3, #0
 100 006e F8D0     		beq	.L2
  22:.\main.c      ****         /*
  23:.\main.c      ****         x = UART_ReadRxData();
  24:.\main.c      ****         y = UART_ReadRxData();
  25:.\main.c      ****         z = UART_ReadRxData();
  26:.\main.c      ****         LCD_Position(1,0); // DEBUG
  27:.\main.c      ****         LCD_PutChar(x); // DEBUG
  28:.\main.c      ****         LCD_PutChar('('); // DEBUG
  29:.\main.c      ****         LCD_PrintInt8(x);
  30:.\main.c      ****         LCD_PrintString(") "); // DEBUG
  31:.\main.c      ****         LCD_PutChar(y); // DEBUG
  32:.\main.c      ****         LCD_PutChar('('); // DEBUG
  33:.\main.c      ****         LCD_PrintInt8(y);
  34:.\main.c      ****         LCD_PrintString(") "); // DEBUG
  35:.\main.c      ****         LCD_PutChar(y); // DEBUG
  36:.\main.c      ****         LCD_PutChar('('); // DEBUG
  37:.\main.c      ****         LCD_PrintInt8(z);
  38:.\main.c      ****         uint8 t;
  39:.\main.c      ****         for (t=9; t > 0 ;--t) {
  40:.\main.c      ****             LCD_Position(0,15);
  41:.\main.c      ****             LCD_PrintNumber(t);
  42:.\main.c      ****             CyDelay(1000);
  43:.\main.c      ****         }
  44:.\main.c      ****         LCD_Position(0,15);
  45:.\main.c      ****         LCD_PutChar(' ');
  46:.\main.c      ****         
  47:.\main.c      ****         */
  48:.\main.c      ****         LCD_Position(1,0); // DEBUG
 101              		.loc 1 48 0
 102 0070 4FF00100 		mov	r0, #1
 103 0074 4FF00001 		mov	r1, #0
 104 0078 FFF7FEFF 		bl	LCD_Position
  49:.\main.c      ****         LCD_PrintString("                ");
 105              		.loc 1 49 0
 106 007c 40F20000 		movw	r0, #:lower16:.LC0
 107 0080 C0F20000 		movt	r0, #:upper16:.LC0
 108 0084 FFF7FEFF 		bl	LCD_PrintString
  50:.\main.c      ****         uint16 k;
  51:.\main.c      ****         for (k=UART_GetRxBufferSize(); k > 0 ;--k) {
 109              		.loc 1 51 0
ARM GAS  C:\DOCUME~1\david\LOCALS~1\Temp\ccpBwY6D.s 			page 4


 110 0088 FFF7FEFF 		bl	UART_GetRxBufferSize
 111 008c 0346     		mov	r3, r0
 112 008e FB80     		strh	r3, [r7, #6]	@ movhi
 113 0090 35E0     		b	.L3
 114              	.L4:
  52:.\main.c      ****             LCD_Position(1,0); // DEBUG
 115              		.loc 1 52 0
 116 0092 4FF00100 		mov	r0, #1
 117 0096 4FF00001 		mov	r1, #0
 118 009a FFF7FEFF 		bl	LCD_Position
  53:.\main.c      ****             LCD_PutChar(k); // DEBUG
 119              		.loc 1 53 0
 120 009e FB88     		ldrh	r3, [r7, #6]	@ movhi
 121 00a0 DBB2     		uxtb	r3, r3
 122 00a2 1846     		mov	r0, r3
 123 00a4 FFF7FEFF 		bl	LCD_PutChar
  54:.\main.c      ****             LCD_PutChar('('); // DEBUG
 124              		.loc 1 54 0
 125 00a8 4FF02800 		mov	r0, #40
 126 00ac FFF7FEFF 		bl	LCD_PutChar
  55:.\main.c      ****             LCD_PrintInt8(k);
 127              		.loc 1 55 0
 128 00b0 FB88     		ldrh	r3, [r7, #6]	@ movhi
 129 00b2 DBB2     		uxtb	r3, r3
 130 00b4 1846     		mov	r0, r3
 131 00b6 FFF7FEFF 		bl	LCD_PrintInt8
  56:.\main.c      ****             LCD_PutChar(')'); // DEBUG
 132              		.loc 1 56 0
 133 00ba 4FF02900 		mov	r0, #41
 134 00be FFF7FEFF 		bl	LCD_PutChar
  57:.\main.c      ****             
  58:.\main.c      ****             LCD_Position(0,12);
 135              		.loc 1 58 0
 136 00c2 4FF00000 		mov	r0, #0
 137 00c6 4FF00C01 		mov	r1, #12
 138 00ca FFF7FEFF 		bl	LCD_Position
  59:.\main.c      ****             LCD_PrintString("    "); // DEBUG
 139              		.loc 1 59 0
 140 00ce 40F20000 		movw	r0, #:lower16:.LC3
 141 00d2 C0F20000 		movt	r0, #:upper16:.LC3
 142 00d6 FFF7FEFF 		bl	LCD_PrintString
  60:.\main.c      ****             LCD_Position(0,12);
 143              		.loc 1 60 0
 144 00da 4FF00000 		mov	r0, #0
 145 00de 4FF00C01 		mov	r1, #12
 146 00e2 FFF7FEFF 		bl	LCD_Position
  61:.\main.c      ****             LCD_PrintNumber(k);
 147              		.loc 1 61 0
 148 00e6 FB88     		ldrh	r3, [r7, #6]
 149 00e8 1846     		mov	r0, r3
 150 00ea FFF7FEFF 		bl	LCD_PrintNumber
  62:.\main.c      ****             CyDelay(2000);
 151              		.loc 1 62 0
 152 00ee 4FF4FA60 		mov	r0, #2000
 153 00f2 FFF7FEFF 		bl	CyDelay
 154              		.loc 1 51 0
 155 00f6 FB88     		ldrh	r3, [r7, #6]	@ movhi
ARM GAS  C:\DOCUME~1\david\LOCALS~1\Temp\ccpBwY6D.s 			page 5


 156 00f8 03F1FF33 		add	r3, r3, #-1
 157 00fc FB80     		strh	r3, [r7, #6]	@ movhi
 158              	.L3:
 159 00fe FB88     		ldrh	r3, [r7, #6]
 160 0100 002B     		cmp	r3, #0
 161 0102 C6D1     		bne	.L4
  63:.\main.c      ****         }
  64:.\main.c      ****         LCD_Position(0,12);
 162              		.loc 1 64 0
 163 0104 4FF00000 		mov	r0, #0
 164 0108 4FF00C01 		mov	r1, #12
 165 010c FFF7FEFF 		bl	LCD_Position
  65:.\main.c      ****         LCD_PrintString("    "); // DEBUG
 166              		.loc 1 65 0
 167 0110 40F20000 		movw	r0, #:lower16:.LC3
 168 0114 C0F20000 		movt	r0, #:upper16:.LC3
 169 0118 FFF7FEFF 		bl	LCD_PrintString
  66:.\main.c      ****         LCD_Position(1,0); // DEBUG
 170              		.loc 1 66 0
 171 011c 4FF00100 		mov	r0, #1
 172 0120 4FF00001 		mov	r1, #0
 173 0124 FFF7FEFF 		bl	LCD_Position
  67:.\main.c      ****         LCD_PrintString("                ");
 174              		.loc 1 67 0
 175 0128 40F20000 		movw	r0, #:lower16:.LC0
 176 012c C0F20000 		movt	r0, #:upper16:.LC0
 177 0130 FFF7FEFF 		bl	LCD_PrintString
 178              	.LBE2:
  68:.\main.c      ****         
  69:.\main.c      ****     }
  70:.\main.c      ****     while (true);
 179              		.loc 1 70 0
 180 0134 7FE7     		b	.L5
 181              		.cfi_endproc
 182              	.LFE29:
 183              		.size	configure_XBee, .-configure_XBee
 184 0136 00BF     		.section	.rodata
 185 0029 000000   		.align	2
 186              	.LC4:
 187 002c 2B2B2B20 		.ascii	"+++ Sent\000"
 187      53656E74 
 187      00
 188 0035 000000   		.align	2
 189              	.LC5:
 190 0038 46555555 		.ascii	"FUUUCK\000"
 190      434B00
 191              		.section	.text.jordan,"ax",%progbits
 192              		.align	2
 193              		.global	jordan
 194              		.thumb
 195              		.thumb_func
 196              		.type	jordan, %function
 197              	jordan:
 198              	.LFB30:
  71:.\main.c      ****     //while (x != 'O' && y != 'K' && z != '\r');
  72:.\main.c      ****     LCD_Position(1,8); // DEBUG
  73:.\main.c      ****     LCD_PrintString("ATAP1"); // DEBUG
ARM GAS  C:\DOCUME~1\david\LOCALS~1\Temp\ccpBwY6D.s 			page 6


  74:.\main.c      ****     UART_PutString("ATAP1\r");
  75:.\main.c      ****     while (UART_ReadRxData() != 'O' && UART_ReadRxData() != 'K' && UART_ReadRxData() != '\r');
  76:.\main.c      ****     LCD_Position(1,8); // DEBUG
  77:.\main.c      ****     LCD_PrintString("ATCH 0x0F"); // DEBUG
  78:.\main.c      ****     UART_PutString("ATCH");
  79:.\main.c      ****     UART_WriteTxData(XBEE_CHANNEL);
  80:.\main.c      ****     UART_PutChar('\r');
  81:.\main.c      ****     while (UART_ReadRxData() != 'O' && UART_ReadRxData() != 'K' && UART_ReadRxData() != '\r');
  82:.\main.c      ****     //UART_PutString("ATWR\r");
  83:.\main.c      ****     //while (UART_ReadRxData() != 'O' && UART_ReadRxData() != 'K' && UART_ReadRxData() != '\r');
  84:.\main.c      ****     LCD_Position(1,8); // DEBUG
  85:.\main.c      ****     LCD_PrintString("ATCN"); // DEBUG
  86:.\main.c      ****     UART_PutString("ATCN\r");
  87:.\main.c      ****     //while (UART_ReadRxData() != 'O' && UART_ReadRxData() != 'K' && UART_ReadRxData() != '\r');
  88:.\main.c      ****     RemoteLED_Write(0x01);
  89:.\main.c      **** }
  90:.\main.c      **** 
  91:.\main.c      **** void jordan () {
 199              		.loc 1 91 0
 200              		.cfi_startproc
 201              		@ args = 0, pretend = 0, frame = 8
 202              		@ frame_needed = 1, uses_anonymous_args = 0
 203 0000 80B5     		push	{r7, lr}
 204              	.LCFI3:
 205              		.cfi_def_cfa_offset 8
 206 0002 82B0     		sub	sp, sp, #8
 207              	.LCFI4:
 208              		.cfi_def_cfa_offset 16
 209 0004 00AF     		add	r7, sp, #0
 210              		.cfi_offset 14, -4
 211              		.cfi_offset 7, -8
 212              	.LCFI5:
 213              		.cfi_def_cfa_register 7
  92:.\main.c      ****     UART_Start();
 214              		.loc 1 92 0
 215 0006 FFF7FEFF 		bl	UART_Start
  93:.\main.c      ****     UART_PutString("+++");
 216              		.loc 1 93 0
 217 000a 40F20000 		movw	r0, #:lower16:.LC2
 218 000e C0F20000 		movt	r0, #:upper16:.LC2
 219 0012 FFF7FEFF 		bl	UART_PutString
  94:.\main.c      ****     CyDelay(3000);
 220              		.loc 1 94 0
 221 0016 40F6B830 		movw	r0, #3000
 222 001a FFF7FEFF 		bl	CyDelay
  95:.\main.c      ****     LCD_ClearDisplay();
 223              		.loc 1 95 0
 224 001e 4FF00100 		mov	r0, #1
 225 0022 FFF7FEFF 		bl	LCD_WriteControl
  96:.\main.c      ****     LCD_Position(0,0);
 226              		.loc 1 96 0
 227 0026 4FF00000 		mov	r0, #0
 228 002a 4FF00001 		mov	r1, #0
 229 002e FFF7FEFF 		bl	LCD_Position
  97:.\main.c      ****     LCD_PrintString("+++ Sent");
 230              		.loc 1 97 0
 231 0032 40F20000 		movw	r0, #:lower16:.LC4
ARM GAS  C:\DOCUME~1\david\LOCALS~1\Temp\ccpBwY6D.s 			page 7


 232 0036 C0F20000 		movt	r0, #:upper16:.LC4
 233 003a FFF7FEFF 		bl	LCD_PrintString
 234              	.L10:
  98:.\main.c      ****     for (;;) {
  99:.\main.c      ****         if (UART_GetRxBufferSize() > 0) {
 235              		.loc 1 99 0
 236 003e FFF7FEFF 		bl	UART_GetRxBufferSize
 237 0042 0346     		mov	r3, r0
 238 0044 002B     		cmp	r3, #0
 239 0046 1ED0     		beq	.L8
 240              	.LBB3:
 100:.\main.c      ****             uint8 test = UART_ReadRxData();
 241              		.loc 1 100 0
 242 0048 FFF7FEFF 		bl	UART_ReadRxData
 243 004c 0346     		mov	r3, r0
 244 004e FB71     		strb	r3, [r7, #7]
 101:.\main.c      ****             LCD_Position(1,0);
 245              		.loc 1 101 0
 246 0050 4FF00100 		mov	r0, #1
 247 0054 4FF00001 		mov	r1, #0
 248 0058 FFF7FEFF 		bl	LCD_Position
 102:.\main.c      ****             LCD_PrintString("                ");
 249              		.loc 1 102 0
 250 005c 40F20000 		movw	r0, #:lower16:.LC0
 251 0060 C0F20000 		movt	r0, #:upper16:.LC0
 252 0064 FFF7FEFF 		bl	LCD_PrintString
 103:.\main.c      ****             LCD_Position(1,0);
 253              		.loc 1 103 0
 254 0068 4FF00100 		mov	r0, #1
 255 006c 4FF00001 		mov	r1, #0
 256 0070 FFF7FEFF 		bl	LCD_Position
 104:.\main.c      ****             LCD_PrintNumber(test);
 257              		.loc 1 104 0
 258 0074 FB79     		ldrb	r3, [r7, #7]	@ zero_extendqisi2
 259 0076 1846     		mov	r0, r3
 260 0078 FFF7FEFF 		bl	LCD_PrintNumber
 105:.\main.c      ****             CyDelay(4000);
 261              		.loc 1 105 0
 262 007c 4FF47A60 		mov	r0, #4000
 263 0080 FFF7FEFF 		bl	CyDelay
 264              	.LBE3:
 106:.\main.c      ****         }
 107:.\main.c      ****         else {
 108:.\main.c      ****             LCD_Position(1,0);
 109:.\main.c      ****             LCD_PrintString("                ");
 110:.\main.c      ****             LCD_Position(1,0);
 111:.\main.c      ****             LCD_PrintString("FUUUCK");
 112:.\main.c      ****         }
 113:.\main.c      ****             
 114:.\main.c      ****     }
 265              		.loc 1 114 0
 266 0084 DBE7     		b	.L10
 267              	.L8:
 268              		.loc 1 108 0
 269 0086 4FF00100 		mov	r0, #1
 270 008a 4FF00001 		mov	r1, #0
 271 008e FFF7FEFF 		bl	LCD_Position
ARM GAS  C:\DOCUME~1\david\LOCALS~1\Temp\ccpBwY6D.s 			page 8


 272              		.loc 1 109 0
 273 0092 40F20000 		movw	r0, #:lower16:.LC0
 274 0096 C0F20000 		movt	r0, #:upper16:.LC0
 275 009a FFF7FEFF 		bl	LCD_PrintString
 276              		.loc 1 110 0
 277 009e 4FF00100 		mov	r0, #1
 278 00a2 4FF00001 		mov	r1, #0
 279 00a6 FFF7FEFF 		bl	LCD_Position
 280              		.loc 1 111 0
 281 00aa 40F20000 		movw	r0, #:lower16:.LC5
 282 00ae C0F20000 		movt	r0, #:upper16:.LC5
 283 00b2 FFF7FEFF 		bl	LCD_PrintString
 284              		.loc 1 114 0
 285 00b6 C2E7     		b	.L10
 286              		.cfi_endproc
 287              	.LFE30:
 288              		.size	jordan, .-jordan
 289              		.section	.rodata
 290 003f 00       		.align	2
 291              	.LC6:
 292 0040 696E6974 		.ascii	"initializing...\000"
 292      69616C69 
 292      7A696E67 
 292      2E2E2E00 
 293              		.section	.text.main,"ax",%progbits
 294              		.align	2
 295              		.global	main
 296              		.thumb
 297              		.thumb_func
 298              		.type	main, %function
 299              	main:
 300              	.LFB31:
 115:.\main.c      **** }
 116:.\main.c      **** 
 117:.\main.c      **** void main () {
 301              		.loc 1 117 0
 302              		.cfi_startproc
 303              		@ args = 0, pretend = 0, frame = 0
 304              		@ frame_needed = 1, uses_anonymous_args = 0
 305 0000 80B5     		push	{r7, lr}
 306              	.LCFI6:
 307              		.cfi_def_cfa_offset 8
 308 0002 00AF     		add	r7, sp, #0
 309              		.cfi_offset 14, -4
 310              		.cfi_offset 7, -8
 311              	.LCFI7:
 312              		.cfi_def_cfa_register 7
 118:.\main.c      ****     LCD_Start();
 313              		.loc 1 118 0
 314 0004 FFF7FEFF 		bl	LCD_Start
 119:.\main.c      ****     jordan();
 315              		.loc 1 119 0
 316 0008 FFF7FEFF 		bl	jordan
 120:.\main.c      ****     LCD_Position(0,0);
 317              		.loc 1 120 0
 318 000c 4FF00000 		mov	r0, #0
 319 0010 4FF00001 		mov	r1, #0
ARM GAS  C:\DOCUME~1\david\LOCALS~1\Temp\ccpBwY6D.s 			page 9


 320 0014 FFF7FEFF 		bl	LCD_Position
 121:.\main.c      ****     LCD_PrintString("initializing...");
 321              		.loc 1 121 0
 322 0018 40F20000 		movw	r0, #:lower16:.LC6
 323 001c C0F20000 		movt	r0, #:upper16:.LC6
 324 0020 FFF7FEFF 		bl	LCD_PrintString
 122:.\main.c      ****     CyGlobalIntEnable;
 325              		.loc 1 122 0
 326              	@ 122 ".\main.c" 1
 327 0024 62B6     		CPSIE   i
 328              	@ 0 "" 2
 123:.\main.c      ****     UART_Start();
 329              		.loc 1 123 0
 330              		.thumb
 331 0026 FFF7FEFF 		bl	UART_Start
 124:.\main.c      ****     UART_ClearTxBuffer();
 332              		.loc 1 124 0
 333 002a FFF7FEFF 		bl	UART_ClearTxBuffer
 125:.\main.c      ****     UART_ClearRxBuffer();
 334              		.loc 1 125 0
 335 002e FFF7FEFF 		bl	UART_ClearRxBuffer
 126:.\main.c      ****     configure_XBee();
 336              		.loc 1 126 0
 337 0032 FFF7FEFF 		bl	configure_XBee
 338              	.L13:
 127:.\main.c      ****     while (true);
 339              		.loc 1 127 0
 340 0036 FEE7     		b	.L13
 341              		.cfi_endproc
 342              	.LFE31:
 343              		.size	main, .-main
 344              		.text
 345              	.Letext0: