ARM GAS  C:\DOCUME~1\david\LOCALS~1\Temp\cctwZNAq.s 			page 1


   1              		.syntax unified
   2              		.cpu cortex-m3
   3              		.fpu softvfp
   4              		.eabi_attribute 20, 1
   5              		.eabi_attribute 21, 1
   6              		.eabi_attribute 23, 3
   7              		.eabi_attribute 24, 1
   8              		.eabi_attribute 25, 1
   9              		.eabi_attribute 26, 1
  10              		.eabi_attribute 30, 6
  11              		.eabi_attribute 18, 4
  12              		.thumb
  13              		.file	"main.c"
  20 0000 A0020000 		.text
  20      02005300 
  20      00000201 
  20      FB0E0D00 
  20      01010101 
  21              	.Ltext0:
  22              		.cfi_sections	.debug_frame
  23              		.global	player1_turn
  24              		.data
  25              		.type	player1_turn, %object
  26              		.size	player1_turn, 1
  27              	player1_turn:
  28 0000 01       		.byte	1
  29              		.global	player2_local
  30              		.type	player2_local, %object
  31              		.size	player2_local, 1
  32              	player2_local:
  33 0001 01       		.byte	1
  34              		.comm	player1,64,4
  35              		.comm	player2,64,4
  36              		.global	player1_color
  37              		.type	player1_color, %object
  38              		.size	player1_color, 1
  39              	player1_color:
  40 0002 01       		.byte	1
  41              		.global	player2_color
  42              		.type	player2_color, %object
  43              		.size	player2_color, 1
  44              	player2_color:
  45 0003 04       		.byte	4
  46              		.global	locating
  47              		.bss
  48              		.type	locating, %object
  49              		.size	locating, 1
  50              	locating:
  51 0000 00       		.space	1
  52              		.section	.text.toggle,"ax",%progbits
  53              		.align	2
ARM GAS  C:\DOCUME~1\david\LOCALS~1\Temp\cctwZNAq.s 			page 2


  54              		.global	toggle
  55              		.thumb
  56              		.thumb_func
  57              		.type	toggle, %function
  58              	toggle:
  59              	.LFB29:
  60              		.file 1 ".\\main.c"
   1:.\main.c      **** #include <device.h>
   2:.\main.c      **** #include <stdbool.h>
   3:.\main.c      **** #include <display.h>
   4:.\main.c      **** #include <matrix.h>
   5:.\main.c      **** 
   6:.\main.c      **** #define BUS_CLK_FREQ    24000000 // Hz
   7:.\main.c      **** #define REFRESH_RATE    3000     // [370,BUS_CLK_FREQ] Hz
   8:.\main.c      **** #define XBEE_CONFIGURED false
   9:.\main.c      **** #define XBEE_VERIFY     true
  10:.\main.c      **** #define XBEE_GUARD_TIME 1000     // ms
  11:.\main.c      **** #define XBEE_CHANNEL    0x0F     // [0x0B,0x1A]
  12:.\main.c      **** #define XBEE_REMEMBER   false
  13:.\main.c      **** #define PLAYER1_ID      0xDA     // [0x00,0xFF]
  14:.\main.c      **** #define PLAYER2_ID      0x07
  15:.\main.c      **** #define PACKET_TYPE     0x00     // version
  16:.\main.c      **** 
  17:.\main.c      **** bool  player1_turn  = true;
  18:.\main.c      **** bool  player2_local = true;
  19:.\main.c      **** bool  player1[MATRIX_ROWS][MATRIX_COLS];
  20:.\main.c      **** bool  player2[MATRIX_ROWS][MATRIX_COLS];
  21:.\main.c      **** uint8 player1_color = RED;
  22:.\main.c      **** uint8 player2_color = BLUE;
  23:.\main.c      **** 
  24:.\main.c      **** /* remote play */
  25:.\main.c      **** /*
  26:.\main.c      **** typedef struct packet {
  27:.\main.c      ****     char   delimiter;
  28:.\main.c      ****     uint16 length;
  29:.\main.c      ****     uint8  api_id;
  30:.\main.c      ****     uint8  frame_id;
  31:.\main.c      ****     uint16 destination;
  32:.\main.c      ****     uint8  disable_ack;
  33:.\main.c      ****     uint8  player_id;
  34:.\main.c      ****     uint8  packet_type;
  35:.\main.c      ****     uint8  row;
  36:.\main.c      ****     uint8  col;
  37:.\main.c      ****     uint8  checksum;
  38:.\main.c      **** } packet_t;
  39:.\main.c      **** */
  40:.\main.c      **** 
  41:.\main.c      **** typedef struct play {
  42:.\main.c      ****     uint8  row;
  43:.\main.c      ****     uint8  col;
  44:.\main.c      **** } play_t;
  45:.\main.c      **** 
  46:.\main.c      **** 
  47:.\main.c      **** 
  48:.\main.c      **** bool locating = false;
  49:.\main.c      **** CY_ISR (toggle) { if (locating) player2_local = !player2_local; }
  61              		.loc 1 49 0
ARM GAS  C:\DOCUME~1\david\LOCALS~1\Temp\cctwZNAq.s 			page 3


  62              		.cfi_startproc
  63              		@ args = 0, pretend = 0, frame = 0
  64              		@ frame_needed = 1, uses_anonymous_args = 0
  65              		@ link register save eliminated.
  66 0000 80B4     		push	{r7}
  67              	.LCFI0:
  68              		.cfi_def_cfa_offset 4
  69 0002 00AF     		add	r7, sp, #0
  70              		.cfi_offset 7, -4
  71              	.LCFI1:
  72              		.cfi_def_cfa_register 7
  73              		.loc 1 49 0
  74 0004 40F20003 		movw	r3, #:lower16:locating
  75 0008 C0F20003 		movt	r3, #:upper16:locating
  76 000c 1B78     		ldrb	r3, [r3, #0]	@ zero_extendqisi2
  77 000e 002B     		cmp	r3, #0
  78 0010 0DD0     		beq	.L3
  79 0012 40F20003 		movw	r3, #:lower16:player2_local
  80 0016 C0F20003 		movt	r3, #:upper16:player2_local
  81 001a 1B78     		ldrb	r3, [r3, #0]	@ zero_extendqisi2
  82 001c 83F00103 		eor	r3, r3, #1
  83 0020 DBB2     		uxtb	r3, r3
  84 0022 DAB2     		uxtb	r2, r3
  85 0024 40F20003 		movw	r3, #:lower16:player2_local
  86 0028 C0F20003 		movt	r3, #:upper16:player2_local
  87 002c 1A70     		strb	r2, [r3, #0]
  88              	.L3:
  89 002e BD46     		mov	sp, r7
  90 0030 80BC     		pop	{r7}
  91 0032 7047     		bx	lr
  92              		.cfi_endproc
  93              	.LFE29:
  94              		.size	toggle, .-toggle
  95              		.section	.rodata
  96              		.align	2
  97              	.LC0:
  98 0000 436F6E66 		.ascii	"Config\000"
  98      696700
  99 0007 00       		.align	2
 100              	.LC1:
 101 0008 2B2B2B00 		.ascii	"+++\000"
 102              		.align	2
 103              	.LC2:
 104 000c 41504920 		.ascii	"API Mode\000"
 104      4D6F6465 
 104      00
 105 0015 000000   		.align	2
 106              	.LC3:
 107 0018 41544150 		.ascii	"ATAP1\015\000"
 107      310D00
 108 001f 00       		.align	2
 109              	.LC4:
 110 0020 4368616E 		.ascii	"Channel \000"
 110      6E656C20 
 110      00
 111 0029 000000   		.align	2
 112              	.LC5:
ARM GAS  C:\DOCUME~1\david\LOCALS~1\Temp\cctwZNAq.s 			page 4


 113 002c 41544348 		.ascii	"ATCH\000"
 113      00
 114 0031 000000   		.align	2
 115              	.LC6:
 116 0034 52656164 		.ascii	"Ready   \000"
 116      79202020 
 116      00
 117 003d 000000   		.align	2
 118              	.LC7:
 119 0040 4154434E 		.ascii	"ATCN\015\000"
 119      0D00
 120              		.section	.text.configure_XBee,"ax",%progbits
 121              		.align	2
 122              		.global	configure_XBee
 123              		.thumb
 124              		.thumb_func
 125              		.type	configure_XBee, %function
 126              	configure_XBee:
 127              	.LFB30:
  50:.\main.c      **** 
  51:.\main.c      **** 
  52:.\main.c      **** 
  53:.\main.c      **** 
  54:.\main.c      **** void configure_XBee () {
 128              		.loc 1 54 0
 129              		.cfi_startproc
 130              		@ args = 0, pretend = 0, frame = 0
 131              		@ frame_needed = 1, uses_anonymous_args = 0
 132 0000 80B5     		push	{r7, lr}
 133              	.LCFI2:
 134              		.cfi_def_cfa_offset 8
 135 0002 00AF     		add	r7, sp, #0
 136              		.cfi_offset 14, -4
 137              		.cfi_offset 7, -8
 138              	.LCFI3:
 139              		.cfi_def_cfa_register 7
  55:.\main.c      ****     LCD_Position(1,5);
 140              		.loc 1 55 0
 141 0004 4FF00100 		mov	r0, #1
 142 0008 4FF00501 		mov	r1, #5
 143 000c FFF7FEFF 		bl	LCD_Position
  56:.\main.c      ****     LCD_PrintString("Config");
 144              		.loc 1 56 0
 145 0010 40F20000 		movw	r0, #:lower16:.LC0
 146 0014 C0F20000 		movt	r0, #:upper16:.LC0
 147 0018 FFF7FEFF 		bl	LCD_PrintString
  57:.\main.c      ****     CyDelay(XBEE_GUARD_TIME);
 148              		.loc 1 57 0
 149 001c 4FF47A70 		mov	r0, #1000
 150 0020 FFF7FEFF 		bl	CyDelay
  58:.\main.c      ****     UART_PutString("+++");
 151              		.loc 1 58 0
 152 0024 40F20000 		movw	r0, #:lower16:.LC1
 153 0028 C0F20000 		movt	r0, #:upper16:.LC1
 154 002c FFF7FEFF 		bl	UART_PutString
  59:.\main.c      ****     CyDelay(XBEE_GUARD_TIME*3);
 155              		.loc 1 59 0
ARM GAS  C:\DOCUME~1\david\LOCALS~1\Temp\cctwZNAq.s 			page 5


 156 0030 40F6B830 		movw	r0, #3000
 157 0034 FFF7FEFF 		bl	CyDelay
 158              	.L5:
  60:.\main.c      ****     if (XBEE_VERIFY) {
  61:.\main.c      ****         while (UART_GetRxBufferSize() < 3);
 159              		.loc 1 61 0
 160 0038 FFF7FEFF 		bl	UART_GetRxBufferSize
 161 003c 0346     		mov	r3, r0
 162 003e 022B     		cmp	r3, #2
 163 0040 FAD9     		bls	.L5
  62:.\main.c      ****         if (UART_ReadRxData() != 'O' || UART_ReadRxData() != 'K' || UART_ReadRxData() != '\r') Erro
 164              		.loc 1 62 0
 165 0042 FFF7FEFF 		bl	UART_ReadRxData
 166 0046 0346     		mov	r3, r0
 167 0048 4F2B     		cmp	r3, #79
 168 004a 09D1     		bne	.L6
 169 004c FFF7FEFF 		bl	UART_ReadRxData
 170 0050 0346     		mov	r3, r0
 171 0052 4B2B     		cmp	r3, #75
 172 0054 04D1     		bne	.L6
 173 0056 FFF7FEFF 		bl	UART_ReadRxData
 174 005a 0346     		mov	r3, r0
 175 005c 0D2B     		cmp	r3, #13
 176 005e 03D0     		beq	.L7
 177              	.L6:
 178 0060 4FF00100 		mov	r0, #1
 179 0064 FFF7FEFF 		bl	Error_Write
 180              	.L7:
  63:.\main.c      ****     }
  64:.\main.c      ****     
  65:.\main.c      ****     LCD_Position(1,5);
 181              		.loc 1 65 0
 182 0068 4FF00100 		mov	r0, #1
 183 006c 4FF00501 		mov	r1, #5
 184 0070 FFF7FEFF 		bl	LCD_Position
  66:.\main.c      ****     LCD_PrintString("API Mode");
 185              		.loc 1 66 0
 186 0074 40F20000 		movw	r0, #:lower16:.LC2
 187 0078 C0F20000 		movt	r0, #:upper16:.LC2
 188 007c FFF7FEFF 		bl	LCD_PrintString
  67:.\main.c      ****     UART_PutString("ATAP1\r");
 189              		.loc 1 67 0
 190 0080 40F20000 		movw	r0, #:lower16:.LC3
 191 0084 C0F20000 		movt	r0, #:upper16:.LC3
 192 0088 FFF7FEFF 		bl	UART_PutString
 193              	.L8:
  68:.\main.c      ****     if (XBEE_VERIFY) {
  69:.\main.c      ****         while (UART_GetRxBufferSize() < 3);
 194              		.loc 1 69 0
 195 008c FFF7FEFF 		bl	UART_GetRxBufferSize
 196 0090 0346     		mov	r3, r0
 197 0092 022B     		cmp	r3, #2
 198 0094 FAD9     		bls	.L8
  70:.\main.c      ****         if (UART_ReadRxData() != 'O' || UART_ReadRxData() != 'K' || UART_ReadRxData() != '\r') Erro
 199              		.loc 1 70 0
 200 0096 FFF7FEFF 		bl	UART_ReadRxData
 201 009a 0346     		mov	r3, r0
ARM GAS  C:\DOCUME~1\david\LOCALS~1\Temp\cctwZNAq.s 			page 6


 202 009c 4F2B     		cmp	r3, #79
 203 009e 09D1     		bne	.L9
 204 00a0 FFF7FEFF 		bl	UART_ReadRxData
 205 00a4 0346     		mov	r3, r0
 206 00a6 4B2B     		cmp	r3, #75
 207 00a8 04D1     		bne	.L9
 208 00aa FFF7FEFF 		bl	UART_ReadRxData
 209 00ae 0346     		mov	r3, r0
 210 00b0 0D2B     		cmp	r3, #13
 211 00b2 03D0     		beq	.L10
 212              	.L9:
 213 00b4 4FF00100 		mov	r0, #1
 214 00b8 FFF7FEFF 		bl	Error_Write
 215              	.L10:
  71:.\main.c      ****     }
  72:.\main.c      ****     
  73:.\main.c      ****     LCD_Position(1,5);
 216              		.loc 1 73 0
 217 00bc 4FF00100 		mov	r0, #1
 218 00c0 4FF00501 		mov	r1, #5
 219 00c4 FFF7FEFF 		bl	LCD_Position
  74:.\main.c      ****     LCD_PrintString("Channel ");
 220              		.loc 1 74 0
 221 00c8 40F20000 		movw	r0, #:lower16:.LC4
 222 00cc C0F20000 		movt	r0, #:upper16:.LC4
 223 00d0 FFF7FEFF 		bl	LCD_PrintString
  75:.\main.c      ****     UART_PutString("ATCH");
 224              		.loc 1 75 0
 225 00d4 40F20000 		movw	r0, #:lower16:.LC5
 226 00d8 C0F20000 		movt	r0, #:upper16:.LC5
 227 00dc FFF7FEFF 		bl	UART_PutString
  76:.\main.c      ****     UART_WriteTxData(XBEE_CHANNEL);
 228              		.loc 1 76 0
 229 00e0 4FF00F00 		mov	r0, #15
 230 00e4 FFF7FEFF 		bl	UART_WriteTxData
  77:.\main.c      ****     UART_PutChar('\r');
 231              		.loc 1 77 0
 232 00e8 4FF00D00 		mov	r0, #13
 233 00ec FFF7FEFF 		bl	UART_PutChar
 234              	.L11:
  78:.\main.c      ****     if (XBEE_VERIFY) {
  79:.\main.c      ****         while (UART_GetRxBufferSize() < 3);
 235              		.loc 1 79 0
 236 00f0 FFF7FEFF 		bl	UART_GetRxBufferSize
 237 00f4 0346     		mov	r3, r0
 238 00f6 022B     		cmp	r3, #2
 239 00f8 FAD9     		bls	.L11
  80:.\main.c      ****         //if (UART_ReadRxData() != 'O' || UART_ReadRxData() != 'K' || UART_ReadRxData() != '\r') Er
  81:.\main.c      ****     }
  82:.\main.c      ****     
  83:.\main.c      ****     if (XBEE_REMEMBER) {
  84:.\main.c      ****         LCD_Position(1,5);
  85:.\main.c      ****         LCD_PrintString("Write   ");
  86:.\main.c      ****         UART_PutString("ATWR\r");
  87:.\main.c      ****         if (XBEE_VERIFY) {
  88:.\main.c      ****             while (UART_GetRxBufferSize() < 3);
  89:.\main.c      ****             if (UART_ReadRxData() != 'O' || UART_ReadRxData() != 'K' || UART_ReadRxData() != '\r') 
ARM GAS  C:\DOCUME~1\david\LOCALS~1\Temp\cctwZNAq.s 			page 7


  90:.\main.c      ****         }
  91:.\main.c      ****     }
  92:.\main.c      ****     
  93:.\main.c      ****     LCD_Position(1,5);
 240              		.loc 1 93 0
 241 00fa 4FF00100 		mov	r0, #1
 242 00fe 4FF00501 		mov	r1, #5
 243 0102 FFF7FEFF 		bl	LCD_Position
  94:.\main.c      ****     LCD_PrintString("Ready   ");
 244              		.loc 1 94 0
 245 0106 40F20000 		movw	r0, #:lower16:.LC6
 246 010a C0F20000 		movt	r0, #:upper16:.LC6
 247 010e FFF7FEFF 		bl	LCD_PrintString
  95:.\main.c      ****     UART_PutString("ATCN\r");
 248              		.loc 1 95 0
 249 0112 40F20000 		movw	r0, #:lower16:.LC7
 250 0116 C0F20000 		movt	r0, #:upper16:.LC7
 251 011a FFF7FEFF 		bl	UART_PutString
 252              	.L12:
  96:.\main.c      ****     if (XBEE_VERIFY) {
  97:.\main.c      ****         while (UART_GetRxBufferSize() < 3);
 253              		.loc 1 97 0
 254 011e FFF7FEFF 		bl	UART_GetRxBufferSize
 255 0122 0346     		mov	r3, r0
 256 0124 022B     		cmp	r3, #2
 257 0126 FAD9     		bls	.L12
  98:.\main.c      ****         if (UART_ReadRxData() != 'O' || UART_ReadRxData() != 'K' || UART_ReadRxData() != '\r') Erro
 258              		.loc 1 98 0
 259 0128 FFF7FEFF 		bl	UART_ReadRxData
 260 012c 0346     		mov	r3, r0
 261 012e 4F2B     		cmp	r3, #79
 262 0130 09D1     		bne	.L13
 263 0132 FFF7FEFF 		bl	UART_ReadRxData
 264 0136 0346     		mov	r3, r0
 265 0138 4B2B     		cmp	r3, #75
 266 013a 04D1     		bne	.L13
 267 013c FFF7FEFF 		bl	UART_ReadRxData
 268 0140 0346     		mov	r3, r0
 269 0142 0D2B     		cmp	r3, #13
 270 0144 03D0     		beq	.L14
 271              	.L13:
 272 0146 4FF00100 		mov	r0, #1
 273 014a FFF7FEFF 		bl	Error_Write
 274              	.L14:
  99:.\main.c      ****     }
 100:.\main.c      ****     
 101:.\main.c      ****     Remote_Write(0x01);
 275              		.loc 1 101 0
 276 014e 4FF00100 		mov	r0, #1
 277 0152 FFF7FEFF 		bl	Remote_Write
 102:.\main.c      **** }
 278              		.loc 1 102 0
 279 0156 80BD     		pop	{r7, pc}
 280              		.cfi_endproc
 281              	.LFE30:
 282              		.size	configure_XBee, .-configure_XBee
 283              		.section	.text.send_packet,"ax",%progbits
ARM GAS  C:\DOCUME~1\david\LOCALS~1\Temp\cctwZNAq.s 			page 8


 284              		.align	2
 285              		.global	send_packet
 286              		.thumb
 287              		.thumb_func
 288              		.type	send_packet, %function
 289              	send_packet:
 290              	.LFB31:
 103:.\main.c      **** 
 104:.\main.c      **** 
 105:.\main.c      **** 
 106:.\main.c      **** /*
 107:.\main.c      **** void show_packet (packet_t * move) {
 108:.\main.c      ****     uint16 delay = 100;
 109:.\main.c      ****     
 110:.\main.c      ****     LCD_UpdateStatus("Delimiter");
 111:.\main.c      ****     LCD_ClearLine(1);
 112:.\main.c      ****     LCD_PutChar(move->delimiter);
 113:.\main.c      ****     LCD_Position(1,2);
 114:.\main.c      ****     LCD_PrintNumber(move->delimiter);
 115:.\main.c      ****     CyDelay(delay);
 116:.\main.c      ****     
 117:.\main.c      ****     LCD_UpdateStatus("Length");
 118:.\main.c      ****     LCD_ClearLine(1);
 119:.\main.c      ****     LCD_PrintNumber(move->length);
 120:.\main.c      ****     CyDelay(delay);
 121:.\main.c      ****     
 122:.\main.c      ****     LCD_UpdateStatus("API ID");
 123:.\main.c      ****     LCD_ClearLine(1);
 124:.\main.c      ****     LCD_PrintString("0x");
 125:.\main.c      ****     LCD_PrintInt8(move->api_id);
 126:.\main.c      ****     CyDelay(delay);
 127:.\main.c      ****     
 128:.\main.c      ****     LCD_UpdateStatus("Frame ID");
 129:.\main.c      ****     LCD_ClearLine(1);
 130:.\main.c      ****     LCD_PrintString("0x");
 131:.\main.c      ****     LCD_PrintInt8(move->frame_id);
 132:.\main.c      ****     CyDelay(delay);
 133:.\main.c      ****     
 134:.\main.c      ****     LCD_UpdateStatus("Destination");
 135:.\main.c      ****     LCD_ClearLine(1);
 136:.\main.c      ****     LCD_PrintString("0x");
 137:.\main.c      ****     LCD_PrintInt16(move->destination);
 138:.\main.c      ****     CyDelay(delay);
 139:.\main.c      ****     
 140:.\main.c      ****     LCD_UpdateStatus("Disable ACK");
 141:.\main.c      ****     LCD_ClearLine(1);
 142:.\main.c      ****     LCD_PrintString("0x");
 143:.\main.c      ****     LCD_PrintInt8(move->disable_ack);
 144:.\main.c      ****     CyDelay(delay);
 145:.\main.c      ****     
 146:.\main.c      ****     LCD_UpdateStatus("Player ID");
 147:.\main.c      ****     LCD_ClearLine(1);
 148:.\main.c      ****     LCD_PrintString("0x");
 149:.\main.c      ****     LCD_PrintInt8(move->player_id);
 150:.\main.c      ****     CyDelay(delay);
 151:.\main.c      ****     
 152:.\main.c      ****     LCD_UpdateStatus("Packet Type");
ARM GAS  C:\DOCUME~1\david\LOCALS~1\Temp\cctwZNAq.s 			page 9


 153:.\main.c      ****     LCD_ClearLine(1);
 154:.\main.c      ****     LCD_PrintString("0x");
 155:.\main.c      ****     LCD_PrintInt8(move->packet_type);
 156:.\main.c      ****     CyDelay(delay);
 157:.\main.c      ****     
 158:.\main.c      ****     LCD_UpdateStatus("Row");
 159:.\main.c      ****     LCD_ClearLine(1);
 160:.\main.c      ****     LCD_PrintNumber(move->row);
 161:.\main.c      ****     CyDelay(delay);
 162:.\main.c      ****     
 163:.\main.c      ****     LCD_UpdateStatus("Column");
 164:.\main.c      ****     LCD_ClearLine(1);
 165:.\main.c      ****     LCD_PrintNumber(move->col);
 166:.\main.c      ****     CyDelay(delay);
 167:.\main.c      ****     
 168:.\main.c      ****     LCD_UpdateStatus("Checksum");
 169:.\main.c      ****     LCD_ClearLine(1);
 170:.\main.c      ****     LCD_PrintString("0x");
 171:.\main.c      ****     LCD_PrintInt8(move->checksum);
 172:.\main.c      ****     CyDelay(delay);
 173:.\main.c      **** }
 174:.\main.c      **** */
 175:.\main.c      **** 
 176:.\main.c      **** 
 177:.\main.c      **** /*
 178:.\main.c      **** void send_packet ( packet_t * move ) {
 179:.\main.c      ****     UART_ClearTxBuffer();
 180:.\main.c      ****     UART_WriteTxData(move->delimiter);
 181:.\main.c      ****     UART_WriteTxData((uint8) (move->length >> 4));
 182:.\main.c      ****     UART_WriteTxData((uint8) move->length);
 183:.\main.c      ****     UART_WriteTxData(move->api_id);
 184:.\main.c      ****     UART_WriteTxData(move->frame_id);
 185:.\main.c      ****     UART_WriteTxData((uint8) (move->destination >> 4));
 186:.\main.c      ****     UART_WriteTxData((uint8) (move->destination));
 187:.\main.c      ****     UART_WriteTxData(move->disable_ack);
 188:.\main.c      ****     UART_WriteTxData(move->player_id);
 189:.\main.c      ****     UART_WriteTxData(move->packet_type);
 190:.\main.c      ****     UART_WriteTxData(move->row);
 191:.\main.c      ****     UART_WriteTxData(move->col);
 192:.\main.c      ****     UART_WriteTxData(move->checksum);
 193:.\main.c      **** }
 194:.\main.c      **** */
 195:.\main.c      **** 
 196:.\main.c      **** 
 197:.\main.c      **** void send_packet ( play_t * move ) {
 291              		.loc 1 197 0
 292              		.cfi_startproc
 293              		@ args = 0, pretend = 0, frame = 24
 294              		@ frame_needed = 1, uses_anonymous_args = 0
 295 0000 80B5     		push	{r7, lr}
 296              	.LCFI4:
 297              		.cfi_def_cfa_offset 8
 298 0002 86B0     		sub	sp, sp, #24
 299              	.LCFI5:
 300              		.cfi_def_cfa_offset 32
 301 0004 00AF     		add	r7, sp, #0
 302              		.cfi_offset 14, -4
ARM GAS  C:\DOCUME~1\david\LOCALS~1\Temp\cctwZNAq.s 			page 10


 303              		.cfi_offset 7, -8
 304              	.LCFI6:
 305              		.cfi_def_cfa_register 7
 306 0006 7860     		str	r0, [r7, #4]
 198:.\main.c      ****     char   delimiter   = '~';
 307              		.loc 1 198 0
 308 0008 4FF07E03 		mov	r3, #126
 309 000c FB73     		strb	r3, [r7, #15]
 199:.\main.c      ****     uint16 length      = 5+4; //4 = ce121 format
 310              		.loc 1 199 0
 311 000e 4FF00903 		mov	r3, #9
 312 0012 3B82     		strh	r3, [r7, #16]	@ movhi
 200:.\main.c      ****     uint16 destination = 0xFFFF; // broadcast
 313              		.loc 1 200 0
 314 0014 4FF6FF73 		movw	r3, #65535
 315 0018 7B82     		strh	r3, [r7, #18]	@ movhi
 201:.\main.c      ****     uint8  api_id      = 0x01;
 316              		.loc 1 201 0
 317 001a 4FF00103 		mov	r3, #1
 318 001e 3B75     		strb	r3, [r7, #20]
 202:.\main.c      ****     uint8  frame_id    = 0x00;
 319              		.loc 1 202 0
 320 0020 4FF00003 		mov	r3, #0
 321 0024 7B75     		strb	r3, [r7, #21]
 203:.\main.c      ****     uint8  disable_ack = 0x01;
 322              		.loc 1 203 0
 323 0026 4FF00103 		mov	r3, #1
 324 002a BB75     		strb	r3, [r7, #22]
 204:.\main.c      ****     uint8  checksum    = 0xFF - (uint8) (api_id +
 205:.\main.c      ****                                          frame_id +
 206:.\main.c      ****                                         ((uint8) (destination >> 8)) +
 207:.\main.c      ****                                         ((uint8)  destination) +
 208:.\main.c      ****                                          disable_ack +
 209:.\main.c      ****                                          PLAYER1_ID +
 210:.\main.c      ****                                          PACKET_TYPE +
 211:.\main.c      ****                                          move->row +
 212:.\main.c      ****                                          move->col);
 325              		.loc 1 212 0
 326 002c 3A7D     		ldrb	r2, [r7, #20]
 327 002e 7B7D     		ldrb	r3, [r7, #21]
 328 0030 1344     		add	r3, r2, r3
 329 0032 DAB2     		uxtb	r2, r3
 330              		.loc 1 206 0
 331 0034 7B8A     		ldrh	r3, [r7, #18]
 332 0036 4FEA1323 		lsr	r3, r3, #8
 333 003a 9BB2     		uxth	r3, r3
 334 003c DBB2     		uxtb	r3, r3
 335              		.loc 1 212 0
 336 003e 1344     		add	r3, r2, r3
 337 0040 DAB2     		uxtb	r2, r3
 338              		.loc 1 207 0
 339 0042 7B8A     		ldrh	r3, [r7, #18]	@ movhi
 340 0044 DBB2     		uxtb	r3, r3
 341              		.loc 1 212 0
 342 0046 1344     		add	r3, r2, r3
 343 0048 DAB2     		uxtb	r2, r3
 344 004a BB7D     		ldrb	r3, [r7, #22]
ARM GAS  C:\DOCUME~1\david\LOCALS~1\Temp\cctwZNAq.s 			page 11


 345 004c 1344     		add	r3, r2, r3
 346 004e DAB2     		uxtb	r2, r3
 347 0050 7B68     		ldr	r3, [r7, #4]
 348 0052 1B78     		ldrb	r3, [r3, #0]	@ zero_extendqisi2
 349 0054 1344     		add	r3, r2, r3
 350 0056 DAB2     		uxtb	r2, r3
 351 0058 7B68     		ldr	r3, [r7, #4]
 352 005a 5B78     		ldrb	r3, [r3, #1]	@ zero_extendqisi2
 353 005c 1344     		add	r3, r2, r3
 354 005e DBB2     		uxtb	r3, r3
 355 0060 A3F12603 		sub	r3, r3, #38
 356 0064 DBB2     		uxtb	r3, r3
 357 0066 6FEA0303 		mvn	r3, r3
 358 006a FB75     		strb	r3, [r7, #23]
 213:.\main.c      ****     /* DEBUG */
 214:.\main.c      ****     LCD_ClearLine(1);
 359              		.loc 1 214 0
 360 006c 4FF00100 		mov	r0, #1
 361 0070 FFF7FEFF 		bl	LCD_ClearLine
 215:.\main.c      ****     LCD_PrintNumber(delimiter);
 362              		.loc 1 215 0
 363 0074 FB7B     		ldrb	r3, [r7, #15]	@ zero_extendqisi2
 364 0076 1846     		mov	r0, r3
 365 0078 FFF7FEFF 		bl	LCD_PrintNumber
 216:.\main.c      ****     CyDelay(2000);
 366              		.loc 1 216 0
 367 007c 4FF4FA60 		mov	r0, #2000
 368 0080 FFF7FEFF 		bl	CyDelay
 217:.\main.c      ****     LCD_ClearLine(1);
 369              		.loc 1 217 0
 370 0084 4FF00100 		mov	r0, #1
 371 0088 FFF7FEFF 		bl	LCD_ClearLine
 218:.\main.c      ****     LCD_PrintNumber(move->row);
 372              		.loc 1 218 0
 373 008c 7B68     		ldr	r3, [r7, #4]
 374 008e 1B78     		ldrb	r3, [r3, #0]	@ zero_extendqisi2
 375 0090 1846     		mov	r0, r3
 376 0092 FFF7FEFF 		bl	LCD_PrintNumber
 219:.\main.c      ****     LCD_PutChar(',');
 377              		.loc 1 219 0
 378 0096 4FF02C00 		mov	r0, #44
 379 009a FFF7FEFF 		bl	LCD_PutChar
 220:.\main.c      ****     LCD_PrintNumber(move->col);
 380              		.loc 1 220 0
 381 009e 7B68     		ldr	r3, [r7, #4]
 382 00a0 5B78     		ldrb	r3, [r3, #1]	@ zero_extendqisi2
 383 00a2 1846     		mov	r0, r3
 384 00a4 FFF7FEFF 		bl	LCD_PrintNumber
 221:.\main.c      ****     CyDelay(2000);
 385              		.loc 1 221 0
 386 00a8 4FF4FA60 		mov	r0, #2000
 387 00ac FFF7FEFF 		bl	CyDelay
 222:.\main.c      ****     LCD_ClearLine(1);
 388              		.loc 1 222 0
 389 00b0 4FF00100 		mov	r0, #1
 390 00b4 FFF7FEFF 		bl	LCD_ClearLine
 223:.\main.c      ****     LCD_PrintNumber(checksum);
ARM GAS  C:\DOCUME~1\david\LOCALS~1\Temp\cctwZNAq.s 			page 12


 391              		.loc 1 223 0
 392 00b8 FB7D     		ldrb	r3, [r7, #23]	@ zero_extendqisi2
 393 00ba 1846     		mov	r0, r3
 394 00bc FFF7FEFF 		bl	LCD_PrintNumber
 224:.\main.c      ****     CyDelay(2000);
 395              		.loc 1 224 0
 396 00c0 4FF4FA60 		mov	r0, #2000
 397 00c4 FFF7FEFF 		bl	CyDelay
 225:.\main.c      ****     /**/
 226:.\main.c      **** 
 227:.\main.c      ****     UART_ClearTxBuffer();
 398              		.loc 1 227 0
 399 00c8 FFF7FEFF 		bl	UART_ClearTxBuffer
 228:.\main.c      ****     UART_WriteTxData(delimiter);
 400              		.loc 1 228 0
 401 00cc FB7B     		ldrb	r3, [r7, #15]	@ zero_extendqisi2
 402 00ce 1846     		mov	r0, r3
 403 00d0 FFF7FEFF 		bl	UART_WriteTxData
 229:.\main.c      ****     UART_WriteTxData((uint8) (length >> 8));
 404              		.loc 1 229 0
 405 00d4 3B8A     		ldrh	r3, [r7, #16]
 406 00d6 4FEA1323 		lsr	r3, r3, #8
 407 00da 9BB2     		uxth	r3, r3
 408 00dc DBB2     		uxtb	r3, r3
 409 00de 1846     		mov	r0, r3
 410 00e0 FFF7FEFF 		bl	UART_WriteTxData
 230:.\main.c      ****     UART_WriteTxData((uint8)  length);
 411              		.loc 1 230 0
 412 00e4 3B8A     		ldrh	r3, [r7, #16]	@ movhi
 413 00e6 DBB2     		uxtb	r3, r3
 414 00e8 1846     		mov	r0, r3
 415 00ea FFF7FEFF 		bl	UART_WriteTxData
 231:.\main.c      ****     UART_WriteTxData(api_id);
 416              		.loc 1 231 0
 417 00ee 3B7D     		ldrb	r3, [r7, #20]	@ zero_extendqisi2
 418 00f0 1846     		mov	r0, r3
 419 00f2 FFF7FEFF 		bl	UART_WriteTxData
 232:.\main.c      ****     UART_WriteTxData(frame_id);
 420              		.loc 1 232 0
 421 00f6 7B7D     		ldrb	r3, [r7, #21]	@ zero_extendqisi2
 422 00f8 1846     		mov	r0, r3
 423 00fa FFF7FEFF 		bl	UART_WriteTxData
 233:.\main.c      ****     UART_WriteTxData((uint8) (destination >> 8));
 424              		.loc 1 233 0
 425 00fe 7B8A     		ldrh	r3, [r7, #18]
 426 0100 4FEA1323 		lsr	r3, r3, #8
 427 0104 9BB2     		uxth	r3, r3
 428 0106 DBB2     		uxtb	r3, r3
 429 0108 1846     		mov	r0, r3
 430 010a FFF7FEFF 		bl	UART_WriteTxData
 234:.\main.c      ****     UART_WriteTxData((uint8)  destination);
 431              		.loc 1 234 0
 432 010e 7B8A     		ldrh	r3, [r7, #18]	@ movhi
 433 0110 DBB2     		uxtb	r3, r3
 434 0112 1846     		mov	r0, r3
 435 0114 FFF7FEFF 		bl	UART_WriteTxData
 235:.\main.c      ****     UART_WriteTxData(disable_ack);
ARM GAS  C:\DOCUME~1\david\LOCALS~1\Temp\cctwZNAq.s 			page 13


 436              		.loc 1 235 0
 437 0118 BB7D     		ldrb	r3, [r7, #22]	@ zero_extendqisi2
 438 011a 1846     		mov	r0, r3
 439 011c FFF7FEFF 		bl	UART_WriteTxData
 236:.\main.c      ****     UART_WriteTxData(PLAYER1_ID);
 440              		.loc 1 236 0
 441 0120 4FF0DA00 		mov	r0, #218
 442 0124 FFF7FEFF 		bl	UART_WriteTxData
 237:.\main.c      ****     UART_WriteTxData(PACKET_TYPE);
 443              		.loc 1 237 0
 444 0128 4FF00000 		mov	r0, #0
 445 012c FFF7FEFF 		bl	UART_WriteTxData
 238:.\main.c      ****     UART_WriteTxData(move->row);
 446              		.loc 1 238 0
 447 0130 7B68     		ldr	r3, [r7, #4]
 448 0132 1B78     		ldrb	r3, [r3, #0]	@ zero_extendqisi2
 449 0134 1846     		mov	r0, r3
 450 0136 FFF7FEFF 		bl	UART_WriteTxData
 239:.\main.c      ****     UART_WriteTxData(move->col);
 451              		.loc 1 239 0
 452 013a 7B68     		ldr	r3, [r7, #4]
 453 013c 5B78     		ldrb	r3, [r3, #1]	@ zero_extendqisi2
 454 013e 1846     		mov	r0, r3
 455 0140 FFF7FEFF 		bl	UART_WriteTxData
 240:.\main.c      ****     UART_WriteTxData(checksum);
 456              		.loc 1 240 0
 457 0144 FB7D     		ldrb	r3, [r7, #23]	@ zero_extendqisi2
 458 0146 1846     		mov	r0, r3
 459 0148 FFF7FEFF 		bl	UART_WriteTxData
 241:.\main.c      **** }
 460              		.loc 1 241 0
 461 014c 07F11807 		add	r7, r7, #24
 462 0150 BD46     		mov	sp, r7
 463 0152 80BD     		pop	{r7, pc}
 464              		.cfi_endproc
 465              	.LFE31:
 466              		.size	send_packet, .-send_packet
 467              		.comm	last_move,2,4
 468              		.section	.text.send_move,"ax",%progbits
 469              		.align	2
 470              		.global	send_move
 471              		.thumb
 472              		.thumb_func
 473              		.type	send_move, %function
 474              	send_move:
 475              	.LFB32:
 242:.\main.c      **** 
 243:.\main.c      **** 
 244:.\main.c      **** /*
 245:.\main.c      **** packet_t last_move;
 246:.\main.c      **** void send_move ( uint8 r , uint8 c )  {
 247:.\main.c      ****     last_move.delimiter   = '~';
 248:.\main.c      ****     last_move.length      = 13 - (sizeof(last_move.delimiter) +
 249:.\main.c      ****                                   sizeof(last_move.length) +
 250:.\main.c      ****                                   sizeof(last_move.checksum));
 251:.\main.c      ****     last_move.api_id      = 0x01;
 252:.\main.c      ****     last_move.frame_id    = 0x00;
ARM GAS  C:\DOCUME~1\david\LOCALS~1\Temp\cctwZNAq.s 			page 14


 253:.\main.c      ****     last_move.destination = 0xFFFF;
 254:.\main.c      ****     last_move.disable_ack = 0x01;
 255:.\main.c      ****     last_move.player_id   = PLAYER1_ID;
 256:.\main.c      ****     last_move.packet_type = 0x00;
 257:.\main.c      ****     last_move.row         = r;
 258:.\main.c      ****     last_move.col         = c;
 259:.\main.c      ****     last_move.checksum    = 0xFF - (uint8) (last_move.api_id +
 260:.\main.c      ****                                             last_move.frame_id +
 261:.\main.c      ****                                            (last_move.destination >> 8) +
 262:.\main.c      ****                                            ((uint8) last_move.destination) +
 263:.\main.c      ****                                             last_move.disable_ack +
 264:.\main.c      ****                                             last_move.player_id +
 265:.\main.c      ****                                             last_move.packet_type +
 266:.\main.c      ****                                             last_move.row +
 267:.\main.c      ****                                             last_move.col);
 268:.\main.c      ****     send_packet(&last_move);
 269:.\main.c      **** }
 270:.\main.c      **** */
 271:.\main.c      **** 
 272:.\main.c      **** 
 273:.\main.c      **** 
 274:.\main.c      **** play_t last_move;
 275:.\main.c      **** void send_move ( uint8 r , uint8 c )  {
 476              		.loc 1 275 0
 477              		.cfi_startproc
 478              		@ args = 0, pretend = 0, frame = 8
 479              		@ frame_needed = 1, uses_anonymous_args = 0
 480 0000 80B5     		push	{r7, lr}
 481              	.LCFI7:
 482              		.cfi_def_cfa_offset 8
 483 0002 82B0     		sub	sp, sp, #8
 484              	.LCFI8:
 485              		.cfi_def_cfa_offset 16
 486 0004 00AF     		add	r7, sp, #0
 487              		.cfi_offset 14, -4
 488              		.cfi_offset 7, -8
 489              	.LCFI9:
 490              		.cfi_def_cfa_register 7
 491 0006 0246     		mov	r2, r0
 492 0008 0B46     		mov	r3, r1
 493 000a FA71     		strb	r2, [r7, #7]
 494 000c BB71     		strb	r3, [r7, #6]
 276:.\main.c      ****     last_move.row = r;
 495              		.loc 1 276 0
 496 000e 40F20003 		movw	r3, #:lower16:last_move
 497 0012 C0F20003 		movt	r3, #:upper16:last_move
 498 0016 FA79     		ldrb	r2, [r7, #7]
 499 0018 1A70     		strb	r2, [r3, #0]
 277:.\main.c      ****     last_move.col = c;
 500              		.loc 1 277 0
 501 001a 40F20003 		movw	r3, #:lower16:last_move
 502 001e C0F20003 		movt	r3, #:upper16:last_move
 503 0022 BA79     		ldrb	r2, [r7, #6]
 504 0024 5A70     		strb	r2, [r3, #1]
 278:.\main.c      ****     send_packet(&last_move);
 505              		.loc 1 278 0
 506 0026 40F20000 		movw	r0, #:lower16:last_move
ARM GAS  C:\DOCUME~1\david\LOCALS~1\Temp\cctwZNAq.s 			page 15


 507 002a C0F20000 		movt	r0, #:upper16:last_move
 508 002e FFF7FEFF 		bl	send_packet
 279:.\main.c      **** }
 509              		.loc 1 279 0
 510 0032 07F10807 		add	r7, r7, #8
 511 0036 BD46     		mov	sp, r7
 512 0038 80BD     		pop	{r7, pc}
 513              		.cfi_endproc
 514              	.LFE32:
 515              		.size	send_move, .-send_move
 516              		.section	.rodata
 517 0046 0000     		.align	2
 518              	.LC8:
 519 0048 77616974 		.ascii	"waiting\000"
 519      696E6700 
 520              		.align	2
 521              	.LC9:
 522 0050 72656365 		.ascii	"received\000"
 522      69766564 
 522      00
 523              		.section	.text.receive_packet,"ax",%progbits
 524              		.align	2
 525              		.global	receive_packet
 526              		.thumb
 527              		.thumb_func
 528              		.type	receive_packet, %function
 529              	receive_packet:
 530              	.LFB33:
 280:.\main.c      **** 
 281:.\main.c      **** 
 282:.\main.c      **** 
 283:.\main.c      **** 
 284:.\main.c      **** 
 285:.\main.c      **** /*
 286:.\main.c      **** void receive_packet ( packet_t * move ) {
 287:.\main.c      ****     UART_ClearRxBuffer();
 288:.\main.c      ****     while (true) {
 289:.\main.c      ****         LCD_UpdateMessage("waiting"); // DEBUG
 290:.\main.c      ****         
 291:.\main.c      ****         while (UART_GetRxBufferSize() == 0);
 292:.\main.c      ****         do move->delimiter = UART_ReadRxData();
 293:.\main.c      ****         while (move->delimiter != '~' && UART_GetRxBufferSize() > 0);
 294:.\main.c      ****         
 295:.\main.c      ****         
 296:.\main.c      ****         /* DEBUG *
 297:.\main.c      ****         LCD_UpdateMessage("received");
 298:.\main.c      ****         LCD_Position(1,12);
 299:.\main.c      ****         uint16 tst = UART_GetRxBufferSize();
 300:.\main.c      ****         LCD_PrintNumber(tst);
 301:.\main.c      ****         CyDelay(1000);
 302:.\main.c      ****         /**
 303:.\main.c      ****         
 304:.\main.c      ****         
 305:.\main.c      ****         if (move->delimiter != '~') continue;
 306:.\main.c      ****         
 307:.\main.c      ****         while (UART_GetRxBufferSize() == 0);
 308:.\main.c      ****         move->length   = UART_ReadRxData();
ARM GAS  C:\DOCUME~1\david\LOCALS~1\Temp\cctwZNAq.s 			page 16


 309:.\main.c      ****         move->length <<= 8;
 310:.\main.c      ****         while (UART_GetRxBufferSize() == 0);
 311:.\main.c      ****         move->length  |= UART_ReadRxData();
 312:.\main.c      ****         
 313:.\main.c      ****         while (UART_GetRxBufferSize() == 0);
 314:.\main.c      ****         move->api_id = UART_ReadRxData();
 315:.\main.c      ****         //if (move->api_id != 0x01) continue; //means what??? 0,1,2?
 316:.\main.c      ****         
 317:.\main.c      ****         while (UART_GetRxBufferSize() == 0);
 318:.\main.c      ****         move->frame_id = UART_ReadRxData();
 319:.\main.c      ****         //if (move->frame_id != 0x00) continue; //maybe this needs to be a sequence #?
 320:.\main.c      ****         
 321:.\main.c      ****         while (UART_GetRxBufferSize() == 0);
 322:.\main.c      ****         move->destination   = UART_ReadRxData();
 323:.\main.c      ****         move->destination <<= 8;
 324:.\main.c      ****         while (UART_GetRxBufferSize() == 0);
 325:.\main.c      ****         move->destination  |= UART_ReadRxData();
 326:.\main.c      ****         if (move->destination != 0xFFFF) continue; //compare to xbee src addr
 327:.\main.c      ****         
 328:.\main.c      ****         while (UART_GetRxBufferSize() == 0);
 329:.\main.c      ****         move->disable_ack = UART_ReadRxData();
 330:.\main.c      ****         //if (move->disable_ack != 0x01) continue; //ack?
 331:.\main.c      ****         
 332:.\main.c      ****         while (UART_GetRxBufferSize() == 0);
 333:.\main.c      ****         move->player_id = UART_ReadRxData();
 334:.\main.c      ****         if (move->player_id != PLAYER2_ID) continue;
 335:.\main.c      ****         
 336:.\main.c      ****         while (UART_GetRxBufferSize() == 0);
 337:.\main.c      ****         move->packet_type = UART_ReadRxData();
 338:.\main.c      ****         //if (move->packet_type != 0x00); //a later version is trying to play with this game
 339:.\main.c      ****         
 340:.\main.c      ****         while (UART_GetRxBufferSize() == 0);
 341:.\main.c      ****         move->row = UART_ReadRxData();
 342:.\main.c      ****         if (move->row < 1 || move->row > MATRIX_ROWS-1) continue;
 343:.\main.c      ****         
 344:.\main.c      ****         while (UART_GetRxBufferSize() == 0);
 345:.\main.c      ****         move->col = UART_ReadRxData();
 346:.\main.c      ****         if (move->col < 1 || move->row > MATRIX_COLS) continue;
 347:.\main.c      ****         
 348:.\main.c      ****         while (UART_GetRxBufferSize() == 0);
 349:.\main.c      ****         move->checksum = UART_ReadRxData();
 350:.\main.c      ****         /*
 351:.\main.c      ****         if ((move->api_id +
 352:.\main.c      ****              move->frame_id +
 353:.\main.c      ****              move->destination +
 354:.\main.c      ****              move->disable_ack +
 355:.\main.c      ****              move->player_id +
 356:.\main.c      ****              move->packet_type +
 357:.\main.c      ****              move->row +
 358:.\main.c      ****              move->col + 
 359:.\main.c      ****              move->checksum) != 0xFF) continue;
 360:.\main.c      ****         *
 361:.\main.c      ****         
 362:.\main.c      ****         break;
 363:.\main.c      ****     }
 364:.\main.c      **** }
 365:.\main.c      **** */
ARM GAS  C:\DOCUME~1\david\LOCALS~1\Temp\cctwZNAq.s 			page 17


 366:.\main.c      **** 
 367:.\main.c      **** 
 368:.\main.c      **** 
 369:.\main.c      **** 
 370:.\main.c      **** 
 371:.\main.c      **** void receive_packet ( play_t * move ) {
 531              		.loc 1 371 0
 532              		.cfi_startproc
 533              		@ args = 0, pretend = 0, frame = 16
 534              		@ frame_needed = 1, uses_anonymous_args = 0
 535 0000 80B5     		push	{r7, lr}
 536              	.LCFI10:
 537              		.cfi_def_cfa_offset 8
 538 0002 84B0     		sub	sp, sp, #16
 539              	.LCFI11:
 540              		.cfi_def_cfa_offset 24
 541 0004 00AF     		add	r7, sp, #0
 542              		.cfi_offset 14, -4
 543              		.cfi_offset 7, -8
 544              	.LCFI12:
 545              		.cfi_def_cfa_register 7
 546 0006 7860     		str	r0, [r7, #4]
 372:.\main.c      ****     UART_ClearRxBuffer();
 547              		.loc 1 372 0
 548 0008 FFF7FEFF 		bl	UART_ClearRxBuffer
 549              	.L29:
 550              	.LBB2:
 373:.\main.c      ****     while (true) {
 374:.\main.c      ****         LCD_UpdateMessage("waiting"); // DEBUG
 551              		.loc 1 374 0
 552 000c 40F20000 		movw	r0, #:lower16:.LC8
 553 0010 C0F20000 		movt	r0, #:upper16:.LC8
 554 0014 FFF7FEFF 		bl	LCD_UpdateMessage
 555              	.L21:
 375:.\main.c      ****         
 376:.\main.c      ****         while (UART_GetRxBufferSize() == 0);
 556              		.loc 1 376 0
 557 0018 FFF7FEFF 		bl	UART_GetRxBufferSize
 558 001c 0346     		mov	r3, r0
 559 001e 002B     		cmp	r3, #0
 560 0020 FAD0     		beq	.L21
 377:.\main.c      ****         uint8 id = UART_ReadRxData();
 561              		.loc 1 377 0
 562 0022 FFF7FEFF 		bl	UART_ReadRxData
 563 0026 0346     		mov	r3, r0
 564 0028 7B73     		strb	r3, [r7, #13]
 378:.\main.c      ****         //do id = UART_ReadRxData();
 379:.\main.c      ****         //while (id != PLAYER2_ID && UART_GetRxBufferSize() > 0);
 380:.\main.c      ****         
 381:.\main.c      ****         
 382:.\main.c      ****         /* DEBUG */
 383:.\main.c      ****         LCD_UpdateMessage("received");
 565              		.loc 1 383 0
 566 002a 40F20000 		movw	r0, #:lower16:.LC9
 567 002e C0F20000 		movt	r0, #:upper16:.LC9
 568 0032 FFF7FEFF 		bl	LCD_UpdateMessage
 384:.\main.c      ****         LCD_Position(1,12);
ARM GAS  C:\DOCUME~1\david\LOCALS~1\Temp\cctwZNAq.s 			page 18


 569              		.loc 1 384 0
 570 0036 4FF00100 		mov	r0, #1
 571 003a 4FF00C01 		mov	r1, #12
 572 003e FFF7FEFF 		bl	LCD_Position
 385:.\main.c      ****         uint16 tst = UART_GetRxBufferSize();
 573              		.loc 1 385 0
 574 0042 FFF7FEFF 		bl	UART_GetRxBufferSize
 575 0046 0346     		mov	r3, r0
 576 0048 FB81     		strh	r3, [r7, #14]	@ movhi
 386:.\main.c      ****         LCD_PrintNumber(tst);
 577              		.loc 1 386 0
 578 004a FB89     		ldrh	r3, [r7, #14]
 579 004c 1846     		mov	r0, r3
 580 004e FFF7FEFF 		bl	LCD_PrintNumber
 387:.\main.c      ****         CyDelay(1000);
 581              		.loc 1 387 0
 582 0052 4FF47A70 		mov	r0, #1000
 583 0056 FFF7FEFF 		bl	CyDelay
 388:.\main.c      ****         /**/
 389:.\main.c      ****         
 390:.\main.c      ****         
 391:.\main.c      ****         if (id != PLAYER2_ID) continue;
 584              		.loc 1 391 0
 585 005a 7B7B     		ldrb	r3, [r7, #13]	@ zero_extendqisi2
 586 005c 072B     		cmp	r3, #7
 587 005e 00D0     		beq	.L22
 588 0060 2EE0     		b	.L23
 589              	.L22:
 392:.\main.c      ****         
 393:.\main.c      ****         //packet type
 394:.\main.c      ****         while (UART_GetRxBufferSize() == 0);
 590              		.loc 1 394 0
 591 0062 FFF7FEFF 		bl	UART_GetRxBufferSize
 592 0066 0346     		mov	r3, r0
 593 0068 002B     		cmp	r3, #0
 594 006a FAD0     		beq	.L22
 395:.\main.c      ****         if (UART_ReadRxData() != 0x00); //a later version is trying to play with this game // DEBUG
 595              		.loc 1 395 0
 596 006c FFF7FEFF 		bl	UART_ReadRxData
 597              	.L24:
 396:.\main.c      ****         
 397:.\main.c      ****         while (UART_GetRxBufferSize() == 0);
 598              		.loc 1 397 0
 599 0070 FFF7FEFF 		bl	UART_GetRxBufferSize
 600 0074 0346     		mov	r3, r0
 601 0076 002B     		cmp	r3, #0
 602 0078 FAD0     		beq	.L24
 398:.\main.c      ****         move->row = UART_ReadRxData();
 603              		.loc 1 398 0
 604 007a FFF7FEFF 		bl	UART_ReadRxData
 605 007e 0346     		mov	r3, r0
 606 0080 1A46     		mov	r2, r3
 607 0082 7B68     		ldr	r3, [r7, #4]
 608 0084 1A70     		strb	r2, [r3, #0]
 399:.\main.c      ****         if (move->row < 1 || move->row > MATRIX_ROWS-1) continue;
 609              		.loc 1 399 0
 610 0086 7B68     		ldr	r3, [r7, #4]
ARM GAS  C:\DOCUME~1\david\LOCALS~1\Temp\cctwZNAq.s 			page 19


 611 0088 1B78     		ldrb	r3, [r3, #0]	@ zero_extendqisi2
 612 008a 002B     		cmp	r3, #0
 613 008c 03D0     		beq	.L25
 614 008e 7B68     		ldr	r3, [r7, #4]
 615 0090 1B78     		ldrb	r3, [r3, #0]	@ zero_extendqisi2
 616 0092 072B     		cmp	r3, #7
 617 0094 00D9     		bls	.L26
 618              	.L25:
 619 0096 13E0     		b	.L23
 620              	.L26:
 400:.\main.c      ****         
 401:.\main.c      ****         while (UART_GetRxBufferSize() == 0);
 621              		.loc 1 401 0
 622 0098 FFF7FEFF 		bl	UART_GetRxBufferSize
 623 009c 0346     		mov	r3, r0
 624 009e 002B     		cmp	r3, #0
 625 00a0 FAD0     		beq	.L26
 402:.\main.c      ****         move->col = UART_ReadRxData();
 626              		.loc 1 402 0
 627 00a2 FFF7FEFF 		bl	UART_ReadRxData
 628 00a6 0346     		mov	r3, r0
 629 00a8 1A46     		mov	r2, r3
 630 00aa 7B68     		ldr	r3, [r7, #4]
 631 00ac 5A70     		strb	r2, [r3, #1]
 403:.\main.c      ****         if (move->col < 1 || move->row > MATRIX_COLS) continue;
 632              		.loc 1 403 0
 633 00ae 7B68     		ldr	r3, [r7, #4]
 634 00b0 5B78     		ldrb	r3, [r3, #1]	@ zero_extendqisi2
 635 00b2 002B     		cmp	r3, #0
 636 00b4 03D0     		beq	.L27
 637 00b6 7B68     		ldr	r3, [r7, #4]
 638 00b8 1B78     		ldrb	r3, [r3, #0]	@ zero_extendqisi2
 639 00ba 082B     		cmp	r3, #8
 640 00bc 01D9     		bls	.L31
 641              	.L27:
 642 00be 00BF     		nop
 643              	.L23:
 644              	.LBE2:
 404:.\main.c      ****         
 405:.\main.c      ****         break;
 406:.\main.c      ****     }
 645              		.loc 1 406 0
 646 00c0 A4E7     		b	.L29
 647              	.L31:
 407:.\main.c      **** }
 648              		.loc 1 407 0
 649 00c2 00BF     		nop
 650              	.L30:
 651 00c4 07F11007 		add	r7, r7, #16
 652 00c8 BD46     		mov	sp, r7
 653 00ca 80BD     		pop	{r7, pc}
 654              		.cfi_endproc
 655              	.LFE33:
 656              		.size	receive_packet, .-receive_packet
 657              		.section	.text.receive_move,"ax",%progbits
 658              		.align	2
 659              		.global	receive_move
ARM GAS  C:\DOCUME~1\david\LOCALS~1\Temp\cctwZNAq.s 			page 20


 660              		.thumb
 661              		.thumb_func
 662              		.type	receive_move, %function
 663              	receive_move:
 664              	.LFB34:
 408:.\main.c      **** 
 409:.\main.c      **** 
 410:.\main.c      **** 
 411:.\main.c      **** 
 412:.\main.c      **** 
 413:.\main.c      **** 
 414:.\main.c      **** void receive_move () {
 665              		.loc 1 414 0
 666              		.cfi_startproc
 667              		@ args = 0, pretend = 0, frame = 8
 668              		@ frame_needed = 1, uses_anonymous_args = 0
 669 0000 80B5     		push	{r7, lr}
 670              	.LCFI13:
 671              		.cfi_def_cfa_offset 8
 672 0002 82B0     		sub	sp, sp, #8
 673              	.LCFI14:
 674              		.cfi_def_cfa_offset 16
 675 0004 00AF     		add	r7, sp, #0
 676              		.cfi_offset 14, -4
 677              		.cfi_offset 7, -8
 678              	.LCFI15:
 679              		.cfi_def_cfa_register 7
 680              	.L34:
 415:.\main.c      ****     play_t move;
 416:.\main.c      ****     while (true) {
 417:.\main.c      ****         receive_packet(&move);
 681              		.loc 1 417 0
 682 0006 07F10403 		add	r3, r7, #4
 683 000a 1846     		mov	r0, r3
 684 000c FFF7FEFF 		bl	receive_packet
 418:.\main.c      ****         if (player2[MATRIX_ROWS-move.row][move.col-1]) send_packet(&last_move);
 685              		.loc 1 418 0
 686 0010 3B79     		ldrb	r3, [r7, #4]	@ zero_extendqisi2
 687 0012 C3F10801 		rsb	r1, r3, #8
 688 0016 7B79     		ldrb	r3, [r7, #5]	@ zero_extendqisi2
 689 0018 03F1FF32 		add	r2, r3, #-1
 690 001c 40F20003 		movw	r3, #:lower16:player2
 691 0020 C0F20003 		movt	r3, #:upper16:player2
 692 0024 4FEAC101 		lsl	r1, r1, #3
 693 0028 0A44     		add	r2, r1, r2
 694 002a 1344     		add	r3, r2, r3
 695 002c 1B78     		ldrb	r3, [r3, #0]	@ zero_extendqisi2
 696 002e 002B     		cmp	r3, #0
 697 0030 06D0     		beq	.L33
 698 0032 40F20000 		movw	r0, #:lower16:last_move
 699 0036 C0F20000 		movt	r0, #:upper16:last_move
 700 003a FFF7FEFF 		bl	send_packet
 419:.\main.c      ****         else break;
 420:.\main.c      ****     }
 701              		.loc 1 420 0
 702 003e E2E7     		b	.L34
 703              	.L33:
ARM GAS  C:\DOCUME~1\david\LOCALS~1\Temp\cctwZNAq.s 			page 21


 421:.\main.c      ****     player2[MATRIX_ROWS-move.row][move.col-1] = true;
 704              		.loc 1 421 0
 705 0040 3B79     		ldrb	r3, [r7, #4]	@ zero_extendqisi2
 706 0042 C3F10801 		rsb	r1, r3, #8
 707 0046 7B79     		ldrb	r3, [r7, #5]	@ zero_extendqisi2
 708 0048 03F1FF32 		add	r2, r3, #-1
 709 004c 40F20003 		movw	r3, #:lower16:player2
 710 0050 C0F20003 		movt	r3, #:upper16:player2
 711 0054 4FEAC101 		lsl	r1, r1, #3
 712 0058 0A44     		add	r2, r1, r2
 713 005a 1344     		add	r3, r2, r3
 714 005c 4FF00102 		mov	r2, #1
 715 0060 1A70     		strb	r2, [r3, #0]
 422:.\main.c      ****     UART_ClearRxBuffer();
 716              		.loc 1 422 0
 717 0062 FFF7FEFF 		bl	UART_ClearRxBuffer
 423:.\main.c      **** }
 718              		.loc 1 423 0
 719 0066 07F10807 		add	r7, r7, #8
 720 006a BD46     		mov	sp, r7
 721 006c 80BD     		pop	{r7, pc}
 722              		.cfi_endproc
 723              	.LFE34:
 724              		.size	receive_move, .-receive_move
 725 006e 00BF     		.section	.text.clear_board,"ax",%progbits
 726              		.align	2
 727              		.global	clear_board
 728              		.thumb
 729              		.thumb_func
 730              		.type	clear_board, %function
 731              	clear_board:
 732              	.LFB35:
 424:.\main.c      **** /**/
 425:.\main.c      **** 
 426:.\main.c      **** 
 427:.\main.c      **** 
 428:.\main.c      **** 
 429:.\main.c      **** void clear_board () {
 733              		.loc 1 429 0
 734              		.cfi_startproc
 735              		@ args = 0, pretend = 0, frame = 8
 736              		@ frame_needed = 1, uses_anonymous_args = 0
 737              		@ link register save eliminated.
 738 0000 80B4     		push	{r7}
 739              	.LCFI16:
 740              		.cfi_def_cfa_offset 4
 741 0002 83B0     		sub	sp, sp, #12
 742              	.LCFI17:
 743              		.cfi_def_cfa_offset 16
 744 0004 00AF     		add	r7, sp, #0
 745              		.cfi_offset 7, -4
 746              	.LCFI18:
 747              		.cfi_def_cfa_register 7
 430:.\main.c      ****     uint8 r, c;
 431:.\main.c      ****     for (r=0; r < MATRIX_ROWS ;++r) {
 748              		.loc 1 431 0
 749 0006 4FF00003 		mov	r3, #0
ARM GAS  C:\DOCUME~1\david\LOCALS~1\Temp\cctwZNAq.s 			page 22


 750 000a BB71     		strb	r3, [r7, #6]
 751 000c 28E0     		b	.L37
 752              	.L40:
 432:.\main.c      ****         for (c=0; c < MATRIX_COLS ;++c) {
 753              		.loc 1 432 0
 754 000e 4FF00003 		mov	r3, #0
 755 0012 FB71     		strb	r3, [r7, #7]
 756 0014 1DE0     		b	.L38
 757              	.L39:
 433:.\main.c      ****             player1[r][c] = false;
 758              		.loc 1 433 0
 759 0016 B979     		ldrb	r1, [r7, #6]	@ zero_extendqisi2
 760 0018 FA79     		ldrb	r2, [r7, #7]	@ zero_extendqisi2
 761 001a 40F20003 		movw	r3, #:lower16:player1
 762 001e C0F20003 		movt	r3, #:upper16:player1
 763 0022 4FEAC101 		lsl	r1, r1, #3
 764 0026 0A44     		add	r2, r1, r2
 765 0028 1344     		add	r3, r2, r3
 766 002a 4FF00002 		mov	r2, #0
 767 002e 1A70     		strb	r2, [r3, #0]
 434:.\main.c      ****             player2[r][c] = false;
 768              		.loc 1 434 0
 769 0030 B979     		ldrb	r1, [r7, #6]	@ zero_extendqisi2
 770 0032 FA79     		ldrb	r2, [r7, #7]	@ zero_extendqisi2
 771 0034 40F20003 		movw	r3, #:lower16:player2
 772 0038 C0F20003 		movt	r3, #:upper16:player2
 773 003c 4FEAC101 		lsl	r1, r1, #3
 774 0040 0A44     		add	r2, r1, r2
 775 0042 1344     		add	r3, r2, r3
 776 0044 4FF00002 		mov	r2, #0
 777 0048 1A70     		strb	r2, [r3, #0]
 778              		.loc 1 432 0
 779 004a FB79     		ldrb	r3, [r7, #7]
 780 004c 03F10103 		add	r3, r3, #1
 781 0050 FB71     		strb	r3, [r7, #7]
 782              	.L38:
 783 0052 FB79     		ldrb	r3, [r7, #7]	@ zero_extendqisi2
 784 0054 072B     		cmp	r3, #7
 785 0056 DED9     		bls	.L39
 786              		.loc 1 431 0
 787 0058 BB79     		ldrb	r3, [r7, #6]
 788 005a 03F10103 		add	r3, r3, #1
 789 005e BB71     		strb	r3, [r7, #6]
 790              	.L37:
 791 0060 BB79     		ldrb	r3, [r7, #6]	@ zero_extendqisi2
 792 0062 072B     		cmp	r3, #7
 793 0064 D3D9     		bls	.L40
 435:.\main.c      ****         }
 436:.\main.c      ****     }
 437:.\main.c      **** }
 794              		.loc 1 437 0
 795 0066 07F10C07 		add	r7, r7, #12
 796 006a BD46     		mov	sp, r7
 797 006c 80BC     		pop	{r7}
 798 006e 7047     		bx	lr
 799              		.cfi_endproc
 800              	.LFE35:
ARM GAS  C:\DOCUME~1\david\LOCALS~1\Temp\cctwZNAq.s 			page 23


 801              		.size	clear_board, .-clear_board
 802              		.section	.rodata
 803 0059 000000   		.align	2
 804              	.LC10:
 805 005c 596F7520 		.ascii	"You win!\000"
 805      77696E21 
 805      00
 806              		.section	.text.winner_check,"ax",%progbits
 807              		.align	2
 808              		.global	winner_check
 809              		.thumb
 810              		.thumb_func
 811              		.type	winner_check, %function
 812              	winner_check:
 813              	.LFB36:
 438:.\main.c      **** 
 439:.\main.c      **** 
 440:.\main.c      **** 
 441:.\main.c      **** 
 442:.\main.c      **** void winner_check () {
 814              		.loc 1 442 0
 815              		.cfi_startproc
 816              		@ args = 0, pretend = 0, frame = 24
 817              		@ frame_needed = 1, uses_anonymous_args = 0
 818 0000 80B5     		push	{r7, lr}
 819              	.LCFI19:
 820              		.cfi_def_cfa_offset 8
 821 0002 86B0     		sub	sp, sp, #24
 822              	.LCFI20:
 823              		.cfi_def_cfa_offset 32
 824 0004 00AF     		add	r7, sp, #0
 825              		.cfi_offset 14, -4
 826              		.cfi_offset 7, -8
 827              	.LCFI21:
 828              		.cfi_def_cfa_register 7
 443:.\main.c      ****     int r, c;
 444:.\main.c      ****     for (r=1; r < MATRIX_ROWS ;++r) {
 829              		.loc 1 444 0
 830 0006 4FF00103 		mov	r3, #1
 831 000a 7B60     		str	r3, [r7, #4]
 832 000c 77E2     		b	.L43
 833              	.L98:
 445:.\main.c      ****         for (c=0; c < MATRIX_COLS ;++c) {
 834              		.loc 1 445 0
 835 000e 4FF00003 		mov	r3, #0
 836 0012 BB60     		str	r3, [r7, #8]
 837 0014 6BE2     		b	.L44
 838              	.L97:
 839              	.LBB3:
 446:.\main.c      ****             int offset;
 447:.\main.c      ****             
 448:.\main.c      ****             //vertical
 449:.\main.c      ****             if (r < MATRIX_ROWS-3) {
 840              		.loc 1 449 0
 841 0016 7B68     		ldr	r3, [r7, #4]
 842 0018 042B     		cmp	r3, #4
 843 001a 00F39180 		bgt	.L45
ARM GAS  C:\DOCUME~1\david\LOCALS~1\Temp\cctwZNAq.s 			page 24


 844              	.LBB4:
 450:.\main.c      ****                 bool win = true;
 845              		.loc 1 450 0
 846 001e 4FF00103 		mov	r3, #1
 847 0022 3B74     		strb	r3, [r7, #16]
 451:.\main.c      ****                 for (offset=0; win && offset < 4 ;++offset) {
 848              		.loc 1 451 0
 849 0024 4FF00003 		mov	r3, #0
 850 0028 FB60     		str	r3, [r7, #12]
 851 002a 39E0     		b	.L46
 852              	.L51:
 452:.\main.c      ****                     if (player1_turn) { if (!player1[r+offset][c]) win = false; }
 853              		.loc 1 452 0
 854 002c 40F20003 		movw	r3, #:lower16:player1_turn
 855 0030 C0F20003 		movt	r3, #:upper16:player1_turn
 856 0034 1B78     		ldrb	r3, [r3, #0]	@ zero_extendqisi2
 857 0036 002B     		cmp	r3, #0
 858 0038 16D0     		beq	.L47
 859 003a 7A68     		ldr	r2, [r7, #4]
 860 003c FB68     		ldr	r3, [r7, #12]
 861 003e 02EB0301 		add	r1, r2, r3
 862 0042 BA68     		ldr	r2, [r7, #8]
 863 0044 40F20003 		movw	r3, #:lower16:player1
 864 0048 C0F20003 		movt	r3, #:upper16:player1
 865 004c 4FEAC101 		lsl	r1, r1, #3
 866 0050 0A44     		add	r2, r1, r2
 867 0052 1344     		add	r3, r2, r3
 868 0054 1B78     		ldrb	r3, [r3, #0]	@ zero_extendqisi2
 869 0056 83F00103 		eor	r3, r3, #1
 870 005a DBB2     		uxtb	r3, r3
 871 005c 002B     		cmp	r3, #0
 872 005e 1AD0     		beq	.L100
 873 0060 4FF00003 		mov	r3, #0
 874 0064 3B74     		strb	r3, [r7, #16]
 875 0066 17E0     		b	.L49
 876              	.L47:
 453:.\main.c      ****                     else              { if (!player2[r+offset][c]) win = false; }
 877              		.loc 1 453 0
 878 0068 7A68     		ldr	r2, [r7, #4]
 879 006a FB68     		ldr	r3, [r7, #12]
 880 006c 02EB0301 		add	r1, r2, r3
 881 0070 BA68     		ldr	r2, [r7, #8]
 882 0072 40F20003 		movw	r3, #:lower16:player2
 883 0076 C0F20003 		movt	r3, #:upper16:player2
 884 007a 4FEAC101 		lsl	r1, r1, #3
 885 007e 0A44     		add	r2, r1, r2
 886 0080 1344     		add	r3, r2, r3
 887 0082 1B78     		ldrb	r3, [r3, #0]	@ zero_extendqisi2
 888 0084 83F00103 		eor	r3, r3, #1
 889 0088 DBB2     		uxtb	r3, r3
 890 008a 002B     		cmp	r3, #0
 891 008c 04D0     		beq	.L49
 892 008e 4FF00003 		mov	r3, #0
 893 0092 3B74     		strb	r3, [r7, #16]
 894 0094 00E0     		b	.L49
 895              	.L100:
 896              		.loc 1 452 0
ARM GAS  C:\DOCUME~1\david\LOCALS~1\Temp\cctwZNAq.s 			page 25


 897 0096 00BF     		nop
 898              	.L49:
 899              		.loc 1 451 0
 900 0098 FB68     		ldr	r3, [r7, #12]
 901 009a 03F10103 		add	r3, r3, #1
 902 009e FB60     		str	r3, [r7, #12]
 903              	.L46:
 904 00a0 3B7C     		ldrb	r3, [r7, #16]	@ zero_extendqisi2
 905 00a2 002B     		cmp	r3, #0
 906 00a4 02D0     		beq	.L50
 907 00a6 FB68     		ldr	r3, [r7, #12]
 908 00a8 032B     		cmp	r3, #3
 909 00aa BFDD     		ble	.L51
 910              	.L50:
 454:.\main.c      ****                 }
 455:.\main.c      ****                 if (win) {
 911              		.loc 1 455 0
 912 00ac 3B7C     		ldrb	r3, [r7, #16]	@ zero_extendqisi2
 913 00ae 002B     		cmp	r3, #0
 914 00b0 46D0     		beq	.L45
 915              	.LBB5:
 456:.\main.c      ****                     LCD_UpdateMessage("You win!");
 916              		.loc 1 456 0
 917 00b2 40F20000 		movw	r0, #:lower16:.LC10
 918 00b6 C0F20000 		movt	r0, #:upper16:.LC10
 919 00ba FFF7FEFF 		bl	LCD_UpdateMessage
 457:.\main.c      ****                     bool blink = false;
 920              		.loc 1 457 0
 921 00be 4FF00003 		mov	r3, #0
 922 00c2 7B74     		strb	r3, [r7, #17]
 923              	.L57:
 458:.\main.c      ****                     while (true) {
 459:.\main.c      ****                         for (offset=0; win && offset < 4 ;++offset) {
 924              		.loc 1 459 0
 925 00c4 4FF00003 		mov	r3, #0
 926 00c8 FB60     		str	r3, [r7, #12]
 927 00ca 29E0     		b	.L52
 928              	.L56:
 460:.\main.c      ****                             if (player1_turn) player1[r+offset][c] = blink;
 929              		.loc 1 460 0
 930 00cc 40F20003 		movw	r3, #:lower16:player1_turn
 931 00d0 C0F20003 		movt	r3, #:upper16:player1_turn
 932 00d4 1B78     		ldrb	r3, [r3, #0]	@ zero_extendqisi2
 933 00d6 002B     		cmp	r3, #0
 934 00d8 0FD0     		beq	.L53
 935 00da 7A68     		ldr	r2, [r7, #4]
 936 00dc FB68     		ldr	r3, [r7, #12]
 937 00de 02EB0301 		add	r1, r2, r3
 938 00e2 BA68     		ldr	r2, [r7, #8]
 939 00e4 40F20003 		movw	r3, #:lower16:player1
 940 00e8 C0F20003 		movt	r3, #:upper16:player1
 941 00ec 4FEAC101 		lsl	r1, r1, #3
 942 00f0 0A44     		add	r2, r1, r2
 943 00f2 1344     		add	r3, r2, r3
 944 00f4 7A7C     		ldrb	r2, [r7, #17]
 945 00f6 1A70     		strb	r2, [r3, #0]
 946 00f8 0EE0     		b	.L54
ARM GAS  C:\DOCUME~1\david\LOCALS~1\Temp\cctwZNAq.s 			page 26


 947              	.L53:
 461:.\main.c      ****                             else              player2[r+offset][c] = blink;
 948              		.loc 1 461 0
 949 00fa 7A68     		ldr	r2, [r7, #4]
 950 00fc FB68     		ldr	r3, [r7, #12]
 951 00fe 02EB0301 		add	r1, r2, r3
 952 0102 BA68     		ldr	r2, [r7, #8]
 953 0104 40F20003 		movw	r3, #:lower16:player2
 954 0108 C0F20003 		movt	r3, #:upper16:player2
 955 010c 4FEAC101 		lsl	r1, r1, #3
 956 0110 0A44     		add	r2, r1, r2
 957 0112 1344     		add	r3, r2, r3
 958 0114 7A7C     		ldrb	r2, [r7, #17]
 959 0116 1A70     		strb	r2, [r3, #0]
 960              	.L54:
 961              		.loc 1 459 0
 962 0118 FB68     		ldr	r3, [r7, #12]
 963 011a 03F10103 		add	r3, r3, #1
 964 011e FB60     		str	r3, [r7, #12]
 965              	.L52:
 966 0120 3B7C     		ldrb	r3, [r7, #16]	@ zero_extendqisi2
 967 0122 002B     		cmp	r3, #0
 968 0124 02D0     		beq	.L55
 969 0126 FB68     		ldr	r3, [r7, #12]
 970 0128 032B     		cmp	r3, #3
 971 012a CFDD     		ble	.L56
 972              	.L55:
 462:.\main.c      ****                         }
 463:.\main.c      ****                         CyDelay(100);
 973              		.loc 1 463 0
 974 012c 4FF06400 		mov	r0, #100
 975 0130 FFF7FEFF 		bl	CyDelay
 464:.\main.c      ****                         blink = !blink;
 976              		.loc 1 464 0
 977 0134 7B7C     		ldrb	r3, [r7, #17]
 978 0136 83F00103 		eor	r3, r3, #1
 979 013a DBB2     		uxtb	r3, r3
 980 013c 7B74     		strb	r3, [r7, #17]
 465:.\main.c      ****                     }
 981              		.loc 1 465 0
 982 013e C1E7     		b	.L57
 983              	.L45:
 984              	.LBE5:
 985              	.LBE4:
 466:.\main.c      ****                 }
 467:.\main.c      ****             }
 468:.\main.c      ****             
 469:.\main.c      ****             //lateral
 470:.\main.c      ****             if (c < MATRIX_COLS-3) {
 986              		.loc 1 470 0
 987 0140 BB68     		ldr	r3, [r7, #8]
 988 0142 042B     		cmp	r3, #4
 989 0144 00F38D80 		bgt	.L58
 990              	.LBB6:
 471:.\main.c      ****                 bool win = true;
 991              		.loc 1 471 0
 992 0148 4FF00103 		mov	r3, #1
ARM GAS  C:\DOCUME~1\david\LOCALS~1\Temp\cctwZNAq.s 			page 27


 993 014c BB74     		strb	r3, [r7, #18]
 472:.\main.c      ****                 for (offset=0; win && offset < 4 ;++offset) {
 994              		.loc 1 472 0
 995 014e 4FF00003 		mov	r3, #0
 996 0152 FB60     		str	r3, [r7, #12]
 997 0154 37E0     		b	.L59
 998              	.L64:
 473:.\main.c      ****                     if (player1_turn) { if (!player1[r][c+offset]) win = false; }
 999              		.loc 1 473 0
 1000 0156 40F20003 		movw	r3, #:lower16:player1_turn
 1001 015a C0F20003 		movt	r3, #:upper16:player1_turn
 1002 015e 1B78     		ldrb	r3, [r3, #0]	@ zero_extendqisi2
 1003 0160 002B     		cmp	r3, #0
 1004 0162 15D0     		beq	.L60
 1005 0164 7968     		ldr	r1, [r7, #4]
 1006 0166 BA68     		ldr	r2, [r7, #8]
 1007 0168 FB68     		ldr	r3, [r7, #12]
 1008 016a 1A44     		add	r2, r2, r3
 1009 016c 40F20003 		movw	r3, #:lower16:player1
 1010 0170 C0F20003 		movt	r3, #:upper16:player1
 1011 0174 4FEAC101 		lsl	r1, r1, #3
 1012 0178 0A44     		add	r2, r1, r2
 1013 017a 1344     		add	r3, r2, r3
 1014 017c 1B78     		ldrb	r3, [r3, #0]	@ zero_extendqisi2
 1015 017e 83F00103 		eor	r3, r3, #1
 1016 0182 DBB2     		uxtb	r3, r3
 1017 0184 002B     		cmp	r3, #0
 1018 0186 19D0     		beq	.L101
 1019 0188 4FF00003 		mov	r3, #0
 1020 018c BB74     		strb	r3, [r7, #18]
 1021 018e 16E0     		b	.L62
 1022              	.L60:
 474:.\main.c      ****                     else              { if (!player2[r][c+offset]) win = false; }
 1023              		.loc 1 474 0
 1024 0190 7968     		ldr	r1, [r7, #4]
 1025 0192 BA68     		ldr	r2, [r7, #8]
 1026 0194 FB68     		ldr	r3, [r7, #12]
 1027 0196 1A44     		add	r2, r2, r3
 1028 0198 40F20003 		movw	r3, #:lower16:player2
 1029 019c C0F20003 		movt	r3, #:upper16:player2
 1030 01a0 4FEAC101 		lsl	r1, r1, #3
 1031 01a4 0A44     		add	r2, r1, r2
 1032 01a6 1344     		add	r3, r2, r3
 1033 01a8 1B78     		ldrb	r3, [r3, #0]	@ zero_extendqisi2
 1034 01aa 83F00103 		eor	r3, r3, #1
 1035 01ae DBB2     		uxtb	r3, r3
 1036 01b0 002B     		cmp	r3, #0
 1037 01b2 04D0     		beq	.L62
 1038 01b4 4FF00003 		mov	r3, #0
 1039 01b8 BB74     		strb	r3, [r7, #18]
 1040 01ba 00E0     		b	.L62
 1041              	.L101:
 1042              		.loc 1 473 0
 1043 01bc 00BF     		nop
 1044              	.L62:
 1045              		.loc 1 472 0
 1046 01be FB68     		ldr	r3, [r7, #12]
ARM GAS  C:\DOCUME~1\david\LOCALS~1\Temp\cctwZNAq.s 			page 28


 1047 01c0 03F10103 		add	r3, r3, #1
 1048 01c4 FB60     		str	r3, [r7, #12]
 1049              	.L59:
 1050 01c6 BB7C     		ldrb	r3, [r7, #18]	@ zero_extendqisi2
 1051 01c8 002B     		cmp	r3, #0
 1052 01ca 02D0     		beq	.L63
 1053 01cc FB68     		ldr	r3, [r7, #12]
 1054 01ce 032B     		cmp	r3, #3
 1055 01d0 C1DD     		ble	.L64
 1056              	.L63:
 475:.\main.c      ****                 }
 476:.\main.c      ****                 if (win) {
 1057              		.loc 1 476 0
 1058 01d2 BB7C     		ldrb	r3, [r7, #18]	@ zero_extendqisi2
 1059 01d4 002B     		cmp	r3, #0
 1060 01d6 44D0     		beq	.L58
 1061              	.LBB7:
 477:.\main.c      ****                     LCD_UpdateMessage("You win!");
 1062              		.loc 1 477 0
 1063 01d8 40F20000 		movw	r0, #:lower16:.LC10
 1064 01dc C0F20000 		movt	r0, #:upper16:.LC10
 1065 01e0 FFF7FEFF 		bl	LCD_UpdateMessage
 478:.\main.c      ****                     bool blink = false;
 1066              		.loc 1 478 0
 1067 01e4 4FF00003 		mov	r3, #0
 1068 01e8 FB74     		strb	r3, [r7, #19]
 1069              	.L70:
 479:.\main.c      ****                     while (true) {
 480:.\main.c      ****                         for (offset=0; win && offset < 4 ;++offset) {
 1070              		.loc 1 480 0
 1071 01ea 4FF00003 		mov	r3, #0
 1072 01ee FB60     		str	r3, [r7, #12]
 1073 01f0 27E0     		b	.L65
 1074              	.L69:
 481:.\main.c      ****                             if (player1_turn) player1[r][c+offset] = blink;
 1075              		.loc 1 481 0
 1076 01f2 40F20003 		movw	r3, #:lower16:player1_turn
 1077 01f6 C0F20003 		movt	r3, #:upper16:player1_turn
 1078 01fa 1B78     		ldrb	r3, [r3, #0]	@ zero_extendqisi2
 1079 01fc 002B     		cmp	r3, #0
 1080 01fe 0ED0     		beq	.L66
 1081 0200 7968     		ldr	r1, [r7, #4]
 1082 0202 BA68     		ldr	r2, [r7, #8]
 1083 0204 FB68     		ldr	r3, [r7, #12]
 1084 0206 1A44     		add	r2, r2, r3
 1085 0208 40F20003 		movw	r3, #:lower16:player1
 1086 020c C0F20003 		movt	r3, #:upper16:player1
 1087 0210 4FEAC101 		lsl	r1, r1, #3
 1088 0214 0A44     		add	r2, r1, r2
 1089 0216 1344     		add	r3, r2, r3
 1090 0218 FA7C     		ldrb	r2, [r7, #19]
 1091 021a 1A70     		strb	r2, [r3, #0]
 1092 021c 0DE0     		b	.L67
 1093              	.L66:
 482:.\main.c      ****                             else              player2[r][c+offset] = blink;
 1094              		.loc 1 482 0
 1095 021e 7968     		ldr	r1, [r7, #4]
ARM GAS  C:\DOCUME~1\david\LOCALS~1\Temp\cctwZNAq.s 			page 29


 1096 0220 BA68     		ldr	r2, [r7, #8]
 1097 0222 FB68     		ldr	r3, [r7, #12]
 1098 0224 1A44     		add	r2, r2, r3
 1099 0226 40F20003 		movw	r3, #:lower16:player2
 1100 022a C0F20003 		movt	r3, #:upper16:player2
 1101 022e 4FEAC101 		lsl	r1, r1, #3
 1102 0232 0A44     		add	r2, r1, r2
 1103 0234 1344     		add	r3, r2, r3
 1104 0236 FA7C     		ldrb	r2, [r7, #19]
 1105 0238 1A70     		strb	r2, [r3, #0]
 1106              	.L67:
 1107              		.loc 1 480 0
 1108 023a FB68     		ldr	r3, [r7, #12]
 1109 023c 03F10103 		add	r3, r3, #1
 1110 0240 FB60     		str	r3, [r7, #12]
 1111              	.L65:
 1112 0242 BB7C     		ldrb	r3, [r7, #18]	@ zero_extendqisi2
 1113 0244 002B     		cmp	r3, #0
 1114 0246 02D0     		beq	.L68
 1115 0248 FB68     		ldr	r3, [r7, #12]
 1116 024a 032B     		cmp	r3, #3
 1117 024c D1DD     		ble	.L69
 1118              	.L68:
 483:.\main.c      ****                         }
 484:.\main.c      ****                         CyDelay(100);
 1119              		.loc 1 484 0
 1120 024e 4FF06400 		mov	r0, #100
 1121 0252 FFF7FEFF 		bl	CyDelay
 485:.\main.c      ****                         blink = !blink;
 1122              		.loc 1 485 0
 1123 0256 FB7C     		ldrb	r3, [r7, #19]
 1124 0258 83F00103 		eor	r3, r3, #1
 1125 025c DBB2     		uxtb	r3, r3
 1126 025e FB74     		strb	r3, [r7, #19]
 486:.\main.c      ****                     }
 1127              		.loc 1 486 0
 1128 0260 C3E7     		b	.L70
 1129              	.L58:
 1130              	.LBE7:
 1131              	.LBE6:
 487:.\main.c      ****                 }
 488:.\main.c      ****             }
 489:.\main.c      ****             
 490:.\main.c      ****             //down-diagonal
 491:.\main.c      ****             if (r < MATRIX_ROWS-3 && c < MATRIX_COLS-3) {
 1132              		.loc 1 491 0
 1133 0262 7B68     		ldr	r3, [r7, #4]
 1134 0264 042B     		cmp	r3, #4
 1135 0266 00F39D80 		bgt	.L71
 1136 026a BB68     		ldr	r3, [r7, #8]
 1137 026c 042B     		cmp	r3, #4
 1138 026e 00F39980 		bgt	.L71
 1139              	.LBB8:
 492:.\main.c      ****                 bool win = true;
 1140              		.loc 1 492 0
 1141 0272 4FF00103 		mov	r3, #1
 1142 0276 3B75     		strb	r3, [r7, #20]
ARM GAS  C:\DOCUME~1\david\LOCALS~1\Temp\cctwZNAq.s 			page 30


 493:.\main.c      ****                 for (offset=0; win && offset < 4 ;++offset) {
 1143              		.loc 1 493 0
 1144 0278 4FF00003 		mov	r3, #0
 1145 027c FB60     		str	r3, [r7, #12]
 1146 027e 3DE0     		b	.L72
 1147              	.L77:
 494:.\main.c      ****                     if (player1_turn) { if (!player1[r+offset][c+offset]) win = false; }
 1148              		.loc 1 494 0
 1149 0280 40F20003 		movw	r3, #:lower16:player1_turn
 1150 0284 C0F20003 		movt	r3, #:upper16:player1_turn
 1151 0288 1B78     		ldrb	r3, [r3, #0]	@ zero_extendqisi2
 1152 028a 002B     		cmp	r3, #0
 1153 028c 18D0     		beq	.L73
 1154 028e 7A68     		ldr	r2, [r7, #4]
 1155 0290 FB68     		ldr	r3, [r7, #12]
 1156 0292 02EB0301 		add	r1, r2, r3
 1157 0296 BA68     		ldr	r2, [r7, #8]
 1158 0298 FB68     		ldr	r3, [r7, #12]
 1159 029a 1A44     		add	r2, r2, r3
 1160 029c 40F20003 		movw	r3, #:lower16:player1
 1161 02a0 C0F20003 		movt	r3, #:upper16:player1
 1162 02a4 4FEAC101 		lsl	r1, r1, #3
 1163 02a8 0A44     		add	r2, r1, r2
 1164 02aa 1344     		add	r3, r2, r3
 1165 02ac 1B78     		ldrb	r3, [r3, #0]	@ zero_extendqisi2
 1166 02ae 83F00103 		eor	r3, r3, #1
 1167 02b2 DBB2     		uxtb	r3, r3
 1168 02b4 002B     		cmp	r3, #0
 1169 02b6 1CD0     		beq	.L102
 1170 02b8 4FF00003 		mov	r3, #0
 1171 02bc 3B75     		strb	r3, [r7, #20]
 1172 02be 19E0     		b	.L75
 1173              	.L73:
 495:.\main.c      ****                     else              { if (!player2[r+offset][c+offset]) win = false; }
 1174              		.loc 1 495 0
 1175 02c0 7A68     		ldr	r2, [r7, #4]
 1176 02c2 FB68     		ldr	r3, [r7, #12]
 1177 02c4 02EB0301 		add	r1, r2, r3
 1178 02c8 BA68     		ldr	r2, [r7, #8]
 1179 02ca FB68     		ldr	r3, [r7, #12]
 1180 02cc 1A44     		add	r2, r2, r3
 1181 02ce 40F20003 		movw	r3, #:lower16:player2
 1182 02d2 C0F20003 		movt	r3, #:upper16:player2
 1183 02d6 4FEAC101 		lsl	r1, r1, #3
 1184 02da 0A44     		add	r2, r1, r2
 1185 02dc 1344     		add	r3, r2, r3
 1186 02de 1B78     		ldrb	r3, [r3, #0]	@ zero_extendqisi2
 1187 02e0 83F00103 		eor	r3, r3, #1
 1188 02e4 DBB2     		uxtb	r3, r3
 1189 02e6 002B     		cmp	r3, #0
 1190 02e8 04D0     		beq	.L75
 1191 02ea 4FF00003 		mov	r3, #0
 1192 02ee 3B75     		strb	r3, [r7, #20]
 1193 02f0 00E0     		b	.L75
 1194              	.L102:
 1195              		.loc 1 494 0
 1196 02f2 00BF     		nop
ARM GAS  C:\DOCUME~1\david\LOCALS~1\Temp\cctwZNAq.s 			page 31


 1197              	.L75:
 1198              		.loc 1 493 0
 1199 02f4 FB68     		ldr	r3, [r7, #12]
 1200 02f6 03F10103 		add	r3, r3, #1
 1201 02fa FB60     		str	r3, [r7, #12]
 1202              	.L72:
 1203 02fc 3B7D     		ldrb	r3, [r7, #20]	@ zero_extendqisi2
 1204 02fe 002B     		cmp	r3, #0
 1205 0300 02D0     		beq	.L76
 1206 0302 FB68     		ldr	r3, [r7, #12]
 1207 0304 032B     		cmp	r3, #3
 1208 0306 BBDD     		ble	.L77
 1209              	.L76:
 496:.\main.c      ****                 }
 497:.\main.c      ****                 if (win) {
 1210              		.loc 1 497 0
 1211 0308 3B7D     		ldrb	r3, [r7, #20]	@ zero_extendqisi2
 1212 030a 002B     		cmp	r3, #0
 1213 030c 4AD0     		beq	.L71
 1214              	.LBB9:
 498:.\main.c      ****                     LCD_UpdateMessage("You win!");
 1215              		.loc 1 498 0
 1216 030e 40F20000 		movw	r0, #:lower16:.LC10
 1217 0312 C0F20000 		movt	r0, #:upper16:.LC10
 1218 0316 FFF7FEFF 		bl	LCD_UpdateMessage
 499:.\main.c      ****                     bool blink = false;
 1219              		.loc 1 499 0
 1220 031a 4FF00003 		mov	r3, #0
 1221 031e 7B75     		strb	r3, [r7, #21]
 1222              	.L83:
 500:.\main.c      ****                     while (true) {
 501:.\main.c      ****                         for (offset=0; win && offset < 4 ;++offset) {
 1223              		.loc 1 501 0
 1224 0320 4FF00003 		mov	r3, #0
 1225 0324 FB60     		str	r3, [r7, #12]
 1226 0326 2DE0     		b	.L78
 1227              	.L82:
 502:.\main.c      ****                             if (player1_turn) player1[r+offset][c+offset] = blink;
 1228              		.loc 1 502 0
 1229 0328 40F20003 		movw	r3, #:lower16:player1_turn
 1230 032c C0F20003 		movt	r3, #:upper16:player1_turn
 1231 0330 1B78     		ldrb	r3, [r3, #0]	@ zero_extendqisi2
 1232 0332 002B     		cmp	r3, #0
 1233 0334 11D0     		beq	.L79
 1234 0336 7A68     		ldr	r2, [r7, #4]
 1235 0338 FB68     		ldr	r3, [r7, #12]
 1236 033a 02EB0301 		add	r1, r2, r3
 1237 033e BA68     		ldr	r2, [r7, #8]
 1238 0340 FB68     		ldr	r3, [r7, #12]
 1239 0342 1A44     		add	r2, r2, r3
 1240 0344 40F20003 		movw	r3, #:lower16:player1
 1241 0348 C0F20003 		movt	r3, #:upper16:player1
 1242 034c 4FEAC101 		lsl	r1, r1, #3
 1243 0350 0A44     		add	r2, r1, r2
 1244 0352 1344     		add	r3, r2, r3
 1245 0354 7A7D     		ldrb	r2, [r7, #21]
 1246 0356 1A70     		strb	r2, [r3, #0]
ARM GAS  C:\DOCUME~1\david\LOCALS~1\Temp\cctwZNAq.s 			page 32


 1247 0358 10E0     		b	.L80
 1248              	.L79:
 503:.\main.c      ****                             else              player2[r+offset][c+offset] = blink;
 1249              		.loc 1 503 0
 1250 035a 7A68     		ldr	r2, [r7, #4]
 1251 035c FB68     		ldr	r3, [r7, #12]
 1252 035e 02EB0301 		add	r1, r2, r3
 1253 0362 BA68     		ldr	r2, [r7, #8]
 1254 0364 FB68     		ldr	r3, [r7, #12]
 1255 0366 1A44     		add	r2, r2, r3
 1256 0368 40F20003 		movw	r3, #:lower16:player2
 1257 036c C0F20003 		movt	r3, #:upper16:player2
 1258 0370 4FEAC101 		lsl	r1, r1, #3
 1259 0374 0A44     		add	r2, r1, r2
 1260 0376 1344     		add	r3, r2, r3
 1261 0378 7A7D     		ldrb	r2, [r7, #21]
 1262 037a 1A70     		strb	r2, [r3, #0]
 1263              	.L80:
 1264              		.loc 1 501 0
 1265 037c FB68     		ldr	r3, [r7, #12]
 1266 037e 03F10103 		add	r3, r3, #1
 1267 0382 FB60     		str	r3, [r7, #12]
 1268              	.L78:
 1269 0384 3B7D     		ldrb	r3, [r7, #20]	@ zero_extendqisi2
 1270 0386 002B     		cmp	r3, #0
 1271 0388 02D0     		beq	.L81
 1272 038a FB68     		ldr	r3, [r7, #12]
 1273 038c 032B     		cmp	r3, #3
 1274 038e CBDD     		ble	.L82
 1275              	.L81:
 504:.\main.c      ****                         }
 505:.\main.c      ****                         CyDelay(100);
 1276              		.loc 1 505 0
 1277 0390 4FF06400 		mov	r0, #100
 1278 0394 FFF7FEFF 		bl	CyDelay
 506:.\main.c      ****                         blink = !blink;
 1279              		.loc 1 506 0
 1280 0398 7B7D     		ldrb	r3, [r7, #21]
 1281 039a 83F00103 		eor	r3, r3, #1
 1282 039e DBB2     		uxtb	r3, r3
 1283 03a0 7B75     		strb	r3, [r7, #21]
 507:.\main.c      ****                     }
 1284              		.loc 1 507 0
 1285 03a2 BDE7     		b	.L83
 1286              	.L71:
 1287              	.LBE9:
 1288              	.LBE8:
 508:.\main.c      ****                 }
 509:.\main.c      ****             }
 510:.\main.c      ****             
 511:.\main.c      ****             //up-diagonal
 512:.\main.c      ****             if (r > 3 && c < MATRIX_COLS-3) {
 1289              		.loc 1 512 0
 1290 03a4 7B68     		ldr	r3, [r7, #4]
 1291 03a6 032B     		cmp	r3, #3
 1292 03a8 40F39D80 		ble	.L84
 1293 03ac BB68     		ldr	r3, [r7, #8]
ARM GAS  C:\DOCUME~1\david\LOCALS~1\Temp\cctwZNAq.s 			page 33


 1294 03ae 042B     		cmp	r3, #4
 1295 03b0 00F39980 		bgt	.L84
 1296              	.LBB10:
 513:.\main.c      ****                 bool win = true;
 1297              		.loc 1 513 0
 1298 03b4 4FF00103 		mov	r3, #1
 1299 03b8 BB75     		strb	r3, [r7, #22]
 514:.\main.c      ****                 for (offset=0; win && offset < 4 ;++offset) {
 1300              		.loc 1 514 0
 1301 03ba 4FF00003 		mov	r3, #0
 1302 03be FB60     		str	r3, [r7, #12]
 1303 03c0 3DE0     		b	.L85
 1304              	.L90:
 515:.\main.c      ****                     if (player1_turn) { if (!player1[r-offset][c+offset]) win = false; }
 1305              		.loc 1 515 0
 1306 03c2 40F20003 		movw	r3, #:lower16:player1_turn
 1307 03c6 C0F20003 		movt	r3, #:upper16:player1_turn
 1308 03ca 1B78     		ldrb	r3, [r3, #0]	@ zero_extendqisi2
 1309 03cc 002B     		cmp	r3, #0
 1310 03ce 18D0     		beq	.L86
 1311 03d0 7A68     		ldr	r2, [r7, #4]
 1312 03d2 FB68     		ldr	r3, [r7, #12]
 1313 03d4 C3EB0201 		rsb	r1, r3, r2
 1314 03d8 BA68     		ldr	r2, [r7, #8]
 1315 03da FB68     		ldr	r3, [r7, #12]
 1316 03dc 1A44     		add	r2, r2, r3
 1317 03de 40F20003 		movw	r3, #:lower16:player1
 1318 03e2 C0F20003 		movt	r3, #:upper16:player1
 1319 03e6 4FEAC101 		lsl	r1, r1, #3
 1320 03ea 0A44     		add	r2, r1, r2
 1321 03ec 1344     		add	r3, r2, r3
 1322 03ee 1B78     		ldrb	r3, [r3, #0]	@ zero_extendqisi2
 1323 03f0 83F00103 		eor	r3, r3, #1
 1324 03f4 DBB2     		uxtb	r3, r3
 1325 03f6 002B     		cmp	r3, #0
 1326 03f8 1CD0     		beq	.L103
 1327 03fa 4FF00003 		mov	r3, #0
 1328 03fe BB75     		strb	r3, [r7, #22]
 1329 0400 19E0     		b	.L88
 1330              	.L86:
 516:.\main.c      ****                     else              { if (!player2[r-offset][c+offset]) win = false; }
 1331              		.loc 1 516 0
 1332 0402 7A68     		ldr	r2, [r7, #4]
 1333 0404 FB68     		ldr	r3, [r7, #12]
 1334 0406 C3EB0201 		rsb	r1, r3, r2
 1335 040a BA68     		ldr	r2, [r7, #8]
 1336 040c FB68     		ldr	r3, [r7, #12]
 1337 040e 1A44     		add	r2, r2, r3
 1338 0410 40F20003 		movw	r3, #:lower16:player2
 1339 0414 C0F20003 		movt	r3, #:upper16:player2
 1340 0418 4FEAC101 		lsl	r1, r1, #3
 1341 041c 0A44     		add	r2, r1, r2
 1342 041e 1344     		add	r3, r2, r3
 1343 0420 1B78     		ldrb	r3, [r3, #0]	@ zero_extendqisi2
 1344 0422 83F00103 		eor	r3, r3, #1
 1345 0426 DBB2     		uxtb	r3, r3
 1346 0428 002B     		cmp	r3, #0
ARM GAS  C:\DOCUME~1\david\LOCALS~1\Temp\cctwZNAq.s 			page 34


 1347 042a 04D0     		beq	.L88
 1348 042c 4FF00003 		mov	r3, #0
 1349 0430 BB75     		strb	r3, [r7, #22]
 1350 0432 00E0     		b	.L88
 1351              	.L103:
 1352              		.loc 1 515 0
 1353 0434 00BF     		nop
 1354              	.L88:
 1355              		.loc 1 514 0
 1356 0436 FB68     		ldr	r3, [r7, #12]
 1357 0438 03F10103 		add	r3, r3, #1
 1358 043c FB60     		str	r3, [r7, #12]
 1359              	.L85:
 1360 043e BB7D     		ldrb	r3, [r7, #22]	@ zero_extendqisi2
 1361 0440 002B     		cmp	r3, #0
 1362 0442 02D0     		beq	.L89
 1363 0444 FB68     		ldr	r3, [r7, #12]
 1364 0446 032B     		cmp	r3, #3
 1365 0448 BBDD     		ble	.L90
 1366              	.L89:
 517:.\main.c      ****                 }
 518:.\main.c      ****                 if (win) {
 1367              		.loc 1 518 0
 1368 044a BB7D     		ldrb	r3, [r7, #22]	@ zero_extendqisi2
 1369 044c 002B     		cmp	r3, #0
 1370 044e 4AD0     		beq	.L84
 1371              	.LBB11:
 519:.\main.c      ****                     LCD_UpdateMessage("You win!");
 1372              		.loc 1 519 0
 1373 0450 40F20000 		movw	r0, #:lower16:.LC10
 1374 0454 C0F20000 		movt	r0, #:upper16:.LC10
 1375 0458 FFF7FEFF 		bl	LCD_UpdateMessage
 520:.\main.c      ****                     bool blink = false;
 1376              		.loc 1 520 0
 1377 045c 4FF00003 		mov	r3, #0
 1378 0460 FB75     		strb	r3, [r7, #23]
 1379              	.L96:
 521:.\main.c      ****                     while (true) {
 522:.\main.c      ****                         for (offset=0; win && offset < 4 ;++offset) {
 1380              		.loc 1 522 0
 1381 0462 4FF00003 		mov	r3, #0
 1382 0466 FB60     		str	r3, [r7, #12]
 1383 0468 2DE0     		b	.L91
 1384              	.L95:
 523:.\main.c      ****                             if (player1_turn) player1[r-offset][c+offset] = blink;
 1385              		.loc 1 523 0
 1386 046a 40F20003 		movw	r3, #:lower16:player1_turn
 1387 046e C0F20003 		movt	r3, #:upper16:player1_turn
 1388 0472 1B78     		ldrb	r3, [r3, #0]	@ zero_extendqisi2
 1389 0474 002B     		cmp	r3, #0
 1390 0476 11D0     		beq	.L92
 1391 0478 7A68     		ldr	r2, [r7, #4]
 1392 047a FB68     		ldr	r3, [r7, #12]
 1393 047c C3EB0201 		rsb	r1, r3, r2
 1394 0480 BA68     		ldr	r2, [r7, #8]
 1395 0482 FB68     		ldr	r3, [r7, #12]
 1396 0484 1A44     		add	r2, r2, r3
ARM GAS  C:\DOCUME~1\david\LOCALS~1\Temp\cctwZNAq.s 			page 35


 1397 0486 40F20003 		movw	r3, #:lower16:player1
 1398 048a C0F20003 		movt	r3, #:upper16:player1
 1399 048e 4FEAC101 		lsl	r1, r1, #3
 1400 0492 0A44     		add	r2, r1, r2
 1401 0494 1344     		add	r3, r2, r3
 1402 0496 FA7D     		ldrb	r2, [r7, #23]
 1403 0498 1A70     		strb	r2, [r3, #0]
 1404 049a 10E0     		b	.L93
 1405              	.L92:
 524:.\main.c      ****                             else              player2[r-offset][c+offset] = blink;
 1406              		.loc 1 524 0
 1407 049c 7A68     		ldr	r2, [r7, #4]
 1408 049e FB68     		ldr	r3, [r7, #12]
 1409 04a0 C3EB0201 		rsb	r1, r3, r2
 1410 04a4 BA68     		ldr	r2, [r7, #8]
 1411 04a6 FB68     		ldr	r3, [r7, #12]
 1412 04a8 1A44     		add	r2, r2, r3
 1413 04aa 40F20003 		movw	r3, #:lower16:player2
 1414 04ae C0F20003 		movt	r3, #:upper16:player2
 1415 04b2 4FEAC101 		lsl	r1, r1, #3
 1416 04b6 0A44     		add	r2, r1, r2
 1417 04b8 1344     		add	r3, r2, r3
 1418 04ba FA7D     		ldrb	r2, [r7, #23]
 1419 04bc 1A70     		strb	r2, [r3, #0]
 1420              	.L93:
 1421              		.loc 1 522 0
 1422 04be FB68     		ldr	r3, [r7, #12]
 1423 04c0 03F10103 		add	r3, r3, #1
 1424 04c4 FB60     		str	r3, [r7, #12]
 1425              	.L91:
 1426 04c6 BB7D     		ldrb	r3, [r7, #22]	@ zero_extendqisi2
 1427 04c8 002B     		cmp	r3, #0
 1428 04ca 02D0     		beq	.L94
 1429 04cc FB68     		ldr	r3, [r7, #12]
 1430 04ce 032B     		cmp	r3, #3
 1431 04d0 CBDD     		ble	.L95
 1432              	.L94:
 525:.\main.c      ****                         }
 526:.\main.c      ****                         CyDelay(100);
 1433              		.loc 1 526 0
 1434 04d2 4FF06400 		mov	r0, #100
 1435 04d6 FFF7FEFF 		bl	CyDelay
 527:.\main.c      ****                         blink = !blink;
 1436              		.loc 1 527 0
 1437 04da FB7D     		ldrb	r3, [r7, #23]
 1438 04dc 83F00103 		eor	r3, r3, #1
 1439 04e0 DBB2     		uxtb	r3, r3
 1440 04e2 FB75     		strb	r3, [r7, #23]
 528:.\main.c      ****                     }
 1441              		.loc 1 528 0
 1442 04e4 BDE7     		b	.L96
 1443              	.L84:
 1444              	.LBE11:
 1445              	.LBE10:
 1446              	.LBE3:
 1447              		.loc 1 445 0
 1448 04e6 BB68     		ldr	r3, [r7, #8]
ARM GAS  C:\DOCUME~1\david\LOCALS~1\Temp\cctwZNAq.s 			page 36


 1449 04e8 03F10103 		add	r3, r3, #1
 1450 04ec BB60     		str	r3, [r7, #8]
 1451              	.L44:
 1452 04ee BB68     		ldr	r3, [r7, #8]
 1453 04f0 072B     		cmp	r3, #7
 1454 04f2 7FF790AD 		ble	.L97
 1455              		.loc 1 444 0
 1456 04f6 7B68     		ldr	r3, [r7, #4]
 1457 04f8 03F10103 		add	r3, r3, #1
 1458 04fc 7B60     		str	r3, [r7, #4]
 1459              	.L43:
 1460 04fe 7B68     		ldr	r3, [r7, #4]
 1461 0500 072B     		cmp	r3, #7
 1462 0502 7FF784AD 		ble	.L98
 529:.\main.c      ****                 }
 530:.\main.c      ****             }  
 531:.\main.c      ****         }
 532:.\main.c      ****     }
 533:.\main.c      **** }
 1463              		.loc 1 533 0
 1464 0506 07F11807 		add	r7, r7, #24
 1465 050a BD46     		mov	sp, r7
 1466 050c 80BD     		pop	{r7, pc}
 1467              		.cfi_endproc
 1468              	.LFE36:
 1469              		.size	winner_check, .-winner_check
 1470              		.global	row
 1471 050e 00BF     		.data
 1472              		.type	row, %object
 1473              		.size	row, 1
 1474              	row:
 1475 0004 FF       		.byte	-1
 1476              		.global	col
 1477              		.type	col, %object
 1478              		.size	col, 1
 1479              	col:
 1480 0005 FF       		.byte	-1
 1481              		.section	.text.refresh,"ax",%progbits
 1482              		.align	2
 1483              		.global	refresh
 1484              		.thumb
 1485              		.thumb_func
 1486              		.type	refresh, %function
 1487              	refresh:
 1488              	.LFB37:
 534:.\main.c      **** 
 535:.\main.c      **** 
 536:.\main.c      **** 
 537:.\main.c      **** 
 538:.\main.c      **** uint8 row = -1, col = -1;
 539:.\main.c      **** CY_ISR (refresh) {
 1489              		.loc 1 539 0
 1490              		.cfi_startproc
 1491              		@ args = 0, pretend = 0, frame = 8
 1492              		@ frame_needed = 1, uses_anonymous_args = 0
 1493 0000 80B5     		push	{r7, lr}
 1494              	.LCFI22:
ARM GAS  C:\DOCUME~1\david\LOCALS~1\Temp\cctwZNAq.s 			page 37


 1495              		.cfi_def_cfa_offset 8
 1496 0002 82B0     		sub	sp, sp, #8
 1497              	.LCFI23:
 1498              		.cfi_def_cfa_offset 16
 1499 0004 00AF     		add	r7, sp, #0
 1500              		.cfi_offset 14, -4
 1501              		.cfi_offset 7, -8
 1502              	.LCFI24:
 1503              		.cfi_def_cfa_register 7
 1504              	.LBB12:
 540:.\main.c      ****     if (false) {
 541:.\main.c      ****     //if (SERIAL) {
 542:.\main.c      ****         /**/
 543:.\main.c      ****         matrix_deluminate();
 544:.\main.c      ****         if (++col > MATRIX_COLS) col = 0;
 545:.\main.c      ****         for (row=0; row < MATRIX_ROWS ;++row) {
 546:.\main.c      ****             if (player1[row][col]) matrix_illuminate(row,col,player1_color);
 547:.\main.c      ****             if (player2[row][col]) matrix_illuminate(row,col,player2_color);
 548:.\main.c      ****         }
 549:.\main.c      ****         /**
 550:.\main.c      ****         matrix_deluminate();
 551:.\main.c      ****         if (++row > MATRIX_ROWS) row = 0;
 552:.\main.c      ****         for (col=0; col < MATRIX_COLS ;++col) {
 553:.\main.c      ****             if (player1[row][col]) matrix_illuminate(row,col,player1_color);
 554:.\main.c      ****             if (player2[row][col]) matrix_illuminate(row,col,player2_color);
 555:.\main.c      ****         }
 556:.\main.c      ****         /**/
 557:.\main.c      ****     }
 558:.\main.c      ****     else {
 559:.\main.c      ****         uint16 cells = MATRIX_ROWS*MATRIX_COLS;
 1505              		.loc 1 559 0
 1506 0006 4FF04003 		mov	r3, #64
 1507 000a FB80     		strh	r3, [r7, #6]	@ movhi
 560:.\main.c      ****         while (cells-- > 0) {
 1508              		.loc 1 560 0
 1509 000c 93E0     		b	.L105
 1510              	.L109:
 561:.\main.c      ****             if (++col > MATRIX_COLS) {
 1511              		.loc 1 561 0
 1512 000e 40F20003 		movw	r3, #:lower16:col
 1513 0012 C0F20003 		movt	r3, #:upper16:col
 1514 0016 1B78     		ldrb	r3, [r3, #0]	@ zero_extendqisi2
 1515 0018 03F10103 		add	r3, r3, #1
 1516 001c DAB2     		uxtb	r2, r3
 1517 001e 40F20003 		movw	r3, #:lower16:col
 1518 0022 C0F20003 		movt	r3, #:upper16:col
 1519 0026 1A70     		strb	r2, [r3, #0]
 1520 0028 40F20003 		movw	r3, #:lower16:col
 1521 002c C0F20003 		movt	r3, #:upper16:col
 1522 0030 1B78     		ldrb	r3, [r3, #0]	@ zero_extendqisi2
 1523 0032 082B     		cmp	r3, #8
 1524 0034 21D9     		bls	.L106
 562:.\main.c      ****                 col = 0;
 1525              		.loc 1 562 0
 1526 0036 40F20003 		movw	r3, #:lower16:col
 1527 003a C0F20003 		movt	r3, #:upper16:col
 1528 003e 4FF00002 		mov	r2, #0
ARM GAS  C:\DOCUME~1\david\LOCALS~1\Temp\cctwZNAq.s 			page 38


 1529 0042 1A70     		strb	r2, [r3, #0]
 563:.\main.c      ****                 if (++row > MATRIX_ROWS) row = 0;
 1530              		.loc 1 563 0
 1531 0044 40F20003 		movw	r3, #:lower16:row
 1532 0048 C0F20003 		movt	r3, #:upper16:row
 1533 004c 1B78     		ldrb	r3, [r3, #0]	@ zero_extendqisi2
 1534 004e 03F10103 		add	r3, r3, #1
 1535 0052 DAB2     		uxtb	r2, r3
 1536 0054 40F20003 		movw	r3, #:lower16:row
 1537 0058 C0F20003 		movt	r3, #:upper16:row
 1538 005c 1A70     		strb	r2, [r3, #0]
 1539 005e 40F20003 		movw	r3, #:lower16:row
 1540 0062 C0F20003 		movt	r3, #:upper16:row
 1541 0066 1B78     		ldrb	r3, [r3, #0]	@ zero_extendqisi2
 1542 0068 082B     		cmp	r3, #8
 1543 006a 06D9     		bls	.L106
 1544 006c 40F20003 		movw	r3, #:lower16:row
 1545 0070 C0F20003 		movt	r3, #:upper16:row
 1546 0074 4FF00002 		mov	r2, #0
 1547 0078 1A70     		strb	r2, [r3, #0]
 1548              	.L106:
 564:.\main.c      ****             }
 565:.\main.c      ****             if (player1[row][col]) {
 1549              		.loc 1 565 0
 1550 007a 40F20003 		movw	r3, #:lower16:row
 1551 007e C0F20003 		movt	r3, #:upper16:row
 1552 0082 1B78     		ldrb	r3, [r3, #0]	@ zero_extendqisi2
 1553 0084 1946     		mov	r1, r3
 1554 0086 40F20003 		movw	r3, #:lower16:col
 1555 008a C0F20003 		movt	r3, #:upper16:col
 1556 008e 1B78     		ldrb	r3, [r3, #0]	@ zero_extendqisi2
 1557 0090 1A46     		mov	r2, r3
 1558 0092 40F20003 		movw	r3, #:lower16:player1
 1559 0096 C0F20003 		movt	r3, #:upper16:player1
 1560 009a 4FEAC101 		lsl	r1, r1, #3
 1561 009e 0A44     		add	r2, r1, r2
 1562 00a0 1344     		add	r3, r2, r3
 1563 00a2 1B78     		ldrb	r3, [r3, #0]	@ zero_extendqisi2
 1564 00a4 002B     		cmp	r3, #0
 1565 00a6 16D0     		beq	.L107
 566:.\main.c      ****                 //matrix_deluminate();
 567:.\main.c      ****                 matrix_illuminate(row,col,player1_color);
 1566              		.loc 1 567 0
 1567 00a8 40F20003 		movw	r3, #:lower16:row
 1568 00ac C0F20003 		movt	r3, #:upper16:row
 1569 00b0 1B78     		ldrb	r3, [r3, #0]	@ zero_extendqisi2
 1570 00b2 1946     		mov	r1, r3
 1571 00b4 40F20003 		movw	r3, #:lower16:col
 1572 00b8 C0F20003 		movt	r3, #:upper16:col
 1573 00bc 1B78     		ldrb	r3, [r3, #0]	@ zero_extendqisi2
 1574 00be 1A46     		mov	r2, r3
 1575 00c0 40F20003 		movw	r3, #:lower16:player1_color
 1576 00c4 C0F20003 		movt	r3, #:upper16:player1_color
 1577 00c8 1B78     		ldrb	r3, [r3, #0]	@ zero_extendqisi2
 1578 00ca 0846     		mov	r0, r1
 1579 00cc 1146     		mov	r1, r2
 1580 00ce 1A46     		mov	r2, r3
ARM GAS  C:\DOCUME~1\david\LOCALS~1\Temp\cctwZNAq.s 			page 39


 1581 00d0 FFF7FEFF 		bl	matrix_illuminate
 568:.\main.c      ****                 break;
 1582              		.loc 1 568 0
 1583 00d4 3CE0     		b	.L110
 1584              	.L107:
 569:.\main.c      ****             }
 570:.\main.c      ****             if (player2[row][col]) {
 1585              		.loc 1 570 0
 1586 00d6 40F20003 		movw	r3, #:lower16:row
 1587 00da C0F20003 		movt	r3, #:upper16:row
 1588 00de 1B78     		ldrb	r3, [r3, #0]	@ zero_extendqisi2
 1589 00e0 1946     		mov	r1, r3
 1590 00e2 40F20003 		movw	r3, #:lower16:col
 1591 00e6 C0F20003 		movt	r3, #:upper16:col
 1592 00ea 1B78     		ldrb	r3, [r3, #0]	@ zero_extendqisi2
 1593 00ec 1A46     		mov	r2, r3
 1594 00ee 40F20003 		movw	r3, #:lower16:player2
 1595 00f2 C0F20003 		movt	r3, #:upper16:player2
 1596 00f6 4FEAC101 		lsl	r1, r1, #3
 1597 00fa 0A44     		add	r2, r1, r2
 1598 00fc 1344     		add	r3, r2, r3
 1599 00fe 1B78     		ldrb	r3, [r3, #0]	@ zero_extendqisi2
 1600 0100 002B     		cmp	r3, #0
 1601 0102 18D0     		beq	.L105
 571:.\main.c      ****                 matrix_deluminate();
 1602              		.loc 1 571 0
 1603 0104 FFF7FEFF 		bl	matrix_deluminate
 572:.\main.c      ****                 matrix_illuminate(row,col,player2_color);
 1604              		.loc 1 572 0
 1605 0108 40F20003 		movw	r3, #:lower16:row
 1606 010c C0F20003 		movt	r3, #:upper16:row
 1607 0110 1B78     		ldrb	r3, [r3, #0]	@ zero_extendqisi2
 1608 0112 1946     		mov	r1, r3
 1609 0114 40F20003 		movw	r3, #:lower16:col
 1610 0118 C0F20003 		movt	r3, #:upper16:col
 1611 011c 1B78     		ldrb	r3, [r3, #0]	@ zero_extendqisi2
 1612 011e 1A46     		mov	r2, r3
 1613 0120 40F20003 		movw	r3, #:lower16:player2_color
 1614 0124 C0F20003 		movt	r3, #:upper16:player2_color
 1615 0128 1B78     		ldrb	r3, [r3, #0]	@ zero_extendqisi2
 1616 012a 0846     		mov	r0, r1
 1617 012c 1146     		mov	r1, r2
 1618 012e 1A46     		mov	r2, r3
 1619 0130 FFF7FEFF 		bl	matrix_illuminate
 573:.\main.c      ****                 break;
 1620              		.loc 1 573 0
 1621 0134 0CE0     		b	.L110
 1622              	.L105:
 1623              		.loc 1 560 0
 1624 0136 FB88     		ldrh	r3, [r7, #6]
 1625 0138 002B     		cmp	r3, #0
 1626 013a 0CBF     		ite	eq
 1627 013c 0023     		moveq	r3, #0
 1628 013e 0123     		movne	r3, #1
 1629 0140 DBB2     		uxtb	r3, r3
 1630 0142 FA88     		ldrh	r2, [r7, #6]	@ movhi
 1631 0144 02F1FF32 		add	r2, r2, #-1
ARM GAS  C:\DOCUME~1\david\LOCALS~1\Temp\cctwZNAq.s 			page 40


 1632 0148 FA80     		strh	r2, [r7, #6]	@ movhi
 1633 014a 002B     		cmp	r3, #0
 1634 014c 7FF45FAF 		bne	.L109
 1635              	.L110:
 1636              	.LBE12:
 574:.\main.c      ****             }
 575:.\main.c      ****         }
 576:.\main.c      ****     }
 577:.\main.c      **** }
 1637              		.loc 1 577 0
 1638 0150 07F10807 		add	r7, r7, #8
 1639 0154 BD46     		mov	sp, r7
 1640 0156 80BD     		pop	{r7, pc}
 1641              		.cfi_endproc
 1642              	.LFE37:
 1643              		.size	refresh, .-refresh
 1644              		.section	.rodata
 1645 0065 000000   		.align	2
 1646              	.LC11:
 1647 0068 696E6974 		.ascii	"initializing...\000"
 1647      69616C69 
 1647      7A696E67 
 1647      2E2E2E00 
 1648              		.align	2
 1649              	.LC12:
 1650 0078 626F6172 		.ascii	"board\000"
 1650      6400
 1651 007e 0000     		.align	2
 1652              	.LC13:
 1653 0080 6D617472 		.ascii	"matrix\000"
 1653      697800
 1654 0087 00       		.align	2
 1655              	.LC14:
 1656 0088 696E7465 		.ascii	"interrupts\000"
 1656      72727570 
 1656      747300
 1657 0093 00       		.align	2
 1658              	.LC15:
 1659 0094 74696D65 		.ascii	"timer\000"
 1659      7200
 1660 009a 0000     		.align	2
 1661              	.LC16:
 1662 009c 63617073 		.ascii	"capsense\000"
 1662      656E7365 
 1662      00
 1663 00a5 000000   		.align	2
 1664              	.LC17:
 1665 00a8 6C6F6361 		.ascii	"locate opponent\000"
 1665      7465206F 
 1665      70706F6E 
 1665      656E7400 
 1666              		.align	2
 1667              	.LC18:
 1668 00b8 6C6F6361 		.ascii	"local\000"
 1668      6C00
 1669 00be 0000     		.align	2
 1670              	.LC19:
ARM GAS  C:\DOCUME~1\david\LOCALS~1\Temp\cctwZNAq.s 			page 41


 1671 00c0 72656D6F 		.ascii	"remote\000"
 1671      746500
 1672 00c7 00       		.align	2
 1673              	.LC20:
 1674 00c8 55415254 		.ascii	"UART\000"
 1674      00
 1675 00cd 000000   		.align	2
 1676              	.LC21:
 1677 00d0 58426565 		.ascii	"XBee\000"
 1677      00
 1678              		.section	.text.initialize,"ax",%progbits
 1679              		.align	2
 1680              		.global	initialize
 1681              		.thumb
 1682              		.thumb_func
 1683              		.type	initialize, %function
 1684              	initialize:
 1685              	.LFB38:
 578:.\main.c      **** 
 579:.\main.c      **** 
 580:.\main.c      **** 
 581:.\main.c      **** 
 582:.\main.c      **** void initialize () {
 1686              		.loc 1 582 0
 1687              		.cfi_startproc
 1688              		@ args = 0, pretend = 0, frame = 8
 1689              		@ frame_needed = 1, uses_anonymous_args = 0
 1690 0000 80B5     		push	{r7, lr}
 1691              	.LCFI25:
 1692              		.cfi_def_cfa_offset 8
 1693 0002 82B0     		sub	sp, sp, #8
 1694              	.LCFI26:
 1695              		.cfi_def_cfa_offset 16
 1696 0004 00AF     		add	r7, sp, #0
 1697              		.cfi_offset 14, -4
 1698              		.cfi_offset 7, -8
 1699              	.LCFI27:
 1700              		.cfi_def_cfa_register 7
 583:.\main.c      ****     LCD_Start();
 1701              		.loc 1 583 0
 1702 0006 FFF7FEFF 		bl	LCD_Start
 584:.\main.c      ****     LCD_UpdateStatus("initializing...");
 1703              		.loc 1 584 0
 1704 000a 40F20000 		movw	r0, #:lower16:.LC11
 1705 000e C0F20000 		movt	r0, #:upper16:.LC11
 1706 0012 FFF7FEFF 		bl	LCD_UpdateStatus
 585:.\main.c      ****     LCD_UpdateMessage("board");
 1707              		.loc 1 585 0
 1708 0016 40F20000 		movw	r0, #:lower16:.LC12
 1709 001a C0F20000 		movt	r0, #:upper16:.LC12
 1710 001e FFF7FEFF 		bl	LCD_UpdateMessage
 586:.\main.c      ****     clear_board();
 1711              		.loc 1 586 0
 1712 0022 FFF7FEFF 		bl	clear_board
 587:.\main.c      ****     LCD_UpdateMessage("matrix");
 1713              		.loc 1 587 0
 1714 0026 40F20000 		movw	r0, #:lower16:.LC13
ARM GAS  C:\DOCUME~1\david\LOCALS~1\Temp\cctwZNAq.s 			page 42


 1715 002a C0F20000 		movt	r0, #:upper16:.LC13
 1716 002e FFF7FEFF 		bl	LCD_UpdateMessage
 588:.\main.c      ****     matrix_test(true,false);
 1717              		.loc 1 588 0
 1718 0032 4FF00100 		mov	r0, #1
 1719 0036 4FF00001 		mov	r1, #0
 1720 003a FFF7FEFF 		bl	matrix_test
 589:.\main.c      ****     matrix_deluminate();
 1721              		.loc 1 589 0
 1722 003e FFF7FEFF 		bl	matrix_deluminate
 590:.\main.c      ****     LCD_UpdateMessage("interrupts");
 1723              		.loc 1 590 0
 1724 0042 40F20000 		movw	r0, #:lower16:.LC14
 1725 0046 C0F20000 		movt	r0, #:upper16:.LC14
 1726 004a FFF7FEFF 		bl	LCD_UpdateMessage
 591:.\main.c      ****     CyGlobalIntEnable;
 1727              		.loc 1 591 0
 1728              	@ 591 ".\main.c" 1
 1729 004e 62B6     		CPSIE   i
 1730              	@ 0 "" 2
 592:.\main.c      ****     LCD_UpdateMessage("timer");
 1731              		.loc 1 592 0
 1732              		.thumb
 1733 0050 40F20000 		movw	r0, #:lower16:.LC15
 1734 0054 C0F20000 		movt	r0, #:upper16:.LC15
 1735 0058 FFF7FEFF 		bl	LCD_UpdateMessage
 593:.\main.c      ****     Timer_Start();
 1736              		.loc 1 593 0
 1737 005c FFF7FEFF 		bl	Timer_Start
 594:.\main.c      ****     Timer_WritePeriod(BUS_CLK_FREQ/REFRESH_RATE);
 1738              		.loc 1 594 0
 1739 0060 4FF4FA50 		mov	r0, #8000
 1740 0064 FFF7FEFF 		bl	Timer_WritePeriod
 595:.\main.c      ****     LCD_UpdateMessage("capsense");
 1741              		.loc 1 595 0
 1742 0068 40F20000 		movw	r0, #:lower16:.LC16
 1743 006c C0F20000 		movt	r0, #:upper16:.LC16
 1744 0070 FFF7FEFF 		bl	LCD_UpdateMessage
 596:.\main.c      ****     CapSense_Start();
 1745              		.loc 1 596 0
 1746 0074 FFF7FEFF 		bl	CapSense_Start
 597:.\main.c      ****     CapSense_InitializeAllBaselines();
 1747              		.loc 1 597 0
 1748 0078 FFF7FEFF 		bl	CapSense_InitializeAllBaselines
 598:.\main.c      ****     
 599:.\main.c      ****     LCD_UpdateStatus("locate opponent");
 1749              		.loc 1 599 0
 1750 007c 40F20000 		movw	r0, #:lower16:.LC17
 1751 0080 C0F20000 		movt	r0, #:upper16:.LC17
 1752 0084 FFF7FEFF 		bl	LCD_UpdateStatus
 600:.\main.c      ****     ISR_StartEx(toggle);
 1753              		.loc 1 600 0
 1754 0088 40F20000 		movw	r0, #:lower16:toggle
 1755 008c C0F20000 		movt	r0, #:upper16:toggle
 1756 0090 FFF7FEFF 		bl	ISR_StartEx
 601:.\main.c      ****     locating = true;
 1757              		.loc 1 601 0
ARM GAS  C:\DOCUME~1\david\LOCALS~1\Temp\cctwZNAq.s 			page 43


 1758 0094 40F20003 		movw	r3, #:lower16:locating
 1759 0098 C0F20003 		movt	r3, #:upper16:locating
 1760 009c 4FF00102 		mov	r2, #1
 1761 00a0 1A70     		strb	r2, [r3, #0]
 602:.\main.c      ****     uint8 t;
 603:.\main.c      ****     for (t=5; t > 0 ;--t) {
 1762              		.loc 1 603 0
 1763 00a2 4FF00503 		mov	r3, #5
 1764 00a6 FB71     		strb	r3, [r7, #7]
 1765 00a8 28E0     		b	.L112
 1766              	.L115:
 604:.\main.c      ****         LCD_UpdateMessage((player2_local) ? "local" : "remote");
 1767              		.loc 1 604 0
 1768 00aa 40F20003 		movw	r3, #:lower16:player2_local
 1769 00ae C0F20003 		movt	r3, #:upper16:player2_local
 1770 00b2 1B78     		ldrb	r3, [r3, #0]	@ zero_extendqisi2
 1771 00b4 002B     		cmp	r3, #0
 1772 00b6 04D0     		beq	.L113
 1773 00b8 40F20003 		movw	r3, #:lower16:.LC18
 1774 00bc C0F20003 		movt	r3, #:upper16:.LC18
 1775 00c0 03E0     		b	.L114
 1776              	.L113:
 1777 00c2 40F20003 		movw	r3, #:lower16:.LC19
 1778 00c6 C0F20003 		movt	r3, #:upper16:.LC19
 1779              	.L114:
 1780 00ca 1846     		mov	r0, r3
 1781 00cc FFF7FEFF 		bl	LCD_UpdateMessage
 605:.\main.c      ****         CyDelay(500);
 1782              		.loc 1 605 0
 1783 00d0 4FF4FA70 		mov	r0, #500
 1784 00d4 FFF7FEFF 		bl	CyDelay
 606:.\main.c      ****         LCD_Position(1,15);
 1785              		.loc 1 606 0
 1786 00d8 4FF00100 		mov	r0, #1
 1787 00dc 4FF00F01 		mov	r1, #15
 1788 00e0 FFF7FEFF 		bl	LCD_Position
 607:.\main.c      ****         LCD_PrintNumber(t);
 1789              		.loc 1 607 0
 1790 00e4 FB79     		ldrb	r3, [r7, #7]	@ zero_extendqisi2
 1791 00e6 1846     		mov	r0, r3
 1792 00e8 FFF7FEFF 		bl	LCD_PrintNumber
 608:.\main.c      ****         CyDelay(500);
 1793              		.loc 1 608 0
 1794 00ec 4FF4FA70 		mov	r0, #500
 1795 00f0 FFF7FEFF 		bl	CyDelay
 1796              		.loc 1 603 0
 1797 00f4 FB79     		ldrb	r3, [r7, #7]
 1798 00f6 03F1FF33 		add	r3, r3, #-1
 1799 00fa FB71     		strb	r3, [r7, #7]
 1800              	.L112:
 1801 00fc FB79     		ldrb	r3, [r7, #7]	@ zero_extendqisi2
 1802 00fe 002B     		cmp	r3, #0
 1803 0100 D3D1     		bne	.L115
 609:.\main.c      ****     }
 610:.\main.c      ****     locating = false;
 1804              		.loc 1 610 0
 1805 0102 40F20003 		movw	r3, #:lower16:locating
ARM GAS  C:\DOCUME~1\david\LOCALS~1\Temp\cctwZNAq.s 			page 44


 1806 0106 C0F20003 		movt	r3, #:upper16:locating
 1807 010a 4FF00002 		mov	r2, #0
 1808 010e 1A70     		strb	r2, [r3, #0]
 611:.\main.c      ****     ISR_Stop();
 1809              		.loc 1 611 0
 1810 0110 FFF7FEFF 		bl	ISR_Stop
 612:.\main.c      ****     if (!player2_local) {
 1811              		.loc 1 612 0
 1812 0114 40F20003 		movw	r3, #:lower16:player2_local
 1813 0118 C0F20003 		movt	r3, #:upper16:player2_local
 1814 011c 1B78     		ldrb	r3, [r3, #0]	@ zero_extendqisi2
 1815 011e 83F00103 		eor	r3, r3, #1
 1816 0122 DBB2     		uxtb	r3, r3
 1817 0124 002B     		cmp	r3, #0
 1818 0126 19D0     		beq	.L116
 613:.\main.c      ****         LCD_UpdateStatus("initializing...");
 1819              		.loc 1 613 0
 1820 0128 40F20000 		movw	r0, #:lower16:.LC11
 1821 012c C0F20000 		movt	r0, #:upper16:.LC11
 1822 0130 FFF7FEFF 		bl	LCD_UpdateStatus
 614:.\main.c      ****         LCD_UpdateMessage("UART");
 1823              		.loc 1 614 0
 1824 0134 40F20000 		movw	r0, #:lower16:.LC20
 1825 0138 C0F20000 		movt	r0, #:upper16:.LC20
 1826 013c FFF7FEFF 		bl	LCD_UpdateMessage
 615:.\main.c      ****         UART_Start();
 1827              		.loc 1 615 0
 1828 0140 FFF7FEFF 		bl	UART_Start
 616:.\main.c      ****         UART_ClearTxBuffer();
 1829              		.loc 1 616 0
 1830 0144 FFF7FEFF 		bl	UART_ClearTxBuffer
 617:.\main.c      ****         UART_ClearRxBuffer();
 1831              		.loc 1 617 0
 1832 0148 FFF7FEFF 		bl	UART_ClearRxBuffer
 618:.\main.c      ****         LCD_UpdateMessage("XBee");
 1833              		.loc 1 618 0
 1834 014c 40F20000 		movw	r0, #:lower16:.LC21
 1835 0150 C0F20000 		movt	r0, #:upper16:.LC21
 1836 0154 FFF7FEFF 		bl	LCD_UpdateMessage
 619:.\main.c      ****         if (!XBEE_CONFIGURED) configure_XBee();
 1837              		.loc 1 619 0
 1838 0158 FFF7FEFF 		bl	configure_XBee
 1839              	.L116:
 620:.\main.c      ****     }
 621:.\main.c      ****     Beam_StartEx(refresh);
 1840              		.loc 1 621 0
 1841 015c 40F20000 		movw	r0, #:lower16:refresh
 1842 0160 C0F20000 		movt	r0, #:upper16:refresh
 1843 0164 FFF7FEFF 		bl	Beam_StartEx
 622:.\main.c      **** }
 1844              		.loc 1 622 0
 1845 0168 07F10807 		add	r7, r7, #8
 1846 016c BD46     		mov	sp, r7
 1847 016e 80BD     		pop	{r7, pc}
 1848              		.cfi_endproc
 1849              	.LFE38:
 1850              		.size	initialize, .-initialize
ARM GAS  C:\DOCUME~1\david\LOCALS~1\Temp\cctwZNAq.s 			page 45


 1851              		.section	.rodata
 1852 00d5 000000   		.align	2
 1853              	.LC22:
 1854 00d8 636C6561 		.ascii	"cleaning...\000"
 1854      6E696E67 
 1854      2E2E2E00 
 1855              		.section	.text.cleanup,"ax",%progbits
 1856              		.align	2
 1857              		.global	cleanup
 1858              		.thumb
 1859              		.thumb_func
 1860              		.type	cleanup, %function
 1861              	cleanup:
 1862              	.LFB39:
 623:.\main.c      **** 
 624:.\main.c      **** 
 625:.\main.c      **** 
 626:.\main.c      **** 
 627:.\main.c      **** void cleanup () {
 1863              		.loc 1 627 0
 1864              		.cfi_startproc
 1865              		@ args = 0, pretend = 0, frame = 0
 1866              		@ frame_needed = 1, uses_anonymous_args = 0
 1867 0000 80B5     		push	{r7, lr}
 1868              	.LCFI28:
 1869              		.cfi_def_cfa_offset 8
 1870 0002 00AF     		add	r7, sp, #0
 1871              		.cfi_offset 14, -4
 1872              		.cfi_offset 7, -8
 1873              	.LCFI29:
 1874              		.cfi_def_cfa_register 7
 628:.\main.c      ****     LCD_UpdateStatus("cleaning...");
 1875              		.loc 1 628 0
 1876 0004 40F20000 		movw	r0, #:lower16:.LC22
 1877 0008 C0F20000 		movt	r0, #:upper16:.LC22
 1878 000c FFF7FEFF 		bl	LCD_UpdateStatus
 629:.\main.c      ****     if (!player2_local) {
 1879              		.loc 1 629 0
 1880 0010 40F20003 		movw	r3, #:lower16:player2_local
 1881 0014 C0F20003 		movt	r3, #:upper16:player2_local
 1882 0018 1B78     		ldrb	r3, [r3, #0]	@ zero_extendqisi2
 1883 001a 83F00103 		eor	r3, r3, #1
 1884 001e DBB2     		uxtb	r3, r3
 1885 0020 002B     		cmp	r3, #0
 1886 0022 07D0     		beq	.L119
 630:.\main.c      ****         LCD_UpdateMessage("UART");
 1887              		.loc 1 630 0
 1888 0024 40F20000 		movw	r0, #:lower16:.LC20
 1889 0028 C0F20000 		movt	r0, #:upper16:.LC20
 1890 002c FFF7FEFF 		bl	LCD_UpdateMessage
 631:.\main.c      ****         UART_Stop();
 1891              		.loc 1 631 0
 1892 0030 FFF7FEFF 		bl	UART_Stop
 1893              	.L119:
 632:.\main.c      ****     }
 633:.\main.c      ****     LCD_UpdateMessage("capsense");
 1894              		.loc 1 633 0
ARM GAS  C:\DOCUME~1\david\LOCALS~1\Temp\cctwZNAq.s 			page 46


 1895 0034 40F20000 		movw	r0, #:lower16:.LC16
 1896 0038 C0F20000 		movt	r0, #:upper16:.LC16
 1897 003c FFF7FEFF 		bl	LCD_UpdateMessage
 634:.\main.c      ****     CapSense_Stop();
 1898              		.loc 1 634 0
 1899 0040 FFF7FEFF 		bl	CapSense_Stop
 635:.\main.c      ****     LCD_UpdateMessage("timer");
 1900              		.loc 1 635 0
 1901 0044 40F20000 		movw	r0, #:lower16:.LC15
 1902 0048 C0F20000 		movt	r0, #:upper16:.LC15
 1903 004c FFF7FEFF 		bl	LCD_UpdateMessage
 636:.\main.c      ****     Timer_Stop();
 1904              		.loc 1 636 0
 1905 0050 FFF7FEFF 		bl	Timer_Stop
 637:.\main.c      ****     LCD_UpdateMessage("interrupts");
 1906              		.loc 1 637 0
 1907 0054 40F20000 		movw	r0, #:lower16:.LC14
 1908 0058 C0F20000 		movt	r0, #:upper16:.LC14
 1909 005c FFF7FEFF 		bl	LCD_UpdateMessage
 638:.\main.c      ****     Beam_Stop();
 1910              		.loc 1 638 0
 1911 0060 FFF7FEFF 		bl	Beam_Stop
 639:.\main.c      ****     LCD_Stop();
 1912              		.loc 1 639 0
 1913 0064 FFF7FEFF 		bl	LCD_Stop
 640:.\main.c      **** }
 1914              		.loc 1 640 0
 1915 0068 80BD     		pop	{r7, pc}
 1916              		.cfi_endproc
 1917              	.LFE39:
 1918              		.size	cleanup, .-cleanup
 1919 006a 00BF     		.section	.rodata
 1920              		.align	2
 1921              	.LC23:
 1922 00e4 506C6163 		.ascii	"Place a disc!\000"
 1922      65206120 
 1922      64697363 
 1922      2100
 1923 00f2 0000     		.align	2
 1924              	.LC24:
 1925 00f4 47616D65 		.ascii	"Game Over\000"
 1925      204F7665 
 1925      7200
 1926 00fe 0000     		.align	2
 1927              	.LC25:
 1928 0100 426F6172 		.ascii	"Board Full\000"
 1928      64204675 
 1928      6C6C00
 1929 010b 00       		.align	2
 1930              	.LC26:
 1931 010c 436F6C75 		.ascii	"Column Full\000"
 1931      6D6E2046 
 1931      756C6C00 
 1932              		.section	.text.get_move,"ax",%progbits
 1933              		.align	2
 1934              		.global	get_move
 1935              		.thumb
ARM GAS  C:\DOCUME~1\david\LOCALS~1\Temp\cctwZNAq.s 			page 47


 1936              		.thumb_func
 1937              		.type	get_move, %function
 1938              	get_move:
 1939              	.LFB40:
 641:.\main.c      **** 
 642:.\main.c      **** 
 643:.\main.c      **** 
 644:.\main.c      **** 
 645:.\main.c      **** uint8 get_move () {
 1940              		.loc 1 645 0
 1941              		.cfi_startproc
 1942              		@ args = 0, pretend = 0, frame = 8
 1943              		@ frame_needed = 1, uses_anonymous_args = 0
 1944 0000 80B5     		push	{r7, lr}
 1945              	.LCFI30:
 1946              		.cfi_def_cfa_offset 8
 1947 0002 82B0     		sub	sp, sp, #8
 1948              	.LCFI31:
 1949              		.cfi_def_cfa_offset 16
 1950 0004 00AF     		add	r7, sp, #0
 1951              		.cfi_offset 14, -4
 1952              		.cfi_offset 7, -8
 1953              	.LCFI32:
 1954              		.cfi_def_cfa_register 7
 646:.\main.c      ****     LCD_UpdateMessage("Place a disc!");
 1955              		.loc 1 646 0
 1956 0006 40F20000 		movw	r0, #:lower16:.LC23
 1957 000a C0F20000 		movt	r0, #:upper16:.LC23
 1958 000e FFF7FEFF 		bl	LCD_UpdateMessage
 647:.\main.c      ****     uint8 disc = 0;
 1959              		.loc 1 647 0
 1960 0012 4FF00003 		mov	r3, #0
 1961 0016 3B70     		strb	r3, [r7, #0]
 648:.\main.c      ****     while (player1[1][disc] || player2[1][disc]) {
 1962              		.loc 1 648 0
 1963 0018 13E0     		b	.L122
 1964              	.L124:
 649:.\main.c      ****         if (++disc >= MATRIX_COLS) {
 1965              		.loc 1 649 0
 1966 001a 3B78     		ldrb	r3, [r7, #0]
 1967 001c 03F10103 		add	r3, r3, #1
 1968 0020 3B70     		strb	r3, [r7, #0]
 1969 0022 3B78     		ldrb	r3, [r7, #0]	@ zero_extendqisi2
 1970 0024 072B     		cmp	r3, #7
 1971 0026 0CD9     		bls	.L122
 650:.\main.c      ****             LCD_UpdateStatus("Game Over");
 1972              		.loc 1 650 0
 1973 0028 40F20000 		movw	r0, #:lower16:.LC24
 1974 002c C0F20000 		movt	r0, #:upper16:.LC24
 1975 0030 FFF7FEFF 		bl	LCD_UpdateStatus
 651:.\main.c      ****             LCD_UpdateMessage("Board Full");
 1976              		.loc 1 651 0
 1977 0034 40F20000 		movw	r0, #:lower16:.LC25
 1978 0038 C0F20000 		movt	r0, #:upper16:.LC25
 1979 003c FFF7FEFF 		bl	LCD_UpdateMessage
 1980              	.L123:
 652:.\main.c      ****             while (true);
ARM GAS  C:\DOCUME~1\david\LOCALS~1\Temp\cctwZNAq.s 			page 48


 1981              		.loc 1 652 0
 1982 0040 FEE7     		b	.L123
 1983              	.L122:
 1984              		.loc 1 648 0
 1985 0042 3A78     		ldrb	r2, [r7, #0]	@ zero_extendqisi2
 1986 0044 40F20003 		movw	r3, #:lower16:player1
 1987 0048 C0F20003 		movt	r3, #:upper16:player1
 1988 004c 1344     		add	r3, r2, r3
 1989 004e 1B7A     		ldrb	r3, [r3, #8]	@ zero_extendqisi2
 1990 0050 002B     		cmp	r3, #0
 1991 0052 E2D1     		bne	.L124
 1992 0054 3A78     		ldrb	r2, [r7, #0]	@ zero_extendqisi2
 1993 0056 40F20003 		movw	r3, #:lower16:player2
 1994 005a C0F20003 		movt	r3, #:upper16:player2
 1995 005e 1344     		add	r3, r2, r3
 1996 0060 1B7A     		ldrb	r3, [r3, #8]	@ zero_extendqisi2
 1997 0062 002B     		cmp	r3, #0
 1998 0064 D9D1     		bne	.L124
 653:.\main.c      ****         }
 654:.\main.c      ****     }
 655:.\main.c      ****     bool dropped = false;
 1999              		.loc 1 655 0
 2000 0066 4FF00003 		mov	r3, #0
 2001 006a 7B70     		strb	r3, [r7, #1]
 2002              	.L139:
 656:.\main.c      ****     do {
 657:.\main.c      ****         CapSense_UpdateEnabledBaselines();
 2003              		.loc 1 657 0
 2004 006c FFF7FEFF 		bl	CapSense_UpdateEnabledBaselines
 658:.\main.c      ****         CapSense_UpdateEnabledBaselines(); //Helps avoid auto-dropping for some reason.
 2005              		.loc 1 658 0
 2006 0070 FFF7FEFF 		bl	CapSense_UpdateEnabledBaselines
 659:.\main.c      ****         CapSense_ScanEnabledWidgets();
 2007              		.loc 1 659 0
 2008 0074 FFF7FEFF 		bl	CapSense_ScanEnabledWidgets
 2009              	.L125:
 660:.\main.c      ****         while (CapSense_IsBusy());
 2010              		.loc 1 660 0
 2011 0078 FFF7FEFF 		bl	CapSense_IsBusy
 2012 007c 0346     		mov	r3, r0
 2013 007e 002B     		cmp	r3, #0
 2014 0080 FAD1     		bne	.L125
 661:.\main.c      ****         if ((player1_turn && CapSense_CheckIsWidgetActive(CapSense_BUTTON0__BTN))
 2015              		.loc 1 661 0
 2016 0082 40F20003 		movw	r3, #:lower16:player1_turn
 2017 0086 C0F20003 		movt	r3, #:upper16:player1_turn
 2018 008a 1B78     		ldrb	r3, [r3, #0]	@ zero_extendqisi2
 2019 008c 002B     		cmp	r3, #0
 2020 008e 06D0     		beq	.L126
 2021 0090 4FF00100 		mov	r0, #1
 2022 0094 FFF7FEFF 		bl	CapSense_CheckIsWidgetActive
 2023 0098 0346     		mov	r3, r0
 2024 009a 002B     		cmp	r3, #0
 2025 009c 10D1     		bne	.L127
 2026              	.L126:
 2027 009e 40F20003 		movw	r3, #:lower16:player1_turn
 2028 00a2 C0F20003 		movt	r3, #:upper16:player1_turn
ARM GAS  C:\DOCUME~1\david\LOCALS~1\Temp\cctwZNAq.s 			page 49


 2029 00a6 1B78     		ldrb	r3, [r3, #0]	@ zero_extendqisi2
 2030 00a8 83F00103 		eor	r3, r3, #1
 2031 00ac DBB2     		uxtb	r3, r3
 2032 00ae 002B     		cmp	r3, #0
 2033 00b0 24D0     		beq	.L128
 662:.\main.c      ****         || (!player1_turn && CapSense_CheckIsWidgetActive(CapSense_BUTTON1__BTN))) { //Helps avoid 
 2034              		.loc 1 662 0
 2035 00b2 4FF00200 		mov	r0, #2
 2036 00b6 FFF7FEFF 		bl	CapSense_CheckIsWidgetActive
 2037 00ba 0346     		mov	r3, r0
 2038              		.loc 1 661 0
 2039 00bc 002B     		cmp	r3, #0
 2040 00be 1DD0     		beq	.L128
 2041              	.L127:
 663:.\main.c      ****             if (player1[1][disc] || player2[1][disc]) LCD_UpdateMessage("Column Full");
 2042              		.loc 1 663 0
 2043 00c0 3A78     		ldrb	r2, [r7, #0]	@ zero_extendqisi2
 2044 00c2 40F20003 		movw	r3, #:lower16:player1
 2045 00c6 C0F20003 		movt	r3, #:upper16:player1
 2046 00ca 1344     		add	r3, r2, r3
 2047 00cc 1B7A     		ldrb	r3, [r3, #8]	@ zero_extendqisi2
 2048 00ce 002B     		cmp	r3, #0
 2049 00d0 08D1     		bne	.L129
 2050 00d2 3A78     		ldrb	r2, [r7, #0]	@ zero_extendqisi2
 2051 00d4 40F20003 		movw	r3, #:lower16:player2
 2052 00d8 C0F20003 		movt	r3, #:upper16:player2
 2053 00dc 1344     		add	r3, r2, r3
 2054 00de 1B7A     		ldrb	r3, [r3, #8]	@ zero_extendqisi2
 2055 00e0 002B     		cmp	r3, #0
 2056 00e2 07D0     		beq	.L130
 2057              	.L129:
 2058 00e4 40F20000 		movw	r0, #:lower16:.LC26
 2059 00e8 C0F20000 		movt	r0, #:upper16:.LC26
 2060 00ec FFF7FEFF 		bl	LCD_UpdateMessage
 2061 00f0 00BF     		nop
 2062              		.loc 1 661 0
 2063 00f2 76E0     		b	.L132
 2064              	.L130:
 664:.\main.c      ****             else dropped = true;
 2065              		.loc 1 664 0
 2066 00f4 4FF00103 		mov	r3, #1
 2067 00f8 7B70     		strb	r3, [r7, #1]
 2068              		.loc 1 661 0
 2069 00fa 72E0     		b	.L132
 2070              	.L128:
 2071              	.LBB13:
 665:.\main.c      ****         }
 666:.\main.c      ****         else {
 667:.\main.c      ****             player1[0][disc] = player2[0][disc] = false;
 2072              		.loc 1 667 0
 2073 00fc 3978     		ldrb	r1, [r7, #0]	@ zero_extendqisi2
 2074 00fe 3A78     		ldrb	r2, [r7, #0]	@ zero_extendqisi2
 2075 0100 40F20003 		movw	r3, #:lower16:player2
 2076 0104 C0F20003 		movt	r3, #:upper16:player2
 2077 0108 4FF00000 		mov	r0, #0
 2078 010c 9854     		strb	r0, [r3, r2]
 2079 010e 40F20003 		movw	r3, #:lower16:player2
ARM GAS  C:\DOCUME~1\david\LOCALS~1\Temp\cctwZNAq.s 			page 50


 2080 0112 C0F20003 		movt	r3, #:upper16:player2
 2081 0116 9A5C     		ldrb	r2, [r3, r2]	@ zero_extendqisi2
 2082 0118 40F20003 		movw	r3, #:lower16:player1
 2083 011c C0F20003 		movt	r3, #:upper16:player1
 2084 0120 5A54     		strb	r2, [r3, r1]
 668:.\main.c      ****             uint16 reading = (CapSense_GetCentroidPos(CapSense_LINEARSLIDER0__LS)*(MATRIX_COLS-1))/
 2085              		.loc 1 668 0
 2086 0122 4FF00000 		mov	r0, #0
 2087 0126 FFF7FEFF 		bl	CapSense_GetCentroidPos
 2088 012a 0346     		mov	r3, r0
 2089 012c 1A46     		mov	r2, r3
 2090 012e 1346     		mov	r3, r2
 2091 0130 4FEAC303 		lsl	r3, r3, #3
 2092 0134 C2EB0302 		rsb	r2, r2, r3
 2093 0138 40F2EB73 		movw	r3, #:lower16:354224107
 2094 013c C1F21D53 		movt	r3, #:upper16:354224107
 2095 0140 83FB0213 		smull	r1, r3, r3, r2
 2096 0144 4FEAE301 		asr	r1, r3, #3
 2097 0148 4FEAE273 		asr	r3, r2, #31
 2098 014c C3EB0103 		rsb	r3, r3, r1
 2099 0150 7B80     		strh	r3, [r7, #2]	@ movhi
 669:.\main.c      ****             if (reading < 8) disc = reading;
 2100              		.loc 1 669 0
 2101 0152 7B88     		ldrh	r3, [r7, #2]
 2102 0154 072B     		cmp	r3, #7
 2103 0156 01D8     		bhi	.L133
 2104 0158 7B88     		ldrh	r3, [r7, #2]	@ movhi
 2105 015a 3B70     		strb	r3, [r7, #0]
 2106              	.L133:
 670:.\main.c      ****             
 671:.\main.c      ****             //guide the disc
 672:.\main.c      ****             int dir = 1;
 2107              		.loc 1 672 0
 2108 015c 4FF00103 		mov	r3, #1
 2109 0160 7B60     		str	r3, [r7, #4]
 673:.\main.c      ****             while (player1[1][disc] || player2[1][disc]) {
 2110              		.loc 1 673 0
 2111 0162 14E0     		b	.L134
 2112              	.L137:
 674:.\main.c      ****                 if (disc >= MATRIX_COLS-1)  dir = -1;
 2113              		.loc 1 674 0
 2114 0164 3B78     		ldrb	r3, [r7, #0]	@ zero_extendqisi2
 2115 0166 062B     		cmp	r3, #6
 2116 0168 02D9     		bls	.L135
 2117 016a 4FF0FF33 		mov	r3, #-1
 2118 016e 7B60     		str	r3, [r7, #4]
 2119              	.L135:
 675:.\main.c      ****                 if (disc == 0 && dir == -1) dir =  1; // There may be redundancy here.
 2120              		.loc 1 675 0
 2121 0170 3B78     		ldrb	r3, [r7, #0]	@ zero_extendqisi2
 2122 0172 002B     		cmp	r3, #0
 2123 0174 06D1     		bne	.L136
 2124 0176 7B68     		ldr	r3, [r7, #4]
 2125 0178 B3F1FF3F 		cmp	r3, #-1
 2126 017c 02D1     		bne	.L136
 2127 017e 4FF00103 		mov	r3, #1
 2128 0182 7B60     		str	r3, [r7, #4]
ARM GAS  C:\DOCUME~1\david\LOCALS~1\Temp\cctwZNAq.s 			page 51


 2129              	.L136:
 676:.\main.c      ****                 disc += dir;
 2130              		.loc 1 676 0
 2131 0184 7B68     		ldr	r3, [r7, #4]
 2132 0186 DAB2     		uxtb	r2, r3
 2133 0188 3B78     		ldrb	r3, [r7, #0]
 2134 018a 1344     		add	r3, r2, r3
 2135 018c 3B70     		strb	r3, [r7, #0]
 2136              	.L134:
 2137              		.loc 1 673 0
 2138 018e 3A78     		ldrb	r2, [r7, #0]	@ zero_extendqisi2
 2139 0190 40F20003 		movw	r3, #:lower16:player1
 2140 0194 C0F20003 		movt	r3, #:upper16:player1
 2141 0198 1344     		add	r3, r2, r3
 2142 019a 1B7A     		ldrb	r3, [r3, #8]	@ zero_extendqisi2
 2143 019c 002B     		cmp	r3, #0
 2144 019e E1D1     		bne	.L137
 2145 01a0 3A78     		ldrb	r2, [r7, #0]	@ zero_extendqisi2
 2146 01a2 40F20003 		movw	r3, #:lower16:player2
 2147 01a6 C0F20003 		movt	r3, #:upper16:player2
 2148 01aa 1344     		add	r3, r2, r3
 2149 01ac 1B7A     		ldrb	r3, [r3, #8]	@ zero_extendqisi2
 2150 01ae 002B     		cmp	r3, #0
 2151 01b0 D8D1     		bne	.L137
 677:.\main.c      ****             }
 678:.\main.c      ****             if (player1_turn) player1[0][disc] = true;
 2152              		.loc 1 678 0
 2153 01b2 40F20003 		movw	r3, #:lower16:player1_turn
 2154 01b6 C0F20003 		movt	r3, #:upper16:player1_turn
 2155 01ba 1B78     		ldrb	r3, [r3, #0]	@ zero_extendqisi2
 2156 01bc 002B     		cmp	r3, #0
 2157 01be 08D0     		beq	.L138
 2158 01c0 3A78     		ldrb	r2, [r7, #0]	@ zero_extendqisi2
 2159 01c2 40F20003 		movw	r3, #:lower16:player1
 2160 01c6 C0F20003 		movt	r3, #:upper16:player1
 2161 01ca 4FF00101 		mov	r1, #1
 2162 01ce 9954     		strb	r1, [r3, r2]
 2163 01d0 07E0     		b	.L132
 2164              	.L138:
 679:.\main.c      ****             else              player2[0][disc] = true;
 2165              		.loc 1 679 0
 2166 01d2 3A78     		ldrb	r2, [r7, #0]	@ zero_extendqisi2
 2167 01d4 40F20003 		movw	r3, #:lower16:player2
 2168 01d8 C0F20003 		movt	r3, #:upper16:player2
 2169 01dc 4FF00101 		mov	r1, #1
 2170 01e0 9954     		strb	r1, [r3, r2]
 2171              	.L132:
 2172              	.LBE13:
 680:.\main.c      ****         }
 681:.\main.c      ****     } while (!dropped);
 2173              		.loc 1 681 0
 2174 01e2 7B78     		ldrb	r3, [r7, #1]
 2175 01e4 83F00103 		eor	r3, r3, #1
 2176 01e8 DBB2     		uxtb	r3, r3
 2177 01ea 002B     		cmp	r3, #0
 2178 01ec 7FF43EAF 		bne	.L139
 682:.\main.c      ****     return disc;
ARM GAS  C:\DOCUME~1\david\LOCALS~1\Temp\cctwZNAq.s 			page 52


 2179              		.loc 1 682 0
 2180 01f0 3B78     		ldrb	r3, [r7, #0]	@ zero_extendqisi2
 683:.\main.c      **** }
 2181              		.loc 1 683 0
 2182 01f2 1846     		mov	r0, r3
 2183 01f4 07F10807 		add	r7, r7, #8
 2184 01f8 BD46     		mov	sp, r7
 2185 01fa 80BD     		pop	{r7, pc}
 2186              		.cfi_endproc
 2187              	.LFE40:
 2188              		.size	get_move, .-get_move
 2189              		.section	.text.animate,"ax",%progbits
 2190              		.align	2
 2191              		.global	animate
 2192              		.thumb
 2193              		.thumb_func
 2194              		.type	animate, %function
 2195              	animate:
 2196              	.LFB41:
 684:.\main.c      **** 
 685:.\main.c      **** 
 686:.\main.c      **** 
 687:.\main.c      **** 
 688:.\main.c      **** uint8 animate ( uint8 disc ) {
 2197              		.loc 1 688 0
 2198              		.cfi_startproc
 2199              		@ args = 0, pretend = 0, frame = 16
 2200              		@ frame_needed = 1, uses_anonymous_args = 0
 2201 0000 80B5     		push	{r7, lr}
 2202              	.LCFI33:
 2203              		.cfi_def_cfa_offset 8
 2204 0002 84B0     		sub	sp, sp, #16
 2205              	.LCFI34:
 2206              		.cfi_def_cfa_offset 24
 2207 0004 00AF     		add	r7, sp, #0
 2208              		.cfi_offset 14, -4
 2209              		.cfi_offset 7, -8
 2210              	.LCFI35:
 2211              		.cfi_def_cfa_register 7
 2212 0006 0346     		mov	r3, r0
 2213 0008 FB71     		strb	r3, [r7, #7]
 689:.\main.c      ****     player1[0][disc] = player2[0][disc] = false;
 2214              		.loc 1 689 0
 2215 000a F979     		ldrb	r1, [r7, #7]	@ zero_extendqisi2
 2216 000c FA79     		ldrb	r2, [r7, #7]	@ zero_extendqisi2
 2217 000e 40F20003 		movw	r3, #:lower16:player2
 2218 0012 C0F20003 		movt	r3, #:upper16:player2
 2219 0016 4FF00000 		mov	r0, #0
 2220 001a 9854     		strb	r0, [r3, r2]
 2221 001c 40F20003 		movw	r3, #:lower16:player2
 2222 0020 C0F20003 		movt	r3, #:upper16:player2
 2223 0024 9A5C     		ldrb	r2, [r3, r2]	@ zero_extendqisi2
 2224 0026 40F20003 		movw	r3, #:lower16:player1
 2225 002a C0F20003 		movt	r3, #:upper16:player1
 2226 002e 5A54     		strb	r2, [r3, r1]
 690:.\main.c      ****     uint8 r;
 691:.\main.c      ****     for (r=1; r < MATRIX_ROWS ;++r) {
ARM GAS  C:\DOCUME~1\david\LOCALS~1\Temp\cctwZNAq.s 			page 53


 2227              		.loc 1 691 0
 2228 0030 4FF00103 		mov	r3, #1
 2229 0034 FB73     		strb	r3, [r7, #15]
 2230 0036 6CE0     		b	.L142
 2231              	.L148:
 692:.\main.c      ****         if (player1_turn) player1[r][disc] = true;
 2232              		.loc 1 692 0
 2233 0038 40F20003 		movw	r3, #:lower16:player1_turn
 2234 003c C0F20003 		movt	r3, #:upper16:player1_turn
 2235 0040 1B78     		ldrb	r3, [r3, #0]	@ zero_extendqisi2
 2236 0042 002B     		cmp	r3, #0
 2237 0044 0DD0     		beq	.L143
 2238 0046 F97B     		ldrb	r1, [r7, #15]	@ zero_extendqisi2
 2239 0048 FA79     		ldrb	r2, [r7, #7]	@ zero_extendqisi2
 2240 004a 40F20003 		movw	r3, #:lower16:player1
 2241 004e C0F20003 		movt	r3, #:upper16:player1
 2242 0052 4FEAC101 		lsl	r1, r1, #3
 2243 0056 0A44     		add	r2, r1, r2
 2244 0058 1344     		add	r3, r2, r3
 2245 005a 4FF00102 		mov	r2, #1
 2246 005e 1A70     		strb	r2, [r3, #0]
 2247 0060 0CE0     		b	.L144
 2248              	.L143:
 693:.\main.c      ****         else              player2[r][disc] = true;
 2249              		.loc 1 693 0
 2250 0062 F97B     		ldrb	r1, [r7, #15]	@ zero_extendqisi2
 2251 0064 FA79     		ldrb	r2, [r7, #7]	@ zero_extendqisi2
 2252 0066 40F20003 		movw	r3, #:lower16:player2
 2253 006a C0F20003 		movt	r3, #:upper16:player2
 2254 006e 4FEAC101 		lsl	r1, r1, #3
 2255 0072 0A44     		add	r2, r1, r2
 2256 0074 1344     		add	r3, r2, r3
 2257 0076 4FF00102 		mov	r2, #1
 2258 007a 1A70     		strb	r2, [r3, #0]
 2259              	.L144:
 694:.\main.c      ****         if (player1[r+1][disc] || player2[r+1][disc] || r+1 == MATRIX_ROWS) break;
 2260              		.loc 1 694 0
 2261 007c FB7B     		ldrb	r3, [r7, #15]	@ zero_extendqisi2
 2262 007e 03F10101 		add	r1, r3, #1
 2263 0082 FA79     		ldrb	r2, [r7, #7]	@ zero_extendqisi2
 2264 0084 40F20003 		movw	r3, #:lower16:player1
 2265 0088 C0F20003 		movt	r3, #:upper16:player1
 2266 008c 4FEAC101 		lsl	r1, r1, #3
 2267 0090 0A44     		add	r2, r1, r2
 2268 0092 1344     		add	r3, r2, r3
 2269 0094 1B78     		ldrb	r3, [r3, #0]	@ zero_extendqisi2
 2270 0096 002B     		cmp	r3, #0
 2271 0098 3ED1     		bne	.L145
 2272 009a FB7B     		ldrb	r3, [r7, #15]	@ zero_extendqisi2
 2273 009c 03F10101 		add	r1, r3, #1
 2274 00a0 FA79     		ldrb	r2, [r7, #7]	@ zero_extendqisi2
 2275 00a2 40F20003 		movw	r3, #:lower16:player2
 2276 00a6 C0F20003 		movt	r3, #:upper16:player2
 2277 00aa 4FEAC101 		lsl	r1, r1, #3
 2278 00ae 0A44     		add	r2, r1, r2
 2279 00b0 1344     		add	r3, r2, r3
 2280 00b2 1B78     		ldrb	r3, [r3, #0]	@ zero_extendqisi2
ARM GAS  C:\DOCUME~1\david\LOCALS~1\Temp\cctwZNAq.s 			page 54


 2281 00b4 002B     		cmp	r3, #0
 2282 00b6 2FD1     		bne	.L145
 2283 00b8 FB7B     		ldrb	r3, [r7, #15]	@ zero_extendqisi2
 2284 00ba 072B     		cmp	r3, #7
 2285 00bc 2CD0     		beq	.L145
 695:.\main.c      ****         else CyDelay(20);
 2286              		.loc 1 695 0
 2287 00be 4FF01400 		mov	r0, #20
 2288 00c2 FFF7FEFF 		bl	CyDelay
 696:.\main.c      ****         if (player1_turn) player1[r][disc] = false;
 2289              		.loc 1 696 0
 2290 00c6 40F20003 		movw	r3, #:lower16:player1_turn
 2291 00ca C0F20003 		movt	r3, #:upper16:player1_turn
 2292 00ce 1B78     		ldrb	r3, [r3, #0]	@ zero_extendqisi2
 2293 00d0 002B     		cmp	r3, #0
 2294 00d2 0DD0     		beq	.L146
 2295 00d4 F97B     		ldrb	r1, [r7, #15]	@ zero_extendqisi2
 2296 00d6 FA79     		ldrb	r2, [r7, #7]	@ zero_extendqisi2
 2297 00d8 40F20003 		movw	r3, #:lower16:player1
 2298 00dc C0F20003 		movt	r3, #:upper16:player1
 2299 00e0 4FEAC101 		lsl	r1, r1, #3
 2300 00e4 0A44     		add	r2, r1, r2
 2301 00e6 1344     		add	r3, r2, r3
 2302 00e8 4FF00002 		mov	r2, #0
 2303 00ec 1A70     		strb	r2, [r3, #0]
 2304 00ee 0CE0     		b	.L147
 2305              	.L146:
 697:.\main.c      ****         else              player2[r][disc] = false;
 2306              		.loc 1 697 0
 2307 00f0 F97B     		ldrb	r1, [r7, #15]	@ zero_extendqisi2
 2308 00f2 FA79     		ldrb	r2, [r7, #7]	@ zero_extendqisi2
 2309 00f4 40F20003 		movw	r3, #:lower16:player2
 2310 00f8 C0F20003 		movt	r3, #:upper16:player2
 2311 00fc 4FEAC101 		lsl	r1, r1, #3
 2312 0100 0A44     		add	r2, r1, r2
 2313 0102 1344     		add	r3, r2, r3
 2314 0104 4FF00002 		mov	r2, #0
 2315 0108 1A70     		strb	r2, [r3, #0]
 2316              	.L147:
 2317              		.loc 1 691 0
 2318 010a FB7B     		ldrb	r3, [r7, #15]
 2319 010c 03F10103 		add	r3, r3, #1
 2320 0110 FB73     		strb	r3, [r7, #15]
 2321              	.L142:
 2322 0112 FB7B     		ldrb	r3, [r7, #15]	@ zero_extendqisi2
 2323 0114 072B     		cmp	r3, #7
 2324 0116 8FD9     		bls	.L148
 2325              	.L145:
 698:.\main.c      ****     }
 699:.\main.c      ****     return r;
 2326              		.loc 1 699 0
 2327 0118 FB7B     		ldrb	r3, [r7, #15]	@ zero_extendqisi2
 700:.\main.c      **** }
 2328              		.loc 1 700 0
 2329 011a 1846     		mov	r0, r3
 2330 011c 07F11007 		add	r7, r7, #16
 2331 0120 BD46     		mov	sp, r7
ARM GAS  C:\DOCUME~1\david\LOCALS~1\Temp\cctwZNAq.s 			page 55


 2332 0122 80BD     		pop	{r7, pc}
 2333              		.cfi_endproc
 2334              	.LFE41:
 2335              		.size	animate, .-animate
 2336              		.section	.rodata
 2337              		.align	2
 2338              	.LC27:
 2339 0118 436F6E6E 		.ascii	"Connect 4\000"
 2339      65637420 
 2339      3400
 2340 0122 0000     		.align	2
 2341              	.LC28:
 2342 0124 506C6179 		.ascii	"Player 1\000"
 2342      65722031 
 2342      00
 2343 012d 000000   		.align	2
 2344              	.LC29:
 2345 0130 506C6179 		.ascii	"Player 2\000"
 2345      65722032 
 2345      00
 2346 0139 000000   		.align	2
 2347              	.LC30:
 2348 013c 77616974 		.ascii	"waiting...\000"
 2348      696E672E 
 2348      2E2E00
 2349 0147 00       		.section	.text.main,"ax",%progbits
 2350              		.align	2
 2351              		.global	main
 2352              		.thumb
 2353              		.thumb_func
 2354              		.type	main, %function
 2355              	main:
 2356              	.LFB42:
 701:.\main.c      **** 
 702:.\main.c      **** 
 703:.\main.c      **** 
 704:.\main.c      **** 
 705:.\main.c      **** void main () {
 2357              		.loc 1 705 0
 2358              		.cfi_startproc
 2359              		@ args = 0, pretend = 0, frame = 8
 2360              		@ frame_needed = 1, uses_anonymous_args = 0
 2361 0000 80B5     		push	{r7, lr}
 2362              	.LCFI36:
 2363              		.cfi_def_cfa_offset 8
 2364 0002 82B0     		sub	sp, sp, #8
 2365              	.LCFI37:
 2366              		.cfi_def_cfa_offset 16
 2367 0004 00AF     		add	r7, sp, #0
 2368              		.cfi_offset 14, -4
 2369              		.cfi_offset 7, -8
 2370              	.LCFI38:
 2371              		.cfi_def_cfa_register 7
 706:.\main.c      ****     initialize();
 2372              		.loc 1 706 0
 2373 0006 FFF7FEFF 		bl	initialize
 707:.\main.c      ****     LCD_UpdateStatus("Connect 4");
ARM GAS  C:\DOCUME~1\david\LOCALS~1\Temp\cctwZNAq.s 			page 56


 2374              		.loc 1 707 0
 2375 000a 40F20000 		movw	r0, #:lower16:.LC27
 2376 000e C0F20000 		movt	r0, #:upper16:.LC27
 2377 0012 FFF7FEFF 		bl	LCD_UpdateStatus
 2378              	.L157:
 708:.\main.c      ****     while (true) {
 709:.\main.c      ****         if (player1_turn || player2_local) {
 2379              		.loc 1 709 0
 2380 0016 40F20003 		movw	r3, #:lower16:player1_turn
 2381 001a C0F20003 		movt	r3, #:upper16:player1_turn
 2382 001e 1B78     		ldrb	r3, [r3, #0]	@ zero_extendqisi2
 2383 0020 002B     		cmp	r3, #0
 2384 0022 06D1     		bne	.L151
 2385 0024 40F20003 		movw	r3, #:lower16:player2_local
 2386 0028 C0F20003 		movt	r3, #:upper16:player2_local
 2387 002c 1B78     		ldrb	r3, [r3, #0]	@ zero_extendqisi2
 2388 002e 002B     		cmp	r3, #0
 2389 0030 44D0     		beq	.L152
 2390              	.L151:
 2391              	.LBB14:
 710:.\main.c      ****             LCD_UpdateStatus((player1_turn) ? "Player 1" : "Player 2");
 2392              		.loc 1 710 0
 2393 0032 40F20003 		movw	r3, #:lower16:player1_turn
 2394 0036 C0F20003 		movt	r3, #:upper16:player1_turn
 2395 003a 1B78     		ldrb	r3, [r3, #0]	@ zero_extendqisi2
 2396 003c 002B     		cmp	r3, #0
 2397 003e 04D0     		beq	.L153
 2398 0040 40F20003 		movw	r3, #:lower16:.LC28
 2399 0044 C0F20003 		movt	r3, #:upper16:.LC28
 2400 0048 03E0     		b	.L154
 2401              	.L153:
 2402 004a 40F20003 		movw	r3, #:lower16:.LC29
 2403 004e C0F20003 		movt	r3, #:upper16:.LC29
 2404              	.L154:
 2405 0052 1846     		mov	r0, r3
 2406 0054 FFF7FEFF 		bl	LCD_UpdateStatus
 711:.\main.c      ****             uint8 c = get_move();
 2407              		.loc 1 711 0
 2408 0058 FFF7FEFF 		bl	get_move
 2409 005c 0346     		mov	r3, r0
 2410 005e BB71     		strb	r3, [r7, #6]
 712:.\main.c      ****             uint8 r = animate(c);
 2411              		.loc 1 712 0
 2412 0060 BB79     		ldrb	r3, [r7, #6]	@ zero_extendqisi2
 2413 0062 1846     		mov	r0, r3
 2414 0064 FFF7FEFF 		bl	animate
 2415 0068 0346     		mov	r3, r0
 2416 006a FB71     		strb	r3, [r7, #7]
 713:.\main.c      ****             if (!player2_local) send_move(MATRIX_ROWS-r,c+1);
 2417              		.loc 1 713 0
 2418 006c 40F20003 		movw	r3, #:lower16:player2_local
 2419 0070 C0F20003 		movt	r3, #:upper16:player2_local
 2420 0074 1B78     		ldrb	r3, [r3, #0]	@ zero_extendqisi2
 2421 0076 83F00103 		eor	r3, r3, #1
 2422 007a DBB2     		uxtb	r3, r3
 2423 007c 002B     		cmp	r3, #0
 2424 007e 0BD0     		beq	.L155
ARM GAS  C:\DOCUME~1\david\LOCALS~1\Temp\cctwZNAq.s 			page 57


 2425 0080 FB79     		ldrb	r3, [r7, #7]
 2426 0082 C3F10803 		rsb	r3, r3, #8
 2427 0086 DAB2     		uxtb	r2, r3
 2428 0088 BB79     		ldrb	r3, [r7, #6]
 2429 008a 03F10103 		add	r3, r3, #1
 2430 008e DBB2     		uxtb	r3, r3
 2431 0090 1046     		mov	r0, r2
 2432 0092 1946     		mov	r1, r3
 2433 0094 FFF7FEFF 		bl	send_move
 2434              	.L155:
 714:.\main.c      ****             winner_check();
 2435              		.loc 1 714 0
 2436 0098 FFF7FEFF 		bl	winner_check
 715:.\main.c      ****             player1_turn = !player1_turn;
 2437              		.loc 1 715 0
 2438 009c 40F20003 		movw	r3, #:lower16:player1_turn
 2439 00a0 C0F20003 		movt	r3, #:upper16:player1_turn
 2440 00a4 1B78     		ldrb	r3, [r3, #0]	@ zero_extendqisi2
 2441 00a6 83F00103 		eor	r3, r3, #1
 2442 00aa DBB2     		uxtb	r3, r3
 2443 00ac DAB2     		uxtb	r2, r3
 2444 00ae 40F20003 		movw	r3, #:lower16:player1_turn
 2445 00b2 C0F20003 		movt	r3, #:upper16:player1_turn
 2446 00b6 1A70     		strb	r2, [r3, #0]
 2447              	.LBE14:
 2448              		.loc 1 709 0
 2449 00b8 00BF     		nop
 716:.\main.c      ****         }
 717:.\main.c      ****         else {
 718:.\main.c      ****             LCD_UpdateStatus("Player 2");
 719:.\main.c      ****             LCD_UpdateMessage("waiting...");
 720:.\main.c      ****             receive_move();
 721:.\main.c      ****             winner_check();
 722:.\main.c      ****             player1_turn = true;
 723:.\main.c      ****         }
 724:.\main.c      ****     }
 2450              		.loc 1 724 0
 2451 00ba ACE7     		b	.L157
 2452              	.L152:
 2453              		.loc 1 718 0
 2454 00bc 40F20000 		movw	r0, #:lower16:.LC29
 2455 00c0 C0F20000 		movt	r0, #:upper16:.LC29
 2456 00c4 FFF7FEFF 		bl	LCD_UpdateStatus
 2457              		.loc 1 719 0
 2458 00c8 40F20000 		movw	r0, #:lower16:.LC30
 2459 00cc C0F20000 		movt	r0, #:upper16:.LC30
 2460 00d0 FFF7FEFF 		bl	LCD_UpdateMessage
 2461              		.loc 1 720 0
 2462 00d4 FFF7FEFF 		bl	receive_move
 2463              		.loc 1 721 0
 2464 00d8 FFF7FEFF 		bl	winner_check
 2465              		.loc 1 722 0
 2466 00dc 40F20003 		movw	r3, #:lower16:player1_turn
 2467 00e0 C0F20003 		movt	r3, #:upper16:player1_turn
 2468 00e4 4FF00102 		mov	r2, #1
 2469 00e8 1A70     		strb	r2, [r3, #0]
 2470              		.loc 1 724 0
ARM GAS  C:\DOCUME~1\david\LOCALS~1\Temp\cctwZNAq.s 			page 58


 2471 00ea 94E7     		b	.L157
 2472              		.cfi_endproc
 2473              	.LFE42:
 2474              		.size	main, .-main
 2475              		.text
 2476              	.Letext0: