ARM GAS  C:\DOCUME~1\dtucker\LOCALS~1\Temp\ccDtUcnO.s 			page 1


   1              		.syntax unified
   2              		.cpu cortex-m3
   3              		.fpu softvfp
   4              		.eabi_attribute 20, 1
   5              		.eabi_attribute 21, 1
   6              		.eabi_attribute 23, 3
   7              		.eabi_attribute 24, 1
   8              		.eabi_attribute 25, 1
   9              		.eabi_attribute 26, 1
  10              		.eabi_attribute 30, 6
  11              		.eabi_attribute 18, 4
  12              		.thumb
  13              		.file	"main.c"
  20 0000 47010000 		.text
  20      02005300 
  20      00000201 
  20      FB0E0D00 
  20      01010101 
  21              	.Ltext0:
  22              		.cfi_sections	.debug_frame
  23              		.section	.rodata
  24              		.align	1
  25              		.type	POST, %object
  26              		.size	POST, 2
  27              	POST:
  28 0000 B80B     		.short	3000
  29              		.comm	outgoing,4096,4
  30              		.comm	incoming,4096,4
  31              		.global	tx_cursor
  32              		.data
  33              		.align	1
  34              		.type	tx_cursor, %object
  35              		.size	tx_cursor, 2
  36              	tx_cursor:
  37 0000 0010     		.short	4096
  38              		.global	rx_cursor
  39              		.align	1
  40              		.type	rx_cursor, %object
  41              		.size	rx_cursor, 2
  42              	rx_cursor:
  43 0002 0010     		.short	4096
  44              		.global	packet
  45              		.bss
  46              		.type	packet, %object
  47              		.size	packet, 1
  48              	packet:
  49 0000 00       		.space	1
  50              		.global	tx_count
  51 0001 00       		.align	1
  52              		.type	tx_count, %object
  53              		.size	tx_count, 2
ARM GAS  C:\DOCUME~1\dtucker\LOCALS~1\Temp\ccDtUcnO.s 			page 2


  54              	tx_count:
  55 0002 0000     		.space	2
  56              		.global	rx_count
  57              		.align	1
  58              		.type	rx_count, %object
  59              		.size	rx_count, 2
  60              	rx_count:
  61 0004 0000     		.space	2
  62              		.section	.text.LCD_Spin,"ax",%progbits
  63              		.align	2
  64              		.global	LCD_Spin
  65              		.thumb
  66              		.thumb_func
  67              		.type	LCD_Spin, %function
  68              	LCD_Spin:
  69              	.LFB29:
  70              		.file 1 ".\\main.c"
   1:.\main.c      **** #define SIZE 4096
   2:.\main.c      **** #define VERBOSE true
   3:.\main.c      **** #define SHOW_IRQ_COUNT true
   4:.\main.c      **** 
   5:.\main.c      **** #include <device.h>
   6:.\main.c      **** #include <stdbool.h>
   7:.\main.c      **** 
   8:.\main.c      **** 
   9:.\main.c      **** 
  10:.\main.c      **** static const uint16 POST = (VERBOSE || SHOW_IRQ_COUNT) ? 3000 : 1000;
  11:.\main.c      **** 
  12:.\main.c      **** uint8 outgoing[SIZE];
  13:.\main.c      **** uint8 incoming[SIZE];
  14:.\main.c      **** uint16 tx_cursor = SIZE;
  15:.\main.c      **** uint16 rx_cursor = SIZE;
  16:.\main.c      **** bool packet = false;
  17:.\main.c      **** uint16 tx_count = 0;
  18:.\main.c      **** uint16 rx_count = 0;
  19:.\main.c      **** 
  20:.\main.c      **** 
  21:.\main.c      **** 
  22:.\main.c      **** 
  23:.\main.c      **** void LCD_Spin (int row, int col, int speed, int count) {
  71              		.loc 1 23 0
  72              		.cfi_startproc
  73              		@ args = 0, pretend = 0, frame = 16
  74              		@ frame_needed = 1, uses_anonymous_args = 0
  75 0000 80B5     		push	{r7, lr}
  76              	.LCFI0:
  77              		.cfi_def_cfa_offset 8
  78 0002 84B0     		sub	sp, sp, #16
  79              	.LCFI1:
  80              		.cfi_def_cfa_offset 24
  81 0004 00AF     		add	r7, sp, #0
  82              		.cfi_offset 14, -4
  83              		.cfi_offset 7, -8
  84              	.LCFI2:
  85              		.cfi_def_cfa_register 7
  86 0006 F860     		str	r0, [r7, #12]
  87 0008 B960     		str	r1, [r7, #8]
ARM GAS  C:\DOCUME~1\dtucker\LOCALS~1\Temp\ccDtUcnO.s 			page 3


  88 000a 7A60     		str	r2, [r7, #4]
  89 000c 3B60     		str	r3, [r7, #0]
  24:.\main.c      ****     for (; count > 0 ;--count) {
  90              		.loc 1 24 0
  91 000e 50E0     		b	.L2
  92              	.L3:
  25:.\main.c      ****         LCD_Position(row,col);
  93              		.loc 1 25 0
  94 0010 FB68     		ldr	r3, [r7, #12]
  95 0012 DAB2     		uxtb	r2, r3
  96 0014 BB68     		ldr	r3, [r7, #8]
  97 0016 DBB2     		uxtb	r3, r3
  98 0018 1046     		mov	r0, r2
  99 001a 1946     		mov	r1, r3
 100 001c FFF7FEFF 		bl	LCD_Position
  26:.\main.c      ****         LCD_PutChar('|');
 101              		.loc 1 26 0
 102 0020 4FF07C00 		mov	r0, #124
 103 0024 FFF7FEFF 		bl	LCD_PutChar
  27:.\main.c      ****         CyDelay(speed*3/8);
 104              		.loc 1 27 0
 105 0028 7A68     		ldr	r2, [r7, #4]
 106 002a 1346     		mov	r3, r2
 107 002c 4FEA4303 		lsl	r3, r3, #1
 108 0030 1344     		add	r3, r3, r2
 109 0032 03F10702 		add	r2, r3, #7
 110 0036 002B     		cmp	r3, #0
 111 0038 B8BF     		it	lt
 112 003a 1346     		movlt	r3, r2
 113 003c 4FEAE303 		asr	r3, r3, #3
 114 0040 1846     		mov	r0, r3
 115 0042 FFF7FEFF 		bl	CyDelay
  28:.\main.c      ****         LCD_Position(row,col);
 116              		.loc 1 28 0
 117 0046 FB68     		ldr	r3, [r7, #12]
 118 0048 DAB2     		uxtb	r2, r3
 119 004a BB68     		ldr	r3, [r7, #8]
 120 004c DBB2     		uxtb	r3, r3
 121 004e 1046     		mov	r0, r2
 122 0050 1946     		mov	r1, r3
 123 0052 FFF7FEFF 		bl	LCD_Position
  29:.\main.c      ****         LCD_PutChar('/');
 124              		.loc 1 29 0
 125 0056 4FF02F00 		mov	r0, #47
 126 005a FFF7FEFF 		bl	LCD_PutChar
  30:.\main.c      ****         CyDelay(speed/4);
 127              		.loc 1 30 0
 128 005e 7B68     		ldr	r3, [r7, #4]
 129 0060 03F10302 		add	r2, r3, #3
 130 0064 002B     		cmp	r3, #0
 131 0066 B8BF     		it	lt
 132 0068 1346     		movlt	r3, r2
 133 006a 4FEAA303 		asr	r3, r3, #2
 134 006e 1846     		mov	r0, r3
 135 0070 FFF7FEFF 		bl	CyDelay
  31:.\main.c      ****         LCD_Position(row,col);
 136              		.loc 1 31 0
ARM GAS  C:\DOCUME~1\dtucker\LOCALS~1\Temp\ccDtUcnO.s 			page 4


 137 0074 FB68     		ldr	r3, [r7, #12]
 138 0076 DAB2     		uxtb	r2, r3
 139 0078 BB68     		ldr	r3, [r7, #8]
 140 007a DBB2     		uxtb	r3, r3
 141 007c 1046     		mov	r0, r2
 142 007e 1946     		mov	r1, r3
 143 0080 FFF7FEFF 		bl	LCD_Position
  32:.\main.c      ****         LCD_PutChar('-');
 144              		.loc 1 32 0
 145 0084 4FF02D00 		mov	r0, #45
 146 0088 FFF7FEFF 		bl	LCD_PutChar
  33:.\main.c      ****         CyDelay(speed*3/8);
 147              		.loc 1 33 0
 148 008c 7A68     		ldr	r2, [r7, #4]
 149 008e 1346     		mov	r3, r2
 150 0090 4FEA4303 		lsl	r3, r3, #1
 151 0094 1344     		add	r3, r3, r2
 152 0096 03F10702 		add	r2, r3, #7
 153 009a 002B     		cmp	r3, #0
 154 009c B8BF     		it	lt
 155 009e 1346     		movlt	r3, r2
 156 00a0 4FEAE303 		asr	r3, r3, #3
 157 00a4 1846     		mov	r0, r3
 158 00a6 FFF7FEFF 		bl	CyDelay
 159              		.loc 1 24 0
 160 00aa 3B68     		ldr	r3, [r7, #0]
 161 00ac 03F1FF33 		add	r3, r3, #-1
 162 00b0 3B60     		str	r3, [r7, #0]
 163              	.L2:
 164 00b2 3B68     		ldr	r3, [r7, #0]
 165 00b4 002B     		cmp	r3, #0
 166 00b6 ABDC     		bgt	.L3
  34:.\main.c      ****         //LCD_Position(row,col);
  35:.\main.c      ****         //LCD_PutChar('\\');
  36:.\main.c      ****         //CyDelay(speed/4);
  37:.\main.c      ****     }
  38:.\main.c      **** }
 167              		.loc 1 38 0
 168 00b8 07F11007 		add	r7, r7, #16
 169 00bc BD46     		mov	sp, r7
 170 00be 80BD     		pop	{r7, pc}
 171              		.cfi_endproc
 172              	.LFE29:
 173              		.size	LCD_Spin, .-LCD_Spin
 174              		.section	.rodata
 175 0002 0000     		.align	2
 176              	.LC0:
 177 0004 20202020 		.ascii	"                \000"
 177      20202020 
 177      20202020 
 177      20202020 
 177      00
 178              		.section	.text.LCD_ClearLine,"ax",%progbits
 179              		.align	2
 180              		.global	LCD_ClearLine
 181              		.thumb
 182              		.thumb_func
ARM GAS  C:\DOCUME~1\dtucker\LOCALS~1\Temp\ccDtUcnO.s 			page 5


 183              		.type	LCD_ClearLine, %function
 184              	LCD_ClearLine:
 185              	.LFB30:
  39:.\main.c      **** 
  40:.\main.c      **** 
  41:.\main.c      **** 
  42:.\main.c      **** 
  43:.\main.c      **** void LCD_ClearLine (int line) {
 186              		.loc 1 43 0
 187              		.cfi_startproc
 188              		@ args = 0, pretend = 0, frame = 8
 189              		@ frame_needed = 1, uses_anonymous_args = 0
 190 0000 80B5     		push	{r7, lr}
 191              	.LCFI3:
 192              		.cfi_def_cfa_offset 8
 193 0002 82B0     		sub	sp, sp, #8
 194              	.LCFI4:
 195              		.cfi_def_cfa_offset 16
 196 0004 00AF     		add	r7, sp, #0
 197              		.cfi_offset 14, -4
 198              		.cfi_offset 7, -8
 199              	.LCFI5:
 200              		.cfi_def_cfa_register 7
 201 0006 7860     		str	r0, [r7, #4]
  44:.\main.c      ****     LCD_Position(line,0);
 202              		.loc 1 44 0
 203 0008 7B68     		ldr	r3, [r7, #4]
 204 000a DBB2     		uxtb	r3, r3
 205 000c 1846     		mov	r0, r3
 206 000e 4FF00001 		mov	r1, #0
 207 0012 FFF7FEFF 		bl	LCD_Position
  45:.\main.c      ****     LCD_PrintString("                ");
 208              		.loc 1 45 0
 209 0016 40F20000 		movw	r0, #:lower16:.LC0
 210 001a C0F20000 		movt	r0, #:upper16:.LC0
 211 001e FFF7FEFF 		bl	LCD_PrintString
  46:.\main.c      **** }
 212              		.loc 1 46 0
 213 0022 07F10807 		add	r7, r7, #8
 214 0026 BD46     		mov	sp, r7
 215 0028 80BD     		pop	{r7, pc}
 216              		.cfi_endproc
 217              	.LFE30:
 218              		.size	LCD_ClearLine, .-LCD_ClearLine
 219 002a 00BF     		.section	.text.LCD_UpdateStatus,"ax",%progbits
 220              		.align	2
 221              		.global	LCD_UpdateStatus
 222              		.thumb
 223              		.thumb_func
 224              		.type	LCD_UpdateStatus, %function
 225              	LCD_UpdateStatus:
 226              	.LFB31:
  47:.\main.c      **** 
  48:.\main.c      **** 
  49:.\main.c      **** 
  50:.\main.c      **** 
  51:.\main.c      **** void LCD_UpdateStatus (const char string[]) {
ARM GAS  C:\DOCUME~1\dtucker\LOCALS~1\Temp\ccDtUcnO.s 			page 6


 227              		.loc 1 51 0
 228              		.cfi_startproc
 229              		@ args = 0, pretend = 0, frame = 8
 230              		@ frame_needed = 1, uses_anonymous_args = 0
 231 0000 80B5     		push	{r7, lr}
 232              	.LCFI6:
 233              		.cfi_def_cfa_offset 8
 234 0002 82B0     		sub	sp, sp, #8
 235              	.LCFI7:
 236              		.cfi_def_cfa_offset 16
 237 0004 00AF     		add	r7, sp, #0
 238              		.cfi_offset 14, -4
 239              		.cfi_offset 7, -8
 240              	.LCFI8:
 241              		.cfi_def_cfa_register 7
 242 0006 7860     		str	r0, [r7, #4]
  52:.\main.c      ****     LCD_ClearDisplay();
 243              		.loc 1 52 0
 244 0008 4FF00100 		mov	r0, #1
 245 000c FFF7FEFF 		bl	LCD_WriteControl
  53:.\main.c      ****     LCD_Position(0,0);
 246              		.loc 1 53 0
 247 0010 4FF00000 		mov	r0, #0
 248 0014 4FF00001 		mov	r1, #0
 249 0018 FFF7FEFF 		bl	LCD_Position
  54:.\main.c      ****     LCD_PrintString(string);
 250              		.loc 1 54 0
 251 001c 7868     		ldr	r0, [r7, #4]
 252 001e FFF7FEFF 		bl	LCD_PrintString
  55:.\main.c      **** }
 253              		.loc 1 55 0
 254 0022 07F10807 		add	r7, r7, #8
 255 0026 BD46     		mov	sp, r7
 256 0028 80BD     		pop	{r7, pc}
 257              		.cfi_endproc
 258              	.LFE31:
 259              		.size	LCD_UpdateStatus, .-LCD_UpdateStatus
 260 002a 00BF     		.section	.text.LCD_UpdateMessage,"ax",%progbits
 261              		.align	2
 262              		.global	LCD_UpdateMessage
 263              		.thumb
 264              		.thumb_func
 265              		.type	LCD_UpdateMessage, %function
 266              	LCD_UpdateMessage:
 267              	.LFB32:
  56:.\main.c      **** 
  57:.\main.c      **** 
  58:.\main.c      **** 
  59:.\main.c      **** 
  60:.\main.c      **** void LCD_UpdateMessage (const char string[]) {
 268              		.loc 1 60 0
 269              		.cfi_startproc
 270              		@ args = 0, pretend = 0, frame = 8
 271              		@ frame_needed = 1, uses_anonymous_args = 0
 272 0000 80B5     		push	{r7, lr}
 273              	.LCFI9:
 274              		.cfi_def_cfa_offset 8
ARM GAS  C:\DOCUME~1\dtucker\LOCALS~1\Temp\ccDtUcnO.s 			page 7


 275 0002 82B0     		sub	sp, sp, #8
 276              	.LCFI10:
 277              		.cfi_def_cfa_offset 16
 278 0004 00AF     		add	r7, sp, #0
 279              		.cfi_offset 14, -4
 280              		.cfi_offset 7, -8
 281              	.LCFI11:
 282              		.cfi_def_cfa_register 7
 283 0006 7860     		str	r0, [r7, #4]
  61:.\main.c      ****     LCD_ClearLine(1);
 284              		.loc 1 61 0
 285 0008 4FF00100 		mov	r0, #1
 286 000c FFF7FEFF 		bl	LCD_ClearLine
  62:.\main.c      ****     LCD_Position(1,0);
 287              		.loc 1 62 0
 288 0010 4FF00100 		mov	r0, #1
 289 0014 4FF00001 		mov	r1, #0
 290 0018 FFF7FEFF 		bl	LCD_Position
  63:.\main.c      ****     LCD_PrintString(string);
 291              		.loc 1 63 0
 292 001c 7868     		ldr	r0, [r7, #4]
 293 001e FFF7FEFF 		bl	LCD_PrintString
  64:.\main.c      **** }
 294              		.loc 1 64 0
 295 0022 07F10807 		add	r7, r7, #8
 296 0026 BD46     		mov	sp, r7
 297 0028 80BD     		pop	{r7, pc}
 298              		.cfi_endproc
 299              	.LFE32:
 300              		.size	LCD_UpdateMessage, .-LCD_UpdateMessage
 301 002a 00BF     		.section	.rodata
 302 0015 000000   		.align	2
 303              	.LC1:
 304 0018 73656E64 		.ascii	"sending\000"
 304      696E6700 
 305              		.section	.text.ISR_tx,"ax",%progbits
 306              		.align	2
 307              		.global	ISR_tx
 308              		.thumb
 309              		.thumb_func
 310              		.type	ISR_tx, %function
 311              	ISR_tx:
 312              	.LFB33:
  65:.\main.c      **** 
  66:.\main.c      **** 
  67:.\main.c      **** 
  68:.\main.c      **** 
  69:.\main.c      **** CY_ISR (ISR_tx) {
 313              		.loc 1 69 0
 314              		.cfi_startproc
 315              		@ args = 0, pretend = 0, frame = 8
 316              		@ frame_needed = 1, uses_anonymous_args = 0
 317 0000 80B5     		push	{r7, lr}
 318              	.LCFI12:
 319              		.cfi_def_cfa_offset 8
 320 0002 82B0     		sub	sp, sp, #8
 321              	.LCFI13:
ARM GAS  C:\DOCUME~1\dtucker\LOCALS~1\Temp\ccDtUcnO.s 			page 8


 322              		.cfi_def_cfa_offset 16
 323 0004 00AF     		add	r7, sp, #0
 324              		.cfi_offset 14, -4
 325              		.cfi_offset 7, -8
 326              	.LCFI14:
 327              		.cfi_def_cfa_register 7
  70:.\main.c      ****     ++tx_count;
 328              		.loc 1 70 0
 329 0006 40F20003 		movw	r3, #:lower16:tx_count
 330 000a C0F20003 		movt	r3, #:upper16:tx_count
 331 000e 1B88     		ldrh	r3, [r3, #0]
 332 0010 03F10103 		add	r3, r3, #1
 333 0014 9AB2     		uxth	r2, r3
 334 0016 40F20003 		movw	r3, #:lower16:tx_count
 335 001a C0F20003 		movt	r3, #:upper16:tx_count
 336 001e 1A80     		strh	r2, [r3, #0]	@ movhi
  71:.\main.c      ****     if (tx_cursor < 4096) {
 337              		.loc 1 71 0
 338 0020 40F20003 		movw	r3, #:lower16:tx_cursor
 339 0024 C0F20003 		movt	r3, #:upper16:tx_cursor
 340 0028 1A88     		ldrh	r2, [r3, #0]
 341 002a 40F6FF73 		movw	r3, #4095
 342 002e 9A42     		cmp	r2, r3
 343 0030 59D8     		bhi	.L15
 344              	.LBB2:
  72:.\main.c      ****         if (VERBOSE) LCD_UpdateMessage("sending");
 345              		.loc 1 72 0
 346 0032 40F20000 		movw	r0, #:lower16:.LC1
 347 0036 C0F20000 		movt	r0, #:upper16:.LC1
 348 003a FFF7FEFF 		bl	LCD_UpdateMessage
  73:.\main.c      ****         int i;
  74:.\main.c      ****         for (i = 0; i < 4 && tx_cursor < SIZE ;++i) {
 349              		.loc 1 74 0
 350 003e 4FF00003 		mov	r3, #0
 351 0042 7B60     		str	r3, [r7, #4]
 352 0044 43E0     		b	.L13
 353              	.L14:
  75:.\main.c      ****             UART_WriteTxData(outgoing[tx_cursor++]);
 354              		.loc 1 75 0
 355 0046 40F20003 		movw	r3, #:lower16:tx_cursor
 356 004a C0F20003 		movt	r3, #:upper16:tx_cursor
 357 004e 1A88     		ldrh	r2, [r3, #0]
 358 0050 1146     		mov	r1, r2
 359 0052 40F20003 		movw	r3, #:lower16:outgoing
 360 0056 C0F20003 		movt	r3, #:upper16:outgoing
 361 005a 595C     		ldrb	r1, [r3, r1]	@ zero_extendqisi2
 362 005c 02F10103 		add	r3, r2, #1
 363 0060 9AB2     		uxth	r2, r3
 364 0062 40F20003 		movw	r3, #:lower16:tx_cursor
 365 0066 C0F20003 		movt	r3, #:upper16:tx_cursor
 366 006a 1A80     		strh	r2, [r3, #0]	@ movhi
 367 006c 0846     		mov	r0, r1
 368 006e FFF7FEFF 		bl	UART_WriteTxData
  76:.\main.c      ****             if (VERBOSE) {
  77:.\main.c      ****                 LCD_Position(1,8);
 369              		.loc 1 77 0
 370 0072 4FF00100 		mov	r0, #1
ARM GAS  C:\DOCUME~1\dtucker\LOCALS~1\Temp\ccDtUcnO.s 			page 9


 371 0076 4FF00801 		mov	r1, #8
 372 007a FFF7FEFF 		bl	LCD_Position
  78:.\main.c      ****                 LCD_PrintInt8(outgoing[tx_cursor-1]);
 373              		.loc 1 78 0
 374 007e 40F20003 		movw	r3, #:lower16:tx_cursor
 375 0082 C0F20003 		movt	r3, #:upper16:tx_cursor
 376 0086 1B88     		ldrh	r3, [r3, #0]
 377 0088 03F1FF32 		add	r2, r3, #-1
 378 008c 40F20003 		movw	r3, #:lower16:outgoing
 379 0090 C0F20003 		movt	r3, #:upper16:outgoing
 380 0094 9B5C     		ldrb	r3, [r3, r2]	@ zero_extendqisi2
 381 0096 1846     		mov	r0, r3
 382 0098 FFF7FEFF 		bl	LCD_PrintInt8
  79:.\main.c      ****                 LCD_Position(1,12);
 383              		.loc 1 79 0
 384 009c 4FF00100 		mov	r0, #1
 385 00a0 4FF00C01 		mov	r1, #12
 386 00a4 FFF7FEFF 		bl	LCD_Position
  80:.\main.c      ****                 LCD_PrintInt16(tx_cursor-1);
 387              		.loc 1 80 0
 388 00a8 40F20003 		movw	r3, #:lower16:tx_cursor
 389 00ac C0F20003 		movt	r3, #:upper16:tx_cursor
 390 00b0 1B88     		ldrh	r3, [r3, #0]
 391 00b2 03F1FF33 		add	r3, r3, #-1
 392 00b6 9BB2     		uxth	r3, r3
 393 00b8 1846     		mov	r0, r3
 394 00ba FFF7FEFF 		bl	LCD_PrintInt16
  81:.\main.c      ****                 CyDelay(100);
 395              		.loc 1 81 0
 396 00be 4FF06400 		mov	r0, #100
 397 00c2 FFF7FEFF 		bl	CyDelay
 398              		.loc 1 74 0
 399 00c6 7B68     		ldr	r3, [r7, #4]
 400 00c8 03F10103 		add	r3, r3, #1
 401 00cc 7B60     		str	r3, [r7, #4]
 402              	.L13:
 403 00ce 7B68     		ldr	r3, [r7, #4]
 404 00d0 032B     		cmp	r3, #3
 405 00d2 08DC     		bgt	.L15
 406 00d4 40F20003 		movw	r3, #:lower16:tx_cursor
 407 00d8 C0F20003 		movt	r3, #:upper16:tx_cursor
 408 00dc 1A88     		ldrh	r2, [r3, #0]
 409 00de 40F6FF73 		movw	r3, #4095
 410 00e2 9A42     		cmp	r2, r3
 411 00e4 AFD9     		bls	.L14
 412              	.L15:
 413              	.LBE2:
  82:.\main.c      ****             }
  83:.\main.c      ****         }
  84:.\main.c      ****     }
  85:.\main.c      **** }
 414              		.loc 1 85 0
 415 00e6 07F10807 		add	r7, r7, #8
 416 00ea BD46     		mov	sp, r7
 417 00ec 80BD     		pop	{r7, pc}
 418              		.cfi_endproc
 419              	.LFE33:
ARM GAS  C:\DOCUME~1\dtucker\LOCALS~1\Temp\ccDtUcnO.s 			page 10


 420              		.size	ISR_tx, .-ISR_tx
 421 00ee 00BF     		.section	.rodata
 422              		.align	2
 423              	.LC2:
 424 0020 72656365 		.ascii	"received\000"
 424      69766564 
 424      00
 425              		.section	.text.ISR_rx,"ax",%progbits
 426              		.align	2
 427              		.global	ISR_rx
 428              		.thumb
 429              		.thumb_func
 430              		.type	ISR_rx, %function
 431              	ISR_rx:
 432              	.LFB34:
  86:.\main.c      **** 
  87:.\main.c      **** 
  88:.\main.c      **** 
  89:.\main.c      **** 
  90:.\main.c      **** CY_ISR (ISR_rx) {
 433              		.loc 1 90 0
 434              		.cfi_startproc
 435              		@ args = 0, pretend = 0, frame = 0
 436              		@ frame_needed = 1, uses_anonymous_args = 0
 437 0000 B0B5     		push	{r4, r5, r7, lr}
 438              	.LCFI15:
 439              		.cfi_def_cfa_offset 16
 440 0002 00AF     		add	r7, sp, #0
 441              		.cfi_offset 14, -4
 442              		.cfi_offset 7, -8
 443              		.cfi_offset 5, -12
 444              		.cfi_offset 4, -16
 445              	.LCFI16:
 446              		.cfi_def_cfa_register 7
  91:.\main.c      ****     ++rx_count;
 447              		.loc 1 91 0
 448 0004 40F20003 		movw	r3, #:lower16:rx_count
 449 0008 C0F20003 		movt	r3, #:upper16:rx_count
 450 000c 1B88     		ldrh	r3, [r3, #0]
 451 000e 03F10103 		add	r3, r3, #1
 452 0012 9AB2     		uxth	r2, r3
 453 0014 40F20003 		movw	r3, #:lower16:rx_count
 454 0018 C0F20003 		movt	r3, #:upper16:rx_count
 455 001c 1A80     		strh	r2, [r3, #0]	@ movhi
  92:.\main.c      ****     if (rx_cursor < 4096) {
 456              		.loc 1 92 0
 457 001e 40F20003 		movw	r3, #:lower16:rx_cursor
 458 0022 C0F20003 		movt	r3, #:upper16:rx_cursor
 459 0026 1A88     		ldrh	r2, [r3, #0]
 460 0028 40F6FF73 		movw	r3, #4095
 461 002c 9A42     		cmp	r2, r3
 462 002e 55D8     		bhi	.L19
  93:.\main.c      ****         if (VERBOSE) LCD_UpdateMessage("received");
 463              		.loc 1 93 0
 464 0030 40F20000 		movw	r0, #:lower16:.LC2
 465 0034 C0F20000 		movt	r0, #:upper16:.LC2
 466 0038 FFF7FEFF 		bl	LCD_UpdateMessage
ARM GAS  C:\DOCUME~1\dtucker\LOCALS~1\Temp\ccDtUcnO.s 			page 11


  94:.\main.c      ****         incoming[rx_cursor++] = UART_ReadRxData();
 467              		.loc 1 94 0
 468 003c 40F20003 		movw	r3, #:lower16:rx_cursor
 469 0040 C0F20003 		movt	r3, #:upper16:rx_cursor
 470 0044 1C88     		ldrh	r4, [r3, #0]
 471 0046 2546     		mov	r5, r4
 472 0048 FFF7FEFF 		bl	UART_ReadRxData
 473 004c 0346     		mov	r3, r0
 474 004e 1A46     		mov	r2, r3
 475 0050 40F20003 		movw	r3, #:lower16:incoming
 476 0054 C0F20003 		movt	r3, #:upper16:incoming
 477 0058 5A55     		strb	r2, [r3, r5]
 478 005a 04F10103 		add	r3, r4, #1
 479 005e 9AB2     		uxth	r2, r3
 480 0060 40F20003 		movw	r3, #:lower16:rx_cursor
 481 0064 C0F20003 		movt	r3, #:upper16:rx_cursor
 482 0068 1A80     		strh	r2, [r3, #0]	@ movhi
  95:.\main.c      ****         if (rx_cursor == 4096) packet = true;
 483              		.loc 1 95 0
 484 006a 40F20003 		movw	r3, #:lower16:rx_cursor
 485 006e C0F20003 		movt	r3, #:upper16:rx_cursor
 486 0072 1B88     		ldrh	r3, [r3, #0]
 487 0074 B3F5805F 		cmp	r3, #4096
 488 0078 06D1     		bne	.L18
 489 007a 40F20003 		movw	r3, #:lower16:packet
 490 007e C0F20003 		movt	r3, #:upper16:packet
 491 0082 4FF00102 		mov	r2, #1
 492 0086 1A70     		strb	r2, [r3, #0]
 493              	.L18:
  96:.\main.c      ****         if (VERBOSE) {
  97:.\main.c      ****             LCD_Position(1,9);
 494              		.loc 1 97 0
 495 0088 4FF00100 		mov	r0, #1
 496 008c 4FF00901 		mov	r1, #9
 497 0090 FFF7FEFF 		bl	LCD_Position
  98:.\main.c      ****             LCD_PrintInt8(incoming[rx_cursor-1]);
 498              		.loc 1 98 0
 499 0094 40F20003 		movw	r3, #:lower16:rx_cursor
 500 0098 C0F20003 		movt	r3, #:upper16:rx_cursor
 501 009c 1B88     		ldrh	r3, [r3, #0]
 502 009e 03F1FF32 		add	r2, r3, #-1
 503 00a2 40F20003 		movw	r3, #:lower16:incoming
 504 00a6 C0F20003 		movt	r3, #:upper16:incoming
 505 00aa 9B5C     		ldrb	r3, [r3, r2]	@ zero_extendqisi2
 506 00ac 1846     		mov	r0, r3
 507 00ae FFF7FEFF 		bl	LCD_PrintInt8
  99:.\main.c      ****             LCD_Position(1,12);
 508              		.loc 1 99 0
 509 00b2 4FF00100 		mov	r0, #1
 510 00b6 4FF00C01 		mov	r1, #12
 511 00ba FFF7FEFF 		bl	LCD_Position
 100:.\main.c      ****             LCD_PrintInt16(rx_cursor-1);
 512              		.loc 1 100 0
 513 00be 40F20003 		movw	r3, #:lower16:rx_cursor
 514 00c2 C0F20003 		movt	r3, #:upper16:rx_cursor
 515 00c6 1B88     		ldrh	r3, [r3, #0]
 516 00c8 03F1FF33 		add	r3, r3, #-1
ARM GAS  C:\DOCUME~1\dtucker\LOCALS~1\Temp\ccDtUcnO.s 			page 12


 517 00cc 9BB2     		uxth	r3, r3
 518 00ce 1846     		mov	r0, r3
 519 00d0 FFF7FEFF 		bl	LCD_PrintInt16
 101:.\main.c      ****             CyDelay(200);
 520              		.loc 1 101 0
 521 00d4 4FF0C800 		mov	r0, #200
 522 00d8 FFF7FEFF 		bl	CyDelay
 523              	.L19:
 102:.\main.c      ****         }
 103:.\main.c      ****     }
 104:.\main.c      **** }
 524              		.loc 1 104 0
 525 00dc B0BD     		pop	{r4, r5, r7, pc}
 526              		.cfi_endproc
 527              	.LFE34:
 528              		.size	ISR_rx, .-ISR_rx
 529 00de 00BF     		.section	.rodata
 530 0029 000000   		.align	2
 531              	.LC3:
 532 002c 696E6974 		.ascii	"initializing...\000"
 532      69616C69 
 532      7A696E67 
 532      2E2E2E00 
 533              		.align	2
 534              	.LC4:
 535 003c 55415254 		.ascii	"UART\000"
 535      00
 536 0041 000000   		.align	2
 537              	.LC5:
 538 0044 7061636B 		.ascii	"packets\000"
 538      65747300 
 539              		.align	2
 540              	.LC6:
 541 004c 696E7465 		.ascii	"interrupts\000"
 541      72727570 
 541      747300
 542 0057 00       		.align	2
 543              	.LC7:
 544 0058 72756E6E 		.ascii	"running...\000"
 544      696E672E 
 544      2E2E00
 545 0063 00       		.align	2
 546              	.LC8:
 547 0064 7472616E 		.ascii	"transferring\000"
 547      73666572 
 547      72696E67 
 547      00
 548 0071 000000   		.align	2
 549              	.LC9:
 550 0074 7472616E 		.ascii	"transfer done\000"
 550      73666572 
 550      20646F6E 
 550      6500
 551 0082 0000     		.align	2
 552              	.LC10:
 553 0084 3D3D00   		.ascii	"==\000"
 554 0087 00       		.align	2
ARM GAS  C:\DOCUME~1\dtucker\LOCALS~1\Temp\ccDtUcnO.s 			page 13


 555              	.LC11:
 556 0088 213D00   		.ascii	"!=\000"
 557 008b 00       		.align	2
 558              	.LC12:
 559 008c 6E6F00   		.ascii	"no\000"
 560 008f 00       		.align	2
 561              	.LC13:
 562 0090 6572726F 		.ascii	"errors\000"
 562      727300
 563 0097 00       		.align	2
 564              	.LC14:
 565 0098 747800   		.ascii	"tx\000"
 566 009b 00       		.align	2
 567              	.LC15:
 568 009c 727800   		.ascii	"rx\000"
 569 009f 00       		.align	2
 570              	.LC16:
 571 00a0 49525173 		.ascii	"IRQs\000"
 571      00
 572 00a5 000000   		.align	2
 573              	.LC17:
 574 00a8 20202020 		.ascii	"    \000"
 574      00
 575 00ad 000000   		.section	.text.main,"ax",%progbits
 576              		.align	2
 577              		.global	main
 578              		.thumb
 579              		.thumb_func
 580              		.type	main, %function
 581              	main:
 582              	.LFB35:
 105:.\main.c      **** 
 106:.\main.c      **** 
 107:.\main.c      **** 
 108:.\main.c      **** 
 109:.\main.c      **** void main () {
 583              		.loc 1 109 0
 584              		.cfi_startproc
 585              		@ args = 0, pretend = 0, frame = 8
 586              		@ frame_needed = 1, uses_anonymous_args = 0
 587 0000 80B5     		push	{r7, lr}
 588              	.LCFI17:
 589              		.cfi_def_cfa_offset 8
 590 0002 82B0     		sub	sp, sp, #8
 591              	.LCFI18:
 592              		.cfi_def_cfa_offset 16
 593 0004 00AF     		add	r7, sp, #0
 594              		.cfi_offset 14, -4
 595              		.cfi_offset 7, -8
 596              	.LCFI19:
 597              		.cfi_def_cfa_register 7
 110:.\main.c      ****     LCD_Start();
 598              		.loc 1 110 0
 599 0006 FFF7FEFF 		bl	LCD_Start
 111:.\main.c      ****     
 112:.\main.c      ****     
 113:.\main.c      ****     LCD_UpdateStatus("initializing...");
ARM GAS  C:\DOCUME~1\dtucker\LOCALS~1\Temp\ccDtUcnO.s 			page 14


 600              		.loc 1 113 0
 601 000a 40F20000 		movw	r0, #:lower16:.LC3
 602 000e C0F20000 		movt	r0, #:upper16:.LC3
 603 0012 FFF7FEFF 		bl	LCD_UpdateStatus
 114:.\main.c      ****     LCD_UpdateMessage("UART");
 604              		.loc 1 114 0
 605 0016 40F20000 		movw	r0, #:lower16:.LC4
 606 001a C0F20000 		movt	r0, #:upper16:.LC4
 607 001e FFF7FEFF 		bl	LCD_UpdateMessage
 115:.\main.c      ****     if (VERBOSE) CyDelay(500);
 608              		.loc 1 115 0
 609 0022 4FF4FA70 		mov	r0, #500
 610 0026 FFF7FEFF 		bl	CyDelay
 116:.\main.c      ****     UART_Start();
 611              		.loc 1 116 0
 612 002a FFF7FEFF 		bl	UART_Start
 117:.\main.c      ****     UART_ClearTxBuffer();
 613              		.loc 1 117 0
 614 002e FFF7FEFF 		bl	UART_ClearTxBuffer
 118:.\main.c      ****     UART_ClearRxBuffer();
 615              		.loc 1 118 0
 616 0032 FFF7FEFF 		bl	UART_ClearRxBuffer
 119:.\main.c      ****     LCD_UpdateMessage("packets");
 617              		.loc 1 119 0
 618 0036 40F20000 		movw	r0, #:lower16:.LC5
 619 003a C0F20000 		movt	r0, #:upper16:.LC5
 620 003e FFF7FEFF 		bl	LCD_UpdateMessage
 120:.\main.c      ****     if (VERBOSE) CyDelay(500);
 621              		.loc 1 120 0
 622 0042 4FF4FA70 		mov	r0, #500
 623 0046 FFF7FEFF 		bl	CyDelay
 121:.\main.c      ****     uint16 i;
 122:.\main.c      ****     for (i=0; i < SIZE ;++i) {
 624              		.loc 1 122 0
 625 004a 4FF00003 		mov	r3, #0
 626 004e BB80     		strh	r3, [r7, #4]	@ movhi
 627 0050 13E0     		b	.L21
 628              	.L22:
 123:.\main.c      ****         outgoing[i] = (uint8) i;
 629              		.loc 1 123 0
 630 0052 BA88     		ldrh	r2, [r7, #4]
 631 0054 BB88     		ldrh	r3, [r7, #4]	@ movhi
 632 0056 D9B2     		uxtb	r1, r3
 633 0058 40F20003 		movw	r3, #:lower16:outgoing
 634 005c C0F20003 		movt	r3, #:upper16:outgoing
 635 0060 9954     		strb	r1, [r3, r2]
 124:.\main.c      ****         incoming[i] = 0;
 636              		.loc 1 124 0
 637 0062 BA88     		ldrh	r2, [r7, #4]
 638 0064 40F20003 		movw	r3, #:lower16:incoming
 639 0068 C0F20003 		movt	r3, #:upper16:incoming
 640 006c 4FF00001 		mov	r1, #0
 641 0070 9954     		strb	r1, [r3, r2]
 642              		.loc 1 122 0
 643 0072 BB88     		ldrh	r3, [r7, #4]	@ movhi
 644 0074 03F10103 		add	r3, r3, #1
 645 0078 BB80     		strh	r3, [r7, #4]	@ movhi
ARM GAS  C:\DOCUME~1\dtucker\LOCALS~1\Temp\ccDtUcnO.s 			page 15


 646              	.L21:
 647 007a BA88     		ldrh	r2, [r7, #4]
 648 007c 40F6FF73 		movw	r3, #4095
 649 0080 9A42     		cmp	r2, r3
 650 0082 E6D9     		bls	.L22
 125:.\main.c      ****     }
 126:.\main.c      ****     LCD_UpdateMessage("interrupts");
 651              		.loc 1 126 0
 652 0084 40F20000 		movw	r0, #:lower16:.LC6
 653 0088 C0F20000 		movt	r0, #:upper16:.LC6
 654 008c FFF7FEFF 		bl	LCD_UpdateMessage
 127:.\main.c      ****     if (VERBOSE) CyDelay(500);
 655              		.loc 1 127 0
 656 0090 4FF4FA70 		mov	r0, #500
 657 0094 FFF7FEFF 		bl	CyDelay
 128:.\main.c      ****     CyGlobalIntEnable;
 658              		.loc 1 128 0
 659              	@ 128 ".\main.c" 1
 660 0098 62B6     		CPSIE   i
 661              	@ 0 "" 2
 129:.\main.c      ****     txISR_StartEx(ISR_tx);
 662              		.loc 1 129 0
 663              		.thumb
 664 009a 40F20000 		movw	r0, #:lower16:ISR_tx
 665 009e C0F20000 		movt	r0, #:upper16:ISR_tx
 666 00a2 FFF7FEFF 		bl	txISR_StartEx
 130:.\main.c      ****     rxISR_StartEx(ISR_rx);
 667              		.loc 1 130 0
 668 00a6 40F20000 		movw	r0, #:lower16:ISR_rx
 669 00aa C0F20000 		movt	r0, #:upper16:ISR_rx
 670 00ae FFF7FEFF 		bl	rxISR_StartEx
 131:.\main.c      ****     
 132:.\main.c      ****     
 133:.\main.c      ****     LCD_UpdateStatus("running...");
 671              		.loc 1 133 0
 672 00b2 40F20000 		movw	r0, #:lower16:.LC7
 673 00b6 C0F20000 		movt	r0, #:upper16:.LC7
 674 00ba FFF7FEFF 		bl	LCD_UpdateStatus
 675              	.L31:
 676              	.LBB3:
 134:.\main.c      ****     while (true) {
 135:.\main.c      ****         tx_cursor = 0;
 677              		.loc 1 135 0
 678 00be 40F20003 		movw	r3, #:lower16:tx_cursor
 679 00c2 C0F20003 		movt	r3, #:upper16:tx_cursor
 680 00c6 4FF00002 		mov	r2, #0
 681 00ca 1A80     		strh	r2, [r3, #0]	@ movhi
 136:.\main.c      ****         rx_cursor = 0;
 682              		.loc 1 136 0
 683 00cc 40F20003 		movw	r3, #:lower16:rx_cursor
 684 00d0 C0F20003 		movt	r3, #:upper16:rx_cursor
 685 00d4 4FF00002 		mov	r2, #0
 686 00d8 1A80     		strh	r2, [r3, #0]	@ movhi
 137:.\main.c      ****         packet = false;
 687              		.loc 1 137 0
 688 00da 40F20003 		movw	r3, #:lower16:packet
 689 00de C0F20003 		movt	r3, #:upper16:packet
ARM GAS  C:\DOCUME~1\dtucker\LOCALS~1\Temp\ccDtUcnO.s 			page 16


 690 00e2 4FF00002 		mov	r2, #0
 691 00e6 1A70     		strb	r2, [r3, #0]
 138:.\main.c      ****         LCD_UpdateMessage("transferring");
 692              		.loc 1 138 0
 693 00e8 40F20000 		movw	r0, #:lower16:.LC8
 694 00ec C0F20000 		movt	r0, #:upper16:.LC8
 695 00f0 FFF7FEFF 		bl	LCD_UpdateMessage
 139:.\main.c      ****         ISR_tx();
 696              		.loc 1 139 0
 697 00f4 FFF7FEFF 		bl	ISR_tx
 698              	.L23:
 140:.\main.c      ****         while (!packet);
 699              		.loc 1 140 0
 700 00f8 40F20003 		movw	r3, #:lower16:packet
 701 00fc C0F20003 		movt	r3, #:upper16:packet
 702 0100 1B78     		ldrb	r3, [r3, #0]	@ zero_extendqisi2
 703 0102 83F00103 		eor	r3, r3, #1
 704 0106 DBB2     		uxtb	r3, r3
 705 0108 002B     		cmp	r3, #0
 706 010a F5D1     		bne	.L23
 141:.\main.c      ****         LCD_UpdateMessage("transfer done");
 707              		.loc 1 141 0
 708 010c 40F20000 		movw	r0, #:lower16:.LC9
 709 0110 C0F20000 		movt	r0, #:upper16:.LC9
 710 0114 FFF7FEFF 		bl	LCD_UpdateMessage
 142:.\main.c      ****         CyDelay(POST);
 711              		.loc 1 142 0
 712 0118 40F20003 		movw	r3, #:lower16:POST
 713 011c C0F20003 		movt	r3, #:upper16:POST
 714 0120 1B88     		ldrh	r3, [r3, #0]
 715 0122 1846     		mov	r0, r3
 716 0124 FFF7FEFF 		bl	CyDelay
 143:.\main.c      ****         uint16 errors = 0;
 717              		.loc 1 143 0
 718 0128 4FF00003 		mov	r3, #0
 719 012c FB80     		strh	r3, [r7, #6]	@ movhi
 144:.\main.c      ****         for (i=0; i < SIZE ;++i) {
 720              		.loc 1 144 0
 721 012e 4FF00003 		mov	r3, #0
 722 0132 BB80     		strh	r3, [r7, #4]	@ movhi
 723 0134 66E0     		b	.L24
 724              	.L28:
 145:.\main.c      ****             if (incoming[i] != outgoing[i]) ++errors;
 725              		.loc 1 145 0
 726 0136 BA88     		ldrh	r2, [r7, #4]
 727 0138 40F20003 		movw	r3, #:lower16:incoming
 728 013c C0F20003 		movt	r3, #:upper16:incoming
 729 0140 9A5C     		ldrb	r2, [r3, r2]	@ zero_extendqisi2
 730 0142 B988     		ldrh	r1, [r7, #4]
 731 0144 40F20003 		movw	r3, #:lower16:outgoing
 732 0148 C0F20003 		movt	r3, #:upper16:outgoing
 733 014c 5B5C     		ldrb	r3, [r3, r1]	@ zero_extendqisi2
 734 014e 9A42     		cmp	r2, r3
 735 0150 03D0     		beq	.L25
 736 0152 FB88     		ldrh	r3, [r7, #6]	@ movhi
 737 0154 03F10103 		add	r3, r3, #1
 738 0158 FB80     		strh	r3, [r7, #6]	@ movhi
ARM GAS  C:\DOCUME~1\dtucker\LOCALS~1\Temp\ccDtUcnO.s 			page 17


 739              	.L25:
 146:.\main.c      ****             if (VERBOSE) {
 147:.\main.c      ****                 LCD_ClearLine(1);
 740              		.loc 1 147 0
 741 015a 4FF00100 		mov	r0, #1
 742 015e FFF7FEFF 		bl	LCD_ClearLine
 148:.\main.c      ****                 LCD_Position(1,0);
 743              		.loc 1 148 0
 744 0162 4FF00100 		mov	r0, #1
 745 0166 4FF00001 		mov	r1, #0
 746 016a FFF7FEFF 		bl	LCD_Position
 149:.\main.c      ****                 LCD_PrintInt8(incoming[i]);
 747              		.loc 1 149 0
 748 016e BA88     		ldrh	r2, [r7, #4]
 749 0170 40F20003 		movw	r3, #:lower16:incoming
 750 0174 C0F20003 		movt	r3, #:upper16:incoming
 751 0178 9B5C     		ldrb	r3, [r3, r2]	@ zero_extendqisi2
 752 017a 1846     		mov	r0, r3
 753 017c FFF7FEFF 		bl	LCD_PrintInt8
 150:.\main.c      ****                 LCD_Position(1,3);
 754              		.loc 1 150 0
 755 0180 4FF00100 		mov	r0, #1
 756 0184 4FF00301 		mov	r1, #3
 757 0188 FFF7FEFF 		bl	LCD_Position
 151:.\main.c      ****                 if (incoming[i] == outgoing[i]) LCD_PrintString("==");
 758              		.loc 1 151 0
 759 018c BA88     		ldrh	r2, [r7, #4]
 760 018e 40F20003 		movw	r3, #:lower16:incoming
 761 0192 C0F20003 		movt	r3, #:upper16:incoming
 762 0196 9A5C     		ldrb	r2, [r3, r2]	@ zero_extendqisi2
 763 0198 B988     		ldrh	r1, [r7, #4]
 764 019a 40F20003 		movw	r3, #:lower16:outgoing
 765 019e C0F20003 		movt	r3, #:upper16:outgoing
 766 01a2 5B5C     		ldrb	r3, [r3, r1]	@ zero_extendqisi2
 767 01a4 9A42     		cmp	r2, r3
 768 01a6 06D1     		bne	.L26
 769 01a8 40F20000 		movw	r0, #:lower16:.LC10
 770 01ac C0F20000 		movt	r0, #:upper16:.LC10
 771 01b0 FFF7FEFF 		bl	LCD_PrintString
 772 01b4 05E0     		b	.L27
 773              	.L26:
 152:.\main.c      ****                 else LCD_PrintString("!=");
 774              		.loc 1 152 0
 775 01b6 40F20000 		movw	r0, #:lower16:.LC11
 776 01ba C0F20000 		movt	r0, #:upper16:.LC11
 777 01be FFF7FEFF 		bl	LCD_PrintString
 778              	.L27:
 153:.\main.c      ****                 LCD_Position(1,6);
 779              		.loc 1 153 0
 780 01c2 4FF00100 		mov	r0, #1
 781 01c6 4FF00601 		mov	r1, #6
 782 01ca FFF7FEFF 		bl	LCD_Position
 154:.\main.c      ****                 LCD_PrintInt8(incoming[i]);
 783              		.loc 1 154 0
 784 01ce BA88     		ldrh	r2, [r7, #4]
 785 01d0 40F20003 		movw	r3, #:lower16:incoming
 786 01d4 C0F20003 		movt	r3, #:upper16:incoming
ARM GAS  C:\DOCUME~1\dtucker\LOCALS~1\Temp\ccDtUcnO.s 			page 18


 787 01d8 9B5C     		ldrb	r3, [r3, r2]	@ zero_extendqisi2
 788 01da 1846     		mov	r0, r3
 789 01dc FFF7FEFF 		bl	LCD_PrintInt8
 155:.\main.c      ****                 LCD_Position(1,12);
 790              		.loc 1 155 0
 791 01e0 4FF00100 		mov	r0, #1
 792 01e4 4FF00C01 		mov	r1, #12
 793 01e8 FFF7FEFF 		bl	LCD_Position
 156:.\main.c      ****                 LCD_PrintInt16(errors);
 794              		.loc 1 156 0
 795 01ec FB88     		ldrh	r3, [r7, #6]
 796 01ee 1846     		mov	r0, r3
 797 01f0 FFF7FEFF 		bl	LCD_PrintInt16
 157:.\main.c      ****                 CyDelay(100);
 798              		.loc 1 157 0
 799 01f4 4FF06400 		mov	r0, #100
 800 01f8 FFF7FEFF 		bl	CyDelay
 801              		.loc 1 144 0
 802 01fc BB88     		ldrh	r3, [r7, #4]	@ movhi
 803 01fe 03F10103 		add	r3, r3, #1
 804 0202 BB80     		strh	r3, [r7, #4]	@ movhi
 805              	.L24:
 806 0204 BA88     		ldrh	r2, [r7, #4]
 807 0206 40F6FF73 		movw	r3, #4095
 808 020a 9A42     		cmp	r2, r3
 809 020c 93D9     		bls	.L28
 158:.\main.c      ****             }
 159:.\main.c      ****         }
 160:.\main.c      ****         LCD_ClearLine(1);
 810              		.loc 1 160 0
 811 020e 4FF00100 		mov	r0, #1
 812 0212 FFF7FEFF 		bl	LCD_ClearLine
 161:.\main.c      ****         LCD_Position(1,0);
 813              		.loc 1 161 0
 814 0216 4FF00100 		mov	r0, #1
 815 021a 4FF00001 		mov	r1, #0
 816 021e FFF7FEFF 		bl	LCD_Position
 162:.\main.c      ****         if (errors == 0) {
 817              		.loc 1 162 0
 818 0222 FB88     		ldrh	r3, [r7, #6]
 819 0224 002B     		cmp	r3, #0
 820 0226 0CD1     		bne	.L29
 163:.\main.c      ****             LCD_PrintString("no");
 821              		.loc 1 163 0
 822 0228 40F20000 		movw	r0, #:lower16:.LC12
 823 022c C0F20000 		movt	r0, #:upper16:.LC12
 824 0230 FFF7FEFF 		bl	LCD_PrintString
 164:.\main.c      ****             LCD_Position(1,3);
 825              		.loc 1 164 0
 826 0234 4FF00100 		mov	r0, #1
 827 0238 4FF00301 		mov	r1, #3
 828 023c FFF7FEFF 		bl	LCD_Position
 829 0240 09E0     		b	.L30
 830              	.L29:
 165:.\main.c      ****         }
 166:.\main.c      ****         else {
 167:.\main.c      ****             LCD_PrintInt16(errors);
ARM GAS  C:\DOCUME~1\dtucker\LOCALS~1\Temp\ccDtUcnO.s 			page 19


 831              		.loc 1 167 0
 832 0242 FB88     		ldrh	r3, [r7, #6]
 833 0244 1846     		mov	r0, r3
 834 0246 FFF7FEFF 		bl	LCD_PrintInt16
 168:.\main.c      ****             LCD_Position(1,5);
 835              		.loc 1 168 0
 836 024a 4FF00100 		mov	r0, #1
 837 024e 4FF00501 		mov	r1, #5
 838 0252 FFF7FEFF 		bl	LCD_Position
 839              	.L30:
 169:.\main.c      ****         }
 170:.\main.c      ****         LCD_PrintString("errors");
 840              		.loc 1 170 0
 841 0256 40F20000 		movw	r0, #:lower16:.LC13
 842 025a C0F20000 		movt	r0, #:upper16:.LC13
 843 025e FFF7FEFF 		bl	LCD_PrintString
 171:.\main.c      ****         CyDelay(POST);
 844              		.loc 1 171 0
 845 0262 40F20003 		movw	r3, #:lower16:POST
 846 0266 C0F20003 		movt	r3, #:upper16:POST
 847 026a 1B88     		ldrh	r3, [r3, #0]
 848 026c 1846     		mov	r0, r3
 849 026e FFF7FEFF 		bl	CyDelay
 172:.\main.c      ****         
 173:.\main.c      ****         if (SHOW_IRQ_COUNT) {
 174:.\main.c      ****             LCD_ClearLine(1);
 850              		.loc 1 174 0
 851 0272 4FF00100 		mov	r0, #1
 852 0276 FFF7FEFF 		bl	LCD_ClearLine
 175:.\main.c      ****             LCD_Position(1,1);
 853              		.loc 1 175 0
 854 027a 4FF00100 		mov	r0, #1
 855 027e 4FF00101 		mov	r1, #1
 856 0282 FFF7FEFF 		bl	LCD_Position
 176:.\main.c      ****             LCD_PrintInt16(tx_count);
 857              		.loc 1 176 0
 858 0286 40F20003 		movw	r3, #:lower16:tx_count
 859 028a C0F20003 		movt	r3, #:upper16:tx_count
 860 028e 1B88     		ldrh	r3, [r3, #0]
 861 0290 1846     		mov	r0, r3
 862 0292 FFF7FEFF 		bl	LCD_PrintInt16
 177:.\main.c      ****             LCD_Position(1,5);
 863              		.loc 1 177 0
 864 0296 4FF00100 		mov	r0, #1
 865 029a 4FF00501 		mov	r1, #5
 866 029e FFF7FEFF 		bl	LCD_Position
 178:.\main.c      ****             LCD_PrintString("tx");
 867              		.loc 1 178 0
 868 02a2 40F20000 		movw	r0, #:lower16:.LC14
 869 02a6 C0F20000 		movt	r0, #:upper16:.LC14
 870 02aa FFF7FEFF 		bl	LCD_PrintString
 179:.\main.c      ****             LCD_Position(1,9);
 871              		.loc 1 179 0
 872 02ae 4FF00100 		mov	r0, #1
 873 02b2 4FF00901 		mov	r1, #9
 874 02b6 FFF7FEFF 		bl	LCD_Position
 180:.\main.c      ****             LCD_PrintInt16(rx_count);
ARM GAS  C:\DOCUME~1\dtucker\LOCALS~1\Temp\ccDtUcnO.s 			page 20


 875              		.loc 1 180 0
 876 02ba 40F20003 		movw	r3, #:lower16:rx_count
 877 02be C0F20003 		movt	r3, #:upper16:rx_count
 878 02c2 1B88     		ldrh	r3, [r3, #0]
 879 02c4 1846     		mov	r0, r3
 880 02c6 FFF7FEFF 		bl	LCD_PrintInt16
 181:.\main.c      ****             LCD_Position(1,13);
 881              		.loc 1 181 0
 882 02ca 4FF00100 		mov	r0, #1
 883 02ce 4FF00D01 		mov	r1, #13
 884 02d2 FFF7FEFF 		bl	LCD_Position
 182:.\main.c      ****             LCD_PrintString("rx");
 885              		.loc 1 182 0
 886 02d6 40F20000 		movw	r0, #:lower16:.LC15
 887 02da C0F20000 		movt	r0, #:upper16:.LC15
 888 02de FFF7FEFF 		bl	LCD_PrintString
 183:.\main.c      ****             LCD_Position(0,12);
 889              		.loc 1 183 0
 890 02e2 4FF00000 		mov	r0, #0
 891 02e6 4FF00C01 		mov	r1, #12
 892 02ea FFF7FEFF 		bl	LCD_Position
 184:.\main.c      ****             LCD_PrintString("IRQs");
 893              		.loc 1 184 0
 894 02ee 40F20000 		movw	r0, #:lower16:.LC16
 895 02f2 C0F20000 		movt	r0, #:upper16:.LC16
 896 02f6 FFF7FEFF 		bl	LCD_PrintString
 185:.\main.c      ****             CyDelay(POST);
 897              		.loc 1 185 0
 898 02fa 40F20003 		movw	r3, #:lower16:POST
 899 02fe C0F20003 		movt	r3, #:upper16:POST
 900 0302 1B88     		ldrh	r3, [r3, #0]
 901 0304 1846     		mov	r0, r3
 902 0306 FFF7FEFF 		bl	CyDelay
 186:.\main.c      ****             LCD_Position(0,12);
 903              		.loc 1 186 0
 904 030a 4FF00000 		mov	r0, #0
 905 030e 4FF00C01 		mov	r1, #12
 906 0312 FFF7FEFF 		bl	LCD_Position
 187:.\main.c      ****             LCD_PrintString("    ");
 907              		.loc 1 187 0
 908 0316 40F20000 		movw	r0, #:lower16:.LC17
 909 031a C0F20000 		movt	r0, #:upper16:.LC17
 910 031e FFF7FEFF 		bl	LCD_PrintString
 188:.\main.c      ****             tx_count = 0;
 911              		.loc 1 188 0
 912 0322 40F20003 		movw	r3, #:lower16:tx_count
 913 0326 C0F20003 		movt	r3, #:upper16:tx_count
 914 032a 4FF00002 		mov	r2, #0
 915 032e 1A80     		strh	r2, [r3, #0]	@ movhi
 189:.\main.c      ****             rx_count = 0;
 916              		.loc 1 189 0
 917 0330 40F20003 		movw	r3, #:lower16:rx_count
 918 0334 C0F20003 		movt	r3, #:upper16:rx_count
 919 0338 4FF00002 		mov	r2, #0
 920 033c 1A80     		strh	r2, [r3, #0]	@ movhi
 921              	.LBE3:
 190:.\main.c      ****         }
ARM GAS  C:\DOCUME~1\dtucker\LOCALS~1\Temp\ccDtUcnO.s 			page 21


 191:.\main.c      ****     }
 922              		.loc 1 191 0
 923 033e BEE6     		b	.L31
 924              		.cfi_endproc
 925              	.LFE35:
 926              		.size	main, .-main
 927              		.text
 928              	.Letext0: