ARM GAS  C:\DOCUME~1\dtucker\LOCALS~1\Temp\ccDtUcnO.s 			page 1


   1              		.syntax unified
   2              		.cpu cortex-m3
   3              		.fpu softvfp
   4              		.eabi_attribute 20, 1
   5              		.eabi_attribute 21, 1
   6              		.eabi_attribute 23, 3
   7              		.eabi_attribute 24, 1
   8              		.eabi_attribute 25, 1
   9              		.eabi_attribute 26, 1
  10              		.eabi_attribute 30, 6
  11              		.eabi_attribute 18, 4
  12              		.thumb
  13              		.file	"main.c"
  14              		.section	.debug_abbrev,"",%progbits
  15              	.Ldebug_abbrev0:
  16              		.section	.debug_info,"",%progbits
  17              	.Ldebug_info0:
  18              		.section	.debug_line,"",%progbits
  19              	.Ldebug_line0:
  20 0000 47010000 		.text
  20      02005300 
  20      00000201 
  20      FB0E0D00 
  20      01010101 
  21              	.Ltext0:
  22              		.cfi_sections	.debug_frame
  23              		.section	.rodata
  24              		.align	1
  25              		.type	POST, %object
  26              		.size	POST, 2
  27              	POST:
  28 0000 B80B     		.short	3000
  29              		.comm	outgoing,4096,4
  30              		.comm	incoming,4096,4
  31              		.global	tx_cursor
  32              		.data
  33              		.align	1
  34              		.type	tx_cursor, %object
  35              		.size	tx_cursor, 2
  36              	tx_cursor:
  37 0000 0010     		.short	4096
  38              		.global	rx_cursor
  39              		.align	1
  40              		.type	rx_cursor, %object
  41              		.size	rx_cursor, 2
  42              	rx_cursor:
  43 0002 0010     		.short	4096
  44              		.global	packet
  45              		.bss
  46              		.type	packet, %object
  47              		.size	packet, 1
  48              	packet:
  49 0000 00       		.space	1
  50              		.global	tx_count
  51 0001 00       		.align	1
  52              		.type	tx_count, %object
  53              		.size	tx_count, 2
ARM GAS  C:\DOCUME~1\dtucker\LOCALS~1\Temp\ccDtUcnO.s 			page 2


  54              	tx_count:
  55 0002 0000     		.space	2
  56              		.global	rx_count
  57              		.align	1
  58              		.type	rx_count, %object
  59              		.size	rx_count, 2
  60              	rx_count:
  61 0004 0000     		.space	2
  62              		.section	.text.LCD_Spin,"ax",%progbits
  63              		.align	2
  64              		.global	LCD_Spin
  65              		.thumb
  66              		.thumb_func
  67              		.type	LCD_Spin, %function
  68              	LCD_Spin:
  69              	.LFB29:
  70              		.file 1 ".\\main.c"
   1:.\main.c      **** #define SIZE 4096
   2:.\main.c      **** #define VERBOSE true
   3:.\main.c      **** #define SHOW_IRQ_COUNT true
   4:.\main.c      **** 
   5:.\main.c      **** #include <device.h>
   6:.\main.c      **** #include <stdbool.h>
   7:.\main.c      **** 
   8:.\main.c      **** 
   9:.\main.c      **** 
  10:.\main.c      **** static const uint16 POST = (VERBOSE || SHOW_IRQ_COUNT) ? 3000 : 1000;
  11:.\main.c      **** 
  12:.\main.c      **** uint8 outgoing[SIZE];
  13:.\main.c      **** uint8 incoming[SIZE];
  14:.\main.c      **** uint16 tx_cursor = SIZE;
  15:.\main.c      **** uint16 rx_cursor = SIZE;
  16:.\main.c      **** bool packet = false;
  17:.\main.c      **** uint16 tx_count = 0;
  18:.\main.c      **** uint16 rx_count = 0;
  19:.\main.c      **** 
  20:.\main.c      **** 
  21:.\main.c      **** 
  22:.\main.c      **** 
  23:.\main.c      **** void LCD_Spin (int row, int col, int speed, int count) {
  71              		.loc 1 23 0
  72              		.cfi_startproc
  73              		@ args = 0, pretend = 0, frame = 16
  74              		@ frame_needed = 1, uses_anonymous_args = 0
  75 0000 80B5     		push	{r7, lr}
  76              	.LCFI0:
  77              		.cfi_def_cfa_offset 8
  78 0002 84B0     		sub	sp, sp, #16
  79              	.LCFI1:
  80              		.cfi_def_cfa_offset 24
  81 0004 00AF     		add	r7, sp, #0
  82              		.cfi_offset 14, -4
  83              		.cfi_offset 7, -8
  84              	.LCFI2:
  85              		.cfi_def_cfa_register 7
  86 0006 F860     		str	r0, [r7, #12]
  87 0008 B960     		str	r1, [r7, #8]
ARM GAS  C:\DOCUME~1\dtucker\LOCALS~1\Temp\ccDtUcnO.s 			page 3


  88 000a 7A60     		str	r2, [r7, #4]
  89 000c 3B60     		str	r3, [r7, #0]
  24:.\main.c      ****     for (; count > 0 ;--count) {
  90              		.loc 1 24 0
  91 000e 50E0     		b	.L2
  92              	.L3:
  25:.\main.c      ****         LCD_Position(row,col);
  93              		.loc 1 25 0
  94 0010 FB68     		ldr	r3, [r7, #12]
  95 0012 DAB2     		uxtb	r2, r3
  96 0014 BB68     		ldr	r3, [r7, #8]
  97 0016 DBB2     		uxtb	r3, r3
  98 0018 1046     		mov	r0, r2
  99 001a 1946     		mov	r1, r3
 100 001c FFF7FEFF 		bl	LCD_Position
  26:.\main.c      ****         LCD_PutChar('|');
 101              		.loc 1 26 0
 102 0020 4FF07C00 		mov	r0, #124
 103 0024 FFF7FEFF 		bl	LCD_PutChar
  27:.\main.c      ****         CyDelay(speed*3/8);
 104              		.loc 1 27 0
 105 0028 7A68     		ldr	r2, [r7, #4]
 106 002a 1346     		mov	r3, r2
 107 002c 4FEA4303 		lsl	r3, r3, #1
 108 0030 1344     		add	r3, r3, r2
 109 0032 03F10702 		add	r2, r3, #7
 110 0036 002B     		cmp	r3, #0
 111 0038 B8BF     		it	lt
 112 003a 1346     		movlt	r3, r2
 113 003c 4FEAE303 		asr	r3, r3, #3
 114 0040 1846     		mov	r0, r3
 115 0042 FFF7FEFF 		bl	CyDelay
  28:.\main.c      ****         LCD_Position(row,col);
 116              		.loc 1 28 0
 117 0046 FB68     		ldr	r3, [r7, #12]
 118 0048 DAB2     		uxtb	r2, r3
 119 004a BB68     		ldr	r3, [r7, #8]
 120 004c DBB2     		uxtb	r3, r3
 121 004e 1046     		mov	r0, r2
 122 0050 1946     		mov	r1, r3
 123 0052 FFF7FEFF 		bl	LCD_Position
  29:.\main.c      ****         LCD_PutChar('/');
 124              		.loc 1 29 0
 125 0056 4FF02F00 		mov	r0, #47
 126 005a FFF7FEFF 		bl	LCD_PutChar
  30:.\main.c      ****         CyDelay(speed/4);
 127              		.loc 1 30 0
 128 005e 7B68     		ldr	r3, [r7, #4]
 129 0060 03F10302 		add	r2, r3, #3
 130 0064 002B     		cmp	r3, #0
 131 0066 B8BF     		it	lt
 132 0068 1346     		movlt	r3, r2
 133 006a 4FEAA303 		asr	r3, r3, #2
 134 006e 1846     		mov	r0, r3
 135 0070 FFF7FEFF 		bl	CyDelay
  31:.\main.c      ****         LCD_Position(row,col);
 136              		.loc 1 31 0
ARM GAS  C:\DOCUME~1\dtucker\LOCALS~1\Temp\ccDtUcnO.s 			page 4


 137 0074 FB68     		ldr	r3, [r7, #12]
 138 0076 DAB2     		uxtb	r2, r3
 139 0078 BB68     		ldr	r3, [r7, #8]
 140 007a DBB2     		uxtb	r3, r3
 141 007c 1046     		mov	r0, r2
 142 007e 1946     		mov	r1, r3
 143 0080 FFF7FEFF 		bl	LCD_Position
  32:.\main.c      ****         LCD_PutChar('-');
 144              		.loc 1 32 0
 145 0084 4FF02D00 		mov	r0, #45
 146 0088 FFF7FEFF 		bl	LCD_PutChar
  33:.\main.c      ****         CyDelay(speed*3/8);
 147              		.loc 1 33 0
 148 008c 7A68     		ldr	r2, [r7, #4]
 149 008e 1346     		mov	r3, r2
 150 0090 4FEA4303 		lsl	r3, r3, #1
 151 0094 1344     		add	r3, r3, r2
 152 0096 03F10702 		add	r2, r3, #7
 153 009a 002B     		cmp	r3, #0
 154 009c B8BF     		it	lt
 155 009e 1346     		movlt	r3, r2
 156 00a0 4FEAE303 		asr	r3, r3, #3
 157 00a4 1846     		mov	r0, r3
 158 00a6 FFF7FEFF 		bl	CyDelay
 159              		.loc 1 24 0
 160 00aa 3B68     		ldr	r3, [r7, #0]
 161 00ac 03F1FF33 		add	r3, r3, #-1
 162 00b0 3B60     		str	r3, [r7, #0]
 163              	.L2:
 164 00b2 3B68     		ldr	r3, [r7, #0]
 165 00b4 002B     		cmp	r3, #0
 166 00b6 ABDC     		bgt	.L3
  34:.\main.c      ****         //LCD_Position(row,col);
  35:.\main.c      ****         //LCD_PutChar('\\');
  36:.\main.c      ****         //CyDelay(speed/4);
  37:.\main.c      ****     }
  38:.\main.c      **** }
 167              		.loc 1 38 0
 168 00b8 07F11007 		add	r7, r7, #16
 169 00bc BD46     		mov	sp, r7
 170 00be 80BD     		pop	{r7, pc}
 171              		.cfi_endproc
 172              	.LFE29:
 173              		.size	LCD_Spin, .-LCD_Spin
 174              		.section	.rodata
 175 0002 0000     		.align	2
 176              	.LC0:
 177 0004 20202020 		.ascii	"                \000"
 177      20202020 
 177      20202020 
 177      20202020 
 177      00
 178              		.section	.text.LCD_ClearLine,"ax",%progbits
 179              		.align	2
 180              		.global	LCD_ClearLine
 181              		.thumb
 182              		.thumb_func
ARM GAS  C:\DOCUME~1\dtucker\LOCALS~1\Temp\ccDtUcnO.s 			page 5


 183              		.type	LCD_ClearLine, %function
 184              	LCD_ClearLine:
 185              	.LFB30:
  39:.\main.c      **** 
  40:.\main.c      **** 
  41:.\main.c      **** 
  42:.\main.c      **** 
  43:.\main.c      **** void LCD_ClearLine (int line) {
 186              		.loc 1 43 0
 187              		.cfi_startproc
 188              		@ args = 0, pretend = 0, frame = 8
 189              		@ frame_needed = 1, uses_anonymous_args = 0
 190 0000 80B5     		push	{r7, lr}
 191              	.LCFI3:
 192              		.cfi_def_cfa_offset 8
 193 0002 82B0     		sub	sp, sp, #8
 194              	.LCFI4:
 195              		.cfi_def_cfa_offset 16
 196 0004 00AF     		add	r7, sp, #0
 197              		.cfi_offset 14, -4
 198              		.cfi_offset 7, -8
 199              	.LCFI5:
 200              		.cfi_def_cfa_register 7
 201 0006 7860     		str	r0, [r7, #4]
  44:.\main.c      ****     LCD_Position(line,0);
 202              		.loc 1 44 0
 203 0008 7B68     		ldr	r3, [r7, #4]
 204 000a DBB2     		uxtb	r3, r3
 205 000c 1846     		mov	r0, r3
 206 000e 4FF00001 		mov	r1, #0
 207 0012 FFF7FEFF 		bl	LCD_Position
  45:.\main.c      ****     LCD_PrintString("                ");
 208              		.loc 1 45 0
 209 0016 40F20000 		movw	r0, #:lower16:.LC0
 210 001a C0F20000 		movt	r0, #:upper16:.LC0
 211 001e FFF7FEFF 		bl	LCD_PrintString
  46:.\main.c      **** }
 212              		.loc 1 46 0
 213 0022 07F10807 		add	r7, r7, #8
 214 0026 BD46     		mov	sp, r7
 215 0028 80BD     		pop	{r7, pc}
 216              		.cfi_endproc
 217              	.LFE30:
 218              		.size	LCD_ClearLine, .-LCD_ClearLine
 219 002a 00BF     		.section	.text.LCD_UpdateStatus,"ax",%progbits
 220              		.align	2
 221              		.global	LCD_UpdateStatus
 222              		.thumb
 223              		.thumb_func
 224              		.type	LCD_UpdateStatus, %function
 225              	LCD_UpdateStatus:
 226              	.LFB31:
  47:.\main.c      **** 
  48:.\main.c      **** 
  49:.\main.c      **** 
  50:.\main.c      **** 
  51:.\main.c      **** void LCD_UpdateStatus (const char string[]) {
ARM GAS  C:\DOCUME~1\dtucker\LOCALS~1\Temp\ccDtUcnO.s 			page 6


 227              		.loc 1 51 0
 228              		.cfi_startproc
 229              		@ args = 0, pretend = 0, frame = 8
 230              		@ frame_needed = 1, uses_anonymous_args = 0
 231 0000 80B5     		push	{r7, lr}
 232              	.LCFI6:
 233              		.cfi_def_cfa_offset 8
 234 0002 82B0     		sub	sp, sp, #8
 235              	.LCFI7:
 236              		.cfi_def_cfa_offset 16
 237 0004 00AF     		add	r7, sp, #0
 238              		.cfi_offset 14, -4
 239              		.cfi_offset 7, -8
 240              	.LCFI8:
 241              		.cfi_def_cfa_register 7
 242 0006 7860     		str	r0, [r7, #4]
  52:.\main.c      ****     LCD_ClearDisplay();
 243              		.loc 1 52 0
 244 0008 4FF00100 		mov	r0, #1
 245 000c FFF7FEFF 		bl	LCD_WriteControl
  53:.\main.c      ****     LCD_Position(0,0);
 246              		.loc 1 53 0
 247 0010 4FF00000 		mov	r0, #0
 248 0014 4FF00001 		mov	r1, #0
 249 0018 FFF7FEFF 		bl	LCD_Position
  54:.\main.c      ****     LCD_PrintString(string);
 250              		.loc 1 54 0
 251 001c 7868     		ldr	r0, [r7, #4]
 252 001e FFF7FEFF 		bl	LCD_PrintString
  55:.\main.c      **** }
 253              		.loc 1 55 0
 254 0022 07F10807 		add	r7, r7, #8
 255 0026 BD46     		mov	sp, r7
 256 0028 80BD     		pop	{r7, pc}
 257              		.cfi_endproc
 258              	.LFE31:
 259              		.size	LCD_UpdateStatus, .-LCD_UpdateStatus
 260 002a 00BF     		.section	.text.LCD_UpdateMessage,"ax",%progbits
 261              		.align	2
 262              		.global	LCD_UpdateMessage
 263              		.thumb
 264              		.thumb_func
 265              		.type	LCD_UpdateMessage, %function
 266              	LCD_UpdateMessage:
 267              	.LFB32:
  56:.\main.c      **** 
  57:.\main.c      **** 
  58:.\main.c      **** 
  59:.\main.c      **** 
  60:.\main.c      **** void LCD_UpdateMessage (const char string[]) {
 268              		.loc 1 60 0
 269              		.cfi_startproc
 270              		@ args = 0, pretend = 0, frame = 8
 271              		@ frame_needed = 1, uses_anonymous_args = 0
 272 0000 80B5     		push	{r7, lr}
 273              	.LCFI9:
 274              		.cfi_def_cfa_offset 8
ARM GAS  C:\DOCUME~1\dtucker\LOCALS~1\Temp\ccDtUcnO.s 			page 7


 275 0002 82B0     		sub	sp, sp, #8
 276              	.LCFI10:
 277              		.cfi_def_cfa_offset 16
 278 0004 00AF     		add	r7, sp, #0
 279              		.cfi_offset 14, -4
 280              		.cfi_offset 7, -8
 281              	.LCFI11:
 282              		.cfi_def_cfa_register 7
 283 0006 7860     		str	r0, [r7, #4]
  61:.\main.c      ****     LCD_ClearLine(1);
 284              		.loc 1 61 0
 285 0008 4FF00100 		mov	r0, #1
 286 000c FFF7FEFF 		bl	LCD_ClearLine
  62:.\main.c      ****     LCD_Position(1,0);
 287              		.loc 1 62 0
 288 0010 4FF00100 		mov	r0, #1
 289 0014 4FF00001 		mov	r1, #0
 290 0018 FFF7FEFF 		bl	LCD_Position
  63:.\main.c      ****     LCD_PrintString(string);
 291              		.loc 1 63 0
 292 001c 7868     		ldr	r0, [r7, #4]
 293 001e FFF7FEFF 		bl	LCD_PrintString
  64:.\main.c      **** }
 294              		.loc 1 64 0
 295 0022 07F10807 		add	r7, r7, #8
 296 0026 BD46     		mov	sp, r7
 297 0028 80BD     		pop	{r7, pc}
 298              		.cfi_endproc
 299              	.LFE32:
 300              		.size	LCD_UpdateMessage, .-LCD_UpdateMessage
 301 002a 00BF     		.section	.rodata
 302 0015 000000   		.align	2
 303              	.LC1:
 304 0018 73656E64 		.ascii	"sending\000"
 304      696E6700 
 305              		.section	.text.ISR_tx,"ax",%progbits
 306              		.align	2
 307              		.global	ISR_tx
 308              		.thumb
 309              		.thumb_func
 310              		.type	ISR_tx, %function
 311              	ISR_tx:
 312              	.LFB33:
  65:.\main.c      **** 
  66:.\main.c      **** 
  67:.\main.c      **** 
  68:.\main.c      **** 
  69:.\main.c      **** CY_ISR (ISR_tx) {
 313              		.loc 1 69 0
 314              		.cfi_startproc
 315              		@ args = 0, pretend = 0, frame = 8
 316              		@ frame_needed = 1, uses_anonymous_args = 0
 317 0000 80B5     		push	{r7, lr}
 318              	.LCFI12:
 319              		.cfi_def_cfa_offset 8
 320 0002 82B0     		sub	sp, sp, #8
 321              	.LCFI13:
ARM GAS  C:\DOCUME~1\dtucker\LOCALS~1\Temp\ccDtUcnO.s 			page 8


 322              		.cfi_def_cfa_offset 16
 323 0004 00AF     		add	r7, sp, #0
 324              		.cfi_offset 14, -4
 325              		.cfi_offset 7, -8
 326              	.LCFI14:
 327              		.cfi_def_cfa_register 7
  70:.\main.c      ****     ++tx_count;
 328              		.loc 1 70 0
 329 0006 40F20003 		movw	r3, #:lower16:tx_count
 330 000a C0F20003 		movt	r3, #:upper16:tx_count
 331 000e 1B88     		ldrh	r3, [r3, #0]
 332 0010 03F10103 		add	r3, r3, #1
 333 0014 9AB2     		uxth	r2, r3
 334 0016 40F20003 		movw	r3, #:lower16:tx_count
 335 001a C0F20003 		movt	r3, #:upper16:tx_count
 336 001e 1A80     		strh	r2, [r3, #0]	@ movhi
  71:.\main.c      ****     if (tx_cursor < 4096) {
 337              		.loc 1 71 0
 338 0020 40F20003 		movw	r3, #:lower16:tx_cursor
 339 0024 C0F20003 		movt	r3, #:upper16:tx_cursor
 340 0028 1A88     		ldrh	r2, [r3, #0]
 341 002a 40F6FF73 		movw	r3, #4095
 342 002e 9A42     		cmp	r2, r3
 343 0030 59D8     		bhi	.L15
 344              	.LBB2:
  72:.\main.c      ****         if (VERBOSE) LCD_UpdateMessage("sending");
 345              		.loc 1 72 0
 346 0032 40F20000 		movw	r0, #:lower16:.LC1
 347 0036 C0F20000 		movt	r0, #:upper16:.LC1
 348 003a FFF7FEFF 		bl	LCD_UpdateMessage
  73:.\main.c      ****         int i;
  74:.\main.c      ****         for (i = 0; i < 4 && tx_cursor < SIZE ;++i) {
 349              		.loc 1 74 0
 350 003e 4FF00003 		mov	r3, #0
 351 0042 7B60     		str	r3, [r7, #4]
 352 0044 43E0     		b	.L13
 353              	.L14:
  75:.\main.c      ****             UART_WriteTxData(outgoing[tx_cursor++]);
 354              		.loc 1 75 0
 355 0046 40F20003 		movw	r3, #:lower16:tx_cursor
 356 004a C0F20003 		movt	r3, #:upper16:tx_cursor
 357 004e 1A88     		ldrh	r2, [r3, #0]
 358 0050 1146     		mov	r1, r2
 359 0052 40F20003 		movw	r3, #:lower16:outgoing
 360 0056 C0F20003 		movt	r3, #:upper16:outgoing
 361 005a 595C     		ldrb	r1, [r3, r1]	@ zero_extendqisi2
 362 005c 02F10103 		add	r3, r2, #1
 363 0060 9AB2     		uxth	r2, r3
 364 0062 40F20003 		movw	r3, #:lower16:tx_cursor
 365 0066 C0F20003 		movt	r3, #:upper16:tx_cursor
 366 006a 1A80     		strh	r2, [r3, #0]	@ movhi
 367 006c 0846     		mov	r0, r1
 368 006e FFF7FEFF 		bl	UART_WriteTxData
  76:.\main.c      ****             if (VERBOSE) {
  77:.\main.c      ****                 LCD_Position(1,8);
 369              		.loc 1 77 0
 370 0072 4FF00100 		mov	r0, #1
ARM GAS  C:\DOCUME~1\dtucker\LOCALS~1\Temp\ccDtUcnO.s 			page 9


 371 0076 4FF00801 		mov	r1, #8
 372 007a FFF7FEFF 		bl	LCD_Position
  78:.\main.c      ****                 LCD_PrintInt8(outgoing[tx_cursor-1]);
 373              		.loc 1 78 0
 374 007e 40F20003 		movw	r3, #:lower16:tx_cursor
 375 0082 C0F20003 		movt	r3, #:upper16:tx_cursor
 376 0086 1B88     		ldrh	r3, [r3, #0]
 377 0088 03F1FF32 		add	r2, r3, #-1
 378 008c 40F20003 		movw	r3, #:lower16:outgoing
 379 0090 C0F20003 		movt	r3, #:upper16:outgoing
 380 0094 9B5C     		ldrb	r3, [r3, r2]	@ zero_extendqisi2
 381 0096 1846     		mov	r0, r3
 382 0098 FFF7FEFF 		bl	LCD_PrintInt8
  79:.\main.c      ****                 LCD_Position(1,12);
 383              		.loc 1 79 0
 384 009c 4FF00100 		mov	r0, #1
 385 00a0 4FF00C01 		mov	r1, #12
 386 00a4 FFF7FEFF 		bl	LCD_Position
  80:.\main.c      ****                 LCD_PrintInt16(tx_cursor-1);
 387              		.loc 1 80 0
 388 00a8 40F20003 		movw	r3, #:lower16:tx_cursor
 389 00ac C0F20003 		movt	r3, #:upper16:tx_cursor
 390 00b0 1B88     		ldrh	r3, [r3, #0]
 391 00b2 03F1FF33 		add	r3, r3, #-1
 392 00b6 9BB2     		uxth	r3, r3
 393 00b8 1846     		mov	r0, r3
 394 00ba FFF7FEFF 		bl	LCD_PrintInt16
  81:.\main.c      ****                 CyDelay(100);
 395              		.loc 1 81 0
 396 00be 4FF06400 		mov	r0, #100
 397 00c2 FFF7FEFF 		bl	CyDelay
 398              		.loc 1 74 0
 399 00c6 7B68     		ldr	r3, [r7, #4]
 400 00c8 03F10103 		add	r3, r3, #1
 401 00cc 7B60     		str	r3, [r7, #4]
 402              	.L13:
 403 00ce 7B68     		ldr	r3, [r7, #4]
 404 00d0 032B     		cmp	r3, #3
 405 00d2 08DC     		bgt	.L15
 406 00d4 40F20003 		movw	r3, #:lower16:tx_cursor
 407 00d8 C0F20003 		movt	r3, #:upper16:tx_cursor
 408 00dc 1A88     		ldrh	r2, [r3, #0]
 409 00de 40F6FF73 		movw	r3, #4095
 410 00e2 9A42     		cmp	r2, r3
 411 00e4 AFD9     		bls	.L14
 412              	.L15:
 413              	.LBE2:
  82:.\main.c      ****             }
  83:.\main.c      ****         }
  84:.\main.c      ****     }
  85:.\main.c      **** }
 414              		.loc 1 85 0
 415 00e6 07F10807 		add	r7, r7, #8
 416 00ea BD46     		mov	sp, r7
 417 00ec 80BD     		pop	{r7, pc}
 418              		.cfi_endproc
 419              	.LFE33:
ARM GAS  C:\DOCUME~1\dtucker\LOCALS~1\Temp\ccDtUcnO.s 			page 10


 420              		.size	ISR_tx, .-ISR_tx
 421 00ee 00BF     		.section	.rodata
 422              		.align	2
 423              	.LC2:
 424 0020 72656365 		.ascii	"received\000"
 424      69766564 
 424      00
 425              		.section	.text.ISR_rx,"ax",%progbits
 426              		.align	2
 427              		.global	ISR_rx
 428              		.thumb
 429              		.thumb_func
 430              		.type	ISR_rx, %function
 431              	ISR_rx:
 432              	.LFB34:
  86:.\main.c      **** 
  87:.\main.c      **** 
  88:.\main.c      **** 
  89:.\main.c      **** 
  90:.\main.c      **** CY_ISR (ISR_rx) {
 433              		.loc 1 90 0
 434              		.cfi_startproc
 435              		@ args = 0, pretend = 0, frame = 0
 436              		@ frame_needed = 1, uses_anonymous_args = 0
 437 0000 B0B5     		push	{r4, r5, r7, lr}
 438              	.LCFI15:
 439              		.cfi_def_cfa_offset 16
 440 0002 00AF     		add	r7, sp, #0
 441              		.cfi_offset 14, -4
 442              		.cfi_offset 7, -8
 443              		.cfi_offset 5, -12
 444              		.cfi_offset 4, -16
 445              	.LCFI16:
 446              		.cfi_def_cfa_register 7
  91:.\main.c      ****     ++rx_count;
 447              		.loc 1 91 0
 448 0004 40F20003 		movw	r3, #:lower16:rx_count
 449 0008 C0F20003 		movt	r3, #:upper16:rx_count
 450 000c 1B88     		ldrh	r3, [r3, #0]
 451 000e 03F10103 		add	r3, r3, #1
 452 0012 9AB2     		uxth	r2, r3
 453 0014 40F20003 		movw	r3, #:lower16:rx_count
 454 0018 C0F20003 		movt	r3, #:upper16:rx_count
 455 001c 1A80     		strh	r2, [r3, #0]	@ movhi
  92:.\main.c      ****     if (rx_cursor < 4096) {
 456              		.loc 1 92 0
 457 001e 40F20003 		movw	r3, #:lower16:rx_cursor
 458 0022 C0F20003 		movt	r3, #:upper16:rx_cursor
 459 0026 1A88     		ldrh	r2, [r3, #0]
 460 0028 40F6FF73 		movw	r3, #4095
 461 002c 9A42     		cmp	r2, r3
 462 002e 55D8     		bhi	.L19
  93:.\main.c      ****         if (VERBOSE) LCD_UpdateMessage("received");
 463              		.loc 1 93 0
 464 0030 40F20000 		movw	r0, #:lower16:.LC2
 465 0034 C0F20000 		movt	r0, #:upper16:.LC2
 466 0038 FFF7FEFF 		bl	LCD_UpdateMessage
ARM GAS  C:\DOCUME~1\dtucker\LOCALS~1\Temp\ccDtUcnO.s 			page 11


  94:.\main.c      ****         incoming[rx_cursor++] = UART_ReadRxData();
 467              		.loc 1 94 0
 468 003c 40F20003 		movw	r3, #:lower16:rx_cursor
 469 0040 C0F20003 		movt	r3, #:upper16:rx_cursor
 470 0044 1C88     		ldrh	r4, [r3, #0]
 471 0046 2546     		mov	r5, r4
 472 0048 FFF7FEFF 		bl	UART_ReadRxData
 473 004c 0346     		mov	r3, r0
 474 004e 1A46     		mov	r2, r3
 475 0050 40F20003 		movw	r3, #:lower16:incoming
 476 0054 C0F20003 		movt	r3, #:upper16:incoming
 477 0058 5A55     		strb	r2, [r3, r5]
 478 005a 04F10103 		add	r3, r4, #1
 479 005e 9AB2     		uxth	r2, r3
 480 0060 40F20003 		movw	r3, #:lower16:rx_cursor
 481 0064 C0F20003 		movt	r3, #:upper16:rx_cursor
 482 0068 1A80     		strh	r2, [r3, #0]	@ movhi
  95:.\main.c      ****         if (rx_cursor == 4096) packet = true;
 483              		.loc 1 95 0
 484 006a 40F20003 		movw	r3, #:lower16:rx_cursor
 485 006e C0F20003 		movt	r3, #:upper16:rx_cursor
 486 0072 1B88     		ldrh	r3, [r3, #0]
 487 0074 B3F5805F 		cmp	r3, #4096
 488 0078 06D1     		bne	.L18
 489 007a 40F20003 		movw	r3, #:lower16:packet
 490 007e C0F20003 		movt	r3, #:upper16:packet
 491 0082 4FF00102 		mov	r2, #1
 492 0086 1A70     		strb	r2, [r3, #0]
 493              	.L18:
  96:.\main.c      ****         if (VERBOSE) {
  97:.\main.c      ****             LCD_Position(1,9);
 494              		.loc 1 97 0
 495 0088 4FF00100 		mov	r0, #1
 496 008c 4FF00901 		mov	r1, #9
 497 0090 FFF7FEFF 		bl	LCD_Position
  98:.\main.c      ****             LCD_PrintInt8(incoming[rx_cursor-1]);
 498              		.loc 1 98 0
 499 0094 40F20003 		movw	r3, #:lower16:rx_cursor
 500 0098 C0F20003 		movt	r3, #:upper16:rx_cursor
 501 009c 1B88     		ldrh	r3, [r3, #0]
 502 009e 03F1FF32 		add	r2, r3, #-1
 503 00a2 40F20003 		movw	r3, #:lower16:incoming
 504 00a6 C0F20003 		movt	r3, #:upper16:incoming
 505 00aa 9B5C     		ldrb	r3, [r3, r2]	@ zero_extendqisi2
 506 00ac 1846     		mov	r0, r3
 507 00ae FFF7FEFF 		bl	LCD_PrintInt8
  99:.\main.c      ****             LCD_Position(1,12);
 508              		.loc 1 99 0
 509 00b2 4FF00100 		mov	r0, #1
 510 00b6 4FF00C01 		mov	r1, #12
 511 00ba FFF7FEFF 		bl	LCD_Position
 100:.\main.c      ****             LCD_PrintInt16(rx_cursor-1);
 512              		.loc 1 100 0
 513 00be 40F20003 		movw	r3, #:lower16:rx_cursor
 514 00c2 C0F20003 		movt	r3, #:upper16:rx_cursor
 515 00c6 1B88     		ldrh	r3, [r3, #0]
 516 00c8 03F1FF33 		add	r3, r3, #-1
ARM GAS  C:\DOCUME~1\dtucker\LOCALS~1\Temp\ccDtUcnO.s 			page 12


 517 00cc 9BB2     		uxth	r3, r3
 518 00ce 1846     		mov	r0, r3
 519 00d0 FFF7FEFF 		bl	LCD_PrintInt16
 101:.\main.c      ****             CyDelay(200);
 520              		.loc 1 101 0
 521 00d4 4FF0C800 		mov	r0, #200
 522 00d8 FFF7FEFF 		bl	CyDelay
 523              	.L19:
 102:.\main.c      ****         }
 103:.\main.c      ****     }
 104:.\main.c      **** }
 524              		.loc 1 104 0
 525 00dc B0BD     		pop	{r4, r5, r7, pc}
 526              		.cfi_endproc
 527              	.LFE34:
 528              		.size	ISR_rx, .-ISR_rx
 529 00de 00BF     		.section	.rodata
 530 0029 000000   		.align	2
 531              	.LC3:
 532 002c 696E6974 		.ascii	"initializing...\000"
 532      69616C69 
 532      7A696E67 
 532      2E2E2E00 
 533              		.align	2
 534              	.LC4:
 535 003c 55415254 		.ascii	"UART\000"
 535      00
 536 0041 000000   		.align	2
 537              	.LC5:
 538 0044 7061636B 		.ascii	"packets\000"
 538      65747300 
 539              		.align	2
 540              	.LC6:
 541 004c 696E7465 		.ascii	"interrupts\000"
 541      72727570 
 541      747300
 542 0057 00       		.align	2
 543              	.LC7:
 544 0058 72756E6E 		.ascii	"running...\000"
 544      696E672E 
 544      2E2E00
 545 0063 00       		.align	2
 546              	.LC8:
 547 0064 7472616E 		.ascii	"transferring\000"
 547      73666572 
 547      72696E67 
 547      00
 548 0071 000000   		.align	2
 549              	.LC9:
 550 0074 7472616E 		.ascii	"transfer done\000"
 550      73666572 
 550      20646F6E 
 550      6500
 551 0082 0000     		.align	2
 552              	.LC10:
 553 0084 3D3D00   		.ascii	"==\000"
 554 0087 00       		.align	2
ARM GAS  C:\DOCUME~1\dtucker\LOCALS~1\Temp\ccDtUcnO.s 			page 13


 555              	.LC11:
 556 0088 213D00   		.ascii	"!=\000"
 557 008b 00       		.align	2
 558              	.LC12:
 559 008c 6E6F00   		.ascii	"no\000"
 560 008f 00       		.align	2
 561              	.LC13:
 562 0090 6572726F 		.ascii	"errors\000"
 562      727300
 563 0097 00       		.align	2
 564              	.LC14:
 565 0098 747800   		.ascii	"tx\000"
 566 009b 00       		.align	2
 567              	.LC15:
 568 009c 727800   		.ascii	"rx\000"
 569 009f 00       		.align	2
 570              	.LC16:
 571 00a0 49525173 		.ascii	"IRQs\000"
 571      00
 572 00a5 000000   		.align	2
 573              	.LC17:
 574 00a8 20202020 		.ascii	"    \000"
 574      00
 575 00ad 000000   		.section	.text.main,"ax",%progbits
 576              		.align	2
 577              		.global	main
 578              		.thumb
 579              		.thumb_func
 580              		.type	main, %function
 581              	main:
 582              	.LFB35:
 105:.\main.c      **** 
 106:.\main.c      **** 
 107:.\main.c      **** 
 108:.\main.c      **** 
 109:.\main.c      **** void main () {
 583              		.loc 1 109 0
 584              		.cfi_startproc
 585              		@ args = 0, pretend = 0, frame = 8
 586              		@ frame_needed = 1, uses_anonymous_args = 0
 587 0000 80B5     		push	{r7, lr}
 588              	.LCFI17:
 589              		.cfi_def_cfa_offset 8
 590 0002 82B0     		sub	sp, sp, #8
 591              	.LCFI18:
 592              		.cfi_def_cfa_offset 16
 593 0004 00AF     		add	r7, sp, #0
 594              		.cfi_offset 14, -4
 595              		.cfi_offset 7, -8
 596              	.LCFI19:
 597              		.cfi_def_cfa_register 7
 110:.\main.c      ****     LCD_Start();
 598              		.loc 1 110 0
 599 0006 FFF7FEFF 		bl	LCD_Start
 111:.\main.c      ****     
 112:.\main.c      ****     
 113:.\main.c      ****     LCD_UpdateStatus("initializing...");
ARM GAS  C:\DOCUME~1\dtucker\LOCALS~1\Temp\ccDtUcnO.s 			page 14


 600              		.loc 1 113 0
 601 000a 40F20000 		movw	r0, #:lower16:.LC3
 602 000e C0F20000 		movt	r0, #:upper16:.LC3
 603 0012 FFF7FEFF 		bl	LCD_UpdateStatus
 114:.\main.c      ****     LCD_UpdateMessage("UART");
 604              		.loc 1 114 0
 605 0016 40F20000 		movw	r0, #:lower16:.LC4
 606 001a C0F20000 		movt	r0, #:upper16:.LC4
 607 001e FFF7FEFF 		bl	LCD_UpdateMessage
 115:.\main.c      ****     if (VERBOSE) CyDelay(500);
 608              		.loc 1 115 0
 609 0022 4FF4FA70 		mov	r0, #500
 610 0026 FFF7FEFF 		bl	CyDelay
 116:.\main.c      ****     UART_Start();
 611              		.loc 1 116 0
 612 002a FFF7FEFF 		bl	UART_Start
 117:.\main.c      ****     UART_ClearTxBuffer();
 613              		.loc 1 117 0
 614 002e FFF7FEFF 		bl	UART_ClearTxBuffer
 118:.\main.c      ****     UART_ClearRxBuffer();
 615              		.loc 1 118 0
 616 0032 FFF7FEFF 		bl	UART_ClearRxBuffer
 119:.\main.c      ****     LCD_UpdateMessage("packets");
 617              		.loc 1 119 0
 618 0036 40F20000 		movw	r0, #:lower16:.LC5
 619 003a C0F20000 		movt	r0, #:upper16:.LC5
 620 003e FFF7FEFF 		bl	LCD_UpdateMessage
 120:.\main.c      ****     if (VERBOSE) CyDelay(500);
 621              		.loc 1 120 0
 622 0042 4FF4FA70 		mov	r0, #500
 623 0046 FFF7FEFF 		bl	CyDelay
 121:.\main.c      ****     uint16 i;
 122:.\main.c      ****     for (i=0; i < SIZE ;++i) {
 624              		.loc 1 122 0
 625 004a 4FF00003 		mov	r3, #0
 626 004e BB80     		strh	r3, [r7, #4]	@ movhi
 627 0050 13E0     		b	.L21
 628              	.L22:
 123:.\main.c      ****         outgoing[i] = (uint8) i;
 629              		.loc 1 123 0
 630 0052 BA88     		ldrh	r2, [r7, #4]
 631 0054 BB88     		ldrh	r3, [r7, #4]	@ movhi
 632 0056 D9B2     		uxtb	r1, r3
 633 0058 40F20003 		movw	r3, #:lower16:outgoing
 634 005c C0F20003 		movt	r3, #:upper16:outgoing
 635 0060 9954     		strb	r1, [r3, r2]
 124:.\main.c      ****         incoming[i] = 0;
 636              		.loc 1 124 0
 637 0062 BA88     		ldrh	r2, [r7, #4]
 638 0064 40F20003 		movw	r3, #:lower16:incoming
 639 0068 C0F20003 		movt	r3, #:upper16:incoming
 640 006c 4FF00001 		mov	r1, #0
 641 0070 9954     		strb	r1, [r3, r2]
 642              		.loc 1 122 0
 643 0072 BB88     		ldrh	r3, [r7, #4]	@ movhi
 644 0074 03F10103 		add	r3, r3, #1
 645 0078 BB80     		strh	r3, [r7, #4]	@ movhi
ARM GAS  C:\DOCUME~1\dtucker\LOCALS~1\Temp\ccDtUcnO.s 			page 15


 646              	.L21:
 647 007a BA88     		ldrh	r2, [r7, #4]
 648 007c 40F6FF73 		movw	r3, #4095
 649 0080 9A42     		cmp	r2, r3
 650 0082 E6D9     		bls	.L22
 125:.\main.c      ****     }
 126:.\main.c      ****     LCD_UpdateMessage("interrupts");
 651              		.loc 1 126 0
 652 0084 40F20000 		movw	r0, #:lower16:.LC6
 653 0088 C0F20000 		movt	r0, #:upper16:.LC6
 654 008c FFF7FEFF 		bl	LCD_UpdateMessage
 127:.\main.c      ****     if (VERBOSE) CyDelay(500);
 655              		.loc 1 127 0
 656 0090 4FF4FA70 		mov	r0, #500
 657 0094 FFF7FEFF 		bl	CyDelay
 128:.\main.c      ****     CyGlobalIntEnable;
 658              		.loc 1 128 0
 659              	@ 128 ".\main.c" 1
 660 0098 62B6     		CPSIE   i
 661              	@ 0 "" 2
 129:.\main.c      ****     txISR_StartEx(ISR_tx);
 662              		.loc 1 129 0
 663              		.thumb
 664 009a 40F20000 		movw	r0, #:lower16:ISR_tx
 665 009e C0F20000 		movt	r0, #:upper16:ISR_tx
 666 00a2 FFF7FEFF 		bl	txISR_StartEx
 130:.\main.c      ****     rxISR_StartEx(ISR_rx);
 667              		.loc 1 130 0
 668 00a6 40F20000 		movw	r0, #:lower16:ISR_rx
 669 00aa C0F20000 		movt	r0, #:upper16:ISR_rx
 670 00ae FFF7FEFF 		bl	rxISR_StartEx
 131:.\main.c      ****     
 132:.\main.c      ****     
 133:.\main.c      ****     LCD_UpdateStatus("running...");
 671              		.loc 1 133 0
 672 00b2 40F20000 		movw	r0, #:lower16:.LC7
 673 00b6 C0F20000 		movt	r0, #:upper16:.LC7
 674 00ba FFF7FEFF 		bl	LCD_UpdateStatus
 675              	.L31:
 676              	.LBB3:
 134:.\main.c      ****     while (true) {
 135:.\main.c      ****         tx_cursor = 0;
 677              		.loc 1 135 0
 678 00be 40F20003 		movw	r3, #:lower16:tx_cursor
 679 00c2 C0F20003 		movt	r3, #:upper16:tx_cursor
 680 00c6 4FF00002 		mov	r2, #0
 681 00ca 1A80     		strh	r2, [r3, #0]	@ movhi
 136:.\main.c      ****         rx_cursor = 0;
 682              		.loc 1 136 0
 683 00cc 40F20003 		movw	r3, #:lower16:rx_cursor
 684 00d0 C0F20003 		movt	r3, #:upper16:rx_cursor
 685 00d4 4FF00002 		mov	r2, #0
 686 00d8 1A80     		strh	r2, [r3, #0]	@ movhi
 137:.\main.c      ****         packet = false;
 687              		.loc 1 137 0
 688 00da 40F20003 		movw	r3, #:lower16:packet
 689 00de C0F20003 		movt	r3, #:upper16:packet
ARM GAS  C:\DOCUME~1\dtucker\LOCALS~1\Temp\ccDtUcnO.s 			page 16


 690 00e2 4FF00002 		mov	r2, #0
 691 00e6 1A70     		strb	r2, [r3, #0]
 138:.\main.c      ****         LCD_UpdateMessage("transferring");
 692              		.loc 1 138 0
 693 00e8 40F20000 		movw	r0, #:lower16:.LC8
 694 00ec C0F20000 		movt	r0, #:upper16:.LC8
 695 00f0 FFF7FEFF 		bl	LCD_UpdateMessage
 139:.\main.c      ****         ISR_tx();
 696              		.loc 1 139 0
 697 00f4 FFF7FEFF 		bl	ISR_tx
 698              	.L23:
 140:.\main.c      ****         while (!packet);
 699              		.loc 1 140 0
 700 00f8 40F20003 		movw	r3, #:lower16:packet
 701 00fc C0F20003 		movt	r3, #:upper16:packet
 702 0100 1B78     		ldrb	r3, [r3, #0]	@ zero_extendqisi2
 703 0102 83F00103 		eor	r3, r3, #1
 704 0106 DBB2     		uxtb	r3, r3
 705 0108 002B     		cmp	r3, #0
 706 010a F5D1     		bne	.L23
 141:.\main.c      ****         LCD_UpdateMessage("transfer done");
 707              		.loc 1 141 0
 708 010c 40F20000 		movw	r0, #:lower16:.LC9
 709 0110 C0F20000 		movt	r0, #:upper16:.LC9
 710 0114 FFF7FEFF 		bl	LCD_UpdateMessage
 142:.\main.c      ****         CyDelay(POST);
 711              		.loc 1 142 0
 712 0118 40F20003 		movw	r3, #:lower16:POST
 713 011c C0F20003 		movt	r3, #:upper16:POST
 714 0120 1B88     		ldrh	r3, [r3, #0]
 715 0122 1846     		mov	r0, r3
 716 0124 FFF7FEFF 		bl	CyDelay
 143:.\main.c      ****         uint16 errors = 0;
 717              		.loc 1 143 0
 718 0128 4FF00003 		mov	r3, #0
 719 012c FB80     		strh	r3, [r7, #6]	@ movhi
 144:.\main.c      ****         for (i=0; i < SIZE ;++i) {
 720              		.loc 1 144 0
 721 012e 4FF00003 		mov	r3, #0
 722 0132 BB80     		strh	r3, [r7, #4]	@ movhi
 723 0134 66E0     		b	.L24
 724              	.L28:
 145:.\main.c      ****             if (incoming[i] != outgoing[i]) ++errors;
 725              		.loc 1 145 0
 726 0136 BA88     		ldrh	r2, [r7, #4]
 727 0138 40F20003 		movw	r3, #:lower16:incoming
 728 013c C0F20003 		movt	r3, #:upper16:incoming
 729 0140 9A5C     		ldrb	r2, [r3, r2]	@ zero_extendqisi2
 730 0142 B988     		ldrh	r1, [r7, #4]
 731 0144 40F20003 		movw	r3, #:lower16:outgoing
 732 0148 C0F20003 		movt	r3, #:upper16:outgoing
 733 014c 5B5C     		ldrb	r3, [r3, r1]	@ zero_extendqisi2
 734 014e 9A42     		cmp	r2, r3
 735 0150 03D0     		beq	.L25
 736 0152 FB88     		ldrh	r3, [r7, #6]	@ movhi
 737 0154 03F10103 		add	r3, r3, #1
 738 0158 FB80     		strh	r3, [r7, #6]	@ movhi
ARM GAS  C:\DOCUME~1\dtucker\LOCALS~1\Temp\ccDtUcnO.s 			page 17


 739              	.L25:
 146:.\main.c      ****             if (VERBOSE) {
 147:.\main.c      ****                 LCD_ClearLine(1);
 740              		.loc 1 147 0
 741 015a 4FF00100 		mov	r0, #1
 742 015e FFF7FEFF 		bl	LCD_ClearLine
 148:.\main.c      ****                 LCD_Position(1,0);
 743              		.loc 1 148 0
 744 0162 4FF00100 		mov	r0, #1
 745 0166 4FF00001 		mov	r1, #0
 746 016a FFF7FEFF 		bl	LCD_Position
 149:.\main.c      ****                 LCD_PrintInt8(incoming[i]);
 747              		.loc 1 149 0
 748 016e BA88     		ldrh	r2, [r7, #4]
 749 0170 40F20003 		movw	r3, #:lower16:incoming
 750 0174 C0F20003 		movt	r3, #:upper16:incoming
 751 0178 9B5C     		ldrb	r3, [r3, r2]	@ zero_extendqisi2
 752 017a 1846     		mov	r0, r3
 753 017c FFF7FEFF 		bl	LCD_PrintInt8
 150:.\main.c      ****                 LCD_Position(1,3);
 754              		.loc 1 150 0
 755 0180 4FF00100 		mov	r0, #1
 756 0184 4FF00301 		mov	r1, #3
 757 0188 FFF7FEFF 		bl	LCD_Position
 151:.\main.c      ****                 if (incoming[i] == outgoing[i]) LCD_PrintString("==");
 758              		.loc 1 151 0
 759 018c BA88     		ldrh	r2, [r7, #4]
 760 018e 40F20003 		movw	r3, #:lower16:incoming
 761 0192 C0F20003 		movt	r3, #:upper16:incoming
 762 0196 9A5C     		ldrb	r2, [r3, r2]	@ zero_extendqisi2
 763 0198 B988     		ldrh	r1, [r7, #4]
 764 019a 40F20003 		movw	r3, #:lower16:outgoing
 765 019e C0F20003 		movt	r3, #:upper16:outgoing
 766 01a2 5B5C     		ldrb	r3, [r3, r1]	@ zero_extendqisi2
 767 01a4 9A42     		cmp	r2, r3
 768 01a6 06D1     		bne	.L26
 769 01a8 40F20000 		movw	r0, #:lower16:.LC10
 770 01ac C0F20000 		movt	r0, #:upper16:.LC10
 771 01b0 FFF7FEFF 		bl	LCD_PrintString
 772 01b4 05E0     		b	.L27
 773              	.L26:
 152:.\main.c      ****                 else LCD_PrintString("!=");
 774              		.loc 1 152 0
 775 01b6 40F20000 		movw	r0, #:lower16:.LC11
 776 01ba C0F20000 		movt	r0, #:upper16:.LC11
 777 01be FFF7FEFF 		bl	LCD_PrintString
 778              	.L27:
 153:.\main.c      ****                 LCD_Position(1,6);
 779              		.loc 1 153 0
 780 01c2 4FF00100 		mov	r0, #1
 781 01c6 4FF00601 		mov	r1, #6
 782 01ca FFF7FEFF 		bl	LCD_Position
 154:.\main.c      ****                 LCD_PrintInt8(incoming[i]);
 783              		.loc 1 154 0
 784 01ce BA88     		ldrh	r2, [r7, #4]
 785 01d0 40F20003 		movw	r3, #:lower16:incoming
 786 01d4 C0F20003 		movt	r3, #:upper16:incoming
ARM GAS  C:\DOCUME~1\dtucker\LOCALS~1\Temp\ccDtUcnO.s 			page 18


 787 01d8 9B5C     		ldrb	r3, [r3, r2]	@ zero_extendqisi2
 788 01da 1846     		mov	r0, r3
 789 01dc FFF7FEFF 		bl	LCD_PrintInt8
 155:.\main.c      ****                 LCD_Position(1,12);
 790              		.loc 1 155 0
 791 01e0 4FF00100 		mov	r0, #1
 792 01e4 4FF00C01 		mov	r1, #12
 793 01e8 FFF7FEFF 		bl	LCD_Position
 156:.\main.c      ****                 LCD_PrintInt16(errors);
 794              		.loc 1 156 0
 795 01ec FB88     		ldrh	r3, [r7, #6]
 796 01ee 1846     		mov	r0, r3
 797 01f0 FFF7FEFF 		bl	LCD_PrintInt16
 157:.\main.c      ****                 CyDelay(100);
 798              		.loc 1 157 0
 799 01f4 4FF06400 		mov	r0, #100
 800 01f8 FFF7FEFF 		bl	CyDelay
 801              		.loc 1 144 0
 802 01fc BB88     		ldrh	r3, [r7, #4]	@ movhi
 803 01fe 03F10103 		add	r3, r3, #1
 804 0202 BB80     		strh	r3, [r7, #4]	@ movhi
 805              	.L24:
 806 0204 BA88     		ldrh	r2, [r7, #4]
 807 0206 40F6FF73 		movw	r3, #4095
 808 020a 9A42     		cmp	r2, r3
 809 020c 93D9     		bls	.L28
 158:.\main.c      ****             }
 159:.\main.c      ****         }
 160:.\main.c      ****         LCD_ClearLine(1);
 810              		.loc 1 160 0
 811 020e 4FF00100 		mov	r0, #1
 812 0212 FFF7FEFF 		bl	LCD_ClearLine
 161:.\main.c      ****         LCD_Position(1,0);
 813              		.loc 1 161 0
 814 0216 4FF00100 		mov	r0, #1
 815 021a 4FF00001 		mov	r1, #0
 816 021e FFF7FEFF 		bl	LCD_Position
 162:.\main.c      ****         if (errors == 0) {
 817              		.loc 1 162 0
 818 0222 FB88     		ldrh	r3, [r7, #6]
 819 0224 002B     		cmp	r3, #0
 820 0226 0CD1     		bne	.L29
 163:.\main.c      ****             LCD_PrintString("no");
 821              		.loc 1 163 0
 822 0228 40F20000 		movw	r0, #:lower16:.LC12
 823 022c C0F20000 		movt	r0, #:upper16:.LC12
 824 0230 FFF7FEFF 		bl	LCD_PrintString
 164:.\main.c      ****             LCD_Position(1,3);
 825              		.loc 1 164 0
 826 0234 4FF00100 		mov	r0, #1
 827 0238 4FF00301 		mov	r1, #3
 828 023c FFF7FEFF 		bl	LCD_Position
 829 0240 09E0     		b	.L30
 830              	.L29:
 165:.\main.c      ****         }
 166:.\main.c      ****         else {
 167:.\main.c      ****             LCD_PrintInt16(errors);
ARM GAS  C:\DOCUME~1\dtucker\LOCALS~1\Temp\ccDtUcnO.s 			page 19


 831              		.loc 1 167 0
 832 0242 FB88     		ldrh	r3, [r7, #6]
 833 0244 1846     		mov	r0, r3
 834 0246 FFF7FEFF 		bl	LCD_PrintInt16
 168:.\main.c      ****             LCD_Position(1,5);
 835              		.loc 1 168 0
 836 024a 4FF00100 		mov	r0, #1
 837 024e 4FF00501 		mov	r1, #5
 838 0252 FFF7FEFF 		bl	LCD_Position
 839              	.L30:
 169:.\main.c      ****         }
 170:.\main.c      ****         LCD_PrintString("errors");
 840              		.loc 1 170 0
 841 0256 40F20000 		movw	r0, #:lower16:.LC13
 842 025a C0F20000 		movt	r0, #:upper16:.LC13
 843 025e FFF7FEFF 		bl	LCD_PrintString
 171:.\main.c      ****         CyDelay(POST);
 844              		.loc 1 171 0
 845 0262 40F20003 		movw	r3, #:lower16:POST
 846 0266 C0F20003 		movt	r3, #:upper16:POST
 847 026a 1B88     		ldrh	r3, [r3, #0]
 848 026c 1846     		mov	r0, r3
 849 026e FFF7FEFF 		bl	CyDelay
 172:.\main.c      ****         
 173:.\main.c      ****         if (SHOW_IRQ_COUNT) {
 174:.\main.c      ****             LCD_ClearLine(1);
 850              		.loc 1 174 0
 851 0272 4FF00100 		mov	r0, #1
 852 0276 FFF7FEFF 		bl	LCD_ClearLine
 175:.\main.c      ****             LCD_Position(1,1);
 853              		.loc 1 175 0
 854 027a 4FF00100 		mov	r0, #1
 855 027e 4FF00101 		mov	r1, #1
 856 0282 FFF7FEFF 		bl	LCD_Position
 176:.\main.c      ****             LCD_PrintInt16(tx_count);
 857              		.loc 1 176 0
 858 0286 40F20003 		movw	r3, #:lower16:tx_count
 859 028a C0F20003 		movt	r3, #:upper16:tx_count
 860 028e 1B88     		ldrh	r3, [r3, #0]
 861 0290 1846     		mov	r0, r3
 862 0292 FFF7FEFF 		bl	LCD_PrintInt16
 177:.\main.c      ****             LCD_Position(1,5);
 863              		.loc 1 177 0
 864 0296 4FF00100 		mov	r0, #1
 865 029a 4FF00501 		mov	r1, #5
 866 029e FFF7FEFF 		bl	LCD_Position
 178:.\main.c      ****             LCD_PrintString("tx");
 867              		.loc 1 178 0
 868 02a2 40F20000 		movw	r0, #:lower16:.LC14
 869 02a6 C0F20000 		movt	r0, #:upper16:.LC14
 870 02aa FFF7FEFF 		bl	LCD_PrintString
 179:.\main.c      ****             LCD_Position(1,9);
 871              		.loc 1 179 0
 872 02ae 4FF00100 		mov	r0, #1
 873 02b2 4FF00901 		mov	r1, #9
 874 02b6 FFF7FEFF 		bl	LCD_Position
 180:.\main.c      ****             LCD_PrintInt16(rx_count);
ARM GAS  C:\DOCUME~1\dtucker\LOCALS~1\Temp\ccDtUcnO.s 			page 20


 875              		.loc 1 180 0
 876 02ba 40F20003 		movw	r3, #:lower16:rx_count
 877 02be C0F20003 		movt	r3, #:upper16:rx_count
 878 02c2 1B88     		ldrh	r3, [r3, #0]
 879 02c4 1846     		mov	r0, r3
 880 02c6 FFF7FEFF 		bl	LCD_PrintInt16
 181:.\main.c      ****             LCD_Position(1,13);
 881              		.loc 1 181 0
 882 02ca 4FF00100 		mov	r0, #1
 883 02ce 4FF00D01 		mov	r1, #13
 884 02d2 FFF7FEFF 		bl	LCD_Position
 182:.\main.c      ****             LCD_PrintString("rx");
 885              		.loc 1 182 0
 886 02d6 40F20000 		movw	r0, #:lower16:.LC15
 887 02da C0F20000 		movt	r0, #:upper16:.LC15
 888 02de FFF7FEFF 		bl	LCD_PrintString
 183:.\main.c      ****             LCD_Position(0,12);
 889              		.loc 1 183 0
 890 02e2 4FF00000 		mov	r0, #0
 891 02e6 4FF00C01 		mov	r1, #12
 892 02ea FFF7FEFF 		bl	LCD_Position
 184:.\main.c      ****             LCD_PrintString("IRQs");
 893              		.loc 1 184 0
 894 02ee 40F20000 		movw	r0, #:lower16:.LC16
 895 02f2 C0F20000 		movt	r0, #:upper16:.LC16
 896 02f6 FFF7FEFF 		bl	LCD_PrintString
 185:.\main.c      ****             CyDelay(POST);
 897              		.loc 1 185 0
 898 02fa 40F20003 		movw	r3, #:lower16:POST
 899 02fe C0F20003 		movt	r3, #:upper16:POST
 900 0302 1B88     		ldrh	r3, [r3, #0]
 901 0304 1846     		mov	r0, r3
 902 0306 FFF7FEFF 		bl	CyDelay
 186:.\main.c      ****             LCD_Position(0,12);
 903              		.loc 1 186 0
 904 030a 4FF00000 		mov	r0, #0
 905 030e 4FF00C01 		mov	r1, #12
 906 0312 FFF7FEFF 		bl	LCD_Position
 187:.\main.c      ****             LCD_PrintString("    ");
 907              		.loc 1 187 0
 908 0316 40F20000 		movw	r0, #:lower16:.LC17
 909 031a C0F20000 		movt	r0, #:upper16:.LC17
 910 031e FFF7FEFF 		bl	LCD_PrintString
 188:.\main.c      ****             tx_count = 0;
 911              		.loc 1 188 0
 912 0322 40F20003 		movw	r3, #:lower16:tx_count
 913 0326 C0F20003 		movt	r3, #:upper16:tx_count
 914 032a 4FF00002 		mov	r2, #0
 915 032e 1A80     		strh	r2, [r3, #0]	@ movhi
 189:.\main.c      ****             rx_count = 0;
 916              		.loc 1 189 0
 917 0330 40F20003 		movw	r3, #:lower16:rx_count
 918 0334 C0F20003 		movt	r3, #:upper16:rx_count
 919 0338 4FF00002 		mov	r2, #0
 920 033c 1A80     		strh	r2, [r3, #0]	@ movhi
 921              	.LBE3:
 190:.\main.c      ****         }
ARM GAS  C:\DOCUME~1\dtucker\LOCALS~1\Temp\ccDtUcnO.s 			page 21


 191:.\main.c      ****     }
 922              		.loc 1 191 0
 923 033e BEE6     		b	.L31
 924              		.cfi_endproc
 925              	.LFE35:
 926              		.size	main, .-main
 927              		.text
 928              	.Letext0:
 929              		.section	.debug_loc,"",%progbits
 930              	.Ldebug_loc0:
 931              	.LLST0:
 932 0000 00000000 		.4byte	.LFB29
 933 0004 02000000 		.4byte	.LCFI0
 934 0008 0100     		.2byte	0x1
 935 000a 5D       		.byte	0x5d
 936 000b 02000000 		.4byte	.LCFI0
 937 000f 04000000 		.4byte	.LCFI1
 938 0013 0200     		.2byte	0x2
 939 0015 7D       		.byte	0x7d
 940 0016 08       		.sleb128 8
 941 0017 04000000 		.4byte	.LCFI1
 942 001b 06000000 		.4byte	.LCFI2
 943 001f 0200     		.2byte	0x2
 944 0021 7D       		.byte	0x7d
 945 0022 18       		.sleb128 24
 946 0023 06000000 		.4byte	.LCFI2
 947 0027 C0000000 		.4byte	.LFE29
 948 002b 0200     		.2byte	0x2
 949 002d 77       		.byte	0x77
 950 002e 18       		.sleb128 24
 951 002f 00000000 		.4byte	0x0
 952 0033 00000000 		.4byte	0x0
 953              	.LLST1:
 954 0037 00000000 		.4byte	.LFB30
 955 003b 02000000 		.4byte	.LCFI3
 956 003f 0100     		.2byte	0x1
 957 0041 5D       		.byte	0x5d
 958 0042 02000000 		.4byte	.LCFI3
 959 0046 04000000 		.4byte	.LCFI4
 960 004a 0200     		.2byte	0x2
 961 004c 7D       		.byte	0x7d
 962 004d 08       		.sleb128 8
 963 004e 04000000 		.4byte	.LCFI4
 964 0052 06000000 		.4byte	.LCFI5
 965 0056 0200     		.2byte	0x2
 966 0058 7D       		.byte	0x7d
 967 0059 10       		.sleb128 16
 968 005a 06000000 		.4byte	.LCFI5
 969 005e 2A000000 		.4byte	.LFE30
 970 0062 0200     		.2byte	0x2
 971 0064 77       		.byte	0x77
 972 0065 10       		.sleb128 16
 973 0066 00000000 		.4byte	0x0
 974 006a 00000000 		.4byte	0x0
 975              	.LLST2:
 976 006e 00000000 		.4byte	.LFB31
 977 0072 02000000 		.4byte	.LCFI6
ARM GAS  C:\DOCUME~1\dtucker\LOCALS~1\Temp\ccDtUcnO.s 			page 22


 978 0076 0100     		.2byte	0x1
 979 0078 5D       		.byte	0x5d
 980 0079 02000000 		.4byte	.LCFI6
 981 007d 04000000 		.4byte	.LCFI7
 982 0081 0200     		.2byte	0x2
 983 0083 7D       		.byte	0x7d
 984 0084 08       		.sleb128 8
 985 0085 04000000 		.4byte	.LCFI7
 986 0089 06000000 		.4byte	.LCFI8
 987 008d 0200     		.2byte	0x2
 988 008f 7D       		.byte	0x7d
 989 0090 10       		.sleb128 16
 990 0091 06000000 		.4byte	.LCFI8
 991 0095 2A000000 		.4byte	.LFE31
 992 0099 0200     		.2byte	0x2
 993 009b 77       		.byte	0x77
 994 009c 10       		.sleb128 16
 995 009d 00000000 		.4byte	0x0
 996 00a1 00000000 		.4byte	0x0
 997              	.LLST3:
 998 00a5 00000000 		.4byte	.LFB32
 999 00a9 02000000 		.4byte	.LCFI9
 1000 00ad 0100     		.2byte	0x1
 1001 00af 5D       		.byte	0x5d
 1002 00b0 02000000 		.4byte	.LCFI9
 1003 00b4 04000000 		.4byte	.LCFI10
 1004 00b8 0200     		.2byte	0x2
 1005 00ba 7D       		.byte	0x7d
 1006 00bb 08       		.sleb128 8
 1007 00bc 04000000 		.4byte	.LCFI10
 1008 00c0 06000000 		.4byte	.LCFI11
 1009 00c4 0200     		.2byte	0x2
 1010 00c6 7D       		.byte	0x7d
 1011 00c7 10       		.sleb128 16
 1012 00c8 06000000 		.4byte	.LCFI11
 1013 00cc 2A000000 		.4byte	.LFE32
 1014 00d0 0200     		.2byte	0x2
 1015 00d2 77       		.byte	0x77
 1016 00d3 10       		.sleb128 16
 1017 00d4 00000000 		.4byte	0x0
 1018 00d8 00000000 		.4byte	0x0
 1019              	.LLST4:
 1020 00dc 00000000 		.4byte	.LFB33
 1021 00e0 02000000 		.4byte	.LCFI12
 1022 00e4 0100     		.2byte	0x1
 1023 00e6 5D       		.byte	0x5d
 1024 00e7 02000000 		.4byte	.LCFI12
 1025 00eb 04000000 		.4byte	.LCFI13
 1026 00ef 0200     		.2byte	0x2
 1027 00f1 7D       		.byte	0x7d
 1028 00f2 08       		.sleb128 8
 1029 00f3 04000000 		.4byte	.LCFI13
 1030 00f7 06000000 		.4byte	.LCFI14
 1031 00fb 0200     		.2byte	0x2
 1032 00fd 7D       		.byte	0x7d
 1033 00fe 10       		.sleb128 16
 1034 00ff 06000000 		.4byte	.LCFI14
ARM GAS  C:\DOCUME~1\dtucker\LOCALS~1\Temp\ccDtUcnO.s 			page 23


 1035 0103 EE000000 		.4byte	.LFE33
 1036 0107 0200     		.2byte	0x2
 1037 0109 77       		.byte	0x77
 1038 010a 10       		.sleb128 16
 1039 010b 00000000 		.4byte	0x0
 1040 010f 00000000 		.4byte	0x0
 1041              	.LLST5:
 1042 0113 00000000 		.4byte	.LFB34
 1043 0117 02000000 		.4byte	.LCFI15
 1044 011b 0100     		.2byte	0x1
 1045 011d 5D       		.byte	0x5d
 1046 011e 02000000 		.4byte	.LCFI15
 1047 0122 04000000 		.4byte	.LCFI16
 1048 0126 0200     		.2byte	0x2
 1049 0128 7D       		.byte	0x7d
 1050 0129 10       		.sleb128 16
 1051 012a 04000000 		.4byte	.LCFI16
 1052 012e DE000000 		.4byte	.LFE34
 1053 0132 0200     		.2byte	0x2
 1054 0134 77       		.byte	0x77
 1055 0135 10       		.sleb128 16
 1056 0136 00000000 		.4byte	0x0
 1057 013a 00000000 		.4byte	0x0
 1058              	.LLST6:
 1059 013e 00000000 		.4byte	.LFB35
 1060 0142 02000000 		.4byte	.LCFI17
 1061 0146 0100     		.2byte	0x1
 1062 0148 5D       		.byte	0x5d
 1063 0149 02000000 		.4byte	.LCFI17
 1064 014d 04000000 		.4byte	.LCFI18
 1065 0151 0200     		.2byte	0x2
 1066 0153 7D       		.byte	0x7d
 1067 0154 08       		.sleb128 8
 1068 0155 04000000 		.4byte	.LCFI18
 1069 0159 06000000 		.4byte	.LCFI19
 1070 015d 0200     		.2byte	0x2
 1071 015f 7D       		.byte	0x7d
 1072 0160 10       		.sleb128 16
 1073 0161 06000000 		.4byte	.LCFI19
 1074 0165 40030000 		.4byte	.LFE35
 1075 0169 0200     		.2byte	0x2
 1076 016b 77       		.byte	0x77
 1077 016c 10       		.sleb128 16
 1078 016d 00000000 		.4byte	0x0
 1079 0171 00000000 		.4byte	0x0
 1080              		.file 2 "./Generated_Source/PSoC5/cytypes.h"
 1081              		.file 3 "./Generated_Source/PSoC5/core_cm3.h"
 1082              		.section	.debug_info
 1083 0000 B0020000 		.4byte	0x2b0
 1084 0004 0200     		.2byte	0x2
 1085 0006 00000000 		.4byte	.Ldebug_abbrev0
 1086 000a 04       		.byte	0x4
 1087 000b 01       		.uleb128 0x1
 1088 000c 22010000 		.4byte	.LASF34
 1089 0010 01       		.byte	0x1
 1090 0011 C7000000 		.4byte	.LASF35
 1091 0015 92000000 		.4byte	.LASF36
ARM GAS  C:\DOCUME~1\dtucker\LOCALS~1\Temp\ccDtUcnO.s 			page 24


 1092 0019 00000000 		.4byte	0x0
 1093 001d 00000000 		.4byte	0x0
 1094 0021 00000000 		.4byte	.Ldebug_ranges0+0x0
 1095 0025 00000000 		.4byte	.Ldebug_line0
 1096 0029 02       		.uleb128 0x2
 1097 002a 01       		.byte	0x1
 1098 002b 06       		.byte	0x6
 1099 002c 7F010000 		.4byte	.LASF0
 1100 0030 02       		.uleb128 0x2
 1101 0031 01       		.byte	0x1
 1102 0032 08       		.byte	0x8
 1103 0033 63000000 		.4byte	.LASF1
 1104 0037 02       		.uleb128 0x2
 1105 0038 02       		.byte	0x2
 1106 0039 05       		.byte	0x5
 1107 003a 3D010000 		.4byte	.LASF2
 1108 003e 02       		.uleb128 0x2
 1109 003f 02       		.byte	0x2
 1110 0040 07       		.byte	0x7
 1111 0041 2C000000 		.4byte	.LASF3
 1112 0045 02       		.uleb128 0x2
 1113 0046 04       		.byte	0x4
 1114 0047 05       		.byte	0x5
 1115 0048 61010000 		.4byte	.LASF4
 1116 004c 02       		.uleb128 0x2
 1117 004d 04       		.byte	0x4
 1118 004e 07       		.byte	0x7
 1119 004f 71000000 		.4byte	.LASF5
 1120 0053 02       		.uleb128 0x2
 1121 0054 08       		.byte	0x8
 1122 0055 05       		.byte	0x5
 1123 0056 00000000 		.4byte	.LASF6
 1124 005a 02       		.uleb128 0x2
 1125 005b 08       		.byte	0x8
 1126 005c 07       		.byte	0x7
 1127 005d 00010000 		.4byte	.LASF7
 1128 0061 03       		.uleb128 0x3
 1129 0062 04       		.byte	0x4
 1130 0063 05       		.byte	0x5
 1131 0064 696E7400 		.ascii	"int\000"
 1132 0068 02       		.uleb128 0x2
 1133 0069 04       		.byte	0x4
 1134 006a 07       		.byte	0x7
 1135 006b F3000000 		.4byte	.LASF8
 1136 006f 04       		.uleb128 0x4
 1137 0070 83000000 		.4byte	.LASF9
 1138 0074 02       		.byte	0x2
 1139 0075 4C       		.byte	0x4c
 1140 0076 30000000 		.4byte	0x30
 1141 007a 04       		.uleb128 0x4
 1142 007b D7000000 		.4byte	.LASF10
 1143 007f 02       		.byte	0x2
 1144 0080 4D       		.byte	0x4d
 1145 0081 3E000000 		.4byte	0x3e
 1146 0085 02       		.uleb128 0x2
 1147 0086 04       		.byte	0x4
 1148 0087 04       		.byte	0x4
ARM GAS  C:\DOCUME~1\dtucker\LOCALS~1\Temp\ccDtUcnO.s 			page 25


 1149 0088 58000000 		.4byte	.LASF11
 1150 008c 02       		.uleb128 0x2
 1151 008d 08       		.byte	0x8
 1152 008e 04       		.byte	0x4
 1153 008f C0000000 		.4byte	.LASF12
 1154 0093 02       		.uleb128 0x2
 1155 0094 01       		.byte	0x1
 1156 0095 08       		.byte	0x8
 1157 0096 2E010000 		.4byte	.LASF13
 1158 009a 05       		.uleb128 0x5
 1159 009b 04       		.byte	0x4
 1160 009c 07       		.byte	0x7
 1161 009d 06       		.uleb128 0x6
 1162 009e 04       		.byte	0x4
 1163 009f A3000000 		.4byte	0xa3
 1164 00a3 07       		.uleb128 0x7
 1165 00a4 93000000 		.4byte	0x93
 1166 00a8 08       		.uleb128 0x8
 1167 00a9 01       		.byte	0x1
 1168 00aa DE000000 		.4byte	.LASF16
 1169 00ae 01       		.byte	0x1
 1170 00af 17       		.byte	0x17
 1171 00b0 01       		.byte	0x1
 1172 00b1 00000000 		.4byte	.LFB29
 1173 00b5 C0000000 		.4byte	.LFE29
 1174 00b9 00000000 		.4byte	.LLST0
 1175 00bd FA000000 		.4byte	0xfa
 1176 00c1 09       		.uleb128 0x9
 1177 00c2 726F7700 		.ascii	"row\000"
 1178 00c6 01       		.byte	0x1
 1179 00c7 17       		.byte	0x17
 1180 00c8 61000000 		.4byte	0x61
 1181 00cc 02       		.byte	0x2
 1182 00cd 91       		.byte	0x91
 1183 00ce 74       		.sleb128 -12
 1184 00cf 09       		.uleb128 0x9
 1185 00d0 636F6C00 		.ascii	"col\000"
 1186 00d4 01       		.byte	0x1
 1187 00d5 17       		.byte	0x17
 1188 00d6 61000000 		.4byte	0x61
 1189 00da 02       		.byte	0x2
 1190 00db 91       		.byte	0x91
 1191 00dc 70       		.sleb128 -16
 1192 00dd 0A       		.uleb128 0xa
 1193 00de 1C010000 		.4byte	.LASF14
 1194 00e2 01       		.byte	0x1
 1195 00e3 17       		.byte	0x17
 1196 00e4 61000000 		.4byte	0x61
 1197 00e8 02       		.byte	0x2
 1198 00e9 91       		.byte	0x91
 1199 00ea 6C       		.sleb128 -20
 1200 00eb 0A       		.uleb128 0xa
 1201 00ec 1D000000 		.4byte	.LASF15
 1202 00f0 01       		.byte	0x1
 1203 00f1 17       		.byte	0x17
 1204 00f2 61000000 		.4byte	0x61
 1205 00f6 02       		.byte	0x2
ARM GAS  C:\DOCUME~1\dtucker\LOCALS~1\Temp\ccDtUcnO.s 			page 26


 1206 00f7 91       		.byte	0x91
 1207 00f8 68       		.sleb128 -24
 1208 00f9 00       		.byte	0x0
 1209 00fa 08       		.uleb128 0x8
 1210 00fb 01       		.byte	0x1
 1211 00fc 6A010000 		.4byte	.LASF17
 1212 0100 01       		.byte	0x1
 1213 0101 2B       		.byte	0x2b
 1214 0102 01       		.byte	0x1
 1215 0103 00000000 		.4byte	.LFB30
 1216 0107 2A000000 		.4byte	.LFE30
 1217 010b 37000000 		.4byte	.LLST1
 1218 010f 22010000 		.4byte	0x122
 1219 0113 0A       		.uleb128 0xa
 1220 0114 17010000 		.4byte	.LASF18
 1221 0118 01       		.byte	0x1
 1222 0119 2B       		.byte	0x2b
 1223 011a 61000000 		.4byte	0x61
 1224 011e 02       		.byte	0x2
 1225 011f 91       		.byte	0x91
 1226 0120 74       		.sleb128 -12
 1227 0121 00       		.byte	0x0
 1228 0122 08       		.uleb128 0x8
 1229 0123 01       		.byte	0x1
 1230 0124 47010000 		.4byte	.LASF19
 1231 0128 01       		.byte	0x1
 1232 0129 33       		.byte	0x33
 1233 012a 01       		.byte	0x1
 1234 012b 00000000 		.4byte	.LFB31
 1235 012f 2A000000 		.4byte	.LFE31
 1236 0133 6E000000 		.4byte	.LLST2
 1237 0137 4A010000 		.4byte	0x14a
 1238 013b 0A       		.uleb128 0xa
 1239 013c 3F000000 		.4byte	.LASF20
 1240 0140 01       		.byte	0x1
 1241 0141 33       		.byte	0x33
 1242 0142 9D000000 		.4byte	0x9d
 1243 0146 02       		.byte	0x2
 1244 0147 91       		.byte	0x91
 1245 0148 74       		.sleb128 -12
 1246 0149 00       		.byte	0x0
 1247 014a 08       		.uleb128 0x8
 1248 014b 01       		.byte	0x1
 1249 014c 46000000 		.4byte	.LASF21
 1250 0150 01       		.byte	0x1
 1251 0151 3C       		.byte	0x3c
 1252 0152 01       		.byte	0x1
 1253 0153 00000000 		.4byte	.LFB32
 1254 0157 2A000000 		.4byte	.LFE32
 1255 015b A5000000 		.4byte	.LLST3
 1256 015f 72010000 		.4byte	0x172
 1257 0163 0A       		.uleb128 0xa
 1258 0164 3F000000 		.4byte	.LASF20
 1259 0168 01       		.byte	0x1
 1260 0169 3C       		.byte	0x3c
 1261 016a 9D000000 		.4byte	0x9d
 1262 016e 02       		.byte	0x2
ARM GAS  C:\DOCUME~1\dtucker\LOCALS~1\Temp\ccDtUcnO.s 			page 27


 1263 016f 91       		.byte	0x91
 1264 0170 74       		.sleb128 -12
 1265 0171 00       		.byte	0x0
 1266 0172 08       		.uleb128 0x8
 1267 0173 01       		.byte	0x1
 1268 0174 8B010000 		.4byte	.LASF22
 1269 0178 01       		.byte	0x1
 1270 0179 45       		.byte	0x45
 1271 017a 01       		.byte	0x1
 1272 017b 00000000 		.4byte	.LFB33
 1273 017f EE000000 		.4byte	.LFE33
 1274 0183 DC000000 		.4byte	.LLST4
 1275 0187 A2010000 		.4byte	0x1a2
 1276 018b 0B       		.uleb128 0xb
 1277 018c 32000000 		.4byte	.LBB2
 1278 0190 E6000000 		.4byte	.LBE2
 1279 0194 0C       		.uleb128 0xc
 1280 0195 6900     		.ascii	"i\000"
 1281 0197 01       		.byte	0x1
 1282 0198 49       		.byte	0x49
 1283 0199 61000000 		.4byte	0x61
 1284 019d 02       		.byte	0x2
 1285 019e 91       		.byte	0x91
 1286 019f 74       		.sleb128 -12
 1287 01a0 00       		.byte	0x0
 1288 01a1 00       		.byte	0x0
 1289 01a2 0D       		.uleb128 0xd
 1290 01a3 01       		.byte	0x1
 1291 01a4 78010000 		.4byte	.LASF37
 1292 01a8 01       		.byte	0x1
 1293 01a9 5A       		.byte	0x5a
 1294 01aa 01       		.byte	0x1
 1295 01ab 00000000 		.4byte	.LFB34
 1296 01af DE000000 		.4byte	.LFE34
 1297 01b3 13010000 		.4byte	.LLST5
 1298 01b7 0E       		.uleb128 0xe
 1299 01b8 01       		.byte	0x1
 1300 01b9 E7000000 		.4byte	.LASF38
 1301 01bd 01       		.byte	0x1
 1302 01be 6D       		.byte	0x6d
 1303 01bf 00000000 		.4byte	.LFB35
 1304 01c3 40030000 		.4byte	.LFE35
 1305 01c7 3E010000 		.4byte	.LLST6
 1306 01cb F4010000 		.4byte	0x1f4
 1307 01cf 0C       		.uleb128 0xc
 1308 01d0 6900     		.ascii	"i\000"
 1309 01d2 01       		.byte	0x1
 1310 01d3 79       		.byte	0x79
 1311 01d4 7A000000 		.4byte	0x7a
 1312 01d8 02       		.byte	0x2
 1313 01d9 91       		.byte	0x91
 1314 01da 74       		.sleb128 -12
 1315 01db 0B       		.uleb128 0xb
 1316 01dc BE000000 		.4byte	.LBB3
 1317 01e0 3E030000 		.4byte	.LBE3
 1318 01e4 0F       		.uleb128 0xf
 1319 01e5 EC000000 		.4byte	.LASF23
ARM GAS  C:\DOCUME~1\dtucker\LOCALS~1\Temp\ccDtUcnO.s 			page 28


 1320 01e9 01       		.byte	0x1
 1321 01ea 8F       		.byte	0x8f
 1322 01eb 7A000000 		.4byte	0x7a
 1323 01ef 02       		.byte	0x2
 1324 01f0 91       		.byte	0x91
 1325 01f1 76       		.sleb128 -10
 1326 01f2 00       		.byte	0x0
 1327 01f3 00       		.byte	0x0
 1328 01f4 0F       		.uleb128 0xf
 1329 01f5 5E000000 		.4byte	.LASF24
 1330 01f9 01       		.byte	0x1
 1331 01fa 0A       		.byte	0xa
 1332 01fb 05020000 		.4byte	0x205
 1333 01ff 05       		.byte	0x5
 1334 0200 03       		.byte	0x3
 1335 0201 00000000 		.4byte	POST
 1336 0205 07       		.uleb128 0x7
 1337 0206 7A000000 		.4byte	0x7a
 1338 020a 10       		.uleb128 0x10
 1339 020b B3000000 		.4byte	.LASF25
 1340 020f 03       		.byte	0x3
 1341 0210 CE06     		.2byte	0x6ce
 1342 0212 18020000 		.4byte	0x218
 1343 0216 01       		.byte	0x1
 1344 0217 01       		.byte	0x1
 1345 0218 11       		.uleb128 0x11
 1346 0219 61000000 		.4byte	0x61
 1347 021d 12       		.uleb128 0x12
 1348 021e 6F000000 		.4byte	0x6f
 1349 0222 2E020000 		.4byte	0x22e
 1350 0226 13       		.uleb128 0x13
 1351 0227 9A000000 		.4byte	0x9a
 1352 022b FF0F     		.2byte	0xfff
 1353 022d 00       		.byte	0x0
 1354 022e 14       		.uleb128 0x14
 1355 022f 0E000000 		.4byte	.LASF26
 1356 0233 01       		.byte	0x1
 1357 0234 0C       		.byte	0xc
 1358 0235 1D020000 		.4byte	0x21d
 1359 0239 01       		.byte	0x1
 1360 023a 05       		.byte	0x5
 1361 023b 03       		.byte	0x3
 1362 023c 00000000 		.4byte	outgoing
 1363 0240 14       		.uleb128 0x14
 1364 0241 23000000 		.4byte	.LASF27
 1365 0245 01       		.byte	0x1
 1366 0246 0D       		.byte	0xd
 1367 0247 1D020000 		.4byte	0x21d
 1368 024b 01       		.byte	0x1
 1369 024c 05       		.byte	0x5
 1370 024d 03       		.byte	0x3
 1371 024e 00000000 		.4byte	incoming
 1372 0252 14       		.uleb128 0x14
 1373 0253 33010000 		.4byte	.LASF28
 1374 0257 01       		.byte	0x1
 1375 0258 0E       		.byte	0xe
 1376 0259 7A000000 		.4byte	0x7a
ARM GAS  C:\DOCUME~1\dtucker\LOCALS~1\Temp\ccDtUcnO.s 			page 29


 1377 025d 01       		.byte	0x1
 1378 025e 05       		.byte	0x5
 1379 025f 03       		.byte	0x3
 1380 0260 00000000 		.4byte	tx_cursor
 1381 0264 14       		.uleb128 0x14
 1382 0265 92010000 		.4byte	.LASF29
 1383 0269 01       		.byte	0x1
 1384 026a 0F       		.byte	0xf
 1385 026b 7A000000 		.4byte	0x7a
 1386 026f 01       		.byte	0x1
 1387 0270 05       		.byte	0x5
 1388 0271 03       		.byte	0x3
 1389 0272 00000000 		.4byte	rx_cursor
 1390 0276 14       		.uleb128 0x14
 1391 0277 D0000000 		.4byte	.LASF30
 1392 027b 01       		.byte	0x1
 1393 027c 10       		.byte	0x10
 1394 027d 88020000 		.4byte	0x288
 1395 0281 01       		.byte	0x1
 1396 0282 05       		.byte	0x5
 1397 0283 03       		.byte	0x3
 1398 0284 00000000 		.4byte	packet
 1399 0288 02       		.uleb128 0x2
 1400 0289 01       		.byte	0x1
 1401 028a 02       		.byte	0x2
 1402 028b 17000000 		.4byte	.LASF31
 1403 028f 14       		.uleb128 0x14
 1404 0290 89000000 		.4byte	.LASF32
 1405 0294 01       		.byte	0x1
 1406 0295 11       		.byte	0x11
 1407 0296 7A000000 		.4byte	0x7a
 1408 029a 01       		.byte	0x1
 1409 029b 05       		.byte	0x5
 1410 029c 03       		.byte	0x3
 1411 029d 00000000 		.4byte	tx_count
 1412 02a1 14       		.uleb128 0x14
 1413 02a2 58010000 		.4byte	.LASF33
 1414 02a6 01       		.byte	0x1
 1415 02a7 12       		.byte	0x12
 1416 02a8 7A000000 		.4byte	0x7a
 1417 02ac 01       		.byte	0x1
 1418 02ad 05       		.byte	0x5
 1419 02ae 03       		.byte	0x3
 1420 02af 00000000 		.4byte	rx_count
 1421 02b3 00       		.byte	0x0
 1422              		.section	.debug_abbrev
 1423 0000 01       		.uleb128 0x1
 1424 0001 11       		.uleb128 0x11
 1425 0002 01       		.byte	0x1
 1426 0003 25       		.uleb128 0x25
 1427 0004 0E       		.uleb128 0xe
 1428 0005 13       		.uleb128 0x13
 1429 0006 0B       		.uleb128 0xb
 1430 0007 03       		.uleb128 0x3
 1431 0008 0E       		.uleb128 0xe
 1432 0009 1B       		.uleb128 0x1b
 1433 000a 0E       		.uleb128 0xe
ARM GAS  C:\DOCUME~1\dtucker\LOCALS~1\Temp\ccDtUcnO.s 			page 30


 1434 000b 11       		.uleb128 0x11
 1435 000c 01       		.uleb128 0x1
 1436 000d 52       		.uleb128 0x52
 1437 000e 01       		.uleb128 0x1
 1438 000f 55       		.uleb128 0x55
 1439 0010 06       		.uleb128 0x6
 1440 0011 10       		.uleb128 0x10
 1441 0012 06       		.uleb128 0x6
 1442 0013 00       		.byte	0x0
 1443 0014 00       		.byte	0x0
 1444 0015 02       		.uleb128 0x2
 1445 0016 24       		.uleb128 0x24
 1446 0017 00       		.byte	0x0
 1447 0018 0B       		.uleb128 0xb
 1448 0019 0B       		.uleb128 0xb
 1449 001a 3E       		.uleb128 0x3e
 1450 001b 0B       		.uleb128 0xb
 1451 001c 03       		.uleb128 0x3
 1452 001d 0E       		.uleb128 0xe
 1453 001e 00       		.byte	0x0
 1454 001f 00       		.byte	0x0
 1455 0020 03       		.uleb128 0x3
 1456 0021 24       		.uleb128 0x24
 1457 0022 00       		.byte	0x0
 1458 0023 0B       		.uleb128 0xb
 1459 0024 0B       		.uleb128 0xb
 1460 0025 3E       		.uleb128 0x3e
 1461 0026 0B       		.uleb128 0xb
 1462 0027 03       		.uleb128 0x3
 1463 0028 08       		.uleb128 0x8
 1464 0029 00       		.byte	0x0
 1465 002a 00       		.byte	0x0
 1466 002b 04       		.uleb128 0x4
 1467 002c 16       		.uleb128 0x16
 1468 002d 00       		.byte	0x0
 1469 002e 03       		.uleb128 0x3
 1470 002f 0E       		.uleb128 0xe
 1471 0030 3A       		.uleb128 0x3a
 1472 0031 0B       		.uleb128 0xb
 1473 0032 3B       		.uleb128 0x3b
 1474 0033 0B       		.uleb128 0xb
 1475 0034 49       		.uleb128 0x49
 1476 0035 13       		.uleb128 0x13
 1477 0036 00       		.byte	0x0
 1478 0037 00       		.byte	0x0
 1479 0038 05       		.uleb128 0x5
 1480 0039 24       		.uleb128 0x24
 1481 003a 00       		.byte	0x0
 1482 003b 0B       		.uleb128 0xb
 1483 003c 0B       		.uleb128 0xb
 1484 003d 3E       		.uleb128 0x3e
 1485 003e 0B       		.uleb128 0xb
 1486 003f 00       		.byte	0x0
 1487 0040 00       		.byte	0x0
 1488 0041 06       		.uleb128 0x6
 1489 0042 0F       		.uleb128 0xf
 1490 0043 00       		.byte	0x0
ARM GAS  C:\DOCUME~1\dtucker\LOCALS~1\Temp\ccDtUcnO.s 			page 31


 1491 0044 0B       		.uleb128 0xb
 1492 0045 0B       		.uleb128 0xb
 1493 0046 49       		.uleb128 0x49
 1494 0047 13       		.uleb128 0x13
 1495 0048 00       		.byte	0x0
 1496 0049 00       		.byte	0x0
 1497 004a 07       		.uleb128 0x7
 1498 004b 26       		.uleb128 0x26
 1499 004c 00       		.byte	0x0
 1500 004d 49       		.uleb128 0x49
 1501 004e 13       		.uleb128 0x13
 1502 004f 00       		.byte	0x0
 1503 0050 00       		.byte	0x0
 1504 0051 08       		.uleb128 0x8
 1505 0052 2E       		.uleb128 0x2e
 1506 0053 01       		.byte	0x1
 1507 0054 3F       		.uleb128 0x3f
 1508 0055 0C       		.uleb128 0xc
 1509 0056 03       		.uleb128 0x3
 1510 0057 0E       		.uleb128 0xe
 1511 0058 3A       		.uleb128 0x3a
 1512 0059 0B       		.uleb128 0xb
 1513 005a 3B       		.uleb128 0x3b
 1514 005b 0B       		.uleb128 0xb
 1515 005c 27       		.uleb128 0x27
 1516 005d 0C       		.uleb128 0xc
 1517 005e 11       		.uleb128 0x11
 1518 005f 01       		.uleb128 0x1
 1519 0060 12       		.uleb128 0x12
 1520 0061 01       		.uleb128 0x1
 1521 0062 40       		.uleb128 0x40
 1522 0063 06       		.uleb128 0x6
 1523 0064 01       		.uleb128 0x1
 1524 0065 13       		.uleb128 0x13
 1525 0066 00       		.byte	0x0
 1526 0067 00       		.byte	0x0
 1527 0068 09       		.uleb128 0x9
 1528 0069 05       		.uleb128 0x5
 1529 006a 00       		.byte	0x0
 1530 006b 03       		.uleb128 0x3
 1531 006c 08       		.uleb128 0x8
 1532 006d 3A       		.uleb128 0x3a
 1533 006e 0B       		.uleb128 0xb
 1534 006f 3B       		.uleb128 0x3b
 1535 0070 0B       		.uleb128 0xb
 1536 0071 49       		.uleb128 0x49
 1537 0072 13       		.uleb128 0x13
 1538 0073 02       		.uleb128 0x2
 1539 0074 0A       		.uleb128 0xa
 1540 0075 00       		.byte	0x0
 1541 0076 00       		.byte	0x0
 1542 0077 0A       		.uleb128 0xa
 1543 0078 05       		.uleb128 0x5
 1544 0079 00       		.byte	0x0
 1545 007a 03       		.uleb128 0x3
 1546 007b 0E       		.uleb128 0xe
 1547 007c 3A       		.uleb128 0x3a
ARM GAS  C:\DOCUME~1\dtucker\LOCALS~1\Temp\ccDtUcnO.s 			page 32


 1548 007d 0B       		.uleb128 0xb
 1549 007e 3B       		.uleb128 0x3b
 1550 007f 0B       		.uleb128 0xb
 1551 0080 49       		.uleb128 0x49
 1552 0081 13       		.uleb128 0x13
 1553 0082 02       		.uleb128 0x2
 1554 0083 0A       		.uleb128 0xa
 1555 0084 00       		.byte	0x0
 1556 0085 00       		.byte	0x0
 1557 0086 0B       		.uleb128 0xb
 1558 0087 0B       		.uleb128 0xb
 1559 0088 01       		.byte	0x1
 1560 0089 11       		.uleb128 0x11
 1561 008a 01       		.uleb128 0x1
 1562 008b 12       		.uleb128 0x12
 1563 008c 01       		.uleb128 0x1
 1564 008d 00       		.byte	0x0
 1565 008e 00       		.byte	0x0
 1566 008f 0C       		.uleb128 0xc
 1567 0090 34       		.uleb128 0x34
 1568 0091 00       		.byte	0x0
 1569 0092 03       		.uleb128 0x3
 1570 0093 08       		.uleb128 0x8
 1571 0094 3A       		.uleb128 0x3a
 1572 0095 0B       		.uleb128 0xb
 1573 0096 3B       		.uleb128 0x3b
 1574 0097 0B       		.uleb128 0xb
 1575 0098 49       		.uleb128 0x49
 1576 0099 13       		.uleb128 0x13
 1577 009a 02       		.uleb128 0x2
 1578 009b 0A       		.uleb128 0xa
 1579 009c 00       		.byte	0x0
 1580 009d 00       		.byte	0x0
 1581 009e 0D       		.uleb128 0xd
 1582 009f 2E       		.uleb128 0x2e
 1583 00a0 00       		.byte	0x0
 1584 00a1 3F       		.uleb128 0x3f
 1585 00a2 0C       		.uleb128 0xc
 1586 00a3 03       		.uleb128 0x3
 1587 00a4 0E       		.uleb128 0xe
 1588 00a5 3A       		.uleb128 0x3a
 1589 00a6 0B       		.uleb128 0xb
 1590 00a7 3B       		.uleb128 0x3b
 1591 00a8 0B       		.uleb128 0xb
 1592 00a9 27       		.uleb128 0x27
 1593 00aa 0C       		.uleb128 0xc
 1594 00ab 11       		.uleb128 0x11
 1595 00ac 01       		.uleb128 0x1
 1596 00ad 12       		.uleb128 0x12
 1597 00ae 01       		.uleb128 0x1
 1598 00af 40       		.uleb128 0x40
 1599 00b0 06       		.uleb128 0x6
 1600 00b1 00       		.byte	0x0
 1601 00b2 00       		.byte	0x0
 1602 00b3 0E       		.uleb128 0xe
 1603 00b4 2E       		.uleb128 0x2e
 1604 00b5 01       		.byte	0x1
ARM GAS  C:\DOCUME~1\dtucker\LOCALS~1\Temp\ccDtUcnO.s 			page 33


 1605 00b6 3F       		.uleb128 0x3f
 1606 00b7 0C       		.uleb128 0xc
 1607 00b8 03       		.uleb128 0x3
 1608 00b9 0E       		.uleb128 0xe
 1609 00ba 3A       		.uleb128 0x3a
 1610 00bb 0B       		.uleb128 0xb
 1611 00bc 3B       		.uleb128 0x3b
 1612 00bd 0B       		.uleb128 0xb
 1613 00be 11       		.uleb128 0x11
 1614 00bf 01       		.uleb128 0x1
 1615 00c0 12       		.uleb128 0x12
 1616 00c1 01       		.uleb128 0x1
 1617 00c2 40       		.uleb128 0x40
 1618 00c3 06       		.uleb128 0x6
 1619 00c4 01       		.uleb128 0x1
 1620 00c5 13       		.uleb128 0x13
 1621 00c6 00       		.byte	0x0
 1622 00c7 00       		.byte	0x0
 1623 00c8 0F       		.uleb128 0xf
 1624 00c9 34       		.uleb128 0x34
 1625 00ca 00       		.byte	0x0
 1626 00cb 03       		.uleb128 0x3
 1627 00cc 0E       		.uleb128 0xe
 1628 00cd 3A       		.uleb128 0x3a
 1629 00ce 0B       		.uleb128 0xb
 1630 00cf 3B       		.uleb128 0x3b
 1631 00d0 0B       		.uleb128 0xb
 1632 00d1 49       		.uleb128 0x49
 1633 00d2 13       		.uleb128 0x13
 1634 00d3 02       		.uleb128 0x2
 1635 00d4 0A       		.uleb128 0xa
 1636 00d5 00       		.byte	0x0
 1637 00d6 00       		.byte	0x0
 1638 00d7 10       		.uleb128 0x10
 1639 00d8 34       		.uleb128 0x34
 1640 00d9 00       		.byte	0x0
 1641 00da 03       		.uleb128 0x3
 1642 00db 0E       		.uleb128 0xe
 1643 00dc 3A       		.uleb128 0x3a
 1644 00dd 0B       		.uleb128 0xb
 1645 00de 3B       		.uleb128 0x3b
 1646 00df 05       		.uleb128 0x5
 1647 00e0 49       		.uleb128 0x49
 1648 00e1 13       		.uleb128 0x13
 1649 00e2 3F       		.uleb128 0x3f
 1650 00e3 0C       		.uleb128 0xc
 1651 00e4 3C       		.uleb128 0x3c
 1652 00e5 0C       		.uleb128 0xc
 1653 00e6 00       		.byte	0x0
 1654 00e7 00       		.byte	0x0
 1655 00e8 11       		.uleb128 0x11
 1656 00e9 35       		.uleb128 0x35
 1657 00ea 00       		.byte	0x0
 1658 00eb 49       		.uleb128 0x49
 1659 00ec 13       		.uleb128 0x13
 1660 00ed 00       		.byte	0x0
 1661 00ee 00       		.byte	0x0
ARM GAS  C:\DOCUME~1\dtucker\LOCALS~1\Temp\ccDtUcnO.s 			page 34


 1662 00ef 12       		.uleb128 0x12
 1663 00f0 01       		.uleb128 0x1
 1664 00f1 01       		.byte	0x1
 1665 00f2 49       		.uleb128 0x49
 1666 00f3 13       		.uleb128 0x13
 1667 00f4 01       		.uleb128 0x1
 1668 00f5 13       		.uleb128 0x13
 1669 00f6 00       		.byte	0x0
 1670 00f7 00       		.byte	0x0
 1671 00f8 13       		.uleb128 0x13
 1672 00f9 21       		.uleb128 0x21
 1673 00fa 00       		.byte	0x0
 1674 00fb 49       		.uleb128 0x49
 1675 00fc 13       		.uleb128 0x13
 1676 00fd 2F       		.uleb128 0x2f
 1677 00fe 05       		.uleb128 0x5
 1678 00ff 00       		.byte	0x0
 1679 0100 00       		.byte	0x0
 1680 0101 14       		.uleb128 0x14
 1681 0102 34       		.uleb128 0x34
 1682 0103 00       		.byte	0x0
 1683 0104 03       		.uleb128 0x3
 1684 0105 0E       		.uleb128 0xe
 1685 0106 3A       		.uleb128 0x3a
 1686 0107 0B       		.uleb128 0xb
 1687 0108 3B       		.uleb128 0x3b
 1688 0109 0B       		.uleb128 0xb
 1689 010a 49       		.uleb128 0x49
 1690 010b 13       		.uleb128 0x13
 1691 010c 3F       		.uleb128 0x3f
 1692 010d 0C       		.uleb128 0xc
 1693 010e 02       		.uleb128 0x2
 1694 010f 0A       		.uleb128 0xa
 1695 0110 00       		.byte	0x0
 1696 0111 00       		.byte	0x0
 1697 0112 00       		.byte	0x0
 1698              		.section	.debug_pubnames,"",%progbits
 1699 0000 D2000000 		.4byte	0xd2
 1700 0004 0200     		.2byte	0x2
 1701 0006 00000000 		.4byte	.Ldebug_info0
 1702 000a B4020000 		.4byte	0x2b4
 1703 000e A8000000 		.4byte	0xa8
 1704 0012 4C43445F 		.ascii	"LCD_Spin\000"
 1704      5370696E 
 1704      00
 1705 001b FA000000 		.4byte	0xfa
 1706 001f 4C43445F 		.ascii	"LCD_ClearLine\000"
 1706      436C6561 
 1706      724C696E 
 1706      6500
 1707 002d 22010000 		.4byte	0x122
 1708 0031 4C43445F 		.ascii	"LCD_UpdateStatus\000"
 1708      55706461 
 1708      74655374 
 1708      61747573 
 1708      00
 1709 0042 4A010000 		.4byte	0x14a
ARM GAS  C:\DOCUME~1\dtucker\LOCALS~1\Temp\ccDtUcnO.s 			page 35


 1710 0046 4C43445F 		.ascii	"LCD_UpdateMessage\000"
 1710      55706461 
 1710      74654D65 
 1710      73736167 
 1710      6500
 1711 0058 72010000 		.4byte	0x172
 1712 005c 4953525F 		.ascii	"ISR_tx\000"
 1712      747800
 1713 0063 A2010000 		.4byte	0x1a2
 1714 0067 4953525F 		.ascii	"ISR_rx\000"
 1714      727800
 1715 006e B7010000 		.4byte	0x1b7
 1716 0072 6D61696E 		.ascii	"main\000"
 1716      00
 1717 0077 2E020000 		.4byte	0x22e
 1718 007b 6F757467 		.ascii	"outgoing\000"
 1718      6F696E67 
 1718      00
 1719 0084 40020000 		.4byte	0x240
 1720 0088 696E636F 		.ascii	"incoming\000"
 1720      6D696E67 
 1720      00
 1721 0091 52020000 		.4byte	0x252
 1722 0095 74785F63 		.ascii	"tx_cursor\000"
 1722      7572736F 
 1722      7200
 1723 009f 64020000 		.4byte	0x264
 1724 00a3 72785F63 		.ascii	"rx_cursor\000"
 1724      7572736F 
 1724      7200
 1725 00ad 76020000 		.4byte	0x276
 1726 00b1 7061636B 		.ascii	"packet\000"
 1726      657400
 1727 00b8 8F020000 		.4byte	0x28f
 1728 00bc 74785F63 		.ascii	"tx_count\000"
 1728      6F756E74 
 1728      00
 1729 00c5 A1020000 		.4byte	0x2a1
 1730 00c9 72785F63 		.ascii	"rx_count\000"
 1730      6F756E74 
 1730      00
 1731 00d2 00000000 		.4byte	0x0
 1732              		.section	.debug_aranges,"",%progbits
 1733 0000 4C000000 		.4byte	0x4c
 1734 0004 0200     		.2byte	0x2
 1735 0006 00000000 		.4byte	.Ldebug_info0
 1736 000a 04       		.byte	0x4
 1737 000b 00       		.byte	0x0
 1738 000c 0000     		.2byte	0x0
 1739 000e 0000     		.2byte	0x0
 1740 0010 00000000 		.4byte	.LFB29
 1741 0014 C0000000 		.4byte	.LFE29-.LFB29
 1742 0018 00000000 		.4byte	.LFB30
 1743 001c 2A000000 		.4byte	.LFE30-.LFB30
 1744 0020 00000000 		.4byte	.LFB31
 1745 0024 2A000000 		.4byte	.LFE31-.LFB31
 1746 0028 00000000 		.4byte	.LFB32
ARM GAS  C:\DOCUME~1\dtucker\LOCALS~1\Temp\ccDtUcnO.s 			page 36


 1747 002c 2A000000 		.4byte	.LFE32-.LFB32
 1748 0030 00000000 		.4byte	.LFB33
 1749 0034 EE000000 		.4byte	.LFE33-.LFB33
 1750 0038 00000000 		.4byte	.LFB34
 1751 003c DE000000 		.4byte	.LFE34-.LFB34
 1752 0040 00000000 		.4byte	.LFB35
 1753 0044 40030000 		.4byte	.LFE35-.LFB35
 1754 0048 00000000 		.4byte	0x0
 1755 004c 00000000 		.4byte	0x0
 1756              		.section	.debug_ranges,"",%progbits
 1757              	.Ldebug_ranges0:
 1758 0000 00000000 		.4byte	.Ltext0
 1759 0004 00000000 		.4byte	.Letext0
 1760 0008 00000000 		.4byte	.LFB29
 1761 000c C0000000 		.4byte	.LFE29
 1762 0010 00000000 		.4byte	.LFB30
 1763 0014 2A000000 		.4byte	.LFE30
 1764 0018 00000000 		.4byte	.LFB31
 1765 001c 2A000000 		.4byte	.LFE31
 1766 0020 00000000 		.4byte	.LFB32
 1767 0024 2A000000 		.4byte	.LFE32
 1768 0028 00000000 		.4byte	.LFB33
 1769 002c EE000000 		.4byte	.LFE33
 1770 0030 00000000 		.4byte	.LFB34
 1771 0034 DE000000 		.4byte	.LFE34
 1772 0038 00000000 		.4byte	.LFB35
 1773 003c 40030000 		.4byte	.LFE35
 1774 0040 00000000 		.4byte	0x0
 1775 0044 00000000 		.4byte	0x0
 1776              		.section	.debug_str,"MS",%progbits,1
 1777              	.LASF6:
 1778 0000 6C6F6E67 		.ascii	"long long int\000"
 1778      206C6F6E 
 1778      6720696E 
 1778      7400
 1779              	.LASF26:
 1780 000e 6F757467 		.ascii	"outgoing\000"
 1780      6F696E67 
 1780      00
 1781              	.LASF31:
 1782 0017 5F426F6F 		.ascii	"_Bool\000"
 1782      6C00
 1783              	.LASF15:
 1784 001d 636F756E 		.ascii	"count\000"
 1784      7400
 1785              	.LASF27:
 1786 0023 696E636F 		.ascii	"incoming\000"
 1786      6D696E67 
 1786      00
 1787              	.LASF3:
 1788 002c 73686F72 		.ascii	"short unsigned int\000"
 1788      7420756E 
 1788      7369676E 
 1788      65642069 
 1788      6E7400
 1789              	.LASF20:
 1790 003f 73747269 		.ascii	"string\000"
ARM GAS  C:\DOCUME~1\dtucker\LOCALS~1\Temp\ccDtUcnO.s 			page 37


 1790      6E6700
 1791              	.LASF21:
 1792 0046 4C43445F 		.ascii	"LCD_UpdateMessage\000"
 1792      55706461 
 1792      74654D65 
 1792      73736167 
 1792      6500
 1793              	.LASF11:
 1794 0058 666C6F61 		.ascii	"float\000"
 1794      7400
 1795              	.LASF24:
 1796 005e 504F5354 		.ascii	"POST\000"
 1796      00
 1797              	.LASF1:
 1798 0063 756E7369 		.ascii	"unsigned char\000"
 1798      676E6564 
 1798      20636861 
 1798      7200
 1799              	.LASF5:
 1800 0071 6C6F6E67 		.ascii	"long unsigned int\000"
 1800      20756E73 
 1800      69676E65 
 1800      6420696E 
 1800      7400
 1801              	.LASF9:
 1802 0083 75696E74 		.ascii	"uint8\000"
 1802      3800
 1803              	.LASF32:
 1804 0089 74785F63 		.ascii	"tx_count\000"
 1804      6F756E74 
 1804      00
 1805              	.LASF36:
 1806 0092 463A5C50 		.ascii	"F:\\PSoC Creator\\lab3\\part2.cydsn\000"
 1806      536F4320 
 1806      43726561 
 1806      746F725C 
 1806      6C616233 
 1807              	.LASF25:
 1808 00b3 49544D5F 		.ascii	"ITM_RxBuffer\000"
 1808      52784275 
 1808      66666572 
 1808      00
 1809              	.LASF12:
 1810 00c0 646F7562 		.ascii	"double\000"
 1810      6C6500
 1811              	.LASF35:
 1812 00c7 2E5C6D61 		.ascii	".\\main.c\000"
 1812      696E2E63 
 1812      00
 1813              	.LASF30:
 1814 00d0 7061636B 		.ascii	"packet\000"
 1814      657400
 1815              	.LASF10:
 1816 00d7 75696E74 		.ascii	"uint16\000"
 1816      313600
 1817              	.LASF16:
 1818 00de 4C43445F 		.ascii	"LCD_Spin\000"
ARM GAS  C:\DOCUME~1\dtucker\LOCALS~1\Temp\ccDtUcnO.s 			page 38


 1818      5370696E 
 1818      00
 1819              	.LASF38:
 1820 00e7 6D61696E 		.ascii	"main\000"
 1820      00
 1821              	.LASF23:
 1822 00ec 6572726F 		.ascii	"errors\000"
 1822      727300
 1823              	.LASF8:
 1824 00f3 756E7369 		.ascii	"unsigned int\000"
 1824      676E6564 
 1824      20696E74 
 1824      00
 1825              	.LASF7:
 1826 0100 6C6F6E67 		.ascii	"long long unsigned int\000"
 1826      206C6F6E 
 1826      6720756E 
 1826      7369676E 
 1826      65642069 
 1827              	.LASF18:
 1828 0117 6C696E65 		.ascii	"line\000"
 1828      00
 1829              	.LASF14:
 1830 011c 73706565 		.ascii	"speed\000"
 1830      6400
 1831              	.LASF34:
 1832 0122 474E5520 		.ascii	"GNU C 4.4.1\000"
 1832      4320342E 
 1832      342E3100 
 1833              	.LASF13:
 1834 012e 63686172 		.ascii	"char\000"
 1834      00
 1835              	.LASF28:
 1836 0133 74785F63 		.ascii	"tx_cursor\000"
 1836      7572736F 
 1836      7200
 1837              	.LASF2:
 1838 013d 73686F72 		.ascii	"short int\000"
 1838      7420696E 
 1838      7400
 1839              	.LASF19:
 1840 0147 4C43445F 		.ascii	"LCD_UpdateStatus\000"
 1840      55706461 
 1840      74655374 
 1840      61747573 
 1840      00
 1841              	.LASF33:
 1842 0158 72785F63 		.ascii	"rx_count\000"
 1842      6F756E74 
 1842      00
 1843              	.LASF4:
 1844 0161 6C6F6E67 		.ascii	"long int\000"
 1844      20696E74 
 1844      00
 1845              	.LASF17:
 1846 016a 4C43445F 		.ascii	"LCD_ClearLine\000"
 1846      436C6561 
ARM GAS  C:\DOCUME~1\dtucker\LOCALS~1\Temp\ccDtUcnO.s 			page 39


 1846      724C696E 
 1846      6500
 1847              	.LASF37:
 1848 0178 4953525F 		.ascii	"ISR_rx\000"
 1848      727800
 1849              	.LASF0:
 1850 017f 7369676E 		.ascii	"signed char\000"
 1850      65642063 
 1850      68617200 
 1851              	.LASF22:
 1852 018b 4953525F 		.ascii	"ISR_tx\000"
 1852      747800
 1853              	.LASF29:
 1854 0192 72785F63 		.ascii	"rx_cursor\000"
 1854      7572736F 
 1854      7200
 1855              		.ident	"GCC: (Sourcery G++ Lite 2010q1-188) 4.4.1"
