ARM GAS  C:\Users\dmtucker\AppData\Local\Temp\cc8CfiFm.s 			page 1


   1              		.syntax unified
   2              		.cpu cortex-m3
   3              		.fpu softvfp
   4              		.eabi_attribute 20, 1
   5              		.eabi_attribute 21, 1
   6              		.eabi_attribute 23, 3
   7              		.eabi_attribute 24, 1
   8              		.eabi_attribute 25, 1
   9              		.eabi_attribute 26, 1
  10              		.eabi_attribute 30, 6
  11              		.eabi_attribute 18, 4
  12              		.thumb
  13              		.file	"main.c"
  20 0000 04010000 		.text
  20      02005300 
  20      00000201 
  20      FB0E0D00 
  20      01010101 
  21              	.Ltext0:
  22              		.cfi_sections	.debug_frame
  23              		.global	gear
  24              		.data
  25              		.align	1
  26              		.type	gear, %object
  27              		.size	gear, 2
  28              	gear:
  29 0000 0200     		.short	2
  30              		.section	.text.gear_label,"ax",%progbits
  31              		.align	2
  32              		.global	gear_label
  33              		.thumb
  34              		.thumb_func
  35              		.type	gear_label, %function
  36              	gear_label:
  37              	.LFB29:
  38              		.file 1 ".\\main.c"
   1:.\main.c      **** #define DURATION 3 //seconds
   2:.\main.c      **** #define TRIALS   1 //[0,9]
   3:.\main.c      **** 
   4:.\main.c      **** #define GO   0x04
   5:.\main.c      **** #define IDLE 0x00
   6:.\main.c      **** #define REV  0x01
   7:.\main.c      **** #define STOP 0x02
   8:.\main.c      **** 
   9:.\main.c      **** #include <device.h>
  10:.\main.c      **** #include <stdbool.h>
  11:.\main.c      **** #include <display.h>
  12:.\main.c      **** 
  13:.\main.c      **** 
  14:.\main.c      **** uint16 gear = STOP;
  15:.\main.c      **** 
ARM GAS  C:\Users\dmtucker\AppData\Local\Temp\cc8CfiFm.s 			page 2


  16:.\main.c      **** 
  17:.\main.c      **** 
  18:.\main.c      **** 
  19:.\main.c      **** char gear_label (uint16 gear) {
  39              		.loc 1 19 0
  40              		.cfi_startproc
  41              		@ args = 0, pretend = 0, frame = 8
  42              		@ frame_needed = 1, uses_anonymous_args = 0
  43              		@ link register save eliminated.
  44 0000 80B4     		push	{r7}
  45              	.LCFI0:
  46              		.cfi_def_cfa_offset 4
  47 0002 83B0     		sub	sp, sp, #12
  48              	.LCFI1:
  49              		.cfi_def_cfa_offset 16
  50 0004 00AF     		add	r7, sp, #0
  51              		.cfi_offset 7, -4
  52              	.LCFI2:
  53              		.cfi_def_cfa_register 7
  54 0006 0346     		mov	r3, r0
  55 0008 FB80     		strh	r3, [r7, #6]	@ movhi
  20:.\main.c      ****     switch (gear) {
  56              		.loc 1 20 0
  57 000a FB88     		ldrh	r3, [r7, #6]
  58 000c 042B     		cmp	r3, #4
  59 000e 19D8     		bhi	.L2
  60 0010 01A2     		adr	r2, .L7
  61 0012 52F823F0 		ldr	pc, [r2, r3, lsl #2]
  62 0016 00BF     		.align	2
  63              	.L7:
  64 0018 39000000 		.word	.L3+1
  65 001c 33000000 		.word	.L4+1
  66 0020 2D000000 		.word	.L5+1
  67 0024 45000000 		.word	.L2+1
  68 0028 3F000000 		.word	.L6+1
  69              	.L5:
  21:.\main.c      ****         case STOP: return 'P';
  70              		.loc 1 21 0
  71 002c 4FF05003 		mov	r3, #80
  72 0030 0AE0     		b	.L8
  73              	.L4:
  22:.\main.c      ****         case REV:  return 'R';
  74              		.loc 1 22 0
  75 0032 4FF05203 		mov	r3, #82
  76 0036 07E0     		b	.L8
  77              	.L3:
  23:.\main.c      ****         case IDLE: return 'N';
  78              		.loc 1 23 0
  79 0038 4FF04E03 		mov	r3, #78
  80 003c 04E0     		b	.L8
  81              	.L6:
  24:.\main.c      ****         case GO:   return 'D';
  82              		.loc 1 24 0
  83 003e 4FF04403 		mov	r3, #68
  84 0042 01E0     		b	.L8
  85              	.L2:
  25:.\main.c      ****         default:   return '?';
ARM GAS  C:\Users\dmtucker\AppData\Local\Temp\cc8CfiFm.s 			page 3


  86              		.loc 1 25 0
  87 0044 4FF03F03 		mov	r3, #63
  88              	.L8:
  26:.\main.c      ****     }
  27:.\main.c      **** }
  89              		.loc 1 27 0
  90 0048 1846     		mov	r0, r3
  91 004a 07F10C07 		add	r7, r7, #12
  92 004e BD46     		mov	sp, r7
  93 0050 80BC     		pop	{r7}
  94 0052 7047     		bx	lr
  95              		.cfi_endproc
  96              	.LFE29:
  97              		.size	gear_label, .-gear_label
  98              		.section	.text.shift_gear,"ax",%progbits
  99              		.align	2
 100              		.global	shift_gear
 101              		.thumb
 102              		.thumb_func
 103              		.type	shift_gear, %function
 104              	shift_gear:
 105              	.LFB30:
  28:.\main.c      **** 
  29:.\main.c      **** 
  30:.\main.c      **** 
  31:.\main.c      **** 
  32:.\main.c      **** void shift_gear (uint16 next) {
 106              		.loc 1 32 0
 107              		.cfi_startproc
 108              		@ args = 0, pretend = 0, frame = 8
 109              		@ frame_needed = 1, uses_anonymous_args = 0
 110 0000 80B5     		push	{r7, lr}
 111              	.LCFI3:
 112              		.cfi_def_cfa_offset 8
 113 0002 82B0     		sub	sp, sp, #8
 114              	.LCFI4:
 115              		.cfi_def_cfa_offset 16
 116 0004 00AF     		add	r7, sp, #0
 117              		.cfi_offset 14, -4
 118              		.cfi_offset 7, -8
 119              	.LCFI5:
 120              		.cfi_def_cfa_register 7
 121 0006 0346     		mov	r3, r0
 122 0008 FB80     		strh	r3, [r7, #6]	@ movhi
  33:.\main.c      ****     Controller_Write(IDLE); //clutch
 123              		.loc 1 33 0
 124 000a 4FF00000 		mov	r0, #0
 125 000e FFF7FEFF 		bl	Controller_Write
  34:.\main.c      ****     gear = next;
 126              		.loc 1 34 0
 127 0012 40F20003 		movw	r3, #:lower16:gear
 128 0016 C0F20003 		movt	r3, #:upper16:gear
 129 001a FA88     		ldrh	r2, [r7, #6]	@ movhi
 130 001c 1A80     		strh	r2, [r3, #0]	@ movhi
  35:.\main.c      ****     Controller_Write(gear);
 131              		.loc 1 35 0
 132 001e 40F20003 		movw	r3, #:lower16:gear
ARM GAS  C:\Users\dmtucker\AppData\Local\Temp\cc8CfiFm.s 			page 4


 133 0022 C0F20003 		movt	r3, #:upper16:gear
 134 0026 1B88     		ldrh	r3, [r3, #0]
 135 0028 DBB2     		uxtb	r3, r3
 136 002a 1846     		mov	r0, r3
 137 002c FFF7FEFF 		bl	Controller_Write
  36:.\main.c      **** }
 138              		.loc 1 36 0
 139 0030 07F10807 		add	r7, r7, #8
 140 0034 BD46     		mov	sp, r7
 141 0036 80BD     		pop	{r7, pc}
 142              		.cfi_endproc
 143              	.LFE30:
 144              		.size	shift_gear, .-shift_gear
 145              		.section	.rodata
 146              		.align	2
 147              	.LC0:
 148 0000 69646C65 		.ascii	"idle\000"
 148      00
 149 0005 000000   		.align	2
 150              	.LC1:
 151 0008 666F7277 		.ascii	"forward\000"
 151      61726400 
 152              		.align	2
 153              	.LC2:
 154 0010 72657665 		.ascii	"reverse\000"
 154      72736500 
 155              		.align	2
 156              	.LC3:
 157 0018 73746F70 		.ascii	"stop\000"
 157      00
 158 001d 000000   		.align	2
 159              	.LC4:
 160 0020 73746F70 		.ascii	"stopped\000"
 160      70656400 
 161              		.align	2
 162              	.LC5:
 163 0028 6572726F 		.ascii	"error\000"
 163      7200
 164              		.section	.text.test_motor,"ax",%progbits
 165              		.align	2
 166              		.global	test_motor
 167              		.thumb
 168              		.thumb_func
 169              		.type	test_motor, %function
 170              	test_motor:
 171              	.LFB31:
  37:.\main.c      **** 
  38:.\main.c      **** 
  39:.\main.c      **** 
  40:.\main.c      **** 
  41:.\main.c      **** void test_motor (trials, duration) {
 172              		.loc 1 41 0
 173              		.cfi_startproc
 174              		@ args = 0, pretend = 0, frame = 16
 175              		@ frame_needed = 1, uses_anonymous_args = 0
 176 0000 80B5     		push	{r7, lr}
 177              	.LCFI6:
ARM GAS  C:\Users\dmtucker\AppData\Local\Temp\cc8CfiFm.s 			page 5


 178              		.cfi_def_cfa_offset 8
 179 0002 84B0     		sub	sp, sp, #16
 180              	.LCFI7:
 181              		.cfi_def_cfa_offset 24
 182 0004 00AF     		add	r7, sp, #0
 183              		.cfi_offset 14, -4
 184              		.cfi_offset 7, -8
 185              	.LCFI8:
 186              		.cfi_def_cfa_register 7
 187 0006 7860     		str	r0, [r7, #4]
 188 0008 3960     		str	r1, [r7, #0]
  42:.\main.c      ****     uint16 triali, geari = 0x00;
 189              		.loc 1 42 0
 190 000a 4FF00003 		mov	r3, #0
 191 000e BB81     		strh	r3, [r7, #12]	@ movhi
  43:.\main.c      **** 	for (triali = trials*4; triali > 0 ;--triali) {
 192              		.loc 1 43 0
 193 0010 7B68     		ldr	r3, [r7, #4]
 194 0012 9BB2     		uxth	r3, r3
 195 0014 4FEA8303 		lsl	r3, r3, #2
 196 0018 7B81     		strh	r3, [r7, #10]	@ movhi
 197 001a 82E0     		b	.L13
 198              	.L28:
 199              	.LBB2:
  44:.\main.c      ****         switch (geari) {
 200              		.loc 1 44 0
 201 001c BB89     		ldrh	r3, [r7, #12]
 202 001e 042B     		cmp	r3, #4
 203 0020 38D8     		bhi	.L14
 204 0022 01A2     		adr	r2, .L19
 205 0024 52F823F0 		ldr	pc, [r2, r3, lsl #2]
 206              		.align	2
 207              	.L19:
 208 0028 3D000000 		.word	.L15+1
 209 002c 69000000 		.word	.L16+1
 210 0030 7F000000 		.word	.L17+1
 211 0034 95000000 		.word	.L14+1
 212 0038 53000000 		.word	.L18+1
 213              	.L15:
  45:.\main.c      ****             case IDLE:
  46:.\main.c      ****                 LCD_UpdateMessage("idle");
 214              		.loc 1 46 0
 215 003c 40F20000 		movw	r0, #:lower16:.LC0
 216 0040 C0F20000 		movt	r0, #:upper16:.LC0
 217 0044 FFF7FEFF 		bl	LCD_UpdateMessage
  47:.\main.c      ****         		Controller_Write(IDLE);
 218              		.loc 1 47 0
 219 0048 4FF00000 		mov	r0, #0
 220 004c FFF7FEFF 		bl	Controller_Write
  48:.\main.c      ****                 break;
 221              		.loc 1 48 0
 222 0050 31E0     		b	.L20
 223              	.L18:
  49:.\main.c      ****             case GO:
  50:.\main.c      ****                 LCD_UpdateMessage("forward");
 224              		.loc 1 50 0
 225 0052 40F20000 		movw	r0, #:lower16:.LC1
ARM GAS  C:\Users\dmtucker\AppData\Local\Temp\cc8CfiFm.s 			page 6


 226 0056 C0F20000 		movt	r0, #:upper16:.LC1
 227 005a FFF7FEFF 		bl	LCD_UpdateMessage
  51:.\main.c      ****         		Controller_Write(GO);
 228              		.loc 1 51 0
 229 005e 4FF00400 		mov	r0, #4
 230 0062 FFF7FEFF 		bl	Controller_Write
  52:.\main.c      ****                 break;
 231              		.loc 1 52 0
 232 0066 26E0     		b	.L20
 233              	.L16:
  53:.\main.c      ****             case REV:
  54:.\main.c      ****                 LCD_UpdateMessage("reverse");
 234              		.loc 1 54 0
 235 0068 40F20000 		movw	r0, #:lower16:.LC2
 236 006c C0F20000 		movt	r0, #:upper16:.LC2
 237 0070 FFF7FEFF 		bl	LCD_UpdateMessage
  55:.\main.c      ****         		Controller_Write(REV);
 238              		.loc 1 55 0
 239 0074 4FF00100 		mov	r0, #1
 240 0078 FFF7FEFF 		bl	Controller_Write
  56:.\main.c      ****                 break;
 241              		.loc 1 56 0
 242 007c 1BE0     		b	.L20
 243              	.L17:
  57:.\main.c      ****             case STOP:
  58:.\main.c      ****                 LCD_UpdateMessage("stop");
 244              		.loc 1 58 0
 245 007e 40F20000 		movw	r0, #:lower16:.LC3
 246 0082 C0F20000 		movt	r0, #:upper16:.LC3
 247 0086 FFF7FEFF 		bl	LCD_UpdateMessage
  59:.\main.c      ****         		Controller_Write(STOP);
 248              		.loc 1 59 0
 249 008a 4FF00200 		mov	r0, #2
 250 008e FFF7FEFF 		bl	Controller_Write
  60:.\main.c      ****                 break;
 251              		.loc 1 60 0
 252 0092 10E0     		b	.L20
 253              	.L14:
  61:.\main.c      ****             default:
  62:.\main.c      ****                 LCD_UpdateStatus("stopped");
 254              		.loc 1 62 0
 255 0094 40F20000 		movw	r0, #:lower16:.LC4
 256 0098 C0F20000 		movt	r0, #:upper16:.LC4
 257 009c FFF7FEFF 		bl	LCD_UpdateStatus
  63:.\main.c      ****                 LCD_UpdateMessage("error");
 258              		.loc 1 63 0
 259 00a0 40F20000 		movw	r0, #:lower16:.LC5
 260 00a4 C0F20000 		movt	r0, #:upper16:.LC5
 261 00a8 FFF7FEFF 		bl	LCD_UpdateMessage
  64:.\main.c      ****         		Controller_Write(IDLE);
 262              		.loc 1 64 0
 263 00ac 4FF00000 		mov	r0, #0
 264 00b0 FFF7FEFF 		bl	Controller_Write
 265              	.L21:
  65:.\main.c      ****                 while (true);
 266              		.loc 1 65 0
 267 00b4 FEE7     		b	.L21
ARM GAS  C:\Users\dmtucker\AppData\Local\Temp\cc8CfiFm.s 			page 7


 268              	.L20:
  66:.\main.c      ****         }
  67:.\main.c      ****         
  68:.\main.c      ****         uint16 i;
  69:.\main.c      ****         for (i=0; i < duration ;++i) {
 269              		.loc 1 69 0
 270 00b6 4FF00003 		mov	r3, #0
 271 00ba FB81     		strh	r3, [r7, #14]	@ movhi
 272 00bc 16E0     		b	.L22
 273              	.L23:
  70:.\main.c      ****             LCD_Position(1,15);
 274              		.loc 1 70 0
 275 00be 4FF00100 		mov	r0, #1
 276 00c2 4FF00F01 		mov	r1, #15
 277 00c6 FFF7FEFF 		bl	LCD_Position
  71:.\main.c      ****             LCD_PrintNumber(duration-i);
 278              		.loc 1 71 0
 279 00ca 3B68     		ldr	r3, [r7, #0]
 280 00cc 9AB2     		uxth	r2, r3
 281 00ce FB89     		ldrh	r3, [r7, #14]	@ movhi
 282 00d0 C3EB0203 		rsb	r3, r3, r2
 283 00d4 9BB2     		uxth	r3, r3
 284 00d6 1846     		mov	r0, r3
 285 00d8 FFF7FEFF 		bl	LCD_PrintNumber
  72:.\main.c      **** 		    CyDelay(1000);
 286              		.loc 1 72 0
 287 00dc 4FF47A70 		mov	r0, #1000
 288 00e0 FFF7FEFF 		bl	CyDelay
 289              		.loc 1 69 0
 290 00e4 FB89     		ldrh	r3, [r7, #14]	@ movhi
 291 00e6 03F10103 		add	r3, r3, #1
 292 00ea FB81     		strh	r3, [r7, #14]	@ movhi
 293              	.L22:
 294 00ec FA89     		ldrh	r2, [r7, #14]
 295 00ee 3B68     		ldr	r3, [r7, #0]
 296 00f0 9A42     		cmp	r2, r3
 297 00f2 E4DB     		blt	.L23
  73:.\main.c      ****         }
  74:.\main.c      ****         
  75:.\main.c      ****         if (geari == 0x00) geari = 0x01;
 298              		.loc 1 75 0
 299 00f4 BB89     		ldrh	r3, [r7, #12]
 300 00f6 002B     		cmp	r3, #0
 301 00f8 03D1     		bne	.L24
 302 00fa 4FF00103 		mov	r3, #1
 303 00fe BB81     		strh	r3, [r7, #12]	@ movhi
 304 0100 0BE0     		b	.L25
 305              	.L24:
  76:.\main.c      ****         else geari *= (geari == 0x04) ? 0 : 2;
 306              		.loc 1 76 0
 307 0102 BB89     		ldrh	r3, [r7, #12]
 308 0104 042B     		cmp	r3, #4
 309 0106 02D1     		bne	.L26
 310 0108 4FF00003 		mov	r3, #0
 311 010c 01E0     		b	.L27
 312              	.L26:
 313 010e 4FF00203 		mov	r3, #2
ARM GAS  C:\Users\dmtucker\AppData\Local\Temp\cc8CfiFm.s 			page 8


 314              	.L27:
 315 0112 BA89     		ldrh	r2, [r7, #12]	@ movhi
 316 0114 02FB03F3 		mul	r3, r2, r3
 317 0118 BB81     		strh	r3, [r7, #12]	@ movhi
 318              	.L25:
 319              	.LBE2:
 320              		.loc 1 43 0
 321 011a 7B89     		ldrh	r3, [r7, #10]	@ movhi
 322 011c 03F1FF33 		add	r3, r3, #-1
 323 0120 7B81     		strh	r3, [r7, #10]	@ movhi
 324              	.L13:
 325 0122 7B89     		ldrh	r3, [r7, #10]
 326 0124 002B     		cmp	r3, #0
 327 0126 7FF479AF 		bne	.L28
  77:.\main.c      **** 	}
  78:.\main.c      **** }
 328              		.loc 1 78 0
 329 012a 07F11007 		add	r7, r7, #16
 330 012e BD46     		mov	sp, r7
 331 0130 80BD     		pop	{r7, pc}
 332              		.cfi_endproc
 333              	.LFE31:
 334              		.size	test_motor, .-test_motor
 335 0132 00BF     		.section	.text.transmission,"ax",%progbits
 336              		.align	2
 337              		.global	transmission
 338              		.thumb
 339              		.thumb_func
 340              		.type	transmission, %function
 341              	transmission:
 342              	.LFB32:
  79:.\main.c      **** 
  80:.\main.c      **** 
  81:.\main.c      **** 
  82:.\main.c      **** 
  83:.\main.c      **** CY_ISR (transmission) {
 343              		.loc 1 83 0
 344              		.cfi_startproc
 345              		@ args = 0, pretend = 0, frame = 0
 346              		@ frame_needed = 1, uses_anonymous_args = 0
 347 0000 80B5     		push	{r7, lr}
 348              	.LCFI9:
 349              		.cfi_def_cfa_offset 8
 350 0002 00AF     		add	r7, sp, #0
 351              		.cfi_offset 14, -4
 352              		.cfi_offset 7, -8
 353              	.LCFI10:
 354              		.cfi_def_cfa_register 7
  84:.\main.c      ****     shift_gear((gear == GO) ? REV : GO);
 355              		.loc 1 84 0
 356 0004 40F20003 		movw	r3, #:lower16:gear
 357 0008 C0F20003 		movt	r3, #:upper16:gear
 358 000c 1B88     		ldrh	r3, [r3, #0]
 359 000e 042B     		cmp	r3, #4
 360 0010 02D1     		bne	.L31
 361 0012 4FF00103 		mov	r3, #1
 362 0016 01E0     		b	.L32
ARM GAS  C:\Users\dmtucker\AppData\Local\Temp\cc8CfiFm.s 			page 9


 363              	.L31:
 364 0018 4FF00403 		mov	r3, #4
 365              	.L32:
 366 001c 1846     		mov	r0, r3
 367 001e FFF7FEFF 		bl	shift_gear
  85:.\main.c      ****     ISR_ClearPending();
 368              		.loc 1 85 0
 369 0022 FFF7FEFF 		bl	ISR_ClearPending
  86:.\main.c      **** }
 370              		.loc 1 86 0
 371 0026 80BD     		pop	{r7, pc}
 372              		.cfi_endproc
 373              	.LFE32:
 374              		.size	transmission, .-transmission
 375              		.section	.rodata
 376 002e 0000     		.align	2
 377              	.LC6:
 378 0030 696E6974 		.ascii	"initializing...\000"
 378      69616C69 
 378      7A696E67 
 378      2E2E2E00 
 379              		.align	2
 380              	.LC7:
 381 0040 436C6F63 		.ascii	"Clock\000"
 381      6B00
 382 0046 0000     		.align	2
 383              	.LC8:
 384 0048 41444300 		.ascii	"ADC\000"
 385              		.align	2
 386              	.LC9:
 387 004c 50574D00 		.ascii	"PWM\000"
 388              		.align	2
 389              	.LC10:
 390 0050 4D6F746F 		.ascii	"Motor\000"
 390      7200
 391 0056 0000     		.align	2
 392              	.LC11:
 393 0058 496E7465 		.ascii	"Interrupts\000"
 393      72727570 
 393      747300
 394 0063 00       		.align	2
 395              	.LC12:
 396 0064 20676561 		.ascii	" gear:\000"
 396      723A00
 397 006b 00       		.align	2
 398              	.LC13:
 399 006c 73706565 		.ascii	"speed:\000"
 399      643A00
 400 0073 00       		.align	2
 401              	.LC14:
 402 0074 202500   		.ascii	" %\000"
 403 0077 00       		.align	2
 404              	.LC15:
 405 0078 636C6561 		.ascii	"cleaning...\000"
 405      6E696E67 
 405      2E2E2E00 
 406              		.section	.text.main,"ax",%progbits
ARM GAS  C:\Users\dmtucker\AppData\Local\Temp\cc8CfiFm.s 			page 10


 407              		.align	2
 408              		.global	main
 409              		.thumb
 410              		.thumb_func
 411              		.type	main, %function
 412              	main:
 413              	.LFB33:
  87:.\main.c      **** 
  88:.\main.c      **** 
  89:.\main.c      **** 
  90:.\main.c      **** 
  91:.\main.c      **** void main () {
 414              		.loc 1 91 0
 415              		.cfi_startproc
 416              		@ args = 0, pretend = 0, frame = 8
 417              		@ frame_needed = 1, uses_anonymous_args = 0
 418 0000 90B5     		push	{r4, r7, lr}
 419              	.LCFI11:
 420              		.cfi_def_cfa_offset 12
 421 0002 83B0     		sub	sp, sp, #12
 422              	.LCFI12:
 423              		.cfi_def_cfa_offset 24
 424 0004 00AF     		add	r7, sp, #0
 425              		.cfi_offset 14, -4
 426              		.cfi_offset 7, -8
 427              		.cfi_offset 4, -12
 428              	.LCFI13:
 429              		.cfi_def_cfa_register 7
  92:.\main.c      ****     LCD_Start();
 430              		.loc 1 92 0
 431 0006 FFF7FEFF 		bl	LCD_Start
  93:.\main.c      ****     LCD_UpdateStatus("initializing...");
 432              		.loc 1 93 0
 433 000a 40F20000 		movw	r0, #:lower16:.LC6
 434 000e C0F20000 		movt	r0, #:upper16:.LC6
 435 0012 FFF7FEFF 		bl	LCD_UpdateStatus
  94:.\main.c      ****     LCD_UpdateMessage("Clock");
 436              		.loc 1 94 0
 437 0016 40F20000 		movw	r0, #:lower16:.LC7
 438 001a C0F20000 		movt	r0, #:upper16:.LC7
 439 001e FFF7FEFF 		bl	LCD_UpdateMessage
  95:.\main.c      ****     Clock_Start();
 440              		.loc 1 95 0
 441 0022 FFF7FEFF 		bl	Clock_Start
  96:.\main.c      ****     LCD_UpdateMessage("ADC");
 442              		.loc 1 96 0
 443 0026 40F20000 		movw	r0, #:lower16:.LC8
 444 002a C0F20000 		movt	r0, #:upper16:.LC8
 445 002e FFF7FEFF 		bl	LCD_UpdateMessage
  97:.\main.c      ****     ADC_Start();
 446              		.loc 1 97 0
 447 0032 FFF7FEFF 		bl	ADC_Start
  98:.\main.c      ****     ADC_StartConvert();
 448              		.loc 1 98 0
 449 0036 FFF7FEFF 		bl	ADC_StartConvert
  99:.\main.c      ****     LCD_UpdateMessage("PWM");
 450              		.loc 1 99 0
ARM GAS  C:\Users\dmtucker\AppData\Local\Temp\cc8CfiFm.s 			page 11


 451 003a 40F20000 		movw	r0, #:lower16:.LC9
 452 003e C0F20000 		movt	r0, #:upper16:.LC9
 453 0042 FFF7FEFF 		bl	LCD_UpdateMessage
 100:.\main.c      ****     PWM_Start();
 454              		.loc 1 100 0
 455 0046 FFF7FEFF 		bl	PWM_Start
 101:.\main.c      ****     LCD_UpdateMessage("Motor");
 456              		.loc 1 101 0
 457 004a 40F20000 		movw	r0, #:lower16:.LC10
 458 004e C0F20000 		movt	r0, #:upper16:.LC10
 459 0052 FFF7FEFF 		bl	LCD_UpdateMessage
 102:.\main.c      ****     test_motor(TRIALS, DURATION);
 460              		.loc 1 102 0
 461 0056 4FF00100 		mov	r0, #1
 462 005a 4FF00301 		mov	r1, #3
 463 005e FFF7FEFF 		bl	test_motor
 103:.\main.c      ****     LCD_UpdateMessage("Interrupts");
 464              		.loc 1 103 0
 465 0062 40F20000 		movw	r0, #:lower16:.LC11
 466 0066 C0F20000 		movt	r0, #:upper16:.LC11
 467 006a FFF7FEFF 		bl	LCD_UpdateMessage
 104:.\main.c      ****     CyGlobalIntEnable;
 468              		.loc 1 104 0
 469              	@ 104 ".\main.c" 1
 470 006e 62B6     		CPSIE   i
 471              	@ 0 "" 2
 105:.\main.c      ****     ISR_StartEx(transmission);
 472              		.loc 1 105 0
 473              		.thumb
 474 0070 40F20000 		movw	r0, #:lower16:transmission
 475 0074 C0F20000 		movt	r0, #:upper16:transmission
 476 0078 FFF7FEFF 		bl	ISR_StartEx
 106:.\main.c      ****     
 107:.\main.c      ****     
 108:.\main.c      ****     shift_gear(GO);
 477              		.loc 1 108 0
 478 007c 4FF00400 		mov	r0, #4
 479 0080 FFF7FEFF 		bl	shift_gear
 109:.\main.c      ****     LCD_UpdateStatus(" gear:");
 480              		.loc 1 109 0
 481 0084 40F20000 		movw	r0, #:lower16:.LC12
 482 0088 C0F20000 		movt	r0, #:upper16:.LC12
 483 008c FFF7FEFF 		bl	LCD_UpdateStatus
 110:.\main.c      ****     LCD_UpdateMessage("speed:");
 484              		.loc 1 110 0
 485 0090 40F20000 		movw	r0, #:lower16:.LC13
 486 0094 C0F20000 		movt	r0, #:upper16:.LC13
 487 0098 FFF7FEFF 		bl	LCD_UpdateMessage
 111:.\main.c      ****     LCD_Position(1,12);
 488              		.loc 1 111 0
 489 009c 4FF00100 		mov	r0, #1
 490 00a0 4FF00C01 		mov	r1, #12
 491 00a4 FFF7FEFF 		bl	LCD_Position
 112:.\main.c      ****     LCD_PrintInt16(PWM_ReadPeriod());
 492              		.loc 1 112 0
 493 00a8 FFF7FEFF 		bl	PWM_ReadPeriod
 494 00ac 0346     		mov	r3, r0
ARM GAS  C:\Users\dmtucker\AppData\Local\Temp\cc8CfiFm.s 			page 12


 495 00ae 1846     		mov	r0, r3
 496 00b0 FFF7FEFF 		bl	LCD_PrintInt16
 113:.\main.c      ****     while (ADC_IsEndConversion(ADC_WAIT_FOR_RESULT)) {
 497              		.loc 1 113 0
 498 00b4 61E0     		b	.L35
 499              	.L36:
 500              	.LBB3:
 114:.\main.c      ****         uint16 speed = ADC_GetResult16();
 501              		.loc 1 114 0
 502 00b6 FFF7FEFF 		bl	ADC_GetResult16
 503 00ba 0346     		mov	r3, r0
 504 00bc 9BB2     		uxth	r3, r3
 505 00be FB80     		strh	r3, [r7, #6]	@ movhi
 115:.\main.c      ****         LCD_Position(1,8);
 506              		.loc 1 115 0
 507 00c0 4FF00100 		mov	r0, #1
 508 00c4 4FF00801 		mov	r1, #8
 509 00c8 FFF7FEFF 		bl	LCD_Position
 116:.\main.c      ****         LCD_PrintString(" %");
 510              		.loc 1 116 0
 511 00cc 40F20000 		movw	r0, #:lower16:.LC14
 512 00d0 C0F20000 		movt	r0, #:upper16:.LC14
 513 00d4 FFF7FEFF 		bl	LCD_PrintString
 117:.\main.c      ****         LCD_Position(1,7);
 514              		.loc 1 117 0
 515 00d8 4FF00100 		mov	r0, #1
 516 00dc 4FF00701 		mov	r1, #7
 517 00e0 FFF7FEFF 		bl	LCD_Position
 118:.\main.c      ****         LCD_PrintNumber(speed*100/65535);
 518              		.loc 1 118 0
 519 00e4 FB88     		ldrh	r3, [r7, #6]
 520 00e6 4FF06402 		mov	r2, #100
 521 00ea 02FB03F3 		mul	r3, r2, r3
 522 00ee 48F20102 		movw	r2, #:lower16:-2147450879
 523 00f2 C8F20002 		movt	r2, #:upper16:-2147450879
 524 00f6 82FB0312 		smull	r1, r2, r2, r3
 525 00fa 1A44     		add	r2, r2, r3
 526 00fc 4FEAE232 		asr	r2, r2, #15
 527 0100 4FEAE373 		asr	r3, r3, #31
 528 0104 C3EB0203 		rsb	r3, r3, r2
 529 0108 9BB2     		uxth	r3, r3
 530 010a 1846     		mov	r0, r3
 531 010c FFF7FEFF 		bl	LCD_PrintNumber
 119:.\main.c      ****         PWM_WriteCompare(speed*PWM_ReadPeriod()/65535);
 532              		.loc 1 119 0
 533 0110 FC88     		ldrh	r4, [r7, #6]
 534 0112 FFF7FEFF 		bl	PWM_ReadPeriod
 535 0116 0346     		mov	r3, r0
 536 0118 03FB04F3 		mul	r3, r3, r4
 537 011c 48F20102 		movw	r2, #:lower16:-2147450879
 538 0120 C8F20002 		movt	r2, #:upper16:-2147450879
 539 0124 82FB0312 		smull	r1, r2, r2, r3
 540 0128 1A44     		add	r2, r2, r3
 541 012a 4FEAE232 		asr	r2, r2, #15
 542 012e 4FEAE373 		asr	r3, r3, #31
 543 0132 C3EB0203 		rsb	r3, r3, r2
 544 0136 9BB2     		uxth	r3, r3
ARM GAS  C:\Users\dmtucker\AppData\Local\Temp\cc8CfiFm.s 			page 13


 545 0138 1846     		mov	r0, r3
 546 013a FFF7FEFF 		bl	PWM_WriteCompare
 120:.\main.c      ****         LCD_Position(0,7);
 547              		.loc 1 120 0
 548 013e 4FF00000 		mov	r0, #0
 549 0142 4FF00701 		mov	r1, #7
 550 0146 FFF7FEFF 		bl	LCD_Position
 121:.\main.c      ****         LCD_PutChar(gear_label(gear));
 551              		.loc 1 121 0
 552 014a 40F20003 		movw	r3, #:lower16:gear
 553 014e C0F20003 		movt	r3, #:upper16:gear
 554 0152 1B88     		ldrh	r3, [r3, #0]
 555 0154 1846     		mov	r0, r3
 556 0156 FFF7FEFF 		bl	gear_label
 557 015a 0346     		mov	r3, r0
 558 015c 1846     		mov	r0, r3
 559 015e FFF7FEFF 		bl	LCD_PutChar
 122:.\main.c      ****         LCD_Position(0,12);
 560              		.loc 1 122 0
 561 0162 4FF00000 		mov	r0, #0
 562 0166 4FF00C01 		mov	r1, #12
 563 016a FFF7FEFF 		bl	LCD_Position
 123:.\main.c      ****         LCD_PrintInt16(PWM_ReadCounter());
 564              		.loc 1 123 0
 565 016e FFF7FEFF 		bl	PWM_ReadCounter
 566 0172 0346     		mov	r3, r0
 567 0174 1846     		mov	r0, r3
 568 0176 FFF7FEFF 		bl	LCD_PrintInt16
 569              	.L35:
 570              	.LBE3:
 571              		.loc 1 113 0
 572 017a 4FF00000 		mov	r0, #0
 573 017e FFF7FEFF 		bl	ADC_IsEndConversion
 574 0182 0346     		mov	r3, r0
 575 0184 002B     		cmp	r3, #0
 576 0186 96D1     		bne	.L36
 124:.\main.c      ****     }
 125:.\main.c      ****     
 126:.\main.c      ****     
 127:.\main.c      ****     LCD_UpdateStatus("cleaning...");
 577              		.loc 1 127 0
 578 0188 40F20000 		movw	r0, #:lower16:.LC15
 579 018c C0F20000 		movt	r0, #:upper16:.LC15
 580 0190 FFF7FEFF 		bl	LCD_UpdateStatus
 128:.\main.c      ****     LCD_UpdateMessage("Interrupts");
 581              		.loc 1 128 0
 582 0194 40F20000 		movw	r0, #:lower16:.LC11
 583 0198 C0F20000 		movt	r0, #:upper16:.LC11
 584 019c FFF7FEFF 		bl	LCD_UpdateMessage
 129:.\main.c      ****     ISR_Stop();
 585              		.loc 1 129 0
 586 01a0 FFF7FEFF 		bl	ISR_Stop
 130:.\main.c      ****     LCD_UpdateMessage("PWM");
 587              		.loc 1 130 0
 588 01a4 40F20000 		movw	r0, #:lower16:.LC9
 589 01a8 C0F20000 		movt	r0, #:upper16:.LC9
 590 01ac FFF7FEFF 		bl	LCD_UpdateMessage
ARM GAS  C:\Users\dmtucker\AppData\Local\Temp\cc8CfiFm.s 			page 14


 131:.\main.c      ****     PWM_Stop();
 591              		.loc 1 131 0
 592 01b0 FFF7FEFF 		bl	PWM_Stop
 132:.\main.c      ****     LCD_UpdateMessage("ADC");
 593              		.loc 1 132 0
 594 01b4 40F20000 		movw	r0, #:lower16:.LC8
 595 01b8 C0F20000 		movt	r0, #:upper16:.LC8
 596 01bc FFF7FEFF 		bl	LCD_UpdateMessage
 133:.\main.c      ****     ADC_Stop();
 597              		.loc 1 133 0
 598 01c0 FFF7FEFF 		bl	ADC_Stop
 134:.\main.c      ****     LCD_UpdateMessage("Clock");
 599              		.loc 1 134 0
 600 01c4 40F20000 		movw	r0, #:lower16:.LC7
 601 01c8 C0F20000 		movt	r0, #:upper16:.LC7
 602 01cc FFF7FEFF 		bl	LCD_UpdateMessage
 135:.\main.c      ****     Clock_Stop();
 603              		.loc 1 135 0
 604 01d0 FFF7FEFF 		bl	Clock_Stop
 136:.\main.c      **** }
 605              		.loc 1 136 0
 606 01d4 07F10C07 		add	r7, r7, #12
 607 01d8 BD46     		mov	sp, r7
 608 01da 90BD     		pop	{r4, r7, pc}
 609              		.cfi_endproc
 610              	.LFE33:
 611              		.size	main, .-main
 612              		.text
 613              	.Letext0: