ARM GAS  C:\Users\dmtucker\AppData\Local\Temp\ccoAbgBE.s 			page 1


   1              		.syntax unified
   2              		.cpu cortex-m3
   3              		.fpu softvfp
   4              		.eabi_attribute 20, 1
   5              		.eabi_attribute 21, 1
   6              		.eabi_attribute 23, 3
   7              		.eabi_attribute 24, 1
   8              		.eabi_attribute 25, 1
   9              		.eabi_attribute 26, 1
  10              		.eabi_attribute 30, 6
  11              		.eabi_attribute 18, 4
  12              		.thumb
  13              		.file	"Motor.c"
  20 0000 B2000000 		.text
  20      02005E00 
  20      00000201 
  20      FB0E0D00 
  20      01010101 
  21              	.Ltext0:
  22              		.cfi_sections	.debug_frame
  23              		.section	.text.Motor_Write,"ax",%progbits
  24              		.align	2
  25              		.global	Motor_Write
  26              		.thumb
  27              		.thumb_func
  28              		.type	Motor_Write, %function
  29              	Motor_Write:
  30              	.LFB0:
  31              		.file 1 ".\\Generated_Source\\PSoC5\\Motor.c"
   1:.\Generated_Source\PSoC5/Motor.c **** /*******************************************************************************
   2:.\Generated_Source\PSoC5/Motor.c **** * File Name: Motor.c  
   3:.\Generated_Source\PSoC5/Motor.c **** * Version 1.80
   4:.\Generated_Source\PSoC5/Motor.c **** *
   5:.\Generated_Source\PSoC5/Motor.c **** * Description:
   6:.\Generated_Source\PSoC5/Motor.c **** *  This file contains API to enable firmware control of a Pins component.
   7:.\Generated_Source\PSoC5/Motor.c **** *
   8:.\Generated_Source\PSoC5/Motor.c **** * Note:
   9:.\Generated_Source\PSoC5/Motor.c **** *
  10:.\Generated_Source\PSoC5/Motor.c **** ********************************************************************************
  11:.\Generated_Source\PSoC5/Motor.c **** * Copyright 2008-2012, Cypress Semiconductor Corporation.  All rights reserved.
  12:.\Generated_Source\PSoC5/Motor.c **** * You may use this file only in accordance with the license, terms, conditions, 
  13:.\Generated_Source\PSoC5/Motor.c **** * disclaimers, and limitations in the end user license agreement accompanying 
  14:.\Generated_Source\PSoC5/Motor.c **** * the software package with which this file was provided.
  15:.\Generated_Source\PSoC5/Motor.c **** *******************************************************************************/
  16:.\Generated_Source\PSoC5/Motor.c **** 
  17:.\Generated_Source\PSoC5/Motor.c **** #include "cytypes.h"
  18:.\Generated_Source\PSoC5/Motor.c **** #include "Motor.h"
  19:.\Generated_Source\PSoC5/Motor.c **** 
  20:.\Generated_Source\PSoC5/Motor.c **** /* APIs are not generated for P15[7:6] on PSoC 5 */
  21:.\Generated_Source\PSoC5/Motor.c **** #if !(CY_PSOC5A &&\
  22:.\Generated_Source\PSoC5/Motor.c **** 	 Motor__PORT == 15 && ((Motor__MASK & 0xC0) != 0))
ARM GAS  C:\Users\dmtucker\AppData\Local\Temp\ccoAbgBE.s 			page 2


  23:.\Generated_Source\PSoC5/Motor.c **** 
  24:.\Generated_Source\PSoC5/Motor.c **** 
  25:.\Generated_Source\PSoC5/Motor.c **** /*******************************************************************************
  26:.\Generated_Source\PSoC5/Motor.c **** * Function Name: Motor_Write
  27:.\Generated_Source\PSoC5/Motor.c **** ********************************************************************************
  28:.\Generated_Source\PSoC5/Motor.c **** *
  29:.\Generated_Source\PSoC5/Motor.c **** * Summary:
  30:.\Generated_Source\PSoC5/Motor.c **** *  Assign a new value to the digital port's data output register.  
  31:.\Generated_Source\PSoC5/Motor.c **** *
  32:.\Generated_Source\PSoC5/Motor.c **** * Parameters:  
  33:.\Generated_Source\PSoC5/Motor.c **** *  prtValue:  The value to be assigned to the Digital Port. 
  34:.\Generated_Source\PSoC5/Motor.c **** *
  35:.\Generated_Source\PSoC5/Motor.c **** * Return: 
  36:.\Generated_Source\PSoC5/Motor.c **** *  None
  37:.\Generated_Source\PSoC5/Motor.c **** *  
  38:.\Generated_Source\PSoC5/Motor.c **** *******************************************************************************/
  39:.\Generated_Source\PSoC5/Motor.c **** void Motor_Write(uint8 value) 
  40:.\Generated_Source\PSoC5/Motor.c **** {
  32              		.loc 1 40 0
  33              		.cfi_startproc
  34              		@ args = 0, pretend = 0, frame = 16
  35              		@ frame_needed = 1, uses_anonymous_args = 0
  36              		@ link register save eliminated.
  37 0000 80B4     		push	{r7}
  38              	.LCFI0:
  39              		.cfi_def_cfa_offset 4
  40 0002 85B0     		sub	sp, sp, #20
  41              	.LCFI1:
  42              		.cfi_def_cfa_offset 24
  43 0004 00AF     		add	r7, sp, #0
  44              		.cfi_offset 7, -4
  45              	.LCFI2:
  46              		.cfi_def_cfa_register 7
  47 0006 0346     		mov	r3, r0
  48 0008 FB71     		strb	r3, [r7, #7]
  41:.\Generated_Source\PSoC5/Motor.c ****     uint8 staticBits = (Motor_DR & (uint8)(~Motor_MASK));
  49              		.loc 1 41 0
  50 000a 45F2C013 		movw	r3, #:lower16:1073762752
  51 000e C4F20003 		movt	r3, #:upper16:1073762752
  52 0012 1B78     		ldrb	r3, [r3, #0]
  53 0014 DBB2     		uxtb	r3, r3
  54 0016 03F00F03 		and	r3, r3, #15
  55 001a FB73     		strb	r3, [r7, #15]
  42:.\Generated_Source\PSoC5/Motor.c ****     Motor_DR = staticBits | ((uint8)(value << Motor_SHIFT) & Motor_MASK);
  56              		.loc 1 42 0
  57 001c 45F2C013 		movw	r3, #:lower16:1073762752
  58 0020 C4F20003 		movt	r3, #:upper16:1073762752
  59 0024 FA79     		ldrb	r2, [r7, #7]
  60 0026 4FEA0212 		lsl	r2, r2, #4
  61 002a D1B2     		uxtb	r1, r2
  62 002c FA7B     		ldrb	r2, [r7, #15]
  63 002e 41EA0202 		orr	r2, r1, r2
  64 0032 D2B2     		uxtb	r2, r2
  65 0034 1A70     		strb	r2, [r3, #0]
  43:.\Generated_Source\PSoC5/Motor.c **** }
  66              		.loc 1 43 0
  67 0036 07F11407 		add	r7, r7, #20
ARM GAS  C:\Users\dmtucker\AppData\Local\Temp\ccoAbgBE.s 			page 3


  68 003a BD46     		mov	sp, r7
  69 003c 80BC     		pop	{r7}
  70 003e 7047     		bx	lr
  71              		.cfi_endproc
  72              	.LFE0:
  73              		.size	Motor_Write, .-Motor_Write
  74              		.section	.text.Motor_SetDriveMode,"ax",%progbits
  75              		.align	2
  76              		.global	Motor_SetDriveMode
  77              		.thumb
  78              		.thumb_func
  79              		.type	Motor_SetDriveMode, %function
  80              	Motor_SetDriveMode:
  81              	.LFB1:
  44:.\Generated_Source\PSoC5/Motor.c **** 
  45:.\Generated_Source\PSoC5/Motor.c **** 
  46:.\Generated_Source\PSoC5/Motor.c **** /*******************************************************************************
  47:.\Generated_Source\PSoC5/Motor.c **** * Function Name: Motor_SetDriveMode
  48:.\Generated_Source\PSoC5/Motor.c **** ********************************************************************************
  49:.\Generated_Source\PSoC5/Motor.c **** *
  50:.\Generated_Source\PSoC5/Motor.c **** * Summary:
  51:.\Generated_Source\PSoC5/Motor.c **** *  Change the drive mode on the pins of the port.
  52:.\Generated_Source\PSoC5/Motor.c **** * 
  53:.\Generated_Source\PSoC5/Motor.c **** * Parameters:  
  54:.\Generated_Source\PSoC5/Motor.c **** *  mode:  Change the pins to this drive mode.
  55:.\Generated_Source\PSoC5/Motor.c **** *
  56:.\Generated_Source\PSoC5/Motor.c **** * Return: 
  57:.\Generated_Source\PSoC5/Motor.c **** *  None
  58:.\Generated_Source\PSoC5/Motor.c **** *
  59:.\Generated_Source\PSoC5/Motor.c **** *******************************************************************************/
  60:.\Generated_Source\PSoC5/Motor.c **** void Motor_SetDriveMode(uint8 mode) 
  61:.\Generated_Source\PSoC5/Motor.c **** {
  82              		.loc 1 61 0
  83              		.cfi_startproc
  84              		@ args = 0, pretend = 0, frame = 8
  85              		@ frame_needed = 1, uses_anonymous_args = 0
  86              		@ link register save eliminated.
  87 0000 80B4     		push	{r7}
  88              	.LCFI3:
  89              		.cfi_def_cfa_offset 4
  90 0002 83B0     		sub	sp, sp, #12
  91              	.LCFI4:
  92              		.cfi_def_cfa_offset 16
  93 0004 00AF     		add	r7, sp, #0
  94              		.cfi_offset 7, -4
  95              	.LCFI5:
  96              		.cfi_def_cfa_register 7
  97 0006 0346     		mov	r3, r0
  98 0008 FB71     		strb	r3, [r7, #7]
  62:.\Generated_Source\PSoC5/Motor.c **** 	CyPins_SetPinDriveMode(Motor_0, mode);
  99              		.loc 1 62 0
 100 000a 45F26403 		movw	r3, #:lower16:1073762404
 101 000e C4F20003 		movt	r3, #:upper16:1073762404
 102 0012 45F26402 		movw	r2, #:lower16:1073762404
 103 0016 C4F20002 		movt	r2, #:upper16:1073762404
 104 001a 1278     		ldrb	r2, [r2, #0]
 105 001c D2B2     		uxtb	r2, r2
ARM GAS  C:\Users\dmtucker\AppData\Local\Temp\ccoAbgBE.s 			page 4


 106 001e D1B2     		uxtb	r1, r2
 107 0020 01F0F101 		and	r1, r1, #241
 108 0024 FA79     		ldrb	r2, [r7, #7]	@ zero_extendqisi2
 109 0026 D2B2     		uxtb	r2, r2
 110 0028 02F00E02 		and	r2, r2, #14
 111 002c 41EA0202 		orr	r2, r1, r2
 112 0030 D2B2     		uxtb	r2, r2
 113 0032 D2B2     		uxtb	r2, r2
 114 0034 1A70     		strb	r2, [r3, #0]
  63:.\Generated_Source\PSoC5/Motor.c **** 	CyPins_SetPinDriveMode(Motor_1, mode);
 115              		.loc 1 63 0
 116 0036 45F26503 		movw	r3, #:lower16:1073762405
 117 003a C4F20003 		movt	r3, #:upper16:1073762405
 118 003e 45F26502 		movw	r2, #:lower16:1073762405
 119 0042 C4F20002 		movt	r2, #:upper16:1073762405
 120 0046 1278     		ldrb	r2, [r2, #0]
 121 0048 D2B2     		uxtb	r2, r2
 122 004a D1B2     		uxtb	r1, r2
 123 004c 01F0F101 		and	r1, r1, #241
 124 0050 FA79     		ldrb	r2, [r7, #7]	@ zero_extendqisi2
 125 0052 D2B2     		uxtb	r2, r2
 126 0054 02F00E02 		and	r2, r2, #14
 127 0058 41EA0202 		orr	r2, r1, r2
 128 005c D2B2     		uxtb	r2, r2
 129 005e D2B2     		uxtb	r2, r2
 130 0060 1A70     		strb	r2, [r3, #0]
  64:.\Generated_Source\PSoC5/Motor.c **** 	CyPins_SetPinDriveMode(Motor_2, mode);
 131              		.loc 1 64 0
 132 0062 45F26603 		movw	r3, #:lower16:1073762406
 133 0066 C4F20003 		movt	r3, #:upper16:1073762406
 134 006a 45F26602 		movw	r2, #:lower16:1073762406
 135 006e C4F20002 		movt	r2, #:upper16:1073762406
 136 0072 1278     		ldrb	r2, [r2, #0]
 137 0074 D2B2     		uxtb	r2, r2
 138 0076 D1B2     		uxtb	r1, r2
 139 0078 01F0F101 		and	r1, r1, #241
 140 007c FA79     		ldrb	r2, [r7, #7]	@ zero_extendqisi2
 141 007e D2B2     		uxtb	r2, r2
 142 0080 02F00E02 		and	r2, r2, #14
 143 0084 41EA0202 		orr	r2, r1, r2
 144 0088 D2B2     		uxtb	r2, r2
 145 008a D2B2     		uxtb	r2, r2
 146 008c 1A70     		strb	r2, [r3, #0]
  65:.\Generated_Source\PSoC5/Motor.c **** 	CyPins_SetPinDriveMode(Motor_3, mode);
 147              		.loc 1 65 0
 148 008e 45F26703 		movw	r3, #:lower16:1073762407
 149 0092 C4F20003 		movt	r3, #:upper16:1073762407
 150 0096 45F26702 		movw	r2, #:lower16:1073762407
 151 009a C4F20002 		movt	r2, #:upper16:1073762407
 152 009e 1278     		ldrb	r2, [r2, #0]
 153 00a0 D2B2     		uxtb	r2, r2
 154 00a2 D1B2     		uxtb	r1, r2
 155 00a4 01F0F101 		and	r1, r1, #241
 156 00a8 FA79     		ldrb	r2, [r7, #7]	@ zero_extendqisi2
 157 00aa D2B2     		uxtb	r2, r2
 158 00ac 02F00E02 		and	r2, r2, #14
 159 00b0 41EA0202 		orr	r2, r1, r2
ARM GAS  C:\Users\dmtucker\AppData\Local\Temp\ccoAbgBE.s 			page 5


 160 00b4 D2B2     		uxtb	r2, r2
 161 00b6 D2B2     		uxtb	r2, r2
 162 00b8 1A70     		strb	r2, [r3, #0]
  66:.\Generated_Source\PSoC5/Motor.c **** }
 163              		.loc 1 66 0
 164 00ba 07F10C07 		add	r7, r7, #12
 165 00be BD46     		mov	sp, r7
 166 00c0 80BC     		pop	{r7}
 167 00c2 7047     		bx	lr
 168              		.cfi_endproc
 169              	.LFE1:
 170              		.size	Motor_SetDriveMode, .-Motor_SetDriveMode
 171              		.section	.text.Motor_Read,"ax",%progbits
 172              		.align	2
 173              		.global	Motor_Read
 174              		.thumb
 175              		.thumb_func
 176              		.type	Motor_Read, %function
 177              	Motor_Read:
 178              	.LFB2:
  67:.\Generated_Source\PSoC5/Motor.c **** 
  68:.\Generated_Source\PSoC5/Motor.c **** 
  69:.\Generated_Source\PSoC5/Motor.c **** /*******************************************************************************
  70:.\Generated_Source\PSoC5/Motor.c **** * Function Name: Motor_Read
  71:.\Generated_Source\PSoC5/Motor.c **** ********************************************************************************
  72:.\Generated_Source\PSoC5/Motor.c **** *
  73:.\Generated_Source\PSoC5/Motor.c **** * Summary:
  74:.\Generated_Source\PSoC5/Motor.c **** *  Read the current value on the pins of the Digital Port in right justified 
  75:.\Generated_Source\PSoC5/Motor.c **** *  form.
  76:.\Generated_Source\PSoC5/Motor.c **** *
  77:.\Generated_Source\PSoC5/Motor.c **** * Parameters:  
  78:.\Generated_Source\PSoC5/Motor.c **** *  None
  79:.\Generated_Source\PSoC5/Motor.c **** *
  80:.\Generated_Source\PSoC5/Motor.c **** * Return: 
  81:.\Generated_Source\PSoC5/Motor.c **** *  Returns the current value of the Digital Port as a right justified number
  82:.\Generated_Source\PSoC5/Motor.c **** *  
  83:.\Generated_Source\PSoC5/Motor.c **** * Note:
  84:.\Generated_Source\PSoC5/Motor.c **** *  Macro Motor_ReadPS calls this function. 
  85:.\Generated_Source\PSoC5/Motor.c **** *  
  86:.\Generated_Source\PSoC5/Motor.c **** *******************************************************************************/
  87:.\Generated_Source\PSoC5/Motor.c **** uint8 Motor_Read(void) 
  88:.\Generated_Source\PSoC5/Motor.c **** {
 179              		.loc 1 88 0
 180              		.cfi_startproc
 181              		@ args = 0, pretend = 0, frame = 0
 182              		@ frame_needed = 1, uses_anonymous_args = 0
 183              		@ link register save eliminated.
 184 0000 80B4     		push	{r7}
 185              	.LCFI6:
 186              		.cfi_def_cfa_offset 4
 187 0002 00AF     		add	r7, sp, #0
 188              		.cfi_offset 7, -4
 189              	.LCFI7:
 190              		.cfi_def_cfa_register 7
  89:.\Generated_Source\PSoC5/Motor.c ****     return (Motor_PS & Motor_MASK) >> Motor_SHIFT;
 191              		.loc 1 89 0
 192 0004 45F2C113 		movw	r3, #:lower16:1073762753
ARM GAS  C:\Users\dmtucker\AppData\Local\Temp\ccoAbgBE.s 			page 6


 193 0008 C4F20003 		movt	r3, #:upper16:1073762753
 194 000c 1B78     		ldrb	r3, [r3, #0]
 195 000e DBB2     		uxtb	r3, r3
 196 0010 4FEA1313 		lsr	r3, r3, #4
 197 0014 DBB2     		uxtb	r3, r3
  90:.\Generated_Source\PSoC5/Motor.c **** }
 198              		.loc 1 90 0
 199 0016 1846     		mov	r0, r3
 200 0018 BD46     		mov	sp, r7
 201 001a 80BC     		pop	{r7}
 202 001c 7047     		bx	lr
 203              		.cfi_endproc
 204              	.LFE2:
 205              		.size	Motor_Read, .-Motor_Read
 206 001e 00BF     		.section	.text.Motor_ReadDataReg,"ax",%progbits
 207              		.align	2
 208              		.global	Motor_ReadDataReg
 209              		.thumb
 210              		.thumb_func
 211              		.type	Motor_ReadDataReg, %function
 212              	Motor_ReadDataReg:
 213              	.LFB3:
  91:.\Generated_Source\PSoC5/Motor.c **** 
  92:.\Generated_Source\PSoC5/Motor.c **** 
  93:.\Generated_Source\PSoC5/Motor.c **** /*******************************************************************************
  94:.\Generated_Source\PSoC5/Motor.c **** * Function Name: Motor_ReadDataReg
  95:.\Generated_Source\PSoC5/Motor.c **** ********************************************************************************
  96:.\Generated_Source\PSoC5/Motor.c **** *
  97:.\Generated_Source\PSoC5/Motor.c **** * Summary:
  98:.\Generated_Source\PSoC5/Motor.c **** *  Read the current value assigned to a Digital Port's data output register
  99:.\Generated_Source\PSoC5/Motor.c **** *
 100:.\Generated_Source\PSoC5/Motor.c **** * Parameters:  
 101:.\Generated_Source\PSoC5/Motor.c **** *  None 
 102:.\Generated_Source\PSoC5/Motor.c **** *
 103:.\Generated_Source\PSoC5/Motor.c **** * Return: 
 104:.\Generated_Source\PSoC5/Motor.c **** *  Returns the current value assigned to the Digital Port's data output register
 105:.\Generated_Source\PSoC5/Motor.c **** *  
 106:.\Generated_Source\PSoC5/Motor.c **** *******************************************************************************/
 107:.\Generated_Source\PSoC5/Motor.c **** uint8 Motor_ReadDataReg(void) 
 108:.\Generated_Source\PSoC5/Motor.c **** {
 214              		.loc 1 108 0
 215              		.cfi_startproc
 216              		@ args = 0, pretend = 0, frame = 0
 217              		@ frame_needed = 1, uses_anonymous_args = 0
 218              		@ link register save eliminated.
 219 0000 80B4     		push	{r7}
 220              	.LCFI8:
 221              		.cfi_def_cfa_offset 4
 222 0002 00AF     		add	r7, sp, #0
 223              		.cfi_offset 7, -4
 224              	.LCFI9:
 225              		.cfi_def_cfa_register 7
 109:.\Generated_Source\PSoC5/Motor.c ****     return (Motor_DR & Motor_MASK) >> Motor_SHIFT;
 226              		.loc 1 109 0
 227 0004 45F2C013 		movw	r3, #:lower16:1073762752
 228 0008 C4F20003 		movt	r3, #:upper16:1073762752
 229 000c 1B78     		ldrb	r3, [r3, #0]
ARM GAS  C:\Users\dmtucker\AppData\Local\Temp\ccoAbgBE.s 			page 7


 230 000e DBB2     		uxtb	r3, r3
 231 0010 4FEA1313 		lsr	r3, r3, #4
 232 0014 DBB2     		uxtb	r3, r3
 110:.\Generated_Source\PSoC5/Motor.c **** }
 233              		.loc 1 110 0
 234 0016 1846     		mov	r0, r3
 235 0018 BD46     		mov	sp, r7
 236 001a 80BC     		pop	{r7}
 237 001c 7047     		bx	lr
 238              		.cfi_endproc
 239              	.LFE3:
 240              		.size	Motor_ReadDataReg, .-Motor_ReadDataReg
 241 001e 00BF     		.text
 242              	.Letext0: