ARM GAS  C:\DOCUME~1\david\LOCALS~1\Temp\cccB0jJF.s 			page 1


   1              		.syntax unified
   2              		.cpu cortex-m3
   3              		.fpu softvfp
   4              		.eabi_attribute 20, 1
   5              		.eabi_attribute 21, 1
   6              		.eabi_attribute 23, 3
   7              		.eabi_attribute 24, 1
   8              		.eabi_attribute 25, 1
   9              		.eabi_attribute 26, 1
  10              		.eabi_attribute 30, 6
  11              		.eabi_attribute 18, 4
  12              		.thumb
  13              		.file	"main.c"
  20 0000 7E000000 		.text
  20      02005300 
  20      00000201 
  20      FB0E0D00 
  20      01010101 
  21              	.Ltext0:
  22              		.cfi_sections	.debug_frame
  23              		.section	.rodata
  24              		.align	2
  25              	.LC0:
  26 0000 696E6974 		.ascii	"initializing...\000"
  26      69616C69 
  26      7A696E67 
  26      2E2E2E00 
  27              		.align	2
  28              	.LC1:
  29 0010 72756E6E 		.ascii	"running...\000"
  29      696E672E 
  29      2E2E00
  30 001b 00       		.align	2
  31              	.LC2:
  32 001c 62726967 		.ascii	"brightness: \000"
  32      68746E65 
  32      73733A20 
  32      00
  33 0029 000000   		.align	2
  34              	.LC3:
  35 002c 20202500 		.ascii	"  %\000"
  36              		.section	.text.main,"ax",%progbits
  37              		.align	2
  38              		.global	main
  39              		.thumb
  40              		.thumb_func
  41              		.type	main, %function
  42              	main:
  43              	.LFB29:
  44              		.file 1 ".\\main.c"
   1:.\main.c      **** #include <device.h>
ARM GAS  C:\DOCUME~1\david\LOCALS~1\Temp\cccB0jJF.s 			page 2


   2:.\main.c      **** 
   3:.\main.c      **** void main () {
  45              		.loc 1 3 0
  46              		.cfi_startproc
  47              		@ args = 0, pretend = 0, frame = 8
  48              		@ frame_needed = 1, uses_anonymous_args = 0
  49 0000 80B5     		push	{r7, lr}
  50              	.LCFI0:
  51              		.cfi_def_cfa_offset 8
  52 0002 82B0     		sub	sp, sp, #8
  53              	.LCFI1:
  54              		.cfi_def_cfa_offset 16
  55 0004 00AF     		add	r7, sp, #0
  56              		.cfi_offset 14, -4
  57              		.cfi_offset 7, -8
  58              	.LCFI2:
  59              		.cfi_def_cfa_register 7
   4:.\main.c      ****     LCD_Start();
  60              		.loc 1 4 0
  61 0006 FFF7FEFF 		bl	LCD_Start
   5:.\main.c      ****     LCD_Position(0,0);
  62              		.loc 1 5 0
  63 000a 4FF00000 		mov	r0, #0
  64 000e 4FF00001 		mov	r1, #0
  65 0012 FFF7FEFF 		bl	LCD_Position
   6:.\main.c      ****     LCD_PrintString("initializing...");
  66              		.loc 1 6 0
  67 0016 40F20000 		movw	r0, #:lower16:.LC0
  68 001a C0F20000 		movt	r0, #:upper16:.LC0
  69 001e FFF7FEFF 		bl	LCD_PrintString
   7:.\main.c      ****     ADC_Start();
  70              		.loc 1 7 0
  71 0022 FFF7FEFF 		bl	ADC_Start
   8:.\main.c      ****     ADC_StartConvert();
  72              		.loc 1 8 0
  73 0026 FFF7FEFF 		bl	ADC_StartConvert
   9:.\main.c      ****     PWM_Start();
  74              		.loc 1 9 0
  75 002a FFF7FEFF 		bl	PWM_Start
  10:.\main.c      ****     LCD_ClearDisplay();
  76              		.loc 1 10 0
  77 002e 4FF00100 		mov	r0, #1
  78 0032 FFF7FEFF 		bl	LCD_WriteControl
  11:.\main.c      ****     
  12:.\main.c      ****     LCD_Position(0,0);
  79              		.loc 1 12 0
  80 0036 4FF00000 		mov	r0, #0
  81 003a 4FF00001 		mov	r1, #0
  82 003e FFF7FEFF 		bl	LCD_Position
  13:.\main.c      ****     LCD_PrintString("running...");
  83              		.loc 1 13 0
  84 0042 40F20000 		movw	r0, #:lower16:.LC1
  85 0046 C0F20000 		movt	r0, #:upper16:.LC1
  86 004a FFF7FEFF 		bl	LCD_PrintString
  14:.\main.c      ****     LCD_Position(1,0);
  87              		.loc 1 14 0
  88 004e 4FF00100 		mov	r0, #1
ARM GAS  C:\DOCUME~1\david\LOCALS~1\Temp\cccB0jJF.s 			page 3


  89 0052 4FF00001 		mov	r1, #0
  90 0056 FFF7FEFF 		bl	LCD_Position
  15:.\main.c      ****     LCD_PrintString("brightness: ");
  91              		.loc 1 15 0
  92 005a 40F20000 		movw	r0, #:lower16:.LC2
  93 005e C0F20000 		movt	r0, #:upper16:.LC2
  94 0062 FFF7FEFF 		bl	LCD_PrintString
  16:.\main.c      ****     while (ADC_IsEndConversion(ADC_WAIT_FOR_RESULT)) {
  95              		.loc 1 16 0
  96 0066 42E0     		b	.L2
  97              	.L3:
  98              	.LBB2:
  17:.\main.c      ****         uint16 brightness = ADC_GetResult16();
  99              		.loc 1 17 0
 100 0068 FFF7FEFF 		bl	ADC_GetResult16
 101 006c 0346     		mov	r3, r0
 102 006e 9BB2     		uxth	r3, r3
 103 0070 FB80     		strh	r3, [r7, #6]	@ movhi
  18:.\main.c      ****         LCD_Position(1,12);
 104              		.loc 1 18 0
 105 0072 4FF00100 		mov	r0, #1
 106 0076 4FF00C01 		mov	r1, #12
 107 007a FFF7FEFF 		bl	LCD_Position
  19:.\main.c      ****         LCD_PrintString("  %");
 108              		.loc 1 19 0
 109 007e 40F20000 		movw	r0, #:lower16:.LC3
 110 0082 C0F20000 		movt	r0, #:upper16:.LC3
 111 0086 FFF7FEFF 		bl	LCD_PrintString
  20:.\main.c      ****         LCD_Position(1,12);
 112              		.loc 1 20 0
 113 008a 4FF00100 		mov	r0, #1
 114 008e 4FF00C01 		mov	r1, #12
 115 0092 FFF7FEFF 		bl	LCD_Position
  21:.\main.c      ****         LCD_PrintNumber((brightness*100)/0xFFFF);
 116              		.loc 1 21 0
 117 0096 FB88     		ldrh	r3, [r7, #6]
 118 0098 4FF06402 		mov	r2, #100
 119 009c 02FB03F3 		mul	r3, r2, r3
 120 00a0 48F20102 		movw	r2, #:lower16:-2147450879
 121 00a4 C8F20002 		movt	r2, #:upper16:-2147450879
 122 00a8 82FB0312 		smull	r1, r2, r2, r3
 123 00ac 1A44     		add	r2, r2, r3
 124 00ae 4FEAE232 		asr	r2, r2, #15
 125 00b2 4FEAE373 		asr	r3, r3, #31
 126 00b6 C3EB0203 		rsb	r3, r3, r2
 127 00ba 9BB2     		uxth	r3, r3
 128 00bc 1846     		mov	r0, r3
 129 00be FFF7FEFF 		bl	LCD_PrintNumber
  22:.\main.c      ****         PWM_WriteCompare((brightness*999)/0xFFFF);
 130              		.loc 1 22 0
 131 00c2 FB88     		ldrh	r3, [r7, #6]
 132 00c4 40F2E732 		movw	r2, #999
 133 00c8 02FB03F3 		mul	r3, r2, r3
 134 00cc 48F20102 		movw	r2, #:lower16:-2147450879
 135 00d0 C8F20002 		movt	r2, #:upper16:-2147450879
 136 00d4 82FB0312 		smull	r1, r2, r2, r3
 137 00d8 1A44     		add	r2, r2, r3
ARM GAS  C:\DOCUME~1\david\LOCALS~1\Temp\cccB0jJF.s 			page 4


 138 00da 4FEAE232 		asr	r2, r2, #15
 139 00de 4FEAE373 		asr	r3, r3, #31
 140 00e2 C3EB0203 		rsb	r3, r3, r2
 141 00e6 9BB2     		uxth	r3, r3
 142 00e8 1846     		mov	r0, r3
 143 00ea FFF7FEFF 		bl	PWM_WriteCompare
 144              	.L2:
 145              	.LBE2:
 146              		.loc 1 16 0
 147 00ee 4FF00000 		mov	r0, #0
 148 00f2 FFF7FEFF 		bl	ADC_IsEndConversion
 149 00f6 0346     		mov	r3, r0
 150 00f8 002B     		cmp	r3, #0
 151 00fa B5D1     		bne	.L3
  23:.\main.c      ****     }
  24:.\main.c      **** }
 152              		.loc 1 24 0
 153 00fc 07F10807 		add	r7, r7, #8
 154 0100 BD46     		mov	sp, r7
 155 0102 80BD     		pop	{r7, pc}
 156              		.cfi_endproc
 157              	.LFE29:
 158              		.size	main, .-main
 159              		.text
 160              	.Letext0: