ARM GAS  C:\DOCUME~1\dtucker\LOCALS~1\Temp\cc9IF9Ng.s 			page 1


   1              		.syntax unified
   2              		.cpu cortex-m3
   3              		.fpu softvfp
   4              		.eabi_attribute 20, 1
   5              		.eabi_attribute 21, 1
   6              		.eabi_attribute 23, 3
   7              		.eabi_attribute 24, 1
   8              		.eabi_attribute 25, 1
   9              		.eabi_attribute 26, 1
  10              		.eabi_attribute 30, 6
  11              		.eabi_attribute 18, 4
  12              		.thumb
  13              		.file	"LED.c"
  20 0000 AC000000 		.text
  20      02005C00 
  20      00000201 
  20      FB0E0D00 
  20      01010101 
  21              	.Ltext0:
  22              		.cfi_sections	.debug_frame
  23              		.section	.text.LED_Write,"ax",%progbits
  24              		.align	2
  25              		.global	LED_Write
  26              		.thumb
  27              		.thumb_func
  28              		.type	LED_Write, %function
  29              	LED_Write:
  30              	.LFB0:
  31              		.file 1 ".\\Generated_Source\\PSoC5\\LED.c"
   1:.\Generated_Source\PSoC5/LED.c **** /*******************************************************************************
   2:.\Generated_Source\PSoC5/LED.c **** * File Name: LED.c  
   3:.\Generated_Source\PSoC5/LED.c **** * Version 1.80
   4:.\Generated_Source\PSoC5/LED.c **** *
   5:.\Generated_Source\PSoC5/LED.c **** * Description:
   6:.\Generated_Source\PSoC5/LED.c **** *  This file contains API to enable firmware control of a Pins component.
   7:.\Generated_Source\PSoC5/LED.c **** *
   8:.\Generated_Source\PSoC5/LED.c **** * Note:
   9:.\Generated_Source\PSoC5/LED.c **** *
  10:.\Generated_Source\PSoC5/LED.c **** ********************************************************************************
  11:.\Generated_Source\PSoC5/LED.c **** * Copyright 2008-2012, Cypress Semiconductor Corporation.  All rights reserved.
  12:.\Generated_Source\PSoC5/LED.c **** * You may use this file only in accordance with the license, terms, conditions, 
  13:.\Generated_Source\PSoC5/LED.c **** * disclaimers, and limitations in the end user license agreement accompanying 
  14:.\Generated_Source\PSoC5/LED.c **** * the software package with which this file was provided.
  15:.\Generated_Source\PSoC5/LED.c **** *******************************************************************************/
  16:.\Generated_Source\PSoC5/LED.c **** 
  17:.\Generated_Source\PSoC5/LED.c **** #include "cytypes.h"
  18:.\Generated_Source\PSoC5/LED.c **** #include "LED.h"
  19:.\Generated_Source\PSoC5/LED.c **** 
  20:.\Generated_Source\PSoC5/LED.c **** /* APIs are not generated for P15[7:6] on PSoC 5 */
  21:.\Generated_Source\PSoC5/LED.c **** #if !(CY_PSOC5A &&\
  22:.\Generated_Source\PSoC5/LED.c **** 	 LED__PORT == 15 && ((LED__MASK & 0xC0) != 0))
ARM GAS  C:\DOCUME~1\dtucker\LOCALS~1\Temp\cc9IF9Ng.s 			page 2


  23:.\Generated_Source\PSoC5/LED.c **** 
  24:.\Generated_Source\PSoC5/LED.c **** 
  25:.\Generated_Source\PSoC5/LED.c **** /*******************************************************************************
  26:.\Generated_Source\PSoC5/LED.c **** * Function Name: LED_Write
  27:.\Generated_Source\PSoC5/LED.c **** ********************************************************************************
  28:.\Generated_Source\PSoC5/LED.c **** *
  29:.\Generated_Source\PSoC5/LED.c **** * Summary:
  30:.\Generated_Source\PSoC5/LED.c **** *  Assign a new value to the digital port's data output register.  
  31:.\Generated_Source\PSoC5/LED.c **** *
  32:.\Generated_Source\PSoC5/LED.c **** * Parameters:  
  33:.\Generated_Source\PSoC5/LED.c **** *  prtValue:  The value to be assigned to the Digital Port. 
  34:.\Generated_Source\PSoC5/LED.c **** *
  35:.\Generated_Source\PSoC5/LED.c **** * Return: 
  36:.\Generated_Source\PSoC5/LED.c **** *  None
  37:.\Generated_Source\PSoC5/LED.c **** *  
  38:.\Generated_Source\PSoC5/LED.c **** *******************************************************************************/
  39:.\Generated_Source\PSoC5/LED.c **** void LED_Write(uint8 value) 
  40:.\Generated_Source\PSoC5/LED.c **** {
  32              		.loc 1 40 0
  33              		.cfi_startproc
  34              		@ args = 0, pretend = 0, frame = 16
  35              		@ frame_needed = 1, uses_anonymous_args = 0
  36              		@ link register save eliminated.
  37 0000 80B4     		push	{r7}
  38              	.LCFI0:
  39              		.cfi_def_cfa_offset 4
  40 0002 85B0     		sub	sp, sp, #20
  41              	.LCFI1:
  42              		.cfi_def_cfa_offset 24
  43 0004 00AF     		add	r7, sp, #0
  44              		.cfi_offset 7, -4
  45              	.LCFI2:
  46              		.cfi_def_cfa_register 7
  47 0006 0346     		mov	r3, r0
  48 0008 FB71     		strb	r3, [r7, #7]
  41:.\Generated_Source\PSoC5/LED.c ****     uint8 staticBits = (LED_DR & (uint8)(~LED_MASK));
  49              		.loc 1 41 0
  50 000a 45F26013 		movw	r3, #:lower16:1073762656
  51 000e C4F20003 		movt	r3, #:upper16:1073762656
  52 0012 1B78     		ldrb	r3, [r3, #0]
  53 0014 DBB2     		uxtb	r3, r3
  54 0016 23F00C03 		bic	r3, r3, #12
  55 001a FB73     		strb	r3, [r7, #15]
  42:.\Generated_Source\PSoC5/LED.c ****     LED_DR = staticBits | ((uint8)(value << LED_SHIFT) & LED_MASK);
  56              		.loc 1 42 0
  57 001c 45F26013 		movw	r3, #:lower16:1073762656
  58 0020 C4F20003 		movt	r3, #:upper16:1073762656
  59 0024 FA79     		ldrb	r2, [r7, #7]
  60 0026 4FEA8202 		lsl	r2, r2, #2
  61 002a D2B2     		uxtb	r2, r2
  62 002c 02F00C02 		and	r2, r2, #12
  63 0030 F97B     		ldrb	r1, [r7, #15]
  64 0032 42EA0102 		orr	r2, r2, r1
  65 0036 D2B2     		uxtb	r2, r2
  66 0038 1A70     		strb	r2, [r3, #0]
  43:.\Generated_Source\PSoC5/LED.c **** }
  67              		.loc 1 43 0
ARM GAS  C:\DOCUME~1\dtucker\LOCALS~1\Temp\cc9IF9Ng.s 			page 3


  68 003a 07F11407 		add	r7, r7, #20
  69 003e BD46     		mov	sp, r7
  70 0040 80BC     		pop	{r7}
  71 0042 7047     		bx	lr
  72              		.cfi_endproc
  73              	.LFE0:
  74              		.size	LED_Write, .-LED_Write
  75              		.section	.text.LED_SetDriveMode,"ax",%progbits
  76              		.align	2
  77              		.global	LED_SetDriveMode
  78              		.thumb
  79              		.thumb_func
  80              		.type	LED_SetDriveMode, %function
  81              	LED_SetDriveMode:
  82              	.LFB1:
  44:.\Generated_Source\PSoC5/LED.c **** 
  45:.\Generated_Source\PSoC5/LED.c **** 
  46:.\Generated_Source\PSoC5/LED.c **** /*******************************************************************************
  47:.\Generated_Source\PSoC5/LED.c **** * Function Name: LED_SetDriveMode
  48:.\Generated_Source\PSoC5/LED.c **** ********************************************************************************
  49:.\Generated_Source\PSoC5/LED.c **** *
  50:.\Generated_Source\PSoC5/LED.c **** * Summary:
  51:.\Generated_Source\PSoC5/LED.c **** *  Change the drive mode on the pins of the port.
  52:.\Generated_Source\PSoC5/LED.c **** * 
  53:.\Generated_Source\PSoC5/LED.c **** * Parameters:  
  54:.\Generated_Source\PSoC5/LED.c **** *  mode:  Change the pins to this drive mode.
  55:.\Generated_Source\PSoC5/LED.c **** *
  56:.\Generated_Source\PSoC5/LED.c **** * Return: 
  57:.\Generated_Source\PSoC5/LED.c **** *  None
  58:.\Generated_Source\PSoC5/LED.c **** *
  59:.\Generated_Source\PSoC5/LED.c **** *******************************************************************************/
  60:.\Generated_Source\PSoC5/LED.c **** void LED_SetDriveMode(uint8 mode) 
  61:.\Generated_Source\PSoC5/LED.c **** {
  83              		.loc 1 61 0
  84              		.cfi_startproc
  85              		@ args = 0, pretend = 0, frame = 8
  86              		@ frame_needed = 1, uses_anonymous_args = 0
  87              		@ link register save eliminated.
  88 0000 80B4     		push	{r7}
  89              	.LCFI3:
  90              		.cfi_def_cfa_offset 4
  91 0002 83B0     		sub	sp, sp, #12
  92              	.LCFI4:
  93              		.cfi_def_cfa_offset 16
  94 0004 00AF     		add	r7, sp, #0
  95              		.cfi_offset 7, -4
  96              	.LCFI5:
  97              		.cfi_def_cfa_register 7
  98 0006 0346     		mov	r3, r0
  99 0008 FB71     		strb	r3, [r7, #7]
  62:.\Generated_Source\PSoC5/LED.c **** 	CyPins_SetPinDriveMode(LED_0, mode);
 100              		.loc 1 62 0
 101 000a 45F23203 		movw	r3, #:lower16:1073762354
 102 000e C4F20003 		movt	r3, #:upper16:1073762354
 103 0012 45F23202 		movw	r2, #:lower16:1073762354
 104 0016 C4F20002 		movt	r2, #:upper16:1073762354
 105 001a 1278     		ldrb	r2, [r2, #0]
ARM GAS  C:\DOCUME~1\dtucker\LOCALS~1\Temp\cc9IF9Ng.s 			page 4


 106 001c D2B2     		uxtb	r2, r2
 107 001e D1B2     		uxtb	r1, r2
 108 0020 01F0F101 		and	r1, r1, #241
 109 0024 FA79     		ldrb	r2, [r7, #7]	@ zero_extendqisi2
 110 0026 D2B2     		uxtb	r2, r2
 111 0028 02F00E02 		and	r2, r2, #14
 112 002c 41EA0202 		orr	r2, r1, r2
 113 0030 D2B2     		uxtb	r2, r2
 114 0032 D2B2     		uxtb	r2, r2
 115 0034 1A70     		strb	r2, [r3, #0]
  63:.\Generated_Source\PSoC5/LED.c **** 	CyPins_SetPinDriveMode(LED_1, mode);
 116              		.loc 1 63 0
 117 0036 45F23303 		movw	r3, #:lower16:1073762355
 118 003a C4F20003 		movt	r3, #:upper16:1073762355
 119 003e 45F23302 		movw	r2, #:lower16:1073762355
 120 0042 C4F20002 		movt	r2, #:upper16:1073762355
 121 0046 1278     		ldrb	r2, [r2, #0]
 122 0048 D2B2     		uxtb	r2, r2
 123 004a D1B2     		uxtb	r1, r2
 124 004c 01F0F101 		and	r1, r1, #241
 125 0050 FA79     		ldrb	r2, [r7, #7]	@ zero_extendqisi2
 126 0052 D2B2     		uxtb	r2, r2
 127 0054 02F00E02 		and	r2, r2, #14
 128 0058 41EA0202 		orr	r2, r1, r2
 129 005c D2B2     		uxtb	r2, r2
 130 005e D2B2     		uxtb	r2, r2
 131 0060 1A70     		strb	r2, [r3, #0]
  64:.\Generated_Source\PSoC5/LED.c **** }
 132              		.loc 1 64 0
 133 0062 07F10C07 		add	r7, r7, #12
 134 0066 BD46     		mov	sp, r7
 135 0068 80BC     		pop	{r7}
 136 006a 7047     		bx	lr
 137              		.cfi_endproc
 138              	.LFE1:
 139              		.size	LED_SetDriveMode, .-LED_SetDriveMode
 140              		.section	.text.LED_Read,"ax",%progbits
 141              		.align	2
 142              		.global	LED_Read
 143              		.thumb
 144              		.thumb_func
 145              		.type	LED_Read, %function
 146              	LED_Read:
 147              	.LFB2:
  65:.\Generated_Source\PSoC5/LED.c **** 
  66:.\Generated_Source\PSoC5/LED.c **** 
  67:.\Generated_Source\PSoC5/LED.c **** /*******************************************************************************
  68:.\Generated_Source\PSoC5/LED.c **** * Function Name: LED_Read
  69:.\Generated_Source\PSoC5/LED.c **** ********************************************************************************
  70:.\Generated_Source\PSoC5/LED.c **** *
  71:.\Generated_Source\PSoC5/LED.c **** * Summary:
  72:.\Generated_Source\PSoC5/LED.c **** *  Read the current value on the pins of the Digital Port in right justified 
  73:.\Generated_Source\PSoC5/LED.c **** *  form.
  74:.\Generated_Source\PSoC5/LED.c **** *
  75:.\Generated_Source\PSoC5/LED.c **** * Parameters:  
  76:.\Generated_Source\PSoC5/LED.c **** *  None
  77:.\Generated_Source\PSoC5/LED.c **** *
ARM GAS  C:\DOCUME~1\dtucker\LOCALS~1\Temp\cc9IF9Ng.s 			page 5


  78:.\Generated_Source\PSoC5/LED.c **** * Return: 
  79:.\Generated_Source\PSoC5/LED.c **** *  Returns the current value of the Digital Port as a right justified number
  80:.\Generated_Source\PSoC5/LED.c **** *  
  81:.\Generated_Source\PSoC5/LED.c **** * Note:
  82:.\Generated_Source\PSoC5/LED.c **** *  Macro LED_ReadPS calls this function. 
  83:.\Generated_Source\PSoC5/LED.c **** *  
  84:.\Generated_Source\PSoC5/LED.c **** *******************************************************************************/
  85:.\Generated_Source\PSoC5/LED.c **** uint8 LED_Read(void) 
  86:.\Generated_Source\PSoC5/LED.c **** {
 148              		.loc 1 86 0
 149              		.cfi_startproc
 150              		@ args = 0, pretend = 0, frame = 0
 151              		@ frame_needed = 1, uses_anonymous_args = 0
 152              		@ link register save eliminated.
 153 0000 80B4     		push	{r7}
 154              	.LCFI6:
 155              		.cfi_def_cfa_offset 4
 156 0002 00AF     		add	r7, sp, #0
 157              		.cfi_offset 7, -4
 158              	.LCFI7:
 159              		.cfi_def_cfa_register 7
  87:.\Generated_Source\PSoC5/LED.c ****     return (LED_PS & LED_MASK) >> LED_SHIFT;
 160              		.loc 1 87 0
 161 0004 45F26113 		movw	r3, #:lower16:1073762657
 162 0008 C4F20003 		movt	r3, #:upper16:1073762657
 163 000c 1B78     		ldrb	r3, [r3, #0]
 164 000e DBB2     		uxtb	r3, r3
 165 0010 03F00C03 		and	r3, r3, #12
 166 0014 4FEA9303 		lsr	r3, r3, #2
 167 0018 DBB2     		uxtb	r3, r3
  88:.\Generated_Source\PSoC5/LED.c **** }
 168              		.loc 1 88 0
 169 001a 1846     		mov	r0, r3
 170 001c BD46     		mov	sp, r7
 171 001e 80BC     		pop	{r7}
 172 0020 7047     		bx	lr
 173              		.cfi_endproc
 174              	.LFE2:
 175              		.size	LED_Read, .-LED_Read
 176 0022 00BF     		.section	.text.LED_ReadDataReg,"ax",%progbits
 177              		.align	2
 178              		.global	LED_ReadDataReg
 179              		.thumb
 180              		.thumb_func
 181              		.type	LED_ReadDataReg, %function
 182              	LED_ReadDataReg:
 183              	.LFB3:
  89:.\Generated_Source\PSoC5/LED.c **** 
  90:.\Generated_Source\PSoC5/LED.c **** 
  91:.\Generated_Source\PSoC5/LED.c **** /*******************************************************************************
  92:.\Generated_Source\PSoC5/LED.c **** * Function Name: LED_ReadDataReg
  93:.\Generated_Source\PSoC5/LED.c **** ********************************************************************************
  94:.\Generated_Source\PSoC5/LED.c **** *
  95:.\Generated_Source\PSoC5/LED.c **** * Summary:
  96:.\Generated_Source\PSoC5/LED.c **** *  Read the current value assigned to a Digital Port's data output register
  97:.\Generated_Source\PSoC5/LED.c **** *
  98:.\Generated_Source\PSoC5/LED.c **** * Parameters:  
ARM GAS  C:\DOCUME~1\dtucker\LOCALS~1\Temp\cc9IF9Ng.s 			page 6


  99:.\Generated_Source\PSoC5/LED.c **** *  None 
 100:.\Generated_Source\PSoC5/LED.c **** *
 101:.\Generated_Source\PSoC5/LED.c **** * Return: 
 102:.\Generated_Source\PSoC5/LED.c **** *  Returns the current value assigned to the Digital Port's data output register
 103:.\Generated_Source\PSoC5/LED.c **** *  
 104:.\Generated_Source\PSoC5/LED.c **** *******************************************************************************/
 105:.\Generated_Source\PSoC5/LED.c **** uint8 LED_ReadDataReg(void) 
 106:.\Generated_Source\PSoC5/LED.c **** {
 184              		.loc 1 106 0
 185              		.cfi_startproc
 186              		@ args = 0, pretend = 0, frame = 0
 187              		@ frame_needed = 1, uses_anonymous_args = 0
 188              		@ link register save eliminated.
 189 0000 80B4     		push	{r7}
 190              	.LCFI8:
 191              		.cfi_def_cfa_offset 4
 192 0002 00AF     		add	r7, sp, #0
 193              		.cfi_offset 7, -4
 194              	.LCFI9:
 195              		.cfi_def_cfa_register 7
 107:.\Generated_Source\PSoC5/LED.c ****     return (LED_DR & LED_MASK) >> LED_SHIFT;
 196              		.loc 1 107 0
 197 0004 45F26013 		movw	r3, #:lower16:1073762656
 198 0008 C4F20003 		movt	r3, #:upper16:1073762656
 199 000c 1B78     		ldrb	r3, [r3, #0]
 200 000e DBB2     		uxtb	r3, r3
 201 0010 03F00C03 		and	r3, r3, #12
 202 0014 4FEA9303 		lsr	r3, r3, #2
 203 0018 DBB2     		uxtb	r3, r3
 108:.\Generated_Source\PSoC5/LED.c **** }
 204              		.loc 1 108 0
 205 001a 1846     		mov	r0, r3
 206 001c BD46     		mov	sp, r7
 207 001e 80BC     		pop	{r7}
 208 0020 7047     		bx	lr
 209              		.cfi_endproc
 210              	.LFE3:
 211              		.size	LED_ReadDataReg, .-LED_ReadDataReg
 212 0022 00BF     		.text
 213              	.Letext0: