ARM GAS  C:\DOCUME~1\dtucker\LOCALS~1\Temp\ccG09jrA.s 			page 1


   1              		.syntax unified
   2              		.cpu cortex-m3
   3              		.fpu softvfp
   4              		.eabi_attribute 20, 1
   5              		.eabi_attribute 21, 1
   6              		.eabi_attribute 23, 3
   7              		.eabi_attribute 24, 1
   8              		.eabi_attribute 25, 1
   9              		.eabi_attribute 26, 1
  10              		.eabi_attribute 30, 6
  11              		.eabi_attribute 18, 4
  12              		.thumb
  13              		.file	"main.c"
  20 0000 65000000 		.text
  20      02004600 
  20      00000201 
  20      FB0E0D00 
  20      01010101 
  21              	.Ltext0:
  22              		.cfi_sections	.debug_frame
  23              		.section	.text.main,"ax",%progbits
  24              		.align	2
  25              		.global	main
  26              		.thumb
  27              		.thumb_func
  28              		.type	main, %function
  29              	main:
  30              	.LFB29:
  31              		.file 1 ".\\main.c"
   1:.\main.c      **** #include <device.h>
   2:.\main.c      **** void main () {
  32              		.loc 1 2 0
  33              		.cfi_startproc
  34              		@ args = 0, pretend = 0, frame = 8
  35              		@ frame_needed = 1, uses_anonymous_args = 0
  36 0000 80B5     		push	{r7, lr}
  37              	.LCFI0:
  38              		.cfi_def_cfa_offset 8
  39 0002 82B0     		sub	sp, sp, #8
  40              	.LCFI1:
  41              		.cfi_def_cfa_offset 16
  42 0004 00AF     		add	r7, sp, #0
  43              		.cfi_offset 14, -4
  44              		.cfi_offset 7, -8
  45              	.LCFI2:
  46              		.cfi_def_cfa_register 7
   3:.\main.c      **** 	
   4:.\main.c      **** 	//CyGlobalIntEnable; // Uncomment this line to enable global interrupts.
   5:.\main.c      ****     
   6:.\main.c      **** 	int on=100, off=100; // ms
  47              		.loc 1 6 0
ARM GAS  C:\DOCUME~1\dtucker\LOCALS~1\Temp\ccG09jrA.s 			page 2


  48 0006 4FF06403 		mov	r3, #100
  49 000a 3B60     		str	r3, [r7, #0]
  50 000c 4FF06403 		mov	r3, #100
  51 0010 7B60     		str	r3, [r7, #4]
  52              	.L2:
   7:.\main.c      **** 	while (1) {
   8:.\main.c      ****     
   9:.\main.c      **** 		Controller_Write(0x00);
  53              		.loc 1 9 0
  54 0012 4FF00000 		mov	r0, #0
  55 0016 FFF7FEFF 		bl	Controller_Write
  10:.\main.c      **** 		//per-pin
  11:.\main.c      ****         CyPins_SetPin(LED_1); // CYREG_PRT6_PC3
  56              		.loc 1 11 0
  57 001a 45F23303 		movw	r3, #:lower16:1073762355
  58 001e C4F20003 		movt	r3, #:upper16:1073762355
  59 0022 45F23302 		movw	r2, #:lower16:1073762355
  60 0026 C4F20002 		movt	r2, #:upper16:1073762355
  61 002a 1278     		ldrb	r2, [r2, #0]
  62 002c D2B2     		uxtb	r2, r2
  63 002e 42F00102 		orr	r2, r2, #1
  64 0032 D2B2     		uxtb	r2, r2
  65 0034 1A70     		strb	r2, [r3, #0]
  12:.\main.c      **** 		CyDelay(on);
  66              		.loc 1 12 0
  67 0036 3B68     		ldr	r3, [r7, #0]
  68 0038 1846     		mov	r0, r3
  69 003a FFF7FEFF 		bl	CyDelay
  13:.\main.c      **** 		CyPins_ClearPin(LED_1);
  70              		.loc 1 13 0
  71 003e 45F23303 		movw	r3, #:lower16:1073762355
  72 0042 C4F20003 		movt	r3, #:upper16:1073762355
  73 0046 45F23302 		movw	r2, #:lower16:1073762355
  74 004a C4F20002 		movt	r2, #:upper16:1073762355
  75 004e 1278     		ldrb	r2, [r2, #0]
  76 0050 D2B2     		uxtb	r2, r2
  77 0052 02F0FE02 		and	r2, r2, #254
  78 0056 1A70     		strb	r2, [r3, #0]
  14:.\main.c      **** 		CyDelay(off);
  79              		.loc 1 14 0
  80 0058 7B68     		ldr	r3, [r7, #4]
  81 005a 1846     		mov	r0, r3
  82 005c FFF7FEFF 		bl	CyDelay
  15:.\main.c      ****         
  16:.\main.c      **** 	    Controller_Write(0x01);
  83              		.loc 1 16 0
  84 0060 4FF00100 		mov	r0, #1
  85 0064 FFF7FEFF 		bl	Controller_Write
  17:.\main.c      ****         //component
  18:.\main.c      **** 		LED_Write(0x02);
  86              		.loc 1 18 0
  87 0068 4FF00200 		mov	r0, #2
  88 006c FFF7FEFF 		bl	LED_Write
  19:.\main.c      **** 		CyDelay(on);
  89              		.loc 1 19 0
  90 0070 3B68     		ldr	r3, [r7, #0]
  91 0072 1846     		mov	r0, r3
ARM GAS  C:\DOCUME~1\dtucker\LOCALS~1\Temp\ccG09jrA.s 			page 3


  92 0074 FFF7FEFF 		bl	CyDelay
  20:.\main.c      **** 		LED_Write(0x00);
  93              		.loc 1 20 0
  94 0078 4FF00000 		mov	r0, #0
  95 007c FFF7FEFF 		bl	LED_Write
  21:.\main.c      **** 		CyDelay(off);
  96              		.loc 1 21 0
  97 0080 7B68     		ldr	r3, [r7, #4]
  98 0082 1846     		mov	r0, r3
  99 0084 FFF7FEFF 		bl	CyDelay
  22:.\main.c      ****         
  23:.\main.c      **** 	}
 100              		.loc 1 23 0
 101 0088 C3E7     		b	.L2
 102              		.cfi_endproc
 103              	.LFE29:
 104              		.size	main, .-main
 105 008a 00BF     		.text
 106              	.Letext0: