ARM GAS  C:\DOCUME~1\david\LOCALS~1\Temp\ccrHY1Dz.s 			page 1


   1              		.syntax unified
   2              		.cpu cortex-m3
   3              		.fpu softvfp
   4              		.eabi_attribute 20, 1
   5              		.eabi_attribute 21, 1
   6              		.eabi_attribute 23, 3
   7              		.eabi_attribute 24, 1
   8              		.eabi_attribute 25, 1
   9              		.eabi_attribute 26, 1
  10              		.eabi_attribute 30, 6
  11              		.eabi_attribute 18, 4
  12              		.thumb
  13              		.file	"main.c"
  20 0000 9F000000 		.text
  20      02005300 
  20      00000201 
  20      FB0E0D00 
  20      01010101 
  21              	.Ltext0:
  22              		.cfi_sections	.debug_frame
  23              		.global	count
  24              		.bss
  25              		.align	1
  26              		.type	count, %object
  27              		.size	count, 2
  28              	count:
  29 0000 0000     		.space	2
  30              		.global	testing
  31              		.type	testing, %object
  32              		.size	testing, 1
  33              	testing:
  34 0002 00       		.space	1
  35 0003 00       		.section	.text.test,"ax",%progbits
  36              		.align	2
  37              		.global	test
  38              		.thumb
  39              		.thumb_func
  40              		.type	test, %function
  41              	test:
  42              	.LFB29:
  43              		.file 1 ".\\main.c"
   1:.\main.c      **** #include <device.h>
   2:.\main.c      **** #include <stdbool.h>
   3:.\main.c      **** 
   4:.\main.c      **** #define BUS_CLK_FREQ    24000000 // Hz
   5:.\main.c      **** #define REFRESH_RATE    350      // Hz
   6:.\main.c      **** 
   7:.\main.c      **** uint16 count = 0;
   8:.\main.c      **** bool testing = false;
   9:.\main.c      **** CY_ISR (test) {
  44              		.loc 1 9 0
ARM GAS  C:\DOCUME~1\david\LOCALS~1\Temp\ccrHY1Dz.s 			page 2


  45              		.cfi_startproc
  46              		@ args = 0, pretend = 0, frame = 0
  47              		@ frame_needed = 1, uses_anonymous_args = 0
  48              		@ link register save eliminated.
  49 0000 80B4     		push	{r7}
  50              	.LCFI0:
  51              		.cfi_def_cfa_offset 4
  52 0002 00AF     		add	r7, sp, #0
  53              		.cfi_offset 7, -4
  54              	.LCFI1:
  55              		.cfi_def_cfa_register 7
  10:.\main.c      ****     if (testing) ++count;
  56              		.loc 1 10 0
  57 0004 40F20003 		movw	r3, #:lower16:testing
  58 0008 C0F20003 		movt	r3, #:upper16:testing
  59 000c 1B78     		ldrb	r3, [r3, #0]	@ zero_extendqisi2
  60 000e 002B     		cmp	r3, #0
  61 0010 0CD0     		beq	.L3
  62 0012 40F20003 		movw	r3, #:lower16:count
  63 0016 C0F20003 		movt	r3, #:upper16:count
  64 001a 1B88     		ldrh	r3, [r3, #0]
  65 001c 03F10103 		add	r3, r3, #1
  66 0020 9AB2     		uxth	r2, r3
  67 0022 40F20003 		movw	r3, #:lower16:count
  68 0026 C0F20003 		movt	r3, #:upper16:count
  69 002a 1A80     		strh	r2, [r3, #0]	@ movhi
  70              	.L3:
  11:.\main.c      **** }
  71              		.loc 1 11 0
  72 002c BD46     		mov	sp, r7
  73 002e 80BC     		pop	{r7}
  74 0030 7047     		bx	lr
  75              		.cfi_endproc
  76              	.LFE29:
  77              		.size	test, .-test
  78 0032 00BF     		.section	.text.check,"ax",%progbits
  79              		.align	2
  80              		.global	check
  81              		.thumb
  82              		.thumb_func
  83              		.type	check, %function
  84              	check:
  85              	.LFB30:
  12:.\main.c      **** 
  13:.\main.c      **** void check () {
  86              		.loc 1 13 0
  87              		.cfi_startproc
  88              		@ args = 0, pretend = 0, frame = 8
  89              		@ frame_needed = 1, uses_anonymous_args = 0
  90 0000 80B5     		push	{r7, lr}
  91              	.LCFI2:
  92              		.cfi_def_cfa_offset 8
  93 0002 82B0     		sub	sp, sp, #8
  94              	.LCFI3:
  95              		.cfi_def_cfa_offset 16
  96 0004 00AF     		add	r7, sp, #0
  97              		.cfi_offset 14, -4
ARM GAS  C:\DOCUME~1\david\LOCALS~1\Temp\ccrHY1Dz.s 			page 3


  98              		.cfi_offset 7, -8
  99              	.LCFI4:
 100              		.cfi_def_cfa_register 7
  14:.\main.c      ****     uint8 t;
  15:.\main.c      ****     for (t=5; t > 0 ;--t) {
 101              		.loc 1 15 0
 102 0006 4FF00503 		mov	r3, #5
 103 000a FB71     		strb	r3, [r7, #7]
 104 000c 11E0     		b	.L5
 105              	.L6:
  16:.\main.c      ****         LCD_Position(1,0);
 106              		.loc 1 16 0
 107 000e 4FF00100 		mov	r0, #1
 108 0012 4FF00001 		mov	r1, #0
 109 0016 FFF7FEFF 		bl	LCD_Position
  17:.\main.c      ****         LCD_PrintNumber(t);
 110              		.loc 1 17 0
 111 001a FB79     		ldrb	r3, [r7, #7]	@ zero_extendqisi2
 112 001c 1846     		mov	r0, r3
 113 001e FFF7FEFF 		bl	LCD_PrintNumber
  18:.\main.c      ****         CyDelay(1000);
 114              		.loc 1 18 0
 115 0022 4FF47A70 		mov	r0, #1000
 116 0026 FFF7FEFF 		bl	CyDelay
 117              		.loc 1 15 0
 118 002a FB79     		ldrb	r3, [r7, #7]
 119 002c 03F1FF33 		add	r3, r3, #-1
 120 0030 FB71     		strb	r3, [r7, #7]
 121              	.L5:
 122 0032 FB79     		ldrb	r3, [r7, #7]	@ zero_extendqisi2
 123 0034 002B     		cmp	r3, #0
 124 0036 EAD1     		bne	.L6
  19:.\main.c      ****     }
  20:.\main.c      **** }
 125              		.loc 1 20 0
 126 0038 07F10807 		add	r7, r7, #8
 127 003c BD46     		mov	sp, r7
 128 003e 80BD     		pop	{r7, pc}
 129              		.cfi_endproc
 130              	.LFE30:
 131              		.size	check, .-check
 132              		.section	.rodata
 133              		.align	2
 134              	.LC0:
 135 0000 696E6974 		.ascii	"initializing...\000"
 135      69616C69 
 135      7A696E67 
 135      2E2E2E00 
 136              		.align	2
 137              	.LC1:
 138 0010 74657374 		.ascii	"testing timer...\000"
 138      696E6720 
 138      74696D65 
 138      722E2E2E 
 138      00
 139 0021 000000   		.align	2
 140              	.LC2:
ARM GAS  C:\DOCUME~1\david\LOCALS~1\Temp\ccrHY1Dz.s 			page 4


 141 0024 646F6E65 		.ascii	"done\000"
 141      00
 142 0029 000000   		.section	.text.main,"ax",%progbits
 143              		.align	2
 144              		.global	main
 145              		.thumb
 146              		.thumb_func
 147              		.type	main, %function
 148              	main:
 149              	.LFB31:
  21:.\main.c      **** 
  22:.\main.c      **** void main () {
 150              		.loc 1 22 0
 151              		.cfi_startproc
 152              		@ args = 0, pretend = 0, frame = 0
 153              		@ frame_needed = 1, uses_anonymous_args = 0
 154 0000 80B5     		push	{r7, lr}
 155              	.LCFI5:
 156              		.cfi_def_cfa_offset 8
 157 0002 00AF     		add	r7, sp, #0
 158              		.cfi_offset 14, -4
 159              		.cfi_offset 7, -8
 160              	.LCFI6:
 161              		.cfi_def_cfa_register 7
  23:.\main.c      ****     LCD_Start();
 162              		.loc 1 23 0
 163 0004 FFF7FEFF 		bl	LCD_Start
  24:.\main.c      ****     LCD_Position(0,0);
 164              		.loc 1 24 0
 165 0008 4FF00000 		mov	r0, #0
 166 000c 4FF00001 		mov	r1, #0
 167 0010 FFF7FEFF 		bl	LCD_Position
  25:.\main.c      ****     LCD_PrintString("initializing...");
 168              		.loc 1 25 0
 169 0014 40F20000 		movw	r0, #:lower16:.LC0
 170 0018 C0F20000 		movt	r0, #:upper16:.LC0
 171 001c FFF7FEFF 		bl	LCD_PrintString
  26:.\main.c      ****     CyGlobalIntEnable;
 172              		.loc 1 26 0
 173              	@ 26 ".\main.c" 1
 174 0020 62B6     		CPSIE   i
 175              	@ 0 "" 2
  27:.\main.c      ****     ISR_StartEx(test);
 176              		.loc 1 27 0
 177              		.thumb
 178 0022 40F20000 		movw	r0, #:lower16:test
 179 0026 C0F20000 		movt	r0, #:upper16:test
 180 002a FFF7FEFF 		bl	ISR_StartEx
  28:.\main.c      ****     Timer_Start();
 181              		.loc 1 28 0
 182 002e FFF7FEFF 		bl	Timer_Start
  29:.\main.c      ****     
  30:.\main.c      ****     LCD_Position(0,0);
 183              		.loc 1 30 0
 184 0032 4FF00000 		mov	r0, #0
 185 0036 4FF00001 		mov	r1, #0
 186 003a FFF7FEFF 		bl	LCD_Position
ARM GAS  C:\DOCUME~1\david\LOCALS~1\Temp\ccrHY1Dz.s 			page 5


  31:.\main.c      ****     LCD_PrintString("testing timer...");
 187              		.loc 1 31 0
 188 003e 40F20000 		movw	r0, #:lower16:.LC1
 189 0042 C0F20000 		movt	r0, #:upper16:.LC1
 190 0046 FFF7FEFF 		bl	LCD_PrintString
  32:.\main.c      ****     testing = true;
 191              		.loc 1 32 0
 192 004a 40F20003 		movw	r3, #:lower16:testing
 193 004e C0F20003 		movt	r3, #:upper16:testing
 194 0052 4FF00102 		mov	r2, #1
 195 0056 1A70     		strb	r2, [r3, #0]
  33:.\main.c      ****     check();
 196              		.loc 1 33 0
 197 0058 FFF7FEFF 		bl	check
  34:.\main.c      ****     Timer_WritePeriod(BUS_CLK_FREQ/REFRESH_RATE);
 198              		.loc 1 34 0
 199 005c 40F6DB30 		movw	r0, #3035
 200 0060 FFF7FEFF 		bl	Timer_WritePeriod
  35:.\main.c      ****     check();
 201              		.loc 1 35 0
 202 0064 FFF7FEFF 		bl	check
  36:.\main.c      ****     testing = false;
 203              		.loc 1 36 0
 204 0068 40F20003 		movw	r3, #:lower16:testing
 205 006c C0F20003 		movt	r3, #:upper16:testing
 206 0070 4FF00002 		mov	r2, #0
 207 0074 1A70     		strb	r2, [r3, #0]
  37:.\main.c      ****     LCD_Position(1,0);
 208              		.loc 1 37 0
 209 0076 4FF00100 		mov	r0, #1
 210 007a 4FF00001 		mov	r1, #0
 211 007e FFF7FEFF 		bl	LCD_Position
  38:.\main.c      ****     LCD_PrintString("done");
 212              		.loc 1 38 0
 213 0082 40F20000 		movw	r0, #:lower16:.LC2
 214 0086 C0F20000 		movt	r0, #:upper16:.LC2
 215 008a FFF7FEFF 		bl	LCD_PrintString
  39:.\main.c      ****     LCD_Position(1,8);
 216              		.loc 1 39 0
 217 008e 4FF00100 		mov	r0, #1
 218 0092 4FF00801 		mov	r1, #8
 219 0096 FFF7FEFF 		bl	LCD_Position
  40:.\main.c      ****     LCD_PrintNumber(count);
 220              		.loc 1 40 0
 221 009a 40F20003 		movw	r3, #:lower16:count
 222 009e C0F20003 		movt	r3, #:upper16:count
 223 00a2 1B88     		ldrh	r3, [r3, #0]
 224 00a4 1846     		mov	r0, r3
 225 00a6 FFF7FEFF 		bl	LCD_PrintNumber
 226              	.L9:
  41:.\main.c      ****     
  42:.\main.c      ****     while (true);
 227              		.loc 1 42 0
 228 00aa FEE7     		b	.L9
 229              		.cfi_endproc
 230              	.LFE31:
 231              		.size	main, .-main
ARM GAS  C:\DOCUME~1\david\LOCALS~1\Temp\ccrHY1Dz.s 			page 6


 232              		.text
 233              	.Letext0: