ARM GAS  C:\DOCUME~1\david\LOCALS~1\Temp\cc7g0h5N.s 			page 1


   1              		.syntax unified
   2              		.cpu cortex-m3
   3              		.fpu softvfp
   4              		.eabi_attribute 20, 1
   5              		.eabi_attribute 21, 1
   6              		.eabi_attribute 23, 3
   7              		.eabi_attribute 24, 1
   8              		.eabi_attribute 25, 1
   9              		.eabi_attribute 26, 1
  10              		.eabi_attribute 30, 6
  11              		.eabi_attribute 18, 4
  12              		.thumb
  13              		.file	"LCD.c"
  20 0000 7C000000 		.text
  20      02001E00 
  20      00000201 
  20      FB0E0D00 
  20      01010101 
  21              	.Ltext0:
  22              		.cfi_sections	.debug_frame
  23              		.section	.rodata
  24              		.align	2
  25              	.LC0:
  26 0000 20202020 		.ascii	"                \000"
  26      20202020 
  26      20202020 
  26      20202020 
  26      00
  27 0011 000000   		.section	.text.LCD_ClearLine,"ax",%progbits
  28              		.align	2
  29              		.global	LCD_ClearLine
  30              		.thumb
  31              		.thumb_func
  32              		.type	LCD_ClearLine, %function
  33              	LCD_ClearLine:
  34              	.LFB0:
  35              		.file 1 ".\\LCD.c"
   1:.\LCD.c       **** //#include <device.h>
   2:.\LCD.c       **** 
   3:.\LCD.c       **** 
   4:.\LCD.c       **** 
   5:.\LCD.c       **** 
   6:.\LCD.c       **** void LCD_ClearLine ( int line ) {
  36              		.loc 1 6 0
  37              		.cfi_startproc
  38              		@ args = 0, pretend = 0, frame = 8
  39              		@ frame_needed = 1, uses_anonymous_args = 0
  40 0000 80B5     		push	{r7, lr}
  41              	.LCFI0:
  42              		.cfi_def_cfa_offset 8
  43 0002 82B0     		sub	sp, sp, #8
ARM GAS  C:\DOCUME~1\david\LOCALS~1\Temp\cc7g0h5N.s 			page 2


  44              	.LCFI1:
  45              		.cfi_def_cfa_offset 16
  46 0004 00AF     		add	r7, sp, #0
  47              		.cfi_offset 14, -4
  48              		.cfi_offset 7, -8
  49              	.LCFI2:
  50              		.cfi_def_cfa_register 7
  51 0006 7860     		str	r0, [r7, #4]
   7:.\LCD.c       ****     LCD_Position(line,0);
  52              		.loc 1 7 0
  53 0008 7868     		ldr	r0, [r7, #4]
  54 000a 4FF00001 		mov	r1, #0
  55 000e FFF7FEFF 		bl	LCD_Position
   8:.\LCD.c       ****     LCD_PrintString("                ");
  56              		.loc 1 8 0
  57 0012 40F20000 		movw	r0, #:lower16:.LC0
  58 0016 C0F20000 		movt	r0, #:upper16:.LC0
  59 001a FFF7FEFF 		bl	LCD_PrintString
   9:.\LCD.c       ****     LCD_Position(line,0);
  60              		.loc 1 9 0
  61 001e 7868     		ldr	r0, [r7, #4]
  62 0020 4FF00001 		mov	r1, #0
  63 0024 FFF7FEFF 		bl	LCD_Position
  10:.\LCD.c       **** }
  64              		.loc 1 10 0
  65 0028 07F10807 		add	r7, r7, #8
  66 002c BD46     		mov	sp, r7
  67 002e 80BD     		pop	{r7, pc}
  68              		.cfi_endproc
  69              	.LFE0:
  70              		.size	LCD_ClearLine, .-LCD_ClearLine
  71              		.section	.text.LCD_UpdateStatus,"ax",%progbits
  72              		.align	2
  73              		.global	LCD_UpdateStatus
  74              		.thumb
  75              		.thumb_func
  76              		.type	LCD_UpdateStatus, %function
  77              	LCD_UpdateStatus:
  78              	.LFB1:
  11:.\LCD.c       **** 
  12:.\LCD.c       **** 
  13:.\LCD.c       **** 
  14:.\LCD.c       **** 
  15:.\LCD.c       **** void LCD_UpdateStatus ( const char string[] ) {
  79              		.loc 1 15 0
  80              		.cfi_startproc
  81              		@ args = 0, pretend = 0, frame = 8
  82              		@ frame_needed = 1, uses_anonymous_args = 0
  83 0000 80B5     		push	{r7, lr}
  84              	.LCFI3:
  85              		.cfi_def_cfa_offset 8
  86 0002 82B0     		sub	sp, sp, #8
  87              	.LCFI4:
  88              		.cfi_def_cfa_offset 16
  89 0004 00AF     		add	r7, sp, #0
  90              		.cfi_offset 14, -4
  91              		.cfi_offset 7, -8
ARM GAS  C:\DOCUME~1\david\LOCALS~1\Temp\cc7g0h5N.s 			page 3


  92              	.LCFI5:
  93              		.cfi_def_cfa_register 7
  94 0006 7860     		str	r0, [r7, #4]
  16:.\LCD.c       ****     LCD_ClearDisplay();
  95              		.loc 1 16 0
  96 0008 FFF7FEFF 		bl	LCD_ClearDisplay
  17:.\LCD.c       ****     LCD_Position(0,0);
  97              		.loc 1 17 0
  98 000c 4FF00000 		mov	r0, #0
  99 0010 4FF00001 		mov	r1, #0
 100 0014 FFF7FEFF 		bl	LCD_Position
  18:.\LCD.c       ****     LCD_PrintString(string);
 101              		.loc 1 18 0
 102 0018 7868     		ldr	r0, [r7, #4]
 103 001a FFF7FEFF 		bl	LCD_PrintString
  19:.\LCD.c       **** }
 104              		.loc 1 19 0
 105 001e 07F10807 		add	r7, r7, #8
 106 0022 BD46     		mov	sp, r7
 107 0024 80BD     		pop	{r7, pc}
 108              		.cfi_endproc
 109              	.LFE1:
 110              		.size	LCD_UpdateStatus, .-LCD_UpdateStatus
 111 0026 00BF     		.section	.text.LCD_UpdateMessage,"ax",%progbits
 112              		.align	2
 113              		.global	LCD_UpdateMessage
 114              		.thumb
 115              		.thumb_func
 116              		.type	LCD_UpdateMessage, %function
 117              	LCD_UpdateMessage:
 118              	.LFB2:
  20:.\LCD.c       **** 
  21:.\LCD.c       **** 
  22:.\LCD.c       **** 
  23:.\LCD.c       **** 
  24:.\LCD.c       **** void LCD_UpdateMessage ( const char string[] ) {
 119              		.loc 1 24 0
 120              		.cfi_startproc
 121              		@ args = 0, pretend = 0, frame = 8
 122              		@ frame_needed = 1, uses_anonymous_args = 0
 123 0000 80B5     		push	{r7, lr}
 124              	.LCFI6:
 125              		.cfi_def_cfa_offset 8
 126 0002 82B0     		sub	sp, sp, #8
 127              	.LCFI7:
 128              		.cfi_def_cfa_offset 16
 129 0004 00AF     		add	r7, sp, #0
 130              		.cfi_offset 14, -4
 131              		.cfi_offset 7, -8
 132              	.LCFI8:
 133              		.cfi_def_cfa_register 7
 134 0006 7860     		str	r0, [r7, #4]
  25:.\LCD.c       ****     LCD_ClearLine(1);
 135              		.loc 1 25 0
 136 0008 4FF00100 		mov	r0, #1
 137 000c FFF7FEFF 		bl	LCD_ClearLine
  26:.\LCD.c       ****     LCD_PrintString(string);
ARM GAS  C:\DOCUME~1\david\LOCALS~1\Temp\cc7g0h5N.s 			page 4


 138              		.loc 1 26 0
 139 0010 7868     		ldr	r0, [r7, #4]
 140 0012 FFF7FEFF 		bl	LCD_PrintString
  27:.\LCD.c       **** }
 141              		.loc 1 27 0
 142 0016 07F10807 		add	r7, r7, #8
 143 001a BD46     		mov	sp, r7
 144 001c 80BD     		pop	{r7, pc}
 145              		.cfi_endproc
 146              	.LFE2:
 147              		.size	LCD_UpdateMessage, .-LCD_UpdateMessage
 148 001e 00BF     		.section	.text.LCD_Spin,"ax",%progbits
 149              		.align	2
 150              		.global	LCD_Spin
 151              		.thumb
 152              		.thumb_func
 153              		.type	LCD_Spin, %function
 154              	LCD_Spin:
 155              	.LFB3:
  28:.\LCD.c       **** 
  29:.\LCD.c       **** 
  30:.\LCD.c       **** 
  31:.\LCD.c       **** 
  32:.\LCD.c       **** void LCD_Spin ( int row, int col, int speed, int count ) {
 156              		.loc 1 32 0
 157              		.cfi_startproc
 158              		@ args = 0, pretend = 0, frame = 16
 159              		@ frame_needed = 1, uses_anonymous_args = 0
 160 0000 80B5     		push	{r7, lr}
 161              	.LCFI9:
 162              		.cfi_def_cfa_offset 8
 163 0002 84B0     		sub	sp, sp, #16
 164              	.LCFI10:
 165              		.cfi_def_cfa_offset 24
 166 0004 00AF     		add	r7, sp, #0
 167              		.cfi_offset 14, -4
 168              		.cfi_offset 7, -8
 169              	.LCFI11:
 170              		.cfi_def_cfa_register 7
 171 0006 F860     		str	r0, [r7, #12]
 172 0008 B960     		str	r1, [r7, #8]
 173 000a 7A60     		str	r2, [r7, #4]
 174 000c 3B60     		str	r3, [r7, #0]
  33:.\LCD.c       ****     while (count-- > 0) {
 175              		.loc 1 33 0
 176 000e 4BE0     		b	.L8
 177              	.L9:
  34:.\LCD.c       ****         LCD_Position(row,col);
 178              		.loc 1 34 0
 179 0010 F868     		ldr	r0, [r7, #12]
 180 0012 B968     		ldr	r1, [r7, #8]
 181 0014 FFF7FEFF 		bl	LCD_Position
  35:.\LCD.c       ****         LCD_PutChar('|');
 182              		.loc 1 35 0
 183 0018 4FF07C00 		mov	r0, #124
 184 001c FFF7FEFF 		bl	LCD_PutChar
  36:.\LCD.c       ****         CyDelay(speed/4);
ARM GAS  C:\DOCUME~1\david\LOCALS~1\Temp\cc7g0h5N.s 			page 5


 185              		.loc 1 36 0
 186 0020 7B68     		ldr	r3, [r7, #4]
 187 0022 03F10302 		add	r2, r3, #3
 188 0026 002B     		cmp	r3, #0
 189 0028 B8BF     		it	lt
 190 002a 1346     		movlt	r3, r2
 191 002c 4FEAA303 		asr	r3, r3, #2
 192 0030 1846     		mov	r0, r3
 193 0032 FFF7FEFF 		bl	CyDelay
  37:.\LCD.c       ****         LCD_Position(row,col);
 194              		.loc 1 37 0
 195 0036 F868     		ldr	r0, [r7, #12]
 196 0038 B968     		ldr	r1, [r7, #8]
 197 003a FFF7FEFF 		bl	LCD_Position
  38:.\LCD.c       ****         LCD_PutChar('/');
 198              		.loc 1 38 0
 199 003e 4FF02F00 		mov	r0, #47
 200 0042 FFF7FEFF 		bl	LCD_PutChar
  39:.\LCD.c       ****         CyDelay(speed/4);
 201              		.loc 1 39 0
 202 0046 7B68     		ldr	r3, [r7, #4]
 203 0048 03F10302 		add	r2, r3, #3
 204 004c 002B     		cmp	r3, #0
 205 004e B8BF     		it	lt
 206 0050 1346     		movlt	r3, r2
 207 0052 4FEAA303 		asr	r3, r3, #2
 208 0056 1846     		mov	r0, r3
 209 0058 FFF7FEFF 		bl	CyDelay
  40:.\LCD.c       ****         LCD_Position(row,col);
 210              		.loc 1 40 0
 211 005c F868     		ldr	r0, [r7, #12]
 212 005e B968     		ldr	r1, [r7, #8]
 213 0060 FFF7FEFF 		bl	LCD_Position
  41:.\LCD.c       ****         LCD_PutChar('-');
 214              		.loc 1 41 0
 215 0064 4FF02D00 		mov	r0, #45
 216 0068 FFF7FEFF 		bl	LCD_PutChar
  42:.\LCD.c       ****         CyDelay(speed/4);
 217              		.loc 1 42 0
 218 006c 7B68     		ldr	r3, [r7, #4]
 219 006e 03F10302 		add	r2, r3, #3
 220 0072 002B     		cmp	r3, #0
 221 0074 B8BF     		it	lt
 222 0076 1346     		movlt	r3, r2
 223 0078 4FEAA303 		asr	r3, r3, #2
 224 007c 1846     		mov	r0, r3
 225 007e FFF7FEFF 		bl	CyDelay
  43:.\LCD.c       ****         LCD_Position(row,col);
 226              		.loc 1 43 0
 227 0082 F868     		ldr	r0, [r7, #12]
 228 0084 B968     		ldr	r1, [r7, #8]
 229 0086 FFF7FEFF 		bl	LCD_Position
  44:.\LCD.c       ****         LCD_PutChar('\\');
 230              		.loc 1 44 0
 231 008a 4FF05C00 		mov	r0, #92
 232 008e FFF7FEFF 		bl	LCD_PutChar
  45:.\LCD.c       ****         CyDelay(speed/4);
ARM GAS  C:\DOCUME~1\david\LOCALS~1\Temp\cc7g0h5N.s 			page 6


 233              		.loc 1 45 0
 234 0092 7B68     		ldr	r3, [r7, #4]
 235 0094 03F10302 		add	r2, r3, #3
 236 0098 002B     		cmp	r3, #0
 237 009a B8BF     		it	lt
 238 009c 1346     		movlt	r3, r2
 239 009e 4FEAA303 		asr	r3, r3, #2
 240 00a2 1846     		mov	r0, r3
 241 00a4 FFF7FEFF 		bl	CyDelay
 242              	.L8:
 243              		.loc 1 33 0
 244 00a8 3B68     		ldr	r3, [r7, #0]
 245 00aa 002B     		cmp	r3, #0
 246 00ac D4BF     		ite	le
 247 00ae 0023     		movle	r3, #0
 248 00b0 0123     		movgt	r3, #1
 249 00b2 DBB2     		uxtb	r3, r3
 250 00b4 3A68     		ldr	r2, [r7, #0]
 251 00b6 02F1FF32 		add	r2, r2, #-1
 252 00ba 3A60     		str	r2, [r7, #0]
 253 00bc 002B     		cmp	r3, #0
 254 00be A7D1     		bne	.L9
  46:.\LCD.c       ****     }
  47:.\LCD.c       **** }
 255              		.loc 1 47 0
 256 00c0 07F11007 		add	r7, r7, #16
 257 00c4 BD46     		mov	sp, r7
 258 00c6 80BD     		pop	{r7, pc}
 259              		.cfi_endproc
 260              	.LFE3:
 261              		.size	LCD_Spin, .-LCD_Spin
 262              		.text
 263              	.Letext0: