ARM GAS  C:\Users\dmtucker\AppData\Local\Temp\ccIyNKBz.s 			page 1


   1              		.syntax unified
   2              		.cpu cortex-m3
   3              		.fpu softvfp
   4              		.eabi_attribute 20, 1
   5              		.eabi_attribute 21, 1
   6              		.eabi_attribute 23, 3
   7              		.eabi_attribute 24, 1
   8              		.eabi_attribute 25, 1
   9              		.eabi_attribute 26, 1
  10              		.eabi_attribute 30, 6
  11              		.eabi_attribute 18, 4
  12              		.thumb
  13              		.file	"Counter.c"
  20 0000 9F010000 		.text
  20      02006000 
  20      00000201 
  20      FB0E0D00 
  20      01010101 
  21              	.Ltext0:
  22              		.cfi_sections	.debug_frame
  23              		.global	Counter_initVar
  24              		.bss
  25              		.type	Counter_initVar, %object
  26              		.size	Counter_initVar, 1
  27              	Counter_initVar:
  28 0000 00       		.space	1
  29              		.section	.text.Counter_Init,"ax",%progbits
  30              		.align	2
  31              		.global	Counter_Init
  32              		.thumb
  33              		.thumb_func
  34              		.type	Counter_Init, %function
  35              	Counter_Init:
  36              	.LFB0:
  37              		.file 1 ".\\Generated_Source\\PSoC5\\Counter.c"
   1:.\Generated_Source\PSoC5/Counter.c **** /*******************************************************************************
   2:.\Generated_Source\PSoC5/Counter.c **** * File Name: Counter.c  
   3:.\Generated_Source\PSoC5/Counter.c **** * Version 2.30
   4:.\Generated_Source\PSoC5/Counter.c **** *
   5:.\Generated_Source\PSoC5/Counter.c **** *  Description:
   6:.\Generated_Source\PSoC5/Counter.c **** *     The Counter component consists of a 8, 16, 24 or 32-bit counter with
   7:.\Generated_Source\PSoC5/Counter.c **** *     a selectable period between 2 and 2^Width - 1.  
   8:.\Generated_Source\PSoC5/Counter.c **** *
   9:.\Generated_Source\PSoC5/Counter.c **** *   Note:
  10:.\Generated_Source\PSoC5/Counter.c **** *     None
  11:.\Generated_Source\PSoC5/Counter.c **** *
  12:.\Generated_Source\PSoC5/Counter.c **** *******************************************************************************
  13:.\Generated_Source\PSoC5/Counter.c **** * Copyright 2008-2012, Cypress Semiconductor Corporation.  All rights reserved.
  14:.\Generated_Source\PSoC5/Counter.c **** * You may use this file only in accordance with the license, terms, conditions, 
  15:.\Generated_Source\PSoC5/Counter.c **** * disclaimers, and limitations in the end user license agreement accompanying 
  16:.\Generated_Source\PSoC5/Counter.c **** * the software package with which this file was provided.
ARM GAS  C:\Users\dmtucker\AppData\Local\Temp\ccIyNKBz.s 			page 2


  17:.\Generated_Source\PSoC5/Counter.c **** ********************************************************************************/
  18:.\Generated_Source\PSoC5/Counter.c **** 
  19:.\Generated_Source\PSoC5/Counter.c **** #include "Counter.h"
  20:.\Generated_Source\PSoC5/Counter.c **** 
  21:.\Generated_Source\PSoC5/Counter.c **** uint8 Counter_initVar = 0u;
  22:.\Generated_Source\PSoC5/Counter.c **** 
  23:.\Generated_Source\PSoC5/Counter.c **** 
  24:.\Generated_Source\PSoC5/Counter.c **** /*******************************************************************************
  25:.\Generated_Source\PSoC5/Counter.c **** * Function Name: Counter_Init
  26:.\Generated_Source\PSoC5/Counter.c **** ********************************************************************************
  27:.\Generated_Source\PSoC5/Counter.c **** * Summary:
  28:.\Generated_Source\PSoC5/Counter.c **** *     Initialize to the schematic state
  29:.\Generated_Source\PSoC5/Counter.c **** * 
  30:.\Generated_Source\PSoC5/Counter.c **** * Parameters:  
  31:.\Generated_Source\PSoC5/Counter.c **** *  void  
  32:.\Generated_Source\PSoC5/Counter.c **** *
  33:.\Generated_Source\PSoC5/Counter.c **** * Return: 
  34:.\Generated_Source\PSoC5/Counter.c **** *  void
  35:.\Generated_Source\PSoC5/Counter.c **** *
  36:.\Generated_Source\PSoC5/Counter.c **** *******************************************************************************/
  37:.\Generated_Source\PSoC5/Counter.c **** void Counter_Init(void) 
  38:.\Generated_Source\PSoC5/Counter.c **** {
  38              		.loc 1 38 0
  39              		.cfi_startproc
  40              		@ args = 0, pretend = 0, frame = 8
  41              		@ frame_needed = 1, uses_anonymous_args = 0
  42 0000 80B5     		push	{r7, lr}
  43              	.LCFI0:
  44              		.cfi_def_cfa_offset 8
  45 0002 82B0     		sub	sp, sp, #8
  46              	.LCFI1:
  47              		.cfi_def_cfa_offset 16
  48 0004 00AF     		add	r7, sp, #0
  49              		.cfi_offset 14, -4
  50              		.cfi_offset 7, -8
  51              	.LCFI2:
  52              		.cfi_def_cfa_register 7
  39:.\Generated_Source\PSoC5/Counter.c ****         #if (!Counter_UsingFixedFunction && !Counter_ControlRegRemoved)
  40:.\Generated_Source\PSoC5/Counter.c ****             uint8 ctrl;
  41:.\Generated_Source\PSoC5/Counter.c ****         #endif /* (!Counter_UsingFixedFunction && !Counter_ControlRegRemoved) */
  42:.\Generated_Source\PSoC5/Counter.c ****         
  43:.\Generated_Source\PSoC5/Counter.c ****         #if(!Counter_UsingFixedFunction) 
  44:.\Generated_Source\PSoC5/Counter.c ****             /* Interrupt State Backup for Critical Region*/
  45:.\Generated_Source\PSoC5/Counter.c ****             uint8 Counter_interruptState;
  46:.\Generated_Source\PSoC5/Counter.c ****         #endif /* (!Counter_UsingFixedFunction) */
  47:.\Generated_Source\PSoC5/Counter.c ****         
  48:.\Generated_Source\PSoC5/Counter.c ****         #if (Counter_UsingFixedFunction)
  49:.\Generated_Source\PSoC5/Counter.c ****             /* Clear all bits but the enable bit (if it's already set for Timer operation */
  50:.\Generated_Source\PSoC5/Counter.c ****             Counter_CONTROL &= Counter_CTRL_ENABLE;
  51:.\Generated_Source\PSoC5/Counter.c ****             
  52:.\Generated_Source\PSoC5/Counter.c ****             /* Clear the mode bits for continuous run mode */
  53:.\Generated_Source\PSoC5/Counter.c ****             #if (CY_PSOC5A)
  54:.\Generated_Source\PSoC5/Counter.c ****                 Counter_CONTROL2 &= ((uint8)(~Counter_CTRL_MODE_MASK));
  55:.\Generated_Source\PSoC5/Counter.c ****             #endif /* (CY_PSOC5A) */
  56:.\Generated_Source\PSoC5/Counter.c ****             #if (CY_PSOC3 || CY_PSOC5LP)
  57:.\Generated_Source\PSoC5/Counter.c ****                 Counter_CONTROL3 &= ((uint8)(~Counter_CTRL_MODE_MASK));                
  58:.\Generated_Source\PSoC5/Counter.c ****             #endif /* (CY_PSOC3 || CY_PSOC5LP) */
ARM GAS  C:\Users\dmtucker\AppData\Local\Temp\ccIyNKBz.s 			page 3


  59:.\Generated_Source\PSoC5/Counter.c ****             /* Check if One Shot mode is enabled i.e. RunMode !=0*/
  60:.\Generated_Source\PSoC5/Counter.c ****             #if (Counter_RunModeUsed != 0x0u)
  61:.\Generated_Source\PSoC5/Counter.c ****                 /* Set 3rd bit of Control register to enable one shot mode */
  62:.\Generated_Source\PSoC5/Counter.c ****                 Counter_CONTROL |= Counter_ONESHOT;
  63:.\Generated_Source\PSoC5/Counter.c ****             #endif /* (Counter_RunModeUsed != 0x0u) */
  64:.\Generated_Source\PSoC5/Counter.c ****             
  65:.\Generated_Source\PSoC5/Counter.c ****             /* Set the IRQ to use the status register interrupts */
  66:.\Generated_Source\PSoC5/Counter.c ****             Counter_CONTROL2 |= Counter_CTRL2_IRQ_SEL;
  67:.\Generated_Source\PSoC5/Counter.c ****             
  68:.\Generated_Source\PSoC5/Counter.c ****             /* Clear and Set SYNCTC and SYNCCMP bits of RT1 register */
  69:.\Generated_Source\PSoC5/Counter.c ****             Counter_RT1 &= ((uint8)(~Counter_RT1_MASK));
  70:.\Generated_Source\PSoC5/Counter.c ****             Counter_RT1 |= Counter_SYNC;     
  71:.\Generated_Source\PSoC5/Counter.c ****                     
  72:.\Generated_Source\PSoC5/Counter.c ****             /*Enable DSI Sync all all inputs of the Timer*/
  73:.\Generated_Source\PSoC5/Counter.c ****             Counter_RT1 &= ((uint8)(~Counter_SYNCDSI_MASK));
  74:.\Generated_Source\PSoC5/Counter.c ****             Counter_RT1 |= Counter_SYNCDSI_EN;
  75:.\Generated_Source\PSoC5/Counter.c **** 
  76:.\Generated_Source\PSoC5/Counter.c ****         #else
  77:.\Generated_Source\PSoC5/Counter.c ****             #if(!Counter_ControlRegRemoved)
  78:.\Generated_Source\PSoC5/Counter.c ****             /* Set the default compare mode defined in the parameter */
  79:.\Generated_Source\PSoC5/Counter.c ****             ctrl = Counter_CONTROL & ((uint8)(~Counter_CTRL_CMPMODE_MASK));
  53              		.loc 1 79 0
  54 0006 46F27A53 		movw	r3, #:lower16:1073767802
  55 000a C4F20003 		movt	r3, #:upper16:1073767802
  56 000e 1B78     		ldrb	r3, [r3, #0]
  57 0010 DBB2     		uxtb	r3, r3
  58 0012 23F00703 		bic	r3, r3, #7
  59 0016 BB71     		strb	r3, [r7, #6]
  80:.\Generated_Source\PSoC5/Counter.c ****             Counter_CONTROL = ctrl | Counter_DEFAULT_COMPARE_MODE;
  60              		.loc 1 80 0
  61 0018 46F27A53 		movw	r3, #:lower16:1073767802
  62 001c C4F20003 		movt	r3, #:upper16:1073767802
  63 0020 BA79     		ldrb	r2, [r7, #6]
  64 0022 42F00102 		orr	r2, r2, #1
  65 0026 D2B2     		uxtb	r2, r2
  66 0028 1A70     		strb	r2, [r3, #0]
  81:.\Generated_Source\PSoC5/Counter.c ****             
  82:.\Generated_Source\PSoC5/Counter.c ****             /* Set the default capture mode defined in the parameter */
  83:.\Generated_Source\PSoC5/Counter.c ****             ctrl = Counter_CONTROL & ((uint8)(~Counter_CTRL_CAPMODE_MASK));
  67              		.loc 1 83 0
  68 002a 46F27A53 		movw	r3, #:lower16:1073767802
  69 002e C4F20003 		movt	r3, #:upper16:1073767802
  70 0032 1B78     		ldrb	r3, [r3, #0]
  71 0034 DBB2     		uxtb	r3, r3
  72 0036 23F00303 		bic	r3, r3, #3
  73 003a BB71     		strb	r3, [r7, #6]
  84:.\Generated_Source\PSoC5/Counter.c ****             
  85:.\Generated_Source\PSoC5/Counter.c ****             #if( 0 != Counter_CAPTURE_MODE_CONF)
  86:.\Generated_Source\PSoC5/Counter.c ****                 Counter_CONTROL = ctrl | Counter_DEFAULT_CAPTURE_MODE;
  74              		.loc 1 86 0
  75 003c 46F27A53 		movw	r3, #:lower16:1073767802
  76 0040 C4F20003 		movt	r3, #:upper16:1073767802
  77 0044 BA79     		ldrb	r2, [r7, #6]
  78 0046 42F00802 		orr	r2, r2, #8
  79 004a D2B2     		uxtb	r2, r2
  80 004c 1A70     		strb	r2, [r3, #0]
  87:.\Generated_Source\PSoC5/Counter.c ****             #else
ARM GAS  C:\Users\dmtucker\AppData\Local\Temp\ccIyNKBz.s 			page 4


  88:.\Generated_Source\PSoC5/Counter.c ****                 Counter_CONTROL = ctrl;
  89:.\Generated_Source\PSoC5/Counter.c ****             #endif /* 0 != Counter_CAPTURE_MODE */ 
  90:.\Generated_Source\PSoC5/Counter.c ****             
  91:.\Generated_Source\PSoC5/Counter.c ****             #endif /* (!Counter_ControlRegRemoved) */
  92:.\Generated_Source\PSoC5/Counter.c ****         #endif /* (Counter_UsingFixedFunction) */
  93:.\Generated_Source\PSoC5/Counter.c ****         
  94:.\Generated_Source\PSoC5/Counter.c ****         /* Clear all data in the FIFO's */
  95:.\Generated_Source\PSoC5/Counter.c ****         #if (!Counter_UsingFixedFunction)
  96:.\Generated_Source\PSoC5/Counter.c ****             Counter_ClearFIFO();
  81              		.loc 1 96 0
  82 004e FFF7FEFF 		bl	Counter_ClearFIFO
  97:.\Generated_Source\PSoC5/Counter.c ****         #endif /* (!Counter_UsingFixedFunction) */
  98:.\Generated_Source\PSoC5/Counter.c ****         
  99:.\Generated_Source\PSoC5/Counter.c ****         /* Set Initial values from Configuration */
 100:.\Generated_Source\PSoC5/Counter.c ****         Counter_WritePeriod(Counter_INIT_PERIOD_VALUE);
  83              		.loc 1 100 0
  84 0052 4FF6FF70 		movw	r0, #65535
  85 0056 FFF7FEFF 		bl	Counter_WritePeriod
 101:.\Generated_Source\PSoC5/Counter.c ****         #if (!(Counter_UsingFixedFunction && (CY_PSOC5A)))
 102:.\Generated_Source\PSoC5/Counter.c ****             Counter_WriteCounter(Counter_INIT_COUNTER_VALUE);
  86              		.loc 1 102 0
  87 005a 4FF00000 		mov	r0, #0
  88 005e FFF7FEFF 		bl	Counter_WriteCounter
 103:.\Generated_Source\PSoC5/Counter.c ****         #endif /* (!(Counter_UsingFixedFunction && (CY_PSOC5A))) */
 104:.\Generated_Source\PSoC5/Counter.c ****         Counter_SetInterruptMode(Counter_INIT_INTERRUPTS_MASK);
  89              		.loc 1 104 0
  90 0062 4FF00000 		mov	r0, #0
  91 0066 FFF7FEFF 		bl	Counter_SetInterruptMode
 105:.\Generated_Source\PSoC5/Counter.c ****         
 106:.\Generated_Source\PSoC5/Counter.c ****         #if (!Counter_UsingFixedFunction)
 107:.\Generated_Source\PSoC5/Counter.c ****             /* Read the status register to clear the unwanted interrupts */
 108:.\Generated_Source\PSoC5/Counter.c ****             (void)Counter_ReadStatusRegister();
  92              		.loc 1 108 0
  93 006a FFF7FEFF 		bl	Counter_ReadStatusRegister
 109:.\Generated_Source\PSoC5/Counter.c ****             /* Set the compare value (only available to non-fixed function implementation */
 110:.\Generated_Source\PSoC5/Counter.c ****             Counter_WriteCompare(Counter_INIT_COMPARE_VALUE);
  94              		.loc 1 110 0
  95 006e 4FF6FF70 		movw	r0, #65535
  96 0072 FFF7FEFF 		bl	Counter_WriteCompare
 111:.\Generated_Source\PSoC5/Counter.c ****             /* Use the interrupt output of the status register for IRQ output */
 112:.\Generated_Source\PSoC5/Counter.c ****             
 113:.\Generated_Source\PSoC5/Counter.c ****             /* CyEnterCriticalRegion and CyExitCriticalRegion are used to mark following region cri
 114:.\Generated_Source\PSoC5/Counter.c ****             /* Enter Critical Region*/
 115:.\Generated_Source\PSoC5/Counter.c ****             Counter_interruptState = CyEnterCriticalSection();
  97              		.loc 1 115 0
  98 0076 FFF7FEFF 		bl	CyEnterCriticalSection
  99 007a 0346     		mov	r3, r0
 100 007c FB71     		strb	r3, [r7, #7]
 116:.\Generated_Source\PSoC5/Counter.c ****             
 117:.\Generated_Source\PSoC5/Counter.c ****             Counter_STATUS_AUX_CTRL |= Counter_STATUS_ACTL_INT_EN_MASK;
 101              		.loc 1 117 0
 102 007e 46F29B53 		movw	r3, #:lower16:1073767835
 103 0082 C4F20003 		movt	r3, #:upper16:1073767835
 104 0086 46F29B52 		movw	r2, #:lower16:1073767835
 105 008a C4F20002 		movt	r2, #:upper16:1073767835
 106 008e 1278     		ldrb	r2, [r2, #0]
 107 0090 D2B2     		uxtb	r2, r2
ARM GAS  C:\Users\dmtucker\AppData\Local\Temp\ccIyNKBz.s 			page 5


 108 0092 42F01002 		orr	r2, r2, #16
 109 0096 D2B2     		uxtb	r2, r2
 110 0098 1A70     		strb	r2, [r3, #0]
 118:.\Generated_Source\PSoC5/Counter.c ****             
 119:.\Generated_Source\PSoC5/Counter.c ****             /* Exit Critical Region*/
 120:.\Generated_Source\PSoC5/Counter.c ****             CyExitCriticalSection(Counter_interruptState);
 111              		.loc 1 120 0
 112 009a FB79     		ldrb	r3, [r7, #7]	@ zero_extendqisi2
 113 009c 1846     		mov	r0, r3
 114 009e FFF7FEFF 		bl	CyExitCriticalSection
 121:.\Generated_Source\PSoC5/Counter.c ****             
 122:.\Generated_Source\PSoC5/Counter.c ****         #endif /* (!Counter_UsingFixedFunction) */
 123:.\Generated_Source\PSoC5/Counter.c **** }
 115              		.loc 1 123 0
 116 00a2 07F10807 		add	r7, r7, #8
 117 00a6 BD46     		mov	sp, r7
 118 00a8 80BD     		pop	{r7, pc}
 119              		.cfi_endproc
 120              	.LFE0:
 121              		.size	Counter_Init, .-Counter_Init
 122              		.section	.text.Counter_Enable,"ax",%progbits
 123              		.align	2
 124              		.global	Counter_Enable
 125              		.thumb
 126              		.thumb_func
 127              		.type	Counter_Enable, %function
 128              	Counter_Enable:
 129              	.LFB1:
 124:.\Generated_Source\PSoC5/Counter.c **** 
 125:.\Generated_Source\PSoC5/Counter.c **** 
 126:.\Generated_Source\PSoC5/Counter.c **** /*******************************************************************************
 127:.\Generated_Source\PSoC5/Counter.c **** * Function Name: Counter_Enable
 128:.\Generated_Source\PSoC5/Counter.c **** ********************************************************************************
 129:.\Generated_Source\PSoC5/Counter.c **** * Summary:
 130:.\Generated_Source\PSoC5/Counter.c **** *     Enable the Counter
 131:.\Generated_Source\PSoC5/Counter.c **** * 
 132:.\Generated_Source\PSoC5/Counter.c **** * Parameters:  
 133:.\Generated_Source\PSoC5/Counter.c **** *  void  
 134:.\Generated_Source\PSoC5/Counter.c **** *
 135:.\Generated_Source\PSoC5/Counter.c **** * Return: 
 136:.\Generated_Source\PSoC5/Counter.c **** *  void
 137:.\Generated_Source\PSoC5/Counter.c **** *
 138:.\Generated_Source\PSoC5/Counter.c **** * Side Effects: 
 139:.\Generated_Source\PSoC5/Counter.c **** *   If the Enable mode is set to Hardware only then this function has no effect 
 140:.\Generated_Source\PSoC5/Counter.c **** *   on the operation of the counter.
 141:.\Generated_Source\PSoC5/Counter.c **** *
 142:.\Generated_Source\PSoC5/Counter.c **** *******************************************************************************/
 143:.\Generated_Source\PSoC5/Counter.c **** void Counter_Enable(void) 
 144:.\Generated_Source\PSoC5/Counter.c **** {
 130              		.loc 1 144 0
 131              		.cfi_startproc
 132              		@ args = 0, pretend = 0, frame = 0
 133              		@ frame_needed = 1, uses_anonymous_args = 0
 134              		@ link register save eliminated.
 135 0000 80B4     		push	{r7}
 136              	.LCFI3:
 137              		.cfi_def_cfa_offset 4
ARM GAS  C:\Users\dmtucker\AppData\Local\Temp\ccIyNKBz.s 			page 6


 138 0002 00AF     		add	r7, sp, #0
 139              		.cfi_offset 7, -4
 140              	.LCFI4:
 141              		.cfi_def_cfa_register 7
 145:.\Generated_Source\PSoC5/Counter.c ****     /* Globally Enable the Fixed Function Block chosen */
 146:.\Generated_Source\PSoC5/Counter.c ****     #if (Counter_UsingFixedFunction)
 147:.\Generated_Source\PSoC5/Counter.c ****         Counter_GLOBAL_ENABLE |= Counter_BLOCK_EN_MASK;
 148:.\Generated_Source\PSoC5/Counter.c ****         Counter_GLOBAL_STBY_ENABLE |= Counter_BLOCK_STBY_EN_MASK;
 149:.\Generated_Source\PSoC5/Counter.c ****     #endif /* (Counter_UsingFixedFunction) */  
 150:.\Generated_Source\PSoC5/Counter.c ****         
 151:.\Generated_Source\PSoC5/Counter.c ****     /* Enable the counter from the control register  */
 152:.\Generated_Source\PSoC5/Counter.c ****     /* If Fixed Function then make sure Mode is set correctly */
 153:.\Generated_Source\PSoC5/Counter.c ****     /* else make sure reset is clear */
 154:.\Generated_Source\PSoC5/Counter.c ****     #if(!Counter_ControlRegRemoved || Counter_UsingFixedFunction)
 155:.\Generated_Source\PSoC5/Counter.c ****         Counter_CONTROL |= Counter_CTRL_ENABLE;                
 142              		.loc 1 155 0
 143 0004 46F27A53 		movw	r3, #:lower16:1073767802
 144 0008 C4F20003 		movt	r3, #:upper16:1073767802
 145 000c 46F27A52 		movw	r2, #:lower16:1073767802
 146 0010 C4F20002 		movt	r2, #:upper16:1073767802
 147 0014 1278     		ldrb	r2, [r2, #0]
 148 0016 D2B2     		uxtb	r2, r2
 149 0018 6FEA4262 		mvn	r2, r2, lsl #25
 150 001c 6FEA5262 		mvn	r2, r2, lsr #25
 151 0020 D2B2     		uxtb	r2, r2
 152 0022 1A70     		strb	r2, [r3, #0]
 156:.\Generated_Source\PSoC5/Counter.c ****     #endif /* (!Counter_ControlRegRemoved || Counter_UsingFixedFunction) */
 157:.\Generated_Source\PSoC5/Counter.c ****     
 158:.\Generated_Source\PSoC5/Counter.c **** }
 153              		.loc 1 158 0
 154 0024 BD46     		mov	sp, r7
 155 0026 80BC     		pop	{r7}
 156 0028 7047     		bx	lr
 157              		.cfi_endproc
 158              	.LFE1:
 159              		.size	Counter_Enable, .-Counter_Enable
 160 002a 00BF     		.section	.text.Counter_Start,"ax",%progbits
 161              		.align	2
 162              		.global	Counter_Start
 163              		.thumb
 164              		.thumb_func
 165              		.type	Counter_Start, %function
 166              	Counter_Start:
 167              	.LFB2:
 159:.\Generated_Source\PSoC5/Counter.c **** 
 160:.\Generated_Source\PSoC5/Counter.c **** 
 161:.\Generated_Source\PSoC5/Counter.c **** /*******************************************************************************
 162:.\Generated_Source\PSoC5/Counter.c **** * Function Name: Counter_Start
 163:.\Generated_Source\PSoC5/Counter.c **** ********************************************************************************
 164:.\Generated_Source\PSoC5/Counter.c **** * Summary:
 165:.\Generated_Source\PSoC5/Counter.c **** *  Enables the counter for operation 
 166:.\Generated_Source\PSoC5/Counter.c **** *
 167:.\Generated_Source\PSoC5/Counter.c **** * Parameters:  
 168:.\Generated_Source\PSoC5/Counter.c **** *  void  
 169:.\Generated_Source\PSoC5/Counter.c **** *
 170:.\Generated_Source\PSoC5/Counter.c **** * Return: 
 171:.\Generated_Source\PSoC5/Counter.c **** *  void
ARM GAS  C:\Users\dmtucker\AppData\Local\Temp\ccIyNKBz.s 			page 7


 172:.\Generated_Source\PSoC5/Counter.c **** *
 173:.\Generated_Source\PSoC5/Counter.c **** * Global variables:
 174:.\Generated_Source\PSoC5/Counter.c **** *  Counter_initVar: Is modified when this function is called for the  
 175:.\Generated_Source\PSoC5/Counter.c **** *   first time. Is used to ensure that initialization happens only once.
 176:.\Generated_Source\PSoC5/Counter.c **** *
 177:.\Generated_Source\PSoC5/Counter.c **** *******************************************************************************/
 178:.\Generated_Source\PSoC5/Counter.c **** void Counter_Start(void) 
 179:.\Generated_Source\PSoC5/Counter.c **** {
 168              		.loc 1 179 0
 169              		.cfi_startproc
 170              		@ args = 0, pretend = 0, frame = 0
 171              		@ frame_needed = 1, uses_anonymous_args = 0
 172 0000 80B5     		push	{r7, lr}
 173              	.LCFI5:
 174              		.cfi_def_cfa_offset 8
 175 0002 00AF     		add	r7, sp, #0
 176              		.cfi_offset 14, -4
 177              		.cfi_offset 7, -8
 178              	.LCFI6:
 179              		.cfi_def_cfa_register 7
 180:.\Generated_Source\PSoC5/Counter.c ****     if(Counter_initVar == 0u)
 180              		.loc 1 180 0
 181 0004 40F20003 		movw	r3, #:lower16:Counter_initVar
 182 0008 C0F20003 		movt	r3, #:upper16:Counter_initVar
 183 000c 1B78     		ldrb	r3, [r3, #0]	@ zero_extendqisi2
 184 000e 002B     		cmp	r3, #0
 185 0010 08D1     		bne	.L6
 181:.\Generated_Source\PSoC5/Counter.c ****     {
 182:.\Generated_Source\PSoC5/Counter.c ****         Counter_Init();
 186              		.loc 1 182 0
 187 0012 FFF7FEFF 		bl	Counter_Init
 183:.\Generated_Source\PSoC5/Counter.c ****         
 184:.\Generated_Source\PSoC5/Counter.c ****         Counter_initVar = 1u; /* Clear this bit for Initialization */        
 188              		.loc 1 184 0
 189 0016 40F20003 		movw	r3, #:lower16:Counter_initVar
 190 001a C0F20003 		movt	r3, #:upper16:Counter_initVar
 191 001e 4FF00102 		mov	r2, #1
 192 0022 1A70     		strb	r2, [r3, #0]
 193              	.L6:
 185:.\Generated_Source\PSoC5/Counter.c ****     }
 186:.\Generated_Source\PSoC5/Counter.c ****     
 187:.\Generated_Source\PSoC5/Counter.c ****     /* Enable the Counter */
 188:.\Generated_Source\PSoC5/Counter.c ****     Counter_Enable();        
 194              		.loc 1 188 0
 195 0024 FFF7FEFF 		bl	Counter_Enable
 189:.\Generated_Source\PSoC5/Counter.c **** }
 196              		.loc 1 189 0
 197 0028 80BD     		pop	{r7, pc}
 198              		.cfi_endproc
 199              	.LFE2:
 200              		.size	Counter_Start, .-Counter_Start
 201 002a 00BF     		.section	.text.Counter_Stop,"ax",%progbits
 202              		.align	2
 203              		.global	Counter_Stop
 204              		.thumb
 205              		.thumb_func
 206              		.type	Counter_Stop, %function
ARM GAS  C:\Users\dmtucker\AppData\Local\Temp\ccIyNKBz.s 			page 8


 207              	Counter_Stop:
 208              	.LFB3:
 190:.\Generated_Source\PSoC5/Counter.c **** 
 191:.\Generated_Source\PSoC5/Counter.c **** 
 192:.\Generated_Source\PSoC5/Counter.c **** /*******************************************************************************
 193:.\Generated_Source\PSoC5/Counter.c **** * Function Name: Counter_Stop
 194:.\Generated_Source\PSoC5/Counter.c **** ********************************************************************************
 195:.\Generated_Source\PSoC5/Counter.c **** * Summary:
 196:.\Generated_Source\PSoC5/Counter.c **** * Halts the counter, but does not change any modes or disable interrupts.
 197:.\Generated_Source\PSoC5/Counter.c **** *
 198:.\Generated_Source\PSoC5/Counter.c **** * Parameters:  
 199:.\Generated_Source\PSoC5/Counter.c **** *  void  
 200:.\Generated_Source\PSoC5/Counter.c **** *
 201:.\Generated_Source\PSoC5/Counter.c **** * Return: 
 202:.\Generated_Source\PSoC5/Counter.c **** *  void
 203:.\Generated_Source\PSoC5/Counter.c **** *
 204:.\Generated_Source\PSoC5/Counter.c **** * Side Effects: If the Enable mode is set to Hardware only then this function
 205:.\Generated_Source\PSoC5/Counter.c **** *               has no effect on the operation of the counter.
 206:.\Generated_Source\PSoC5/Counter.c **** *
 207:.\Generated_Source\PSoC5/Counter.c **** *******************************************************************************/
 208:.\Generated_Source\PSoC5/Counter.c **** void Counter_Stop(void) 
 209:.\Generated_Source\PSoC5/Counter.c **** {
 209              		.loc 1 209 0
 210              		.cfi_startproc
 211              		@ args = 0, pretend = 0, frame = 0
 212              		@ frame_needed = 1, uses_anonymous_args = 0
 213              		@ link register save eliminated.
 214 0000 80B4     		push	{r7}
 215              	.LCFI7:
 216              		.cfi_def_cfa_offset 4
 217 0002 00AF     		add	r7, sp, #0
 218              		.cfi_offset 7, -4
 219              	.LCFI8:
 220              		.cfi_def_cfa_register 7
 210:.\Generated_Source\PSoC5/Counter.c ****     /* Disable Counter */
 211:.\Generated_Source\PSoC5/Counter.c ****     #if(!Counter_ControlRegRemoved || Counter_UsingFixedFunction)
 212:.\Generated_Source\PSoC5/Counter.c ****         Counter_CONTROL &= ((uint8)(~Counter_CTRL_ENABLE));        
 221              		.loc 1 212 0
 222 0004 46F27A53 		movw	r3, #:lower16:1073767802
 223 0008 C4F20003 		movt	r3, #:upper16:1073767802
 224 000c 46F27A52 		movw	r2, #:lower16:1073767802
 225 0010 C4F20002 		movt	r2, #:upper16:1073767802
 226 0014 1278     		ldrb	r2, [r2, #0]
 227 0016 D2B2     		uxtb	r2, r2
 228 0018 02F07F02 		and	r2, r2, #127
 229 001c 1A70     		strb	r2, [r3, #0]
 213:.\Generated_Source\PSoC5/Counter.c ****     #endif /* (!Counter_ControlRegRemoved || Counter_UsingFixedFunction) */
 214:.\Generated_Source\PSoC5/Counter.c ****     
 215:.\Generated_Source\PSoC5/Counter.c ****     /* Globally disable the Fixed Function Block chosen */
 216:.\Generated_Source\PSoC5/Counter.c ****     #if (Counter_UsingFixedFunction)
 217:.\Generated_Source\PSoC5/Counter.c ****         Counter_GLOBAL_ENABLE &= ((uint8)(~Counter_BLOCK_EN_MASK));
 218:.\Generated_Source\PSoC5/Counter.c ****         Counter_GLOBAL_STBY_ENABLE &= ((uint8)(~Counter_BLOCK_STBY_EN_MASK));
 219:.\Generated_Source\PSoC5/Counter.c ****     #endif /* (Counter_UsingFixedFunction) */
 220:.\Generated_Source\PSoC5/Counter.c **** }
 230              		.loc 1 220 0
 231 001e BD46     		mov	sp, r7
 232 0020 80BC     		pop	{r7}
ARM GAS  C:\Users\dmtucker\AppData\Local\Temp\ccIyNKBz.s 			page 9


 233 0022 7047     		bx	lr
 234              		.cfi_endproc
 235              	.LFE3:
 236              		.size	Counter_Stop, .-Counter_Stop
 237              		.section	.text.Counter_SetInterruptMode,"ax",%progbits
 238              		.align	2
 239              		.global	Counter_SetInterruptMode
 240              		.thumb
 241              		.thumb_func
 242              		.type	Counter_SetInterruptMode, %function
 243              	Counter_SetInterruptMode:
 244              	.LFB4:
 221:.\Generated_Source\PSoC5/Counter.c **** 
 222:.\Generated_Source\PSoC5/Counter.c **** 
 223:.\Generated_Source\PSoC5/Counter.c **** /*******************************************************************************
 224:.\Generated_Source\PSoC5/Counter.c **** * Function Name: Counter_SetInterruptMode
 225:.\Generated_Source\PSoC5/Counter.c **** ********************************************************************************
 226:.\Generated_Source\PSoC5/Counter.c **** * Summary:
 227:.\Generated_Source\PSoC5/Counter.c **** * Configures which interrupt sources are enabled to generate the final interrupt
 228:.\Generated_Source\PSoC5/Counter.c **** *
 229:.\Generated_Source\PSoC5/Counter.c **** * Parameters:  
 230:.\Generated_Source\PSoC5/Counter.c **** *  InterruptsMask: This parameter is an or'd collection of the status bits
 231:.\Generated_Source\PSoC5/Counter.c **** *                   which will be allowed to generate the counters interrupt.   
 232:.\Generated_Source\PSoC5/Counter.c **** *
 233:.\Generated_Source\PSoC5/Counter.c **** * Return: 
 234:.\Generated_Source\PSoC5/Counter.c **** *  void
 235:.\Generated_Source\PSoC5/Counter.c **** *
 236:.\Generated_Source\PSoC5/Counter.c **** *******************************************************************************/
 237:.\Generated_Source\PSoC5/Counter.c **** void Counter_SetInterruptMode(uint8 interruptsMask) 
 238:.\Generated_Source\PSoC5/Counter.c **** {
 245              		.loc 1 238 0
 246              		.cfi_startproc
 247              		@ args = 0, pretend = 0, frame = 8
 248              		@ frame_needed = 1, uses_anonymous_args = 0
 249              		@ link register save eliminated.
 250 0000 80B4     		push	{r7}
 251              	.LCFI9:
 252              		.cfi_def_cfa_offset 4
 253 0002 83B0     		sub	sp, sp, #12
 254              	.LCFI10:
 255              		.cfi_def_cfa_offset 16
 256 0004 00AF     		add	r7, sp, #0
 257              		.cfi_offset 7, -4
 258              	.LCFI11:
 259              		.cfi_def_cfa_register 7
 260 0006 0346     		mov	r3, r0
 261 0008 FB71     		strb	r3, [r7, #7]
 239:.\Generated_Source\PSoC5/Counter.c ****     Counter_STATUS_MASK = interruptsMask;
 262              		.loc 1 239 0
 263 000a 46F28B53 		movw	r3, #:lower16:1073767819
 264 000e C4F20003 		movt	r3, #:upper16:1073767819
 265 0012 FA79     		ldrb	r2, [r7, #7]
 266 0014 1A70     		strb	r2, [r3, #0]
 240:.\Generated_Source\PSoC5/Counter.c **** }
 267              		.loc 1 240 0
 268 0016 07F10C07 		add	r7, r7, #12
 269 001a BD46     		mov	sp, r7
ARM GAS  C:\Users\dmtucker\AppData\Local\Temp\ccIyNKBz.s 			page 10


 270 001c 80BC     		pop	{r7}
 271 001e 7047     		bx	lr
 272              		.cfi_endproc
 273              	.LFE4:
 274              		.size	Counter_SetInterruptMode, .-Counter_SetInterruptMode
 275              		.section	.text.Counter_ReadStatusRegister,"ax",%progbits
 276              		.align	2
 277              		.global	Counter_ReadStatusRegister
 278              		.thumb
 279              		.thumb_func
 280              		.type	Counter_ReadStatusRegister, %function
 281              	Counter_ReadStatusRegister:
 282              	.LFB5:
 241:.\Generated_Source\PSoC5/Counter.c **** 
 242:.\Generated_Source\PSoC5/Counter.c **** 
 243:.\Generated_Source\PSoC5/Counter.c **** /*******************************************************************************
 244:.\Generated_Source\PSoC5/Counter.c **** * Function Name: Counter_ReadStatusRegister
 245:.\Generated_Source\PSoC5/Counter.c **** ********************************************************************************
 246:.\Generated_Source\PSoC5/Counter.c **** * Summary:
 247:.\Generated_Source\PSoC5/Counter.c **** *   Reads the status register and returns it's state. This function should use
 248:.\Generated_Source\PSoC5/Counter.c **** *       defined types for the bit-field information as the bits in this
 249:.\Generated_Source\PSoC5/Counter.c **** *       register may be permuteable.
 250:.\Generated_Source\PSoC5/Counter.c **** *
 251:.\Generated_Source\PSoC5/Counter.c **** * Parameters:  
 252:.\Generated_Source\PSoC5/Counter.c **** *  void
 253:.\Generated_Source\PSoC5/Counter.c **** *
 254:.\Generated_Source\PSoC5/Counter.c **** * Return: 
 255:.\Generated_Source\PSoC5/Counter.c **** *  (uint8) The contents of the status register
 256:.\Generated_Source\PSoC5/Counter.c **** *
 257:.\Generated_Source\PSoC5/Counter.c **** * Side Effects:
 258:.\Generated_Source\PSoC5/Counter.c **** *   Status register bits may be clear on read. 
 259:.\Generated_Source\PSoC5/Counter.c **** *
 260:.\Generated_Source\PSoC5/Counter.c **** *******************************************************************************/
 261:.\Generated_Source\PSoC5/Counter.c **** uint8   Counter_ReadStatusRegister(void) 
 262:.\Generated_Source\PSoC5/Counter.c **** {
 283              		.loc 1 262 0
 284              		.cfi_startproc
 285              		@ args = 0, pretend = 0, frame = 0
 286              		@ frame_needed = 1, uses_anonymous_args = 0
 287              		@ link register save eliminated.
 288 0000 80B4     		push	{r7}
 289              	.LCFI12:
 290              		.cfi_def_cfa_offset 4
 291 0002 00AF     		add	r7, sp, #0
 292              		.cfi_offset 7, -4
 293              	.LCFI13:
 294              		.cfi_def_cfa_register 7
 263:.\Generated_Source\PSoC5/Counter.c ****     return Counter_STATUS;
 295              		.loc 1 263 0
 296 0004 46F26B53 		movw	r3, #:lower16:1073767787
 297 0008 C4F20003 		movt	r3, #:upper16:1073767787
 298 000c 1B78     		ldrb	r3, [r3, #0]
 299 000e DBB2     		uxtb	r3, r3
 264:.\Generated_Source\PSoC5/Counter.c **** }
 300              		.loc 1 264 0
 301 0010 1846     		mov	r0, r3
 302 0012 BD46     		mov	sp, r7
ARM GAS  C:\Users\dmtucker\AppData\Local\Temp\ccIyNKBz.s 			page 11


 303 0014 80BC     		pop	{r7}
 304 0016 7047     		bx	lr
 305              		.cfi_endproc
 306              	.LFE5:
 307              		.size	Counter_ReadStatusRegister, .-Counter_ReadStatusRegister
 308              		.section	.text.Counter_ReadControlRegister,"ax",%progbits
 309              		.align	2
 310              		.global	Counter_ReadControlRegister
 311              		.thumb
 312              		.thumb_func
 313              		.type	Counter_ReadControlRegister, %function
 314              	Counter_ReadControlRegister:
 315              	.LFB6:
 265:.\Generated_Source\PSoC5/Counter.c **** 
 266:.\Generated_Source\PSoC5/Counter.c **** 
 267:.\Generated_Source\PSoC5/Counter.c **** #if(!Counter_ControlRegRemoved)
 268:.\Generated_Source\PSoC5/Counter.c **** /*******************************************************************************
 269:.\Generated_Source\PSoC5/Counter.c **** * Function Name: Counter_ReadControlRegister
 270:.\Generated_Source\PSoC5/Counter.c **** ********************************************************************************
 271:.\Generated_Source\PSoC5/Counter.c **** * Summary:
 272:.\Generated_Source\PSoC5/Counter.c **** *   Reads the control register and returns it's state. This function should use
 273:.\Generated_Source\PSoC5/Counter.c **** *       defined types for the bit-field information as the bits in this
 274:.\Generated_Source\PSoC5/Counter.c **** *       register may be permuteable.
 275:.\Generated_Source\PSoC5/Counter.c **** *
 276:.\Generated_Source\PSoC5/Counter.c **** * Parameters:  
 277:.\Generated_Source\PSoC5/Counter.c **** *  void
 278:.\Generated_Source\PSoC5/Counter.c **** *
 279:.\Generated_Source\PSoC5/Counter.c **** * Return: 
 280:.\Generated_Source\PSoC5/Counter.c **** *  (uint8) The contents of the control register
 281:.\Generated_Source\PSoC5/Counter.c **** *
 282:.\Generated_Source\PSoC5/Counter.c **** *******************************************************************************/
 283:.\Generated_Source\PSoC5/Counter.c **** uint8   Counter_ReadControlRegister(void) 
 284:.\Generated_Source\PSoC5/Counter.c **** {
 316              		.loc 1 284 0
 317              		.cfi_startproc
 318              		@ args = 0, pretend = 0, frame = 0
 319              		@ frame_needed = 1, uses_anonymous_args = 0
 320              		@ link register save eliminated.
 321 0000 80B4     		push	{r7}
 322              	.LCFI14:
 323              		.cfi_def_cfa_offset 4
 324 0002 00AF     		add	r7, sp, #0
 325              		.cfi_offset 7, -4
 326              	.LCFI15:
 327              		.cfi_def_cfa_register 7
 285:.\Generated_Source\PSoC5/Counter.c ****     return Counter_CONTROL;
 328              		.loc 1 285 0
 329 0004 46F27A53 		movw	r3, #:lower16:1073767802
 330 0008 C4F20003 		movt	r3, #:upper16:1073767802
 331 000c 1B78     		ldrb	r3, [r3, #0]
 332 000e DBB2     		uxtb	r3, r3
 286:.\Generated_Source\PSoC5/Counter.c **** }
 333              		.loc 1 286 0
 334 0010 1846     		mov	r0, r3
 335 0012 BD46     		mov	sp, r7
 336 0014 80BC     		pop	{r7}
 337 0016 7047     		bx	lr
ARM GAS  C:\Users\dmtucker\AppData\Local\Temp\ccIyNKBz.s 			page 12


 338              		.cfi_endproc
 339              	.LFE6:
 340              		.size	Counter_ReadControlRegister, .-Counter_ReadControlRegister
 341              		.section	.text.Counter_WriteControlRegister,"ax",%progbits
 342              		.align	2
 343              		.global	Counter_WriteControlRegister
 344              		.thumb
 345              		.thumb_func
 346              		.type	Counter_WriteControlRegister, %function
 347              	Counter_WriteControlRegister:
 348              	.LFB7:
 287:.\Generated_Source\PSoC5/Counter.c **** 
 288:.\Generated_Source\PSoC5/Counter.c **** 
 289:.\Generated_Source\PSoC5/Counter.c **** /*******************************************************************************
 290:.\Generated_Source\PSoC5/Counter.c **** * Function Name: Counter_WriteControlRegister
 291:.\Generated_Source\PSoC5/Counter.c **** ********************************************************************************
 292:.\Generated_Source\PSoC5/Counter.c **** * Summary:
 293:.\Generated_Source\PSoC5/Counter.c **** *   Sets the bit-field of the control register.  This function should use
 294:.\Generated_Source\PSoC5/Counter.c **** *       defined types for the bit-field information as the bits in this
 295:.\Generated_Source\PSoC5/Counter.c **** *       register may be permuteable.
 296:.\Generated_Source\PSoC5/Counter.c **** *
 297:.\Generated_Source\PSoC5/Counter.c **** * Parameters:  
 298:.\Generated_Source\PSoC5/Counter.c **** *  void
 299:.\Generated_Source\PSoC5/Counter.c **** *
 300:.\Generated_Source\PSoC5/Counter.c **** * Return: 
 301:.\Generated_Source\PSoC5/Counter.c **** *  (uint8) The contents of the control register
 302:.\Generated_Source\PSoC5/Counter.c **** *
 303:.\Generated_Source\PSoC5/Counter.c **** *******************************************************************************/
 304:.\Generated_Source\PSoC5/Counter.c **** void    Counter_WriteControlRegister(uint8 control) 
 305:.\Generated_Source\PSoC5/Counter.c **** {
 349              		.loc 1 305 0
 350              		.cfi_startproc
 351              		@ args = 0, pretend = 0, frame = 8
 352              		@ frame_needed = 1, uses_anonymous_args = 0
 353              		@ link register save eliminated.
 354 0000 80B4     		push	{r7}
 355              	.LCFI16:
 356              		.cfi_def_cfa_offset 4
 357 0002 83B0     		sub	sp, sp, #12
 358              	.LCFI17:
 359              		.cfi_def_cfa_offset 16
 360 0004 00AF     		add	r7, sp, #0
 361              		.cfi_offset 7, -4
 362              	.LCFI18:
 363              		.cfi_def_cfa_register 7
 364 0006 0346     		mov	r3, r0
 365 0008 FB71     		strb	r3, [r7, #7]
 306:.\Generated_Source\PSoC5/Counter.c ****     Counter_CONTROL = control;
 366              		.loc 1 306 0
 367 000a 46F27A53 		movw	r3, #:lower16:1073767802
 368 000e C4F20003 		movt	r3, #:upper16:1073767802
 369 0012 FA79     		ldrb	r2, [r7, #7]
 370 0014 1A70     		strb	r2, [r3, #0]
 307:.\Generated_Source\PSoC5/Counter.c **** }
 371              		.loc 1 307 0
 372 0016 07F10C07 		add	r7, r7, #12
 373 001a BD46     		mov	sp, r7
ARM GAS  C:\Users\dmtucker\AppData\Local\Temp\ccIyNKBz.s 			page 13


 374 001c 80BC     		pop	{r7}
 375 001e 7047     		bx	lr
 376              		.cfi_endproc
 377              	.LFE7:
 378              		.size	Counter_WriteControlRegister, .-Counter_WriteControlRegister
 379              		.section	.text.Counter_WriteCounter,"ax",%progbits
 380              		.align	2
 381              		.global	Counter_WriteCounter
 382              		.thumb
 383              		.thumb_func
 384              		.type	Counter_WriteCounter, %function
 385              	Counter_WriteCounter:
 386              	.LFB8:
 308:.\Generated_Source\PSoC5/Counter.c **** 
 309:.\Generated_Source\PSoC5/Counter.c **** #endif  /* (!Counter_ControlRegRemoved) */
 310:.\Generated_Source\PSoC5/Counter.c **** 
 311:.\Generated_Source\PSoC5/Counter.c **** 
 312:.\Generated_Source\PSoC5/Counter.c **** #if (!(Counter_UsingFixedFunction && (CY_PSOC5A)))
 313:.\Generated_Source\PSoC5/Counter.c **** /*******************************************************************************
 314:.\Generated_Source\PSoC5/Counter.c **** * Function Name: Counter_WriteCounter
 315:.\Generated_Source\PSoC5/Counter.c **** ********************************************************************************
 316:.\Generated_Source\PSoC5/Counter.c **** * Summary:
 317:.\Generated_Source\PSoC5/Counter.c **** *   This funtion is used to set the counter to a specific value
 318:.\Generated_Source\PSoC5/Counter.c **** *
 319:.\Generated_Source\PSoC5/Counter.c **** * Parameters:  
 320:.\Generated_Source\PSoC5/Counter.c **** *  counter:  New counter value. 
 321:.\Generated_Source\PSoC5/Counter.c **** *
 322:.\Generated_Source\PSoC5/Counter.c **** * Return: 
 323:.\Generated_Source\PSoC5/Counter.c **** *  void 
 324:.\Generated_Source\PSoC5/Counter.c **** *
 325:.\Generated_Source\PSoC5/Counter.c **** *******************************************************************************/
 326:.\Generated_Source\PSoC5/Counter.c **** void Counter_WriteCounter(uint16 counter) \
 327:.\Generated_Source\PSoC5/Counter.c ****                                    
 328:.\Generated_Source\PSoC5/Counter.c **** {
 387              		.loc 1 328 0
 388              		.cfi_startproc
 389              		@ args = 0, pretend = 0, frame = 8
 390              		@ frame_needed = 1, uses_anonymous_args = 0
 391              		@ link register save eliminated.
 392 0000 80B4     		push	{r7}
 393              	.LCFI19:
 394              		.cfi_def_cfa_offset 4
 395 0002 83B0     		sub	sp, sp, #12
 396              	.LCFI20:
 397              		.cfi_def_cfa_offset 16
 398 0004 00AF     		add	r7, sp, #0
 399              		.cfi_offset 7, -4
 400              	.LCFI21:
 401              		.cfi_def_cfa_register 7
 402 0006 0346     		mov	r3, r0
 403 0008 FB80     		strh	r3, [r7, #6]	@ movhi
 329:.\Generated_Source\PSoC5/Counter.c ****     #if(Counter_UsingFixedFunction)
 330:.\Generated_Source\PSoC5/Counter.c ****         /* assert if block is already enabled */
 331:.\Generated_Source\PSoC5/Counter.c ****         CYASSERT (0u == (Counter_GLOBAL_ENABLE & Counter_BLOCK_EN_MASK));
 332:.\Generated_Source\PSoC5/Counter.c ****         /* If block is disabled, enable it and then write the counter */
 333:.\Generated_Source\PSoC5/Counter.c ****         Counter_GLOBAL_ENABLE |= Counter_BLOCK_EN_MASK;
 334:.\Generated_Source\PSoC5/Counter.c ****         CY_SET_REG16(Counter_COUNTER_LSB_PTR, (uint16)counter);
ARM GAS  C:\Users\dmtucker\AppData\Local\Temp\ccIyNKBz.s 			page 14


 335:.\Generated_Source\PSoC5/Counter.c ****         Counter_GLOBAL_ENABLE &= ((uint8)(~Counter_BLOCK_EN_MASK));
 336:.\Generated_Source\PSoC5/Counter.c ****     #else
 337:.\Generated_Source\PSoC5/Counter.c ****         CY_SET_REG16(Counter_COUNTER_LSB_PTR, counter);
 404              		.loc 1 337 0
 405 000a 46F61423 		movw	r3, #:lower16:1073768980
 406 000e C4F20003 		movt	r3, #:upper16:1073768980
 407 0012 FA88     		ldrh	r2, [r7, #6]	@ movhi
 408 0014 1A80     		strh	r2, [r3, #0]	@ movhi
 338:.\Generated_Source\PSoC5/Counter.c ****     #endif /* (Counter_UsingFixedFunction) */
 339:.\Generated_Source\PSoC5/Counter.c **** }
 409              		.loc 1 339 0
 410 0016 07F10C07 		add	r7, r7, #12
 411 001a BD46     		mov	sp, r7
 412 001c 80BC     		pop	{r7}
 413 001e 7047     		bx	lr
 414              		.cfi_endproc
 415              	.LFE8:
 416              		.size	Counter_WriteCounter, .-Counter_WriteCounter
 417              		.section	.text.Counter_ReadCounter,"ax",%progbits
 418              		.align	2
 419              		.global	Counter_ReadCounter
 420              		.thumb
 421              		.thumb_func
 422              		.type	Counter_ReadCounter, %function
 423              	Counter_ReadCounter:
 424              	.LFB9:
 340:.\Generated_Source\PSoC5/Counter.c **** #endif /* (!(Counter_UsingFixedFunction && (CY_PSOC5A))) */
 341:.\Generated_Source\PSoC5/Counter.c **** 
 342:.\Generated_Source\PSoC5/Counter.c **** 
 343:.\Generated_Source\PSoC5/Counter.c **** /*******************************************************************************
 344:.\Generated_Source\PSoC5/Counter.c **** * Function Name: Counter_ReadCounter
 345:.\Generated_Source\PSoC5/Counter.c **** ********************************************************************************
 346:.\Generated_Source\PSoC5/Counter.c **** * Summary:
 347:.\Generated_Source\PSoC5/Counter.c **** * Returns the current value of the counter.  It doesn't matter
 348:.\Generated_Source\PSoC5/Counter.c **** * if the counter is enabled or running.
 349:.\Generated_Source\PSoC5/Counter.c **** *
 350:.\Generated_Source\PSoC5/Counter.c **** * Parameters:  
 351:.\Generated_Source\PSoC5/Counter.c **** *  void:  
 352:.\Generated_Source\PSoC5/Counter.c **** *
 353:.\Generated_Source\PSoC5/Counter.c **** * Return: 
 354:.\Generated_Source\PSoC5/Counter.c **** *  (uint16) The present value of the counter.
 355:.\Generated_Source\PSoC5/Counter.c **** *
 356:.\Generated_Source\PSoC5/Counter.c **** *******************************************************************************/
 357:.\Generated_Source\PSoC5/Counter.c **** uint16 Counter_ReadCounter(void) 
 358:.\Generated_Source\PSoC5/Counter.c **** {
 425              		.loc 1 358 0
 426              		.cfi_startproc
 427              		@ args = 0, pretend = 0, frame = 0
 428              		@ frame_needed = 1, uses_anonymous_args = 0
 429              		@ link register save eliminated.
 430 0000 80B4     		push	{r7}
 431              	.LCFI22:
 432              		.cfi_def_cfa_offset 4
 433 0002 00AF     		add	r7, sp, #0
 434              		.cfi_offset 7, -4
 435              	.LCFI23:
 436              		.cfi_def_cfa_register 7
ARM GAS  C:\Users\dmtucker\AppData\Local\Temp\ccIyNKBz.s 			page 15


 359:.\Generated_Source\PSoC5/Counter.c ****     /* Force capture by reading Accumulator */
 360:.\Generated_Source\PSoC5/Counter.c ****     /* Must first do a software capture to be able to read the counter */
 361:.\Generated_Source\PSoC5/Counter.c ****     /* It is up to the user code to make sure there isn't already captured data in the FIFO */
 362:.\Generated_Source\PSoC5/Counter.c ****     (void)Counter_COUNTER_LSB;
 437              		.loc 1 362 0
 438 0004 46F61423 		movw	r3, #:lower16:1073768980
 439 0008 C4F20003 		movt	r3, #:upper16:1073768980
 440 000c 1B88     		ldrh	r3, [r3, #0]	@ movhi
 363:.\Generated_Source\PSoC5/Counter.c ****     
 364:.\Generated_Source\PSoC5/Counter.c ****     /* Read the data from the FIFO (or capture register for Fixed Function)*/
 365:.\Generated_Source\PSoC5/Counter.c ****     #if(Counter_UsingFixedFunction)
 366:.\Generated_Source\PSoC5/Counter.c ****         return ((uint16)CY_GET_REG16(Counter_STATICCOUNT_LSB_PTR));
 367:.\Generated_Source\PSoC5/Counter.c ****     #else
 368:.\Generated_Source\PSoC5/Counter.c ****         return (CY_GET_REG16(Counter_STATICCOUNT_LSB_PTR));
 441              		.loc 1 368 0
 442 000e 46F69423 		movw	r3, #:lower16:1073769108
 443 0012 C4F20003 		movt	r3, #:upper16:1073769108
 444 0016 1B88     		ldrh	r3, [r3, #0]	@ movhi
 445 0018 9BB2     		uxth	r3, r3
 369:.\Generated_Source\PSoC5/Counter.c ****     #endif /* (Counter_UsingFixedFunction) */
 370:.\Generated_Source\PSoC5/Counter.c **** }
 446              		.loc 1 370 0
 447 001a 1846     		mov	r0, r3
 448 001c BD46     		mov	sp, r7
 449 001e 80BC     		pop	{r7}
 450 0020 7047     		bx	lr
 451              		.cfi_endproc
 452              	.LFE9:
 453              		.size	Counter_ReadCounter, .-Counter_ReadCounter
 454 0022 00BF     		.section	.text.Counter_ReadCapture,"ax",%progbits
 455              		.align	2
 456              		.global	Counter_ReadCapture
 457              		.thumb
 458              		.thumb_func
 459              		.type	Counter_ReadCapture, %function
 460              	Counter_ReadCapture:
 461              	.LFB10:
 371:.\Generated_Source\PSoC5/Counter.c **** 
 372:.\Generated_Source\PSoC5/Counter.c **** 
 373:.\Generated_Source\PSoC5/Counter.c **** /*******************************************************************************
 374:.\Generated_Source\PSoC5/Counter.c **** * Function Name: Counter_ReadCapture
 375:.\Generated_Source\PSoC5/Counter.c **** ********************************************************************************
 376:.\Generated_Source\PSoC5/Counter.c **** * Summary:
 377:.\Generated_Source\PSoC5/Counter.c **** *   This function returns the last value captured.
 378:.\Generated_Source\PSoC5/Counter.c **** *
 379:.\Generated_Source\PSoC5/Counter.c **** * Parameters:  
 380:.\Generated_Source\PSoC5/Counter.c **** *  void
 381:.\Generated_Source\PSoC5/Counter.c **** *
 382:.\Generated_Source\PSoC5/Counter.c **** * Return: 
 383:.\Generated_Source\PSoC5/Counter.c **** *  (uint16) Present Capture value.
 384:.\Generated_Source\PSoC5/Counter.c **** *
 385:.\Generated_Source\PSoC5/Counter.c **** *******************************************************************************/
 386:.\Generated_Source\PSoC5/Counter.c **** uint16 Counter_ReadCapture(void) 
 387:.\Generated_Source\PSoC5/Counter.c **** {
 462              		.loc 1 387 0
 463              		.cfi_startproc
 464              		@ args = 0, pretend = 0, frame = 0
ARM GAS  C:\Users\dmtucker\AppData\Local\Temp\ccIyNKBz.s 			page 16


 465              		@ frame_needed = 1, uses_anonymous_args = 0
 466              		@ link register save eliminated.
 467 0000 80B4     		push	{r7}
 468              	.LCFI24:
 469              		.cfi_def_cfa_offset 4
 470 0002 00AF     		add	r7, sp, #0
 471              		.cfi_offset 7, -4
 472              	.LCFI25:
 473              		.cfi_def_cfa_register 7
 388:.\Generated_Source\PSoC5/Counter.c ****     #if(Counter_UsingFixedFunction)
 389:.\Generated_Source\PSoC5/Counter.c ****         return ((uint16)CY_GET_REG16(Counter_STATICCOUNT_LSB_PTR));
 390:.\Generated_Source\PSoC5/Counter.c ****     #else
 391:.\Generated_Source\PSoC5/Counter.c ****         return (CY_GET_REG16(Counter_STATICCOUNT_LSB_PTR));
 474              		.loc 1 391 0
 475 0004 46F69423 		movw	r3, #:lower16:1073769108
 476 0008 C4F20003 		movt	r3, #:upper16:1073769108
 477 000c 1B88     		ldrh	r3, [r3, #0]	@ movhi
 478 000e 9BB2     		uxth	r3, r3
 392:.\Generated_Source\PSoC5/Counter.c ****     #endif /* (Counter_UsingFixedFunction) */
 393:.\Generated_Source\PSoC5/Counter.c **** }
 479              		.loc 1 393 0
 480 0010 1846     		mov	r0, r3
 481 0012 BD46     		mov	sp, r7
 482 0014 80BC     		pop	{r7}
 483 0016 7047     		bx	lr
 484              		.cfi_endproc
 485              	.LFE10:
 486              		.size	Counter_ReadCapture, .-Counter_ReadCapture
 487              		.section	.text.Counter_WritePeriod,"ax",%progbits
 488              		.align	2
 489              		.global	Counter_WritePeriod
 490              		.thumb
 491              		.thumb_func
 492              		.type	Counter_WritePeriod, %function
 493              	Counter_WritePeriod:
 494              	.LFB11:
 394:.\Generated_Source\PSoC5/Counter.c **** 
 395:.\Generated_Source\PSoC5/Counter.c **** 
 396:.\Generated_Source\PSoC5/Counter.c **** /*******************************************************************************
 397:.\Generated_Source\PSoC5/Counter.c **** * Function Name: Counter_WritePeriod
 398:.\Generated_Source\PSoC5/Counter.c **** ********************************************************************************
 399:.\Generated_Source\PSoC5/Counter.c **** * Summary:
 400:.\Generated_Source\PSoC5/Counter.c **** * Changes the period of the counter.  The new period 
 401:.\Generated_Source\PSoC5/Counter.c **** * will be loaded the next time terminal count is detected.
 402:.\Generated_Source\PSoC5/Counter.c **** *
 403:.\Generated_Source\PSoC5/Counter.c **** * Parameters:  
 404:.\Generated_Source\PSoC5/Counter.c **** *  period: (uint16) A value of 0 will result in
 405:.\Generated_Source\PSoC5/Counter.c **** *         the counter remaining at zero.  
 406:.\Generated_Source\PSoC5/Counter.c **** *
 407:.\Generated_Source\PSoC5/Counter.c **** * Return: 
 408:.\Generated_Source\PSoC5/Counter.c **** *  void
 409:.\Generated_Source\PSoC5/Counter.c **** *
 410:.\Generated_Source\PSoC5/Counter.c **** *******************************************************************************/
 411:.\Generated_Source\PSoC5/Counter.c **** void Counter_WritePeriod(uint16 period) 
 412:.\Generated_Source\PSoC5/Counter.c **** {
 495              		.loc 1 412 0
 496              		.cfi_startproc
ARM GAS  C:\Users\dmtucker\AppData\Local\Temp\ccIyNKBz.s 			page 17


 497              		@ args = 0, pretend = 0, frame = 8
 498              		@ frame_needed = 1, uses_anonymous_args = 0
 499              		@ link register save eliminated.
 500 0000 80B4     		push	{r7}
 501              	.LCFI26:
 502              		.cfi_def_cfa_offset 4
 503 0002 83B0     		sub	sp, sp, #12
 504              	.LCFI27:
 505              		.cfi_def_cfa_offset 16
 506 0004 00AF     		add	r7, sp, #0
 507              		.cfi_offset 7, -4
 508              	.LCFI28:
 509              		.cfi_def_cfa_register 7
 510 0006 0346     		mov	r3, r0
 511 0008 FB80     		strh	r3, [r7, #6]	@ movhi
 413:.\Generated_Source\PSoC5/Counter.c ****     #if(Counter_UsingFixedFunction)
 414:.\Generated_Source\PSoC5/Counter.c ****         CY_SET_REG16(Counter_PERIOD_LSB_PTR,(uint16)period);
 415:.\Generated_Source\PSoC5/Counter.c ****     #else
 416:.\Generated_Source\PSoC5/Counter.c ****         CY_SET_REG16(Counter_PERIOD_LSB_PTR, period);
 512              		.loc 1 416 0
 513 000a 46F65423 		movw	r3, #:lower16:1073769044
 514 000e C4F20003 		movt	r3, #:upper16:1073769044
 515 0012 FA88     		ldrh	r2, [r7, #6]	@ movhi
 516 0014 1A80     		strh	r2, [r3, #0]	@ movhi
 417:.\Generated_Source\PSoC5/Counter.c ****     #endif /* (Counter_UsingFixedFunction) */
 418:.\Generated_Source\PSoC5/Counter.c **** }
 517              		.loc 1 418 0
 518 0016 07F10C07 		add	r7, r7, #12
 519 001a BD46     		mov	sp, r7
 520 001c 80BC     		pop	{r7}
 521 001e 7047     		bx	lr
 522              		.cfi_endproc
 523              	.LFE11:
 524              		.size	Counter_WritePeriod, .-Counter_WritePeriod
 525              		.section	.text.Counter_ReadPeriod,"ax",%progbits
 526              		.align	2
 527              		.global	Counter_ReadPeriod
 528              		.thumb
 529              		.thumb_func
 530              		.type	Counter_ReadPeriod, %function
 531              	Counter_ReadPeriod:
 532              	.LFB12:
 419:.\Generated_Source\PSoC5/Counter.c **** 
 420:.\Generated_Source\PSoC5/Counter.c **** 
 421:.\Generated_Source\PSoC5/Counter.c **** /*******************************************************************************
 422:.\Generated_Source\PSoC5/Counter.c **** * Function Name: Counter_ReadPeriod
 423:.\Generated_Source\PSoC5/Counter.c **** ********************************************************************************
 424:.\Generated_Source\PSoC5/Counter.c **** * Summary:
 425:.\Generated_Source\PSoC5/Counter.c **** * Reads the current period value without affecting counter operation.
 426:.\Generated_Source\PSoC5/Counter.c **** *
 427:.\Generated_Source\PSoC5/Counter.c **** * Parameters:  
 428:.\Generated_Source\PSoC5/Counter.c **** *  void:  
 429:.\Generated_Source\PSoC5/Counter.c **** *
 430:.\Generated_Source\PSoC5/Counter.c **** * Return: 
 431:.\Generated_Source\PSoC5/Counter.c **** *  (uint16) Present period value.
 432:.\Generated_Source\PSoC5/Counter.c **** *
 433:.\Generated_Source\PSoC5/Counter.c **** *******************************************************************************/
ARM GAS  C:\Users\dmtucker\AppData\Local\Temp\ccIyNKBz.s 			page 18


 434:.\Generated_Source\PSoC5/Counter.c **** uint16 Counter_ReadPeriod(void) 
 435:.\Generated_Source\PSoC5/Counter.c **** {
 533              		.loc 1 435 0
 534              		.cfi_startproc
 535              		@ args = 0, pretend = 0, frame = 0
 536              		@ frame_needed = 1, uses_anonymous_args = 0
 537              		@ link register save eliminated.
 538 0000 80B4     		push	{r7}
 539              	.LCFI29:
 540              		.cfi_def_cfa_offset 4
 541 0002 00AF     		add	r7, sp, #0
 542              		.cfi_offset 7, -4
 543              	.LCFI30:
 544              		.cfi_def_cfa_register 7
 436:.\Generated_Source\PSoC5/Counter.c ****     #if(Counter_UsingFixedFunction)
 437:.\Generated_Source\PSoC5/Counter.c ****         return ((uint16)CY_GET_REG16(Counter_PERIOD_LSB_PTR));
 438:.\Generated_Source\PSoC5/Counter.c ****     #else
 439:.\Generated_Source\PSoC5/Counter.c ****         return (CY_GET_REG16(Counter_PERIOD_LSB_PTR));
 545              		.loc 1 439 0
 546 0004 46F65423 		movw	r3, #:lower16:1073769044
 547 0008 C4F20003 		movt	r3, #:upper16:1073769044
 548 000c 1B88     		ldrh	r3, [r3, #0]	@ movhi
 549 000e 9BB2     		uxth	r3, r3
 440:.\Generated_Source\PSoC5/Counter.c ****     #endif /* (Counter_UsingFixedFunction) */
 441:.\Generated_Source\PSoC5/Counter.c **** }
 550              		.loc 1 441 0
 551 0010 1846     		mov	r0, r3
 552 0012 BD46     		mov	sp, r7
 553 0014 80BC     		pop	{r7}
 554 0016 7047     		bx	lr
 555              		.cfi_endproc
 556              	.LFE12:
 557              		.size	Counter_ReadPeriod, .-Counter_ReadPeriod
 558              		.section	.text.Counter_WriteCompare,"ax",%progbits
 559              		.align	2
 560              		.global	Counter_WriteCompare
 561              		.thumb
 562              		.thumb_func
 563              		.type	Counter_WriteCompare, %function
 564              	Counter_WriteCompare:
 565              	.LFB13:
 442:.\Generated_Source\PSoC5/Counter.c **** 
 443:.\Generated_Source\PSoC5/Counter.c **** 
 444:.\Generated_Source\PSoC5/Counter.c **** #if (!Counter_UsingFixedFunction)
 445:.\Generated_Source\PSoC5/Counter.c **** /*******************************************************************************
 446:.\Generated_Source\PSoC5/Counter.c **** * Function Name: Counter_WriteCompare
 447:.\Generated_Source\PSoC5/Counter.c **** ********************************************************************************
 448:.\Generated_Source\PSoC5/Counter.c **** * Summary:
 449:.\Generated_Source\PSoC5/Counter.c **** * Changes the compare value.  The compare output will 
 450:.\Generated_Source\PSoC5/Counter.c **** * reflect the new value on the next UDB clock.  The compare output will be 
 451:.\Generated_Source\PSoC5/Counter.c **** * driven high when the present counter value compares true based on the 
 452:.\Generated_Source\PSoC5/Counter.c **** * configured compare mode setting. 
 453:.\Generated_Source\PSoC5/Counter.c **** *
 454:.\Generated_Source\PSoC5/Counter.c **** * Parameters:  
 455:.\Generated_Source\PSoC5/Counter.c **** *  Compare:  New compare value. 
 456:.\Generated_Source\PSoC5/Counter.c **** *
 457:.\Generated_Source\PSoC5/Counter.c **** * Return: 
ARM GAS  C:\Users\dmtucker\AppData\Local\Temp\ccIyNKBz.s 			page 19


 458:.\Generated_Source\PSoC5/Counter.c **** *  void
 459:.\Generated_Source\PSoC5/Counter.c **** *
 460:.\Generated_Source\PSoC5/Counter.c **** *******************************************************************************/
 461:.\Generated_Source\PSoC5/Counter.c **** void Counter_WriteCompare(uint16 compare) \
 462:.\Generated_Source\PSoC5/Counter.c ****                                    
 463:.\Generated_Source\PSoC5/Counter.c **** {
 566              		.loc 1 463 0
 567              		.cfi_startproc
 568              		@ args = 0, pretend = 0, frame = 8
 569              		@ frame_needed = 1, uses_anonymous_args = 0
 570              		@ link register save eliminated.
 571 0000 80B4     		push	{r7}
 572              	.LCFI31:
 573              		.cfi_def_cfa_offset 4
 574 0002 83B0     		sub	sp, sp, #12
 575              	.LCFI32:
 576              		.cfi_def_cfa_offset 16
 577 0004 00AF     		add	r7, sp, #0
 578              		.cfi_offset 7, -4
 579              	.LCFI33:
 580              		.cfi_def_cfa_register 7
 581 0006 0346     		mov	r3, r0
 582 0008 FB80     		strh	r3, [r7, #6]	@ movhi
 464:.\Generated_Source\PSoC5/Counter.c ****     #if(Counter_UsingFixedFunction)
 465:.\Generated_Source\PSoC5/Counter.c ****         CY_SET_REG16(Counter_COMPARE_LSB_PTR, (uint16)compare);
 466:.\Generated_Source\PSoC5/Counter.c ****     #else
 467:.\Generated_Source\PSoC5/Counter.c ****         CY_SET_REG16(Counter_COMPARE_LSB_PTR, compare);
 583              		.loc 1 467 0
 584 000a 46F67423 		movw	r3, #:lower16:1073769076
 585 000e C4F20003 		movt	r3, #:upper16:1073769076
 586 0012 FA88     		ldrh	r2, [r7, #6]	@ movhi
 587 0014 1A80     		strh	r2, [r3, #0]	@ movhi
 468:.\Generated_Source\PSoC5/Counter.c ****     #endif /* (Counter_UsingFixedFunction) */
 469:.\Generated_Source\PSoC5/Counter.c **** }
 588              		.loc 1 469 0
 589 0016 07F10C07 		add	r7, r7, #12
 590 001a BD46     		mov	sp, r7
 591 001c 80BC     		pop	{r7}
 592 001e 7047     		bx	lr
 593              		.cfi_endproc
 594              	.LFE13:
 595              		.size	Counter_WriteCompare, .-Counter_WriteCompare
 596              		.section	.text.Counter_ReadCompare,"ax",%progbits
 597              		.align	2
 598              		.global	Counter_ReadCompare
 599              		.thumb
 600              		.thumb_func
 601              		.type	Counter_ReadCompare, %function
 602              	Counter_ReadCompare:
 603              	.LFB14:
 470:.\Generated_Source\PSoC5/Counter.c **** 
 471:.\Generated_Source\PSoC5/Counter.c **** 
 472:.\Generated_Source\PSoC5/Counter.c **** /*******************************************************************************
 473:.\Generated_Source\PSoC5/Counter.c **** * Function Name: Counter_ReadCompare
 474:.\Generated_Source\PSoC5/Counter.c **** ********************************************************************************
 475:.\Generated_Source\PSoC5/Counter.c **** * Summary:
 476:.\Generated_Source\PSoC5/Counter.c **** * Returns the compare value.
ARM GAS  C:\Users\dmtucker\AppData\Local\Temp\ccIyNKBz.s 			page 20


 477:.\Generated_Source\PSoC5/Counter.c **** *
 478:.\Generated_Source\PSoC5/Counter.c **** * Parameters:  
 479:.\Generated_Source\PSoC5/Counter.c **** *  void:
 480:.\Generated_Source\PSoC5/Counter.c **** *
 481:.\Generated_Source\PSoC5/Counter.c **** * Return: 
 482:.\Generated_Source\PSoC5/Counter.c **** *  (uint16) Present compare value.
 483:.\Generated_Source\PSoC5/Counter.c **** *
 484:.\Generated_Source\PSoC5/Counter.c **** *******************************************************************************/
 485:.\Generated_Source\PSoC5/Counter.c **** uint16 Counter_ReadCompare(void) 
 486:.\Generated_Source\PSoC5/Counter.c **** {
 604              		.loc 1 486 0
 605              		.cfi_startproc
 606              		@ args = 0, pretend = 0, frame = 0
 607              		@ frame_needed = 1, uses_anonymous_args = 0
 608              		@ link register save eliminated.
 609 0000 80B4     		push	{r7}
 610              	.LCFI34:
 611              		.cfi_def_cfa_offset 4
 612 0002 00AF     		add	r7, sp, #0
 613              		.cfi_offset 7, -4
 614              	.LCFI35:
 615              		.cfi_def_cfa_register 7
 487:.\Generated_Source\PSoC5/Counter.c ****     return (CY_GET_REG16(Counter_COMPARE_LSB_PTR));
 616              		.loc 1 487 0
 617 0004 46F67423 		movw	r3, #:lower16:1073769076
 618 0008 C4F20003 		movt	r3, #:upper16:1073769076
 619 000c 1B88     		ldrh	r3, [r3, #0]	@ movhi
 620 000e 9BB2     		uxth	r3, r3
 488:.\Generated_Source\PSoC5/Counter.c **** }
 621              		.loc 1 488 0
 622 0010 1846     		mov	r0, r3
 623 0012 BD46     		mov	sp, r7
 624 0014 80BC     		pop	{r7}
 625 0016 7047     		bx	lr
 626              		.cfi_endproc
 627              	.LFE14:
 628              		.size	Counter_ReadCompare, .-Counter_ReadCompare
 629              		.section	.text.Counter_ClearFIFO,"ax",%progbits
 630              		.align	2
 631              		.global	Counter_ClearFIFO
 632              		.thumb
 633              		.thumb_func
 634              		.type	Counter_ClearFIFO, %function
 635              	Counter_ClearFIFO:
 636              	.LFB15:
 489:.\Generated_Source\PSoC5/Counter.c **** 
 490:.\Generated_Source\PSoC5/Counter.c **** 
 491:.\Generated_Source\PSoC5/Counter.c **** #if (Counter_COMPARE_MODE_SOFTWARE)
 492:.\Generated_Source\PSoC5/Counter.c **** /*******************************************************************************
 493:.\Generated_Source\PSoC5/Counter.c **** * Function Name: Counter_SetCompareMode
 494:.\Generated_Source\PSoC5/Counter.c **** ********************************************************************************
 495:.\Generated_Source\PSoC5/Counter.c **** * Summary:
 496:.\Generated_Source\PSoC5/Counter.c **** *  Sets the software controlled Compare Mode.
 497:.\Generated_Source\PSoC5/Counter.c **** *
 498:.\Generated_Source\PSoC5/Counter.c **** * Parameters:
 499:.\Generated_Source\PSoC5/Counter.c **** *  compareMode:  Compare Mode Enumerated Type.
 500:.\Generated_Source\PSoC5/Counter.c **** *
ARM GAS  C:\Users\dmtucker\AppData\Local\Temp\ccIyNKBz.s 			page 21


 501:.\Generated_Source\PSoC5/Counter.c **** * Return:
 502:.\Generated_Source\PSoC5/Counter.c **** *  void
 503:.\Generated_Source\PSoC5/Counter.c **** *
 504:.\Generated_Source\PSoC5/Counter.c **** *******************************************************************************/
 505:.\Generated_Source\PSoC5/Counter.c **** void Counter_SetCompareMode(uint8 compareMode) 
 506:.\Generated_Source\PSoC5/Counter.c **** {
 507:.\Generated_Source\PSoC5/Counter.c ****     /* Clear the compare mode bits in the control register */
 508:.\Generated_Source\PSoC5/Counter.c ****     Counter_CONTROL &= ((uint8)(~Counter_CTRL_CMPMODE_MASK));
 509:.\Generated_Source\PSoC5/Counter.c ****     
 510:.\Generated_Source\PSoC5/Counter.c ****     /* Write the new setting */
 511:.\Generated_Source\PSoC5/Counter.c ****     Counter_CONTROL |= compareMode;
 512:.\Generated_Source\PSoC5/Counter.c **** }
 513:.\Generated_Source\PSoC5/Counter.c **** #endif  /* (Counter_COMPARE_MODE_SOFTWARE) */
 514:.\Generated_Source\PSoC5/Counter.c **** 
 515:.\Generated_Source\PSoC5/Counter.c **** 
 516:.\Generated_Source\PSoC5/Counter.c **** #if (Counter_CAPTURE_MODE_SOFTWARE)
 517:.\Generated_Source\PSoC5/Counter.c **** /*******************************************************************************
 518:.\Generated_Source\PSoC5/Counter.c **** * Function Name: Counter_SetCaptureMode
 519:.\Generated_Source\PSoC5/Counter.c **** ********************************************************************************
 520:.\Generated_Source\PSoC5/Counter.c **** * Summary:
 521:.\Generated_Source\PSoC5/Counter.c **** *  Sets the software controlled Capture Mode.
 522:.\Generated_Source\PSoC5/Counter.c **** *
 523:.\Generated_Source\PSoC5/Counter.c **** * Parameters:
 524:.\Generated_Source\PSoC5/Counter.c **** *  captureMode:  Capture Mode Enumerated Type.
 525:.\Generated_Source\PSoC5/Counter.c **** *
 526:.\Generated_Source\PSoC5/Counter.c **** * Return:
 527:.\Generated_Source\PSoC5/Counter.c **** *  void
 528:.\Generated_Source\PSoC5/Counter.c **** *
 529:.\Generated_Source\PSoC5/Counter.c **** *******************************************************************************/
 530:.\Generated_Source\PSoC5/Counter.c **** void Counter_SetCaptureMode(uint8 captureMode) 
 531:.\Generated_Source\PSoC5/Counter.c **** {
 532:.\Generated_Source\PSoC5/Counter.c ****     /* Clear the capture mode bits in the control register */
 533:.\Generated_Source\PSoC5/Counter.c ****     Counter_CONTROL &= ((uint8)(~Counter_CTRL_CAPMODE_MASK));
 534:.\Generated_Source\PSoC5/Counter.c ****     
 535:.\Generated_Source\PSoC5/Counter.c ****     /* Write the new setting */
 536:.\Generated_Source\PSoC5/Counter.c ****     Counter_CONTROL |= ((uint8)((uint8)captureMode << Counter_CTRL_CAPMODE0_SHIFT));
 537:.\Generated_Source\PSoC5/Counter.c **** }
 538:.\Generated_Source\PSoC5/Counter.c **** #endif  /* (Counter_CAPTURE_MODE_SOFTWARE) */
 539:.\Generated_Source\PSoC5/Counter.c **** 
 540:.\Generated_Source\PSoC5/Counter.c **** 
 541:.\Generated_Source\PSoC5/Counter.c **** /*******************************************************************************
 542:.\Generated_Source\PSoC5/Counter.c **** * Function Name: Counter_ClearFIFO
 543:.\Generated_Source\PSoC5/Counter.c **** ********************************************************************************
 544:.\Generated_Source\PSoC5/Counter.c **** * Summary:
 545:.\Generated_Source\PSoC5/Counter.c **** *   This function clears all capture data from the capture FIFO
 546:.\Generated_Source\PSoC5/Counter.c **** *
 547:.\Generated_Source\PSoC5/Counter.c **** * Parameters:  
 548:.\Generated_Source\PSoC5/Counter.c **** *  void:
 549:.\Generated_Source\PSoC5/Counter.c **** *
 550:.\Generated_Source\PSoC5/Counter.c **** * Return: 
 551:.\Generated_Source\PSoC5/Counter.c **** *  None
 552:.\Generated_Source\PSoC5/Counter.c **** *
 553:.\Generated_Source\PSoC5/Counter.c **** *******************************************************************************/
 554:.\Generated_Source\PSoC5/Counter.c **** void Counter_ClearFIFO(void) 
 555:.\Generated_Source\PSoC5/Counter.c **** {
 637              		.loc 1 555 0
 638              		.cfi_startproc
ARM GAS  C:\Users\dmtucker\AppData\Local\Temp\ccIyNKBz.s 			page 22


 639              		@ args = 0, pretend = 0, frame = 0
 640              		@ frame_needed = 1, uses_anonymous_args = 0
 641 0000 80B5     		push	{r7, lr}
 642              	.LCFI36:
 643              		.cfi_def_cfa_offset 8
 644 0002 00AF     		add	r7, sp, #0
 645              		.cfi_offset 14, -4
 646              		.cfi_offset 7, -8
 647              	.LCFI37:
 648              		.cfi_def_cfa_register 7
 556:.\Generated_Source\PSoC5/Counter.c **** 
 557:.\Generated_Source\PSoC5/Counter.c ****     while(0u != (Counter_ReadStatusRegister() & Counter_STATUS_FIFONEMP))
 649              		.loc 1 557 0
 650 0004 01E0     		b	.L33
 651              	.L34:
 558:.\Generated_Source\PSoC5/Counter.c ****     {
 559:.\Generated_Source\PSoC5/Counter.c ****         (void)Counter_ReadCapture();
 652              		.loc 1 559 0
 653 0006 FFF7FEFF 		bl	Counter_ReadCapture
 654              	.L33:
 655              		.loc 1 557 0
 656 000a FFF7FEFF 		bl	Counter_ReadStatusRegister
 657 000e 0346     		mov	r3, r0
 658 0010 03F04003 		and	r3, r3, #64
 659 0014 002B     		cmp	r3, #0
 660 0016 F6D1     		bne	.L34
 560:.\Generated_Source\PSoC5/Counter.c ****     }
 561:.\Generated_Source\PSoC5/Counter.c **** 
 562:.\Generated_Source\PSoC5/Counter.c **** }
 661              		.loc 1 562 0
 662 0018 80BD     		pop	{r7, pc}
 663              		.cfi_endproc
 664              	.LFE15:
 665              		.size	Counter_ClearFIFO, .-Counter_ClearFIFO
 666 001a 00BF     		.text
 667              	.Letext0: