ARM GAS  C:\Users\dmtucker\AppData\Local\Temp\ccgocytT.s 			page 1


   1              		.syntax unified
   2              		.cpu cortex-m3
   3              		.fpu softvfp
   4              		.eabi_attribute 20, 1
   5              		.eabi_attribute 21, 1
   6              		.eabi_attribute 23, 3
   7              		.eabi_attribute 24, 1
   8              		.eabi_attribute 25, 1
   9              		.eabi_attribute 26, 1
  10              		.eabi_attribute 30, 6
  11              		.eabi_attribute 18, 4
  12              		.thumb
  13              		.file	"Counter_PM.c"
  20 0000 CD000000 		.text
  20      02007000 
  20      00000201 
  20      FB0E0D00 
  20      01010101 
  21              	.Ltext0:
  22              		.cfi_sections	.debug_frame
  23              		.bss
  24              		.align	2
  25              	Counter_backup:
  26 0000 00000000 		.space	6
  26      0000
  27 0006 0000     		.section	.text.Counter_SaveConfig,"ax",%progbits
  28              		.align	2
  29              		.global	Counter_SaveConfig
  30              		.thumb
  31              		.thumb_func
  32              		.type	Counter_SaveConfig, %function
  33              	Counter_SaveConfig:
  34              	.LFB0:
  35              		.file 1 ".\\Generated_Source\\PSoC5\\Counter_PM.c"
   1:.\Generated_Source\PSoC5/Counter_PM.c **** /*******************************************************************************
   2:.\Generated_Source\PSoC5/Counter_PM.c **** * File Name: Counter_PM.c  
   3:.\Generated_Source\PSoC5/Counter_PM.c **** * Version 2.30
   4:.\Generated_Source\PSoC5/Counter_PM.c **** *
   5:.\Generated_Source\PSoC5/Counter_PM.c **** *  Description:
   6:.\Generated_Source\PSoC5/Counter_PM.c **** *    This file provides the power management source code to API for the
   7:.\Generated_Source\PSoC5/Counter_PM.c **** *    Counter.  
   8:.\Generated_Source\PSoC5/Counter_PM.c **** *
   9:.\Generated_Source\PSoC5/Counter_PM.c **** *   Note:
  10:.\Generated_Source\PSoC5/Counter_PM.c **** *     None
  11:.\Generated_Source\PSoC5/Counter_PM.c **** *
  12:.\Generated_Source\PSoC5/Counter_PM.c **** *******************************************************************************
  13:.\Generated_Source\PSoC5/Counter_PM.c **** * Copyright 2008-2012, Cypress Semiconductor Corporation.  All rights reserved.
  14:.\Generated_Source\PSoC5/Counter_PM.c **** * You may use this file only in accordance with the license, terms, conditions, 
  15:.\Generated_Source\PSoC5/Counter_PM.c **** * disclaimers, and limitations in the end user license agreement accompanying 
  16:.\Generated_Source\PSoC5/Counter_PM.c **** * the software package with which this file was provided.
  17:.\Generated_Source\PSoC5/Counter_PM.c **** ********************************************************************************/
ARM GAS  C:\Users\dmtucker\AppData\Local\Temp\ccgocytT.s 			page 2


  18:.\Generated_Source\PSoC5/Counter_PM.c **** 
  19:.\Generated_Source\PSoC5/Counter_PM.c **** #include "Counter.h"
  20:.\Generated_Source\PSoC5/Counter_PM.c **** 
  21:.\Generated_Source\PSoC5/Counter_PM.c **** static Counter_backupStruct Counter_backup;
  22:.\Generated_Source\PSoC5/Counter_PM.c **** 
  23:.\Generated_Source\PSoC5/Counter_PM.c **** 
  24:.\Generated_Source\PSoC5/Counter_PM.c **** /*******************************************************************************
  25:.\Generated_Source\PSoC5/Counter_PM.c **** * Function Name: Counter_SaveConfig
  26:.\Generated_Source\PSoC5/Counter_PM.c **** ********************************************************************************
  27:.\Generated_Source\PSoC5/Counter_PM.c **** * Summary:
  28:.\Generated_Source\PSoC5/Counter_PM.c **** *     Save the current user configuration
  29:.\Generated_Source\PSoC5/Counter_PM.c **** *
  30:.\Generated_Source\PSoC5/Counter_PM.c **** * Parameters:  
  31:.\Generated_Source\PSoC5/Counter_PM.c **** *  void
  32:.\Generated_Source\PSoC5/Counter_PM.c **** *
  33:.\Generated_Source\PSoC5/Counter_PM.c **** * Return: 
  34:.\Generated_Source\PSoC5/Counter_PM.c **** *  void
  35:.\Generated_Source\PSoC5/Counter_PM.c **** *
  36:.\Generated_Source\PSoC5/Counter_PM.c **** * Global variables:
  37:.\Generated_Source\PSoC5/Counter_PM.c **** *  Counter_backup:  Variables of this global structure are modified to 
  38:.\Generated_Source\PSoC5/Counter_PM.c **** *  store the values of non retention configuration registers when Sleep() API is 
  39:.\Generated_Source\PSoC5/Counter_PM.c **** *  called.
  40:.\Generated_Source\PSoC5/Counter_PM.c **** *
  41:.\Generated_Source\PSoC5/Counter_PM.c **** *******************************************************************************/
  42:.\Generated_Source\PSoC5/Counter_PM.c **** void Counter_SaveConfig(void) 
  43:.\Generated_Source\PSoC5/Counter_PM.c **** {
  36              		.loc 1 43 0
  37              		.cfi_startproc
  38              		@ args = 0, pretend = 0, frame = 0
  39              		@ frame_needed = 1, uses_anonymous_args = 0
  40 0000 80B5     		push	{r7, lr}
  41              	.LCFI0:
  42              		.cfi_def_cfa_offset 8
  43 0002 00AF     		add	r7, sp, #0
  44              		.cfi_offset 14, -4
  45              		.cfi_offset 7, -8
  46              	.LCFI1:
  47              		.cfi_def_cfa_register 7
  44:.\Generated_Source\PSoC5/Counter_PM.c ****     #if (!Counter_UsingFixedFunction)
  45:.\Generated_Source\PSoC5/Counter_PM.c ****         /* Backup the UDB non-rentention registers for PSoC5A */
  46:.\Generated_Source\PSoC5/Counter_PM.c ****         #if (CY_PSOC5A)
  47:.\Generated_Source\PSoC5/Counter_PM.c ****             Counter_backup.CounterUdb = Counter_ReadCounter();
  48:.\Generated_Source\PSoC5/Counter_PM.c ****             Counter_backup.CounterPeriod = Counter_ReadPeriod();
  49:.\Generated_Source\PSoC5/Counter_PM.c ****             Counter_backup.CompareValue = Counter_ReadCompare();
  50:.\Generated_Source\PSoC5/Counter_PM.c ****             Counter_backup.InterruptMaskValue = Counter_STATUS_MASK;
  51:.\Generated_Source\PSoC5/Counter_PM.c ****         #endif /* (CY_PSOC5A) */
  52:.\Generated_Source\PSoC5/Counter_PM.c ****         
  53:.\Generated_Source\PSoC5/Counter_PM.c ****         #if (CY_PSOC3 || CY_PSOC5LP)
  54:.\Generated_Source\PSoC5/Counter_PM.c ****             Counter_backup.CounterUdb = Counter_ReadCounter();
  48              		.loc 1 54 0
  49 0004 FFF7FEFF 		bl	Counter_ReadCounter
  50 0008 0346     		mov	r3, r0
  51 000a 1A46     		mov	r2, r3
  52 000c 40F20003 		movw	r3, #:lower16:Counter_backup
  53 0010 C0F20003 		movt	r3, #:upper16:Counter_backup
  54 0014 5A80     		strh	r2, [r3, #2]	@ movhi
  55:.\Generated_Source\PSoC5/Counter_PM.c ****             Counter_backup.InterruptMaskValue = Counter_STATUS_MASK;
ARM GAS  C:\Users\dmtucker\AppData\Local\Temp\ccgocytT.s 			page 3


  55              		.loc 1 55 0
  56 0016 46F28B53 		movw	r3, #:lower16:1073767819
  57 001a C4F20003 		movt	r3, #:upper16:1073767819
  58 001e 1B78     		ldrb	r3, [r3, #0]
  59 0020 DAB2     		uxtb	r2, r3
  60 0022 40F20003 		movw	r3, #:lower16:Counter_backup
  61 0026 C0F20003 		movt	r3, #:upper16:Counter_backup
  62 002a 1A71     		strb	r2, [r3, #4]
  56:.\Generated_Source\PSoC5/Counter_PM.c ****         #endif /* (CY_PSOC3 || CY_PSOC5LP) */
  57:.\Generated_Source\PSoC5/Counter_PM.c ****         
  58:.\Generated_Source\PSoC5/Counter_PM.c ****         #if(!Counter_ControlRegRemoved)
  59:.\Generated_Source\PSoC5/Counter_PM.c ****             Counter_backup.CounterControlRegister = Counter_ReadControlRegister();
  63              		.loc 1 59 0
  64 002c FFF7FEFF 		bl	Counter_ReadControlRegister
  65 0030 0346     		mov	r3, r0
  66 0032 1A46     		mov	r2, r3
  67 0034 40F20003 		movw	r3, #:lower16:Counter_backup
  68 0038 C0F20003 		movt	r3, #:upper16:Counter_backup
  69 003c 5A71     		strb	r2, [r3, #5]
  60:.\Generated_Source\PSoC5/Counter_PM.c ****         #endif /* (!Counter_ControlRegRemoved) */
  61:.\Generated_Source\PSoC5/Counter_PM.c ****     #endif /* (!Counter_UsingFixedFunction) */
  62:.\Generated_Source\PSoC5/Counter_PM.c **** }
  70              		.loc 1 62 0
  71 003e 80BD     		pop	{r7, pc}
  72              		.cfi_endproc
  73              	.LFE0:
  74              		.size	Counter_SaveConfig, .-Counter_SaveConfig
  75              		.section	.text.Counter_RestoreConfig,"ax",%progbits
  76              		.align	2
  77              		.global	Counter_RestoreConfig
  78              		.thumb
  79              		.thumb_func
  80              		.type	Counter_RestoreConfig, %function
  81              	Counter_RestoreConfig:
  82              	.LFB1:
  63:.\Generated_Source\PSoC5/Counter_PM.c **** 
  64:.\Generated_Source\PSoC5/Counter_PM.c **** 
  65:.\Generated_Source\PSoC5/Counter_PM.c **** /*******************************************************************************
  66:.\Generated_Source\PSoC5/Counter_PM.c **** * Function Name: Counter_RestoreConfig
  67:.\Generated_Source\PSoC5/Counter_PM.c **** ********************************************************************************
  68:.\Generated_Source\PSoC5/Counter_PM.c **** *
  69:.\Generated_Source\PSoC5/Counter_PM.c **** * Summary:
  70:.\Generated_Source\PSoC5/Counter_PM.c **** *  Restores the current user configuration.
  71:.\Generated_Source\PSoC5/Counter_PM.c **** *
  72:.\Generated_Source\PSoC5/Counter_PM.c **** * Parameters:  
  73:.\Generated_Source\PSoC5/Counter_PM.c **** *  void
  74:.\Generated_Source\PSoC5/Counter_PM.c **** *
  75:.\Generated_Source\PSoC5/Counter_PM.c **** * Return: 
  76:.\Generated_Source\PSoC5/Counter_PM.c **** *  void
  77:.\Generated_Source\PSoC5/Counter_PM.c **** *
  78:.\Generated_Source\PSoC5/Counter_PM.c **** * Global variables:
  79:.\Generated_Source\PSoC5/Counter_PM.c **** *  Counter_backup:  Variables of this global structure are used to 
  80:.\Generated_Source\PSoC5/Counter_PM.c **** *  restore the values of non retention registers on wakeup from sleep mode.
  81:.\Generated_Source\PSoC5/Counter_PM.c **** *
  82:.\Generated_Source\PSoC5/Counter_PM.c **** *******************************************************************************/
  83:.\Generated_Source\PSoC5/Counter_PM.c **** void Counter_RestoreConfig(void) 
  84:.\Generated_Source\PSoC5/Counter_PM.c **** {      
ARM GAS  C:\Users\dmtucker\AppData\Local\Temp\ccgocytT.s 			page 4


  83              		.loc 1 84 0
  84              		.cfi_startproc
  85              		@ args = 0, pretend = 0, frame = 0
  86              		@ frame_needed = 1, uses_anonymous_args = 0
  87 0000 80B5     		push	{r7, lr}
  88              	.LCFI2:
  89              		.cfi_def_cfa_offset 8
  90 0002 00AF     		add	r7, sp, #0
  91              		.cfi_offset 14, -4
  92              		.cfi_offset 7, -8
  93              	.LCFI3:
  94              		.cfi_def_cfa_register 7
  85:.\Generated_Source\PSoC5/Counter_PM.c ****     #if (!Counter_UsingFixedFunction)     
  86:.\Generated_Source\PSoC5/Counter_PM.c ****         /* Restore the UDB non-rentention registers for PSoC5A */
  87:.\Generated_Source\PSoC5/Counter_PM.c ****         #if (CY_PSOC5A)
  88:.\Generated_Source\PSoC5/Counter_PM.c ****             /* Interrupt State Backup for Critical Region*/
  89:.\Generated_Source\PSoC5/Counter_PM.c ****             uint8 Counter_interruptState;
  90:.\Generated_Source\PSoC5/Counter_PM.c ****         
  91:.\Generated_Source\PSoC5/Counter_PM.c ****             Counter_WriteCounter(Counter_backup.CounterUdb);
  92:.\Generated_Source\PSoC5/Counter_PM.c ****             Counter_WritePeriod(Counter_backup.CounterPeriod);
  93:.\Generated_Source\PSoC5/Counter_PM.c ****             Counter_WriteCompare(Counter_backup.CompareValue);
  94:.\Generated_Source\PSoC5/Counter_PM.c ****             /* Enter Critical Region*/
  95:.\Generated_Source\PSoC5/Counter_PM.c ****             Counter_interruptState = CyEnterCriticalSection();
  96:.\Generated_Source\PSoC5/Counter_PM.c ****         
  97:.\Generated_Source\PSoC5/Counter_PM.c ****             Counter_STATUS_AUX_CTRL |= Counter_STATUS_ACTL_INT_EN_MASK;
  98:.\Generated_Source\PSoC5/Counter_PM.c ****             /* Exit Critical Region*/
  99:.\Generated_Source\PSoC5/Counter_PM.c ****             CyExitCriticalSection(Counter_interruptState);
 100:.\Generated_Source\PSoC5/Counter_PM.c ****             Counter_STATUS_MASK = Counter_backup.InterruptMaskValue;
 101:.\Generated_Source\PSoC5/Counter_PM.c ****         #endif  /* (CY_PSOC5A) */
 102:.\Generated_Source\PSoC5/Counter_PM.c ****         
 103:.\Generated_Source\PSoC5/Counter_PM.c ****         #if (CY_PSOC3 || CY_PSOC5LP)
 104:.\Generated_Source\PSoC5/Counter_PM.c ****             Counter_WriteCounter(Counter_backup.CounterUdb);
  95              		.loc 1 104 0
  96 0004 40F20003 		movw	r3, #:lower16:Counter_backup
  97 0008 C0F20003 		movt	r3, #:upper16:Counter_backup
  98 000c 5B88     		ldrh	r3, [r3, #2]
  99 000e 1846     		mov	r0, r3
 100 0010 FFF7FEFF 		bl	Counter_WriteCounter
 105:.\Generated_Source\PSoC5/Counter_PM.c ****             Counter_STATUS_MASK = Counter_backup.InterruptMaskValue;
 101              		.loc 1 105 0
 102 0014 46F28B53 		movw	r3, #:lower16:1073767819
 103 0018 C4F20003 		movt	r3, #:upper16:1073767819
 104 001c 40F20002 		movw	r2, #:lower16:Counter_backup
 105 0020 C0F20002 		movt	r2, #:upper16:Counter_backup
 106 0024 1279     		ldrb	r2, [r2, #4]	@ zero_extendqisi2
 107 0026 1A70     		strb	r2, [r3, #0]
 106:.\Generated_Source\PSoC5/Counter_PM.c ****         #endif /* (CY_PSOC3 || CY_PSOC5LP) */
 107:.\Generated_Source\PSoC5/Counter_PM.c ****         
 108:.\Generated_Source\PSoC5/Counter_PM.c ****         #if(!Counter_ControlRegRemoved)
 109:.\Generated_Source\PSoC5/Counter_PM.c ****             Counter_WriteControlRegister(Counter_backup.CounterControlRegister);
 108              		.loc 1 109 0
 109 0028 40F20003 		movw	r3, #:lower16:Counter_backup
 110 002c C0F20003 		movt	r3, #:upper16:Counter_backup
 111 0030 5B79     		ldrb	r3, [r3, #5]	@ zero_extendqisi2
 112 0032 1846     		mov	r0, r3
 113 0034 FFF7FEFF 		bl	Counter_WriteControlRegister
 110:.\Generated_Source\PSoC5/Counter_PM.c ****         #endif /* (!Counter_ControlRegRemoved) */
ARM GAS  C:\Users\dmtucker\AppData\Local\Temp\ccgocytT.s 			page 5


 111:.\Generated_Source\PSoC5/Counter_PM.c ****     #endif /* (!Counter_UsingFixedFunction) */
 112:.\Generated_Source\PSoC5/Counter_PM.c **** }
 114              		.loc 1 112 0
 115 0038 80BD     		pop	{r7, pc}
 116              		.cfi_endproc
 117              	.LFE1:
 118              		.size	Counter_RestoreConfig, .-Counter_RestoreConfig
 119 003a 00BF     		.section	.text.Counter_Sleep,"ax",%progbits
 120              		.align	2
 121              		.global	Counter_Sleep
 122              		.thumb
 123              		.thumb_func
 124              		.type	Counter_Sleep, %function
 125              	Counter_Sleep:
 126              	.LFB2:
 113:.\Generated_Source\PSoC5/Counter_PM.c **** 
 114:.\Generated_Source\PSoC5/Counter_PM.c **** 
 115:.\Generated_Source\PSoC5/Counter_PM.c **** /*******************************************************************************
 116:.\Generated_Source\PSoC5/Counter_PM.c **** * Function Name: Counter_Sleep
 117:.\Generated_Source\PSoC5/Counter_PM.c **** ********************************************************************************
 118:.\Generated_Source\PSoC5/Counter_PM.c **** * Summary:
 119:.\Generated_Source\PSoC5/Counter_PM.c **** *     Stop and Save the user configuration
 120:.\Generated_Source\PSoC5/Counter_PM.c **** *
 121:.\Generated_Source\PSoC5/Counter_PM.c **** * Parameters:  
 122:.\Generated_Source\PSoC5/Counter_PM.c **** *  void
 123:.\Generated_Source\PSoC5/Counter_PM.c **** *
 124:.\Generated_Source\PSoC5/Counter_PM.c **** * Return: 
 125:.\Generated_Source\PSoC5/Counter_PM.c **** *  void
 126:.\Generated_Source\PSoC5/Counter_PM.c **** *
 127:.\Generated_Source\PSoC5/Counter_PM.c **** * Global variables:
 128:.\Generated_Source\PSoC5/Counter_PM.c **** *  Counter_backup.enableState:  Is modified depending on the enable 
 129:.\Generated_Source\PSoC5/Counter_PM.c **** *  state of the block before entering sleep mode.
 130:.\Generated_Source\PSoC5/Counter_PM.c **** *
 131:.\Generated_Source\PSoC5/Counter_PM.c **** *******************************************************************************/
 132:.\Generated_Source\PSoC5/Counter_PM.c **** void Counter_Sleep(void) 
 133:.\Generated_Source\PSoC5/Counter_PM.c **** {
 127              		.loc 1 133 0
 128              		.cfi_startproc
 129              		@ args = 0, pretend = 0, frame = 0
 130              		@ frame_needed = 1, uses_anonymous_args = 0
 131 0000 80B5     		push	{r7, lr}
 132              	.LCFI4:
 133              		.cfi_def_cfa_offset 8
 134 0002 00AF     		add	r7, sp, #0
 135              		.cfi_offset 14, -4
 136              		.cfi_offset 7, -8
 137              	.LCFI5:
 138              		.cfi_def_cfa_register 7
 134:.\Generated_Source\PSoC5/Counter_PM.c ****     #if(!Counter_ControlRegRemoved)
 135:.\Generated_Source\PSoC5/Counter_PM.c ****         /* Save Counter's enable state */
 136:.\Generated_Source\PSoC5/Counter_PM.c ****         if(Counter_CTRL_ENABLE == (Counter_CONTROL & Counter_CTRL_ENABLE))
 139              		.loc 1 136 0
 140 0004 46F27A53 		movw	r3, #:lower16:1073767802
 141 0008 C4F20003 		movt	r3, #:upper16:1073767802
 142 000c 1B78     		ldrb	r3, [r3, #0]
 143 000e DBB2     		uxtb	r3, r3
 144 0010 5BB2     		sxtb	r3, r3
ARM GAS  C:\Users\dmtucker\AppData\Local\Temp\ccgocytT.s 			page 6


 145 0012 002B     		cmp	r3, #0
 146 0014 07DA     		bge	.L6
 137:.\Generated_Source\PSoC5/Counter_PM.c ****         {
 138:.\Generated_Source\PSoC5/Counter_PM.c ****             /* Counter is enabled */
 139:.\Generated_Source\PSoC5/Counter_PM.c ****             Counter_backup.CounterEnableState = 1u;
 147              		.loc 1 139 0
 148 0016 40F20003 		movw	r3, #:lower16:Counter_backup
 149 001a C0F20003 		movt	r3, #:upper16:Counter_backup
 150 001e 4FF00102 		mov	r2, #1
 151 0022 1A70     		strb	r2, [r3, #0]
 152 0024 06E0     		b	.L7
 153              	.L6:
 140:.\Generated_Source\PSoC5/Counter_PM.c ****         }
 141:.\Generated_Source\PSoC5/Counter_PM.c ****         else
 142:.\Generated_Source\PSoC5/Counter_PM.c ****         {
 143:.\Generated_Source\PSoC5/Counter_PM.c ****             /* Counter is disabled */
 144:.\Generated_Source\PSoC5/Counter_PM.c ****             Counter_backup.CounterEnableState = 0u;
 154              		.loc 1 144 0
 155 0026 40F20003 		movw	r3, #:lower16:Counter_backup
 156 002a C0F20003 		movt	r3, #:upper16:Counter_backup
 157 002e 4FF00002 		mov	r2, #0
 158 0032 1A70     		strb	r2, [r3, #0]
 159              	.L7:
 145:.\Generated_Source\PSoC5/Counter_PM.c ****         }
 146:.\Generated_Source\PSoC5/Counter_PM.c ****     #else
 147:.\Generated_Source\PSoC5/Counter_PM.c ****         Counter_backup.CounterEnableState = 1u;
 148:.\Generated_Source\PSoC5/Counter_PM.c ****         if(Counter_backup.CounterEnableState != 0u)
 149:.\Generated_Source\PSoC5/Counter_PM.c ****         {
 150:.\Generated_Source\PSoC5/Counter_PM.c ****             Counter_backup.CounterEnableState = 0u;
 151:.\Generated_Source\PSoC5/Counter_PM.c ****         }
 152:.\Generated_Source\PSoC5/Counter_PM.c ****     #endif /* (!Counter_ControlRegRemoved) */
 153:.\Generated_Source\PSoC5/Counter_PM.c ****     
 154:.\Generated_Source\PSoC5/Counter_PM.c ****     Counter_Stop();
 160              		.loc 1 154 0
 161 0034 FFF7FEFF 		bl	Counter_Stop
 155:.\Generated_Source\PSoC5/Counter_PM.c ****     Counter_SaveConfig();
 162              		.loc 1 155 0
 163 0038 FFF7FEFF 		bl	Counter_SaveConfig
 156:.\Generated_Source\PSoC5/Counter_PM.c **** }
 164              		.loc 1 156 0
 165 003c 80BD     		pop	{r7, pc}
 166              		.cfi_endproc
 167              	.LFE2:
 168              		.size	Counter_Sleep, .-Counter_Sleep
 169 003e 00BF     		.section	.text.Counter_Wakeup,"ax",%progbits
 170              		.align	2
 171              		.global	Counter_Wakeup
 172              		.thumb
 173              		.thumb_func
 174              		.type	Counter_Wakeup, %function
 175              	Counter_Wakeup:
 176              	.LFB3:
 157:.\Generated_Source\PSoC5/Counter_PM.c **** 
 158:.\Generated_Source\PSoC5/Counter_PM.c **** 
 159:.\Generated_Source\PSoC5/Counter_PM.c **** /*******************************************************************************
 160:.\Generated_Source\PSoC5/Counter_PM.c **** * Function Name: Counter_Wakeup
 161:.\Generated_Source\PSoC5/Counter_PM.c **** ********************************************************************************
ARM GAS  C:\Users\dmtucker\AppData\Local\Temp\ccgocytT.s 			page 7


 162:.\Generated_Source\PSoC5/Counter_PM.c **** *
 163:.\Generated_Source\PSoC5/Counter_PM.c **** * Summary:
 164:.\Generated_Source\PSoC5/Counter_PM.c **** *  Restores and enables the user configuration
 165:.\Generated_Source\PSoC5/Counter_PM.c **** *  
 166:.\Generated_Source\PSoC5/Counter_PM.c **** * Parameters:  
 167:.\Generated_Source\PSoC5/Counter_PM.c **** *  void
 168:.\Generated_Source\PSoC5/Counter_PM.c **** *
 169:.\Generated_Source\PSoC5/Counter_PM.c **** * Return: 
 170:.\Generated_Source\PSoC5/Counter_PM.c **** *  void
 171:.\Generated_Source\PSoC5/Counter_PM.c **** *
 172:.\Generated_Source\PSoC5/Counter_PM.c **** * Global variables:
 173:.\Generated_Source\PSoC5/Counter_PM.c **** *  Counter_backup.enableState:  Is used to restore the enable state of 
 174:.\Generated_Source\PSoC5/Counter_PM.c **** *  block on wakeup from sleep mode.
 175:.\Generated_Source\PSoC5/Counter_PM.c **** *
 176:.\Generated_Source\PSoC5/Counter_PM.c **** *******************************************************************************/
 177:.\Generated_Source\PSoC5/Counter_PM.c **** void Counter_Wakeup(void) 
 178:.\Generated_Source\PSoC5/Counter_PM.c **** {
 177              		.loc 1 178 0
 178              		.cfi_startproc
 179              		@ args = 0, pretend = 0, frame = 0
 180              		@ frame_needed = 1, uses_anonymous_args = 0
 181 0000 80B5     		push	{r7, lr}
 182              	.LCFI6:
 183              		.cfi_def_cfa_offset 8
 184 0002 00AF     		add	r7, sp, #0
 185              		.cfi_offset 14, -4
 186              		.cfi_offset 7, -8
 187              	.LCFI7:
 188              		.cfi_def_cfa_register 7
 179:.\Generated_Source\PSoC5/Counter_PM.c ****     Counter_RestoreConfig();
 189              		.loc 1 179 0
 190 0004 FFF7FEFF 		bl	Counter_RestoreConfig
 180:.\Generated_Source\PSoC5/Counter_PM.c ****     #if(!Counter_ControlRegRemoved)
 181:.\Generated_Source\PSoC5/Counter_PM.c ****         if(Counter_backup.CounterEnableState == 1u)
 191              		.loc 1 181 0
 192 0008 40F20003 		movw	r3, #:lower16:Counter_backup
 193 000c C0F20003 		movt	r3, #:upper16:Counter_backup
 194 0010 1B78     		ldrb	r3, [r3, #0]	@ zero_extendqisi2
 195 0012 012B     		cmp	r3, #1
 196 0014 01D1     		bne	.L11
 182:.\Generated_Source\PSoC5/Counter_PM.c ****         {
 183:.\Generated_Source\PSoC5/Counter_PM.c ****             /* Enable Counter's operation */
 184:.\Generated_Source\PSoC5/Counter_PM.c ****             Counter_Enable();
 197              		.loc 1 184 0
 198 0016 FFF7FEFF 		bl	Counter_Enable
 199              	.L11:
 185:.\Generated_Source\PSoC5/Counter_PM.c ****         } /* Do nothing if Counter was disabled before */    
 186:.\Generated_Source\PSoC5/Counter_PM.c ****     #endif /* (!Counter_ControlRegRemoved) */
 187:.\Generated_Source\PSoC5/Counter_PM.c ****     
 188:.\Generated_Source\PSoC5/Counter_PM.c **** }
 200              		.loc 1 188 0
 201 001a 80BD     		pop	{r7, pc}
 202              		.cfi_endproc
 203              	.LFE3:
 204              		.size	Counter_Wakeup, .-Counter_Wakeup
 205              		.text
 206              	.Letext0:
ARM GAS  C:\Users\dmtucker\AppData\Local\Temp\ccgocytT.s 			page 8

