ARM GAS  C:\Users\dmtucker\AppData\Local\Temp\cckh4c3v.s 			page 1


   1              		.syntax unified
   2              		.cpu cortex-m3
   3              		.fpu softvfp
   4              		.eabi_attribute 20, 1
   5              		.eabi_attribute 21, 1
   6              		.eabi_attribute 23, 3
   7              		.eabi_attribute 24, 1
   8              		.eabi_attribute 25, 1
   9              		.eabi_attribute 26, 1
  10              		.eabi_attribute 30, 6
  11              		.eabi_attribute 18, 4
  12              		.thumb
  13              		.file	"main.c"
  14              		.section	.debug_abbrev,"",%progbits
  15              	.Ldebug_abbrev0:
  16              		.section	.debug_info,"",%progbits
  17              	.Ldebug_info0:
  18              		.section	.debug_line,"",%progbits
  19              	.Ldebug_line0:
  20 0000 D2000000 		.text
  20      02005300 
  20      00000201 
  20      FB0E0D00 
  20      01010101 
  21              	.Ltext0:
  22              		.cfi_sections	.debug_frame
  23              		.section	.text.toggle,"ax",%progbits
  24              		.align	2
  25              		.global	toggle
  26              		.thumb
  27              		.thumb_func
  28              		.type	toggle, %function
  29              	toggle:
  30              	.LFB29:
  31              		.file 1 ".\\main.c"
   1:.\main.c      **** #include <device.h>
   2:.\main.c      **** #include <stdbool.h>
   3:.\main.c      **** #include <display.h>
   4:.\main.c      **** #include <PID.h>
   5:.\main.c      **** 
   6:.\main.c      **** #define SLOWEST  5000
   7:.\main.c      **** #define FASTEST 22000
   8:.\main.c      **** 
   9:.\main.c      **** 
  10:.\main.c      **** 
  11:.\main.c      **** 
  12:.\main.c      **** CY_ISR (toggle) {
  32              		.loc 1 12 0
  33              		.cfi_startproc
  34              		@ args = 0, pretend = 0, frame = 0
  35              		@ frame_needed = 1, uses_anonymous_args = 0
  36 0000 80B5     		push	{r7, lr}
  37              	.LCFI0:
  38              		.cfi_def_cfa_offset 8
  39 0002 00AF     		add	r7, sp, #0
  40              		.cfi_offset 14, -4
  41              		.cfi_offset 7, -8
ARM GAS  C:\Users\dmtucker\AppData\Local\Temp\cckh4c3v.s 			page 2


  42              	.LCFI1:
  43              		.cfi_def_cfa_register 7
  13:.\main.c      ****     Indicator_Write((PID_toggle() == AUTOMATIC) ? 0x01 : 0x00);
  44              		.loc 1 13 0
  45 0004 FFF7FEFF 		bl	PID_toggle
  46 0008 0346     		mov	r3, r0
  47 000a 012B     		cmp	r3, #1
  48 000c 14BF     		ite	ne
  49 000e 0023     		movne	r3, #0
  50 0010 0123     		moveq	r3, #1
  51 0012 1846     		mov	r0, r3
  52 0014 FFF7FEFF 		bl	Indicator_Write
  14:.\main.c      **** }
  53              		.loc 1 14 0
  54 0018 80BD     		pop	{r7, pc}
  55              		.cfi_endproc
  56              	.LFE29:
  57              		.size	toggle, .-toggle
  58              		.global	__aeabi_dsub
  59              		.global	__aeabi_d2uiz
  60 001a 00BF     		.section	.text.sample,"ax",%progbits
  61              		.align	2
  62              		.global	sample
  63              		.thumb
  64              		.thumb_func
  65              		.type	sample, %function
  66              	sample:
  67              	.LFB30:
  15:.\main.c      **** 
  16:.\main.c      **** CY_ISR (sample) {
  68              		.loc 1 16 0
  69              		.cfi_startproc
  70              		@ args = 0, pretend = 0, frame = 0
  71              		@ frame_needed = 1, uses_anonymous_args = 0
  72 0000 98B5     		push	{r3, r4, r7, lr}
  73              	.LCFI2:
  74              		.cfi_def_cfa_offset 16
  75 0002 00AF     		add	r7, sp, #0
  76              		.cfi_offset 14, -4
  77              		.cfi_offset 7, -8
  78              		.cfi_offset 4, -12
  79              		.cfi_offset 3, -16
  80              	.LCFI3:
  81              		.cfi_def_cfa_register 7
  17:.\main.c      ****     PID_controller();
  82              		.loc 1 17 0
  83 0004 FFF7FEFF 		bl	PID_controller
  18:.\main.c      ****     if (PID_mode() == AUTOMATIC) PWM_WriteCompare((uint16) (PID_output()-SLOWEST)*PWM_ReadPeriod()/
  84              		.loc 1 18 0
  85 0008 FFF7FEFF 		bl	PID_mode
  86 000c 0346     		mov	r3, r0
  87 000e 012B     		cmp	r3, #1
  88 0010 28D1     		bne	.L5
  89 0012 FFF7FEFF 		bl	PID_output
  90 0016 0246     		mov	r2, r0
  91 0018 0B46     		mov	r3, r1
  92 001a 1046     		mov	r0, r2
ARM GAS  C:\Users\dmtucker\AppData\Local\Temp\cckh4c3v.s 			page 3


  93 001c 1946     		mov	r1, r3
  94 001e 12A3     		adr	r3, .L6
  95 0020 D3E90023 		ldrd	r2, [r3]
  96 0024 FFF7FEFF 		bl	__aeabi_dsub
  97 0028 0246     		mov	r2, r0
  98 002a 0B46     		mov	r3, r1
  99 002c 1046     		mov	r0, r2
 100 002e 1946     		mov	r1, r3
 101 0030 FFF7FEFF 		bl	__aeabi_d2uiz
 102 0034 0346     		mov	r3, r0
 103 0036 9BB2     		uxth	r3, r3
 104 0038 1C46     		mov	r4, r3
 105 003a FFF7FEFF 		bl	PWM_ReadPeriod
 106 003e 0346     		mov	r3, r0
 107 0040 03FB04F2 		mul	r2, r3, r4
 108 0044 4AF25343 		movw	r3, #:lower16:2069668947
 109 0048 C7F65C33 		movt	r3, #:upper16:2069668947
 110 004c 83FB0213 		smull	r1, r3, r3, r2
 111 0050 4FEA6331 		asr	r1, r3, #13
 112 0054 4FEAE273 		asr	r3, r2, #31
 113 0058 C3EB0103 		rsb	r3, r3, r1
 114 005c 9BB2     		uxth	r3, r3
 115 005e 1846     		mov	r0, r3
 116 0060 FFF7FEFF 		bl	PWM_WriteCompare
 117              	.L5:
  19:.\main.c      **** }
 118              		.loc 1 19 0
 119 0064 98BD     		pop	{r3, r4, r7, pc}
 120              	.L7:
 121 0066 00BF     		.align	3
 122              	.L6:
 123 0068 00000000 		.word	0
 124 006c 0088B340 		.word	1085507584
 125              		.cfi_endproc
 126              	.LFE30:
 127              		.size	sample, .-sample
 128              		.section	.rodata
 129              		.align	2
 130              	.LC0:
 131 0000 696E6974 		.ascii	"initializing...\000"
 131      69616C69 
 131      7A696E67 
 131      2E2E2E00 
 132              		.align	2
 133              	.LC1:
 134 0010 436C6F63 		.ascii	"Clock\000"
 134      6B00
 135 0016 0000     		.align	2
 136              	.LC2:
 137 0018 41444300 		.ascii	"ADC\000"
 138              		.align	2
 139              	.LC3:
 140 001c 50574D00 		.ascii	"PWM\000"
 141              		.align	2
 142              	.LC4:
 143 0020 436F756E 		.ascii	"Counter\000"
 143      74657200 
ARM GAS  C:\Users\dmtucker\AppData\Local\Temp\cckh4c3v.s 			page 4


 144              		.align	2
 145              	.LC5:
 146 0028 54696D65 		.ascii	"Timer\000"
 146      7200
 147 002e 0000     		.align	2
 148              	.LC6:
 149 0030 50494400 		.ascii	"PID\000"
 150              		.align	2
 151              	.LC7:
 152 0034 496E7465 		.ascii	"Interrupts\000"
 152      72727570 
 152      747300
 153 003f 00       		.align	2
 154              	.LC8:
 155 0040 20205250 		.ascii	"  RPM:\000"
 155      4D3A00
 156 0047 00       		.align	2
 157              	.LC9:
 158 0048 73706565 		.ascii	"speed:   %  \000"
 158      643A2020 
 158      20252020 
 158      00
 159 0055 000000   		.align	2
 160              	.LC10:
 161 0058 73657450 		.ascii	"setPt:      \000"
 161      743A2020 
 161      20202020 
 161      00
 162              		.global	__aeabi_ui2d
 163 0065 000000   		.align	2
 164              	.LC11:
 165 0068 20202020 		.ascii	"     \000"
 165      2000
 166 006e 0000     		.align	2
 167              	.LC12:
 168 0070 636C6561 		.ascii	"cleaning...\000"
 168      6E696E67 
 168      2E2E2E00 
 169              		.section	.text.main,"ax",%progbits
 170              		.align	2
 171              		.global	main
 172              		.thumb
 173              		.thumb_func
 174              		.type	main, %function
 175              	main:
 176              	.LFB31:
  20:.\main.c      **** 
  21:.\main.c      **** 
  22:.\main.c      **** 
  23:.\main.c      **** 
  24:.\main.c      **** void main () {
 177              		.loc 1 24 0
 178              		.cfi_startproc
 179              		@ args = 0, pretend = 0, frame = 8
 180              		@ frame_needed = 1, uses_anonymous_args = 0
 181 0000 90B5     		push	{r4, r7, lr}
 182              	.LCFI4:
ARM GAS  C:\Users\dmtucker\AppData\Local\Temp\cckh4c3v.s 			page 5


 183              		.cfi_def_cfa_offset 12
 184 0002 85B0     		sub	sp, sp, #20
 185              	.LCFI5:
 186              		.cfi_def_cfa_offset 32
 187 0004 02AF     		add	r7, sp, #8
 188              		.cfi_offset 14, -4
 189              		.cfi_offset 7, -8
 190              		.cfi_offset 4, -12
 191              	.LCFI6:
 192              		.cfi_def_cfa 7, 24
  25:.\main.c      ****     LCD_Start();
 193              		.loc 1 25 0
 194 0006 FFF7FEFF 		bl	LCD_Start
  26:.\main.c      ****     LCD_UpdateStatus("initializing...");
 195              		.loc 1 26 0
 196 000a 40F20000 		movw	r0, #:lower16:.LC0
 197 000e C0F20000 		movt	r0, #:upper16:.LC0
 198 0012 FFF7FEFF 		bl	LCD_UpdateStatus
  27:.\main.c      ****     LCD_UpdateMessage("Clock");
 199              		.loc 1 27 0
 200 0016 40F20000 		movw	r0, #:lower16:.LC1
 201 001a C0F20000 		movt	r0, #:upper16:.LC1
 202 001e FFF7FEFF 		bl	LCD_UpdateMessage
  28:.\main.c      ****     Clock_Start();
 203              		.loc 1 28 0
 204 0022 FFF7FEFF 		bl	Clock_Start
  29:.\main.c      ****     LCD_UpdateMessage("ADC");
 205              		.loc 1 29 0
 206 0026 40F20000 		movw	r0, #:lower16:.LC2
 207 002a C0F20000 		movt	r0, #:upper16:.LC2
 208 002e FFF7FEFF 		bl	LCD_UpdateMessage
  30:.\main.c      ****     ADC_Start();
 209              		.loc 1 30 0
 210 0032 FFF7FEFF 		bl	ADC_Start
  31:.\main.c      ****     ADC_StartConvert();
 211              		.loc 1 31 0
 212 0036 FFF7FEFF 		bl	ADC_StartConvert
  32:.\main.c      ****     LCD_UpdateMessage("PWM");
 213              		.loc 1 32 0
 214 003a 40F20000 		movw	r0, #:lower16:.LC3
 215 003e C0F20000 		movt	r0, #:upper16:.LC3
 216 0042 FFF7FEFF 		bl	LCD_UpdateMessage
  33:.\main.c      ****     PWM_Start();
 217              		.loc 1 33 0
 218 0046 FFF7FEFF 		bl	PWM_Start
  34:.\main.c      ****     LCD_UpdateMessage("Counter");
 219              		.loc 1 34 0
 220 004a 40F20000 		movw	r0, #:lower16:.LC4
 221 004e C0F20000 		movt	r0, #:upper16:.LC4
 222 0052 FFF7FEFF 		bl	LCD_UpdateMessage
  35:.\main.c      ****     Counter_Start();
 223              		.loc 1 35 0
 224 0056 FFF7FEFF 		bl	Counter_Start
  36:.\main.c      ****     LCD_UpdateMessage("Timer");
 225              		.loc 1 36 0
 226 005a 40F20000 		movw	r0, #:lower16:.LC5
 227 005e C0F20000 		movt	r0, #:upper16:.LC5
ARM GAS  C:\Users\dmtucker\AppData\Local\Temp\cckh4c3v.s 			page 6


 228 0062 FFF7FEFF 		bl	LCD_UpdateMessage
  37:.\main.c      ****     Timer_Start();
 229              		.loc 1 37 0
 230 0066 FFF7FEFF 		bl	Timer_Start
  38:.\main.c      ****     LCD_UpdateMessage("PID");
 231              		.loc 1 38 0
 232 006a 40F20000 		movw	r0, #:lower16:.LC6
 233 006e C0F20000 		movt	r0, #:upper16:.LC6
 234 0072 FFF7FEFF 		bl	LCD_UpdateMessage
  39:.\main.c      ****     //set_PID_tunings(0.16,0.8,0.005); //thanks Jeff
  40:.\main.c      ****     //set_PID_tunings(0.5,0.4,0.3); //thanks John
  41:.\main.c      ****     //set_PID_tunings(0.5,0,0); //P oscillates
  42:.\main.c      ****     set_PID_tunings(0.24,0.12,0.06); //manual
 235              		.loc 1 42 0
 236 0076 A0A3     		adr	r3, .L14
 237 0078 D3E90023 		ldrd	r2, [r3]
 238 007c CDE90023 		strd	r2, [sp]
 239 0080 9FA1     		adr	r1, .L14+8
 240 0082 D1E90001 		ldrd	r0, [r1]
 241 0086 A0A3     		adr	r3, .L14+16
 242 0088 D3E90023 		ldrd	r2, [r3]
 243 008c FFF7FEFF 		bl	set_PID_tunings
  43:.\main.c      ****     set_PID_limits(SLOWEST,FASTEST);
 244              		.loc 1 43 0
 245 0090 9FA1     		adr	r1, .L14+24
 246 0092 D1E90001 		ldrd	r0, [r1]
 247 0096 A0A3     		adr	r3, .L14+32
 248 0098 D3E90023 		ldrd	r2, [r3]
 249 009c FFF7FEFF 		bl	set_PID_limits
  44:.\main.c      ****     LCD_UpdateMessage("Interrupts");
 250              		.loc 1 44 0
 251 00a0 40F20000 		movw	r0, #:lower16:.LC7
 252 00a4 C0F20000 		movt	r0, #:upper16:.LC7
 253 00a8 FFF7FEFF 		bl	LCD_UpdateMessage
  45:.\main.c      ****     CyGlobalIntEnable;
 254              		.loc 1 45 0
 255              	@ 45 ".\main.c" 1
 256 00ac 62B6     		CPSIE   i
 257              	@ 0 "" 2
  46:.\main.c      ****     Sample_StartEx(sample);
 258              		.loc 1 46 0
 259              		.thumb
 260 00ae 40F20000 		movw	r0, #:lower16:sample
 261 00b2 C0F20000 		movt	r0, #:upper16:sample
 262 00b6 FFF7FEFF 		bl	Sample_StartEx
  47:.\main.c      ****     Mode_StartEx(toggle);
 263              		.loc 1 47 0
 264 00ba 40F20000 		movw	r0, #:lower16:toggle
 265 00be C0F20000 		movt	r0, #:upper16:toggle
 266 00c2 FFF7FEFF 		bl	Mode_StartEx
  48:.\main.c      ****     
  49:.\main.c      ****     
  50:.\main.c      ****     LCD_UpdateStatus("  RPM:");
 267              		.loc 1 50 0
 268 00c6 40F20000 		movw	r0, #:lower16:.LC8
 269 00ca C0F20000 		movt	r0, #:upper16:.LC8
 270 00ce FFF7FEFF 		bl	LCD_UpdateStatus
ARM GAS  C:\Users\dmtucker\AppData\Local\Temp\cckh4c3v.s 			page 7


  51:.\main.c      ****     LCD_Position(1,14);
 271              		.loc 1 51 0
 272 00d2 4FF00100 		mov	r0, #1
 273 00d6 4FF00E01 		mov	r1, #14
 274 00da FFF7FEFF 		bl	LCD_Position
  52:.\main.c      ****     LCD_PrintInt8(PWM_ReadPeriod());
 275              		.loc 1 52 0
 276 00de FFF7FEFF 		bl	PWM_ReadPeriod
 277 00e2 0346     		mov	r3, r0
 278 00e4 DBB2     		uxtb	r3, r3
 279 00e6 1846     		mov	r0, r3
 280 00e8 FFF7FEFF 		bl	LCD_PrintInt8
  53:.\main.c      ****     while (ADC_IsEndConversion(ADC_WAIT_FOR_RESULT)) {
 281              		.loc 1 53 0
 282 00ec BFE0     		b	.L9
 283              	.L12:
 284              	.LBB2:
  54:.\main.c      ****         uint16 speed = ADC_GetResult16();
 285              		.loc 1 54 0
 286 00ee FFF7FEFF 		bl	ADC_GetResult16
 287 00f2 0346     		mov	r3, r0
 288 00f4 9BB2     		uxth	r3, r3
 289 00f6 7B80     		strh	r3, [r7, #2]	@ movhi
  55:.\main.c      ****         uint16 rpm   = Counter_ReadCapture()*60/2;
 290              		.loc 1 55 0
 291 00f8 FFF7FEFF 		bl	Counter_ReadCapture
 292 00fc 0346     		mov	r3, r0
 293 00fe 1A46     		mov	r2, r3
 294 0100 1346     		mov	r3, r2
 295 0102 4FEA0313 		lsl	r3, r3, #4
 296 0106 C2EB0303 		rsb	r3, r2, r3
 297 010a 4FEA8303 		lsl	r3, r3, #2
 298 010e 4FEAD372 		lsr	r2, r3, #31
 299 0112 1344     		add	r3, r2, r3
 300 0114 4FEA6303 		asr	r3, r3, #1
 301 0118 BB80     		strh	r3, [r7, #4]	@ movhi
  56:.\main.c      ****         if (PID_mode() == MANUAL) {
 302              		.loc 1 56 0
 303 011a FFF7FEFF 		bl	PID_mode
 304 011e 0346     		mov	r3, r0
 305 0120 002B     		cmp	r3, #0
 306 0122 3FD1     		bne	.L10
  57:.\main.c      ****             LCD_Position(1,0);
 307              		.loc 1 57 0
 308 0124 4FF00100 		mov	r0, #1
 309 0128 4FF00001 		mov	r1, #0
 310 012c FFF7FEFF 		bl	LCD_Position
  58:.\main.c      ****             LCD_PrintString("speed:   %  ");
 311              		.loc 1 58 0
 312 0130 40F20000 		movw	r0, #:lower16:.LC9
 313 0134 C0F20000 		movt	r0, #:upper16:.LC9
 314 0138 FFF7FEFF 		bl	LCD_PrintString
  59:.\main.c      ****             LCD_Position(1,7);
 315              		.loc 1 59 0
 316 013c 4FF00100 		mov	r0, #1
 317 0140 4FF00701 		mov	r1, #7
 318 0144 FFF7FEFF 		bl	LCD_Position
ARM GAS  C:\Users\dmtucker\AppData\Local\Temp\cckh4c3v.s 			page 8


  60:.\main.c      ****             LCD_PrintNumber(speed*100/65535);
 319              		.loc 1 60 0
 320 0148 7B88     		ldrh	r3, [r7, #2]
 321 014a 4FF06402 		mov	r2, #100
 322 014e 02FB03F3 		mul	r3, r2, r3
 323 0152 48F20102 		movw	r2, #:lower16:-2147450879
 324 0156 C8F20002 		movt	r2, #:upper16:-2147450879
 325 015a 82FB0312 		smull	r1, r2, r2, r3
 326 015e 1A44     		add	r2, r2, r3
 327 0160 4FEAE232 		asr	r2, r2, #15
 328 0164 4FEAE373 		asr	r3, r3, #31
 329 0168 C3EB0203 		rsb	r3, r3, r2
 330 016c 9BB2     		uxth	r3, r3
 331 016e 1846     		mov	r0, r3
 332 0170 FFF7FEFF 		bl	LCD_PrintNumber
  61:.\main.c      ****             PWM_WriteCompare(speed*PWM_ReadPeriod()/65535);
 333              		.loc 1 61 0
 334 0174 7C88     		ldrh	r4, [r7, #2]
 335 0176 FFF7FEFF 		bl	PWM_ReadPeriod
 336 017a 0346     		mov	r3, r0
 337 017c 03FB04F3 		mul	r3, r3, r4
 338 0180 48F20102 		movw	r2, #:lower16:-2147450879
 339 0184 C8F20002 		movt	r2, #:upper16:-2147450879
 340 0188 82FB0312 		smull	r1, r2, r2, r3
 341 018c 1A44     		add	r2, r2, r3
 342 018e 4FEAE232 		asr	r2, r2, #15
 343 0192 4FEAE373 		asr	r3, r3, #31
 344 0196 C3EB0203 		rsb	r3, r3, r2
 345 019a 9BB2     		uxth	r3, r3
 346 019c 1846     		mov	r0, r3
 347 019e FFF7FEFF 		bl	PWM_WriteCompare
 348 01a2 41E0     		b	.L11
 349              	.L10:
 350              	.LBB3:
  62:.\main.c      ****         }
  63:.\main.c      ****         else {
  64:.\main.c      ****             uint16 setpoint = (speed*(FASTEST-SLOWEST)/65535)+SLOWEST;
 351              		.loc 1 64 0
 352 01a4 7B88     		ldrh	r3, [r7, #2]
 353 01a6 44F26822 		movw	r2, #17000
 354 01aa 02FB03F3 		mul	r3, r2, r3
 355 01ae 48F20102 		movw	r2, #:lower16:-2147450879
 356 01b2 C8F20002 		movt	r2, #:upper16:-2147450879
 357 01b6 82FB0312 		smull	r1, r2, r2, r3
 358 01ba 1A44     		add	r2, r2, r3
 359 01bc 4FEAE232 		asr	r2, r2, #15
 360 01c0 4FEAE373 		asr	r3, r3, #31
 361 01c4 C3EB0203 		rsb	r3, r3, r2
 362 01c8 9BB2     		uxth	r3, r3
 363 01ca 03F59C53 		add	r3, r3, #4992
 364 01ce 03F10803 		add	r3, r3, #8
 365 01d2 FB80     		strh	r3, [r7, #6]	@ movhi
  65:.\main.c      ****             LCD_Position(1,0);
 366              		.loc 1 65 0
 367 01d4 4FF00100 		mov	r0, #1
 368 01d8 4FF00001 		mov	r1, #0
 369 01dc FFF7FEFF 		bl	LCD_Position
ARM GAS  C:\Users\dmtucker\AppData\Local\Temp\cckh4c3v.s 			page 9


  66:.\main.c      ****             LCD_PrintString("setPt:      ");
 370              		.loc 1 66 0
 371 01e0 40F20000 		movw	r0, #:lower16:.LC10
 372 01e4 C0F20000 		movt	r0, #:upper16:.LC10
 373 01e8 FFF7FEFF 		bl	LCD_PrintString
  67:.\main.c      ****             LCD_Position(1,7);
 374              		.loc 1 67 0
 375 01ec 4FF00100 		mov	r0, #1
 376 01f0 4FF00701 		mov	r1, #7
 377 01f4 FFF7FEFF 		bl	LCD_Position
  68:.\main.c      ****             LCD_PrintNumber(setpoint);
 378              		.loc 1 68 0
 379 01f8 FB88     		ldrh	r3, [r7, #6]
 380 01fa 1846     		mov	r0, r3
 381 01fc FFF7FEFF 		bl	LCD_PrintNumber
  69:.\main.c      ****             set_PID_input((double) rpm);
 382              		.loc 1 69 0
 383 0200 BB88     		ldrh	r3, [r7, #4]
 384 0202 1846     		mov	r0, r3
 385 0204 FFF7FEFF 		bl	__aeabi_ui2d
 386 0208 0246     		mov	r2, r0
 387 020a 0B46     		mov	r3, r1
 388 020c 1046     		mov	r0, r2
 389 020e 1946     		mov	r1, r3
 390 0210 FFF7FEFF 		bl	set_PID_input
  70:.\main.c      ****             set_PID_setpoint((double) setpoint);
 391              		.loc 1 70 0
 392 0214 FB88     		ldrh	r3, [r7, #6]
 393 0216 1846     		mov	r0, r3
 394 0218 FFF7FEFF 		bl	__aeabi_ui2d
 395 021c 0246     		mov	r2, r0
 396 021e 0B46     		mov	r3, r1
 397 0220 1046     		mov	r0, r2
 398 0222 1946     		mov	r1, r3
 399 0224 FFF7FEFF 		bl	set_PID_setpoint
 400              	.L11:
 401              	.LBE3:
  71:.\main.c      ****         }
  72:.\main.c      ****         LCD_Position(0,7);
 402              		.loc 1 72 0
 403 0228 4FF00000 		mov	r0, #0
 404 022c 4FF00701 		mov	r1, #7
 405 0230 FFF7FEFF 		bl	LCD_Position
  73:.\main.c      ****         LCD_PrintString("     ");
 406              		.loc 1 73 0
 407 0234 40F20000 		movw	r0, #:lower16:.LC11
 408 0238 C0F20000 		movt	r0, #:upper16:.LC11
 409 023c FFF7FEFF 		bl	LCD_PrintString
  74:.\main.c      ****         LCD_Position(0,7);
 410              		.loc 1 74 0
 411 0240 4FF00000 		mov	r0, #0
 412 0244 4FF00701 		mov	r1, #7
 413 0248 FFF7FEFF 		bl	LCD_Position
  75:.\main.c      ****         LCD_PrintNumber(rpm);
 414              		.loc 1 75 0
 415 024c BB88     		ldrh	r3, [r7, #4]
 416 024e 1846     		mov	r0, r3
ARM GAS  C:\Users\dmtucker\AppData\Local\Temp\cckh4c3v.s 			page 10


 417 0250 FFF7FEFF 		bl	LCD_PrintNumber
  76:.\main.c      ****         LCD_Position(0,14);
 418              		.loc 1 76 0
 419 0254 4FF00000 		mov	r0, #0
 420 0258 4FF00E01 		mov	r1, #14
 421 025c FFF7FEFF 		bl	LCD_Position
  77:.\main.c      ****         LCD_PrintInt8(PWM_ReadCounter());
 422              		.loc 1 77 0
 423 0260 FFF7FEFF 		bl	PWM_ReadCounter
 424 0264 0346     		mov	r3, r0
 425 0266 DBB2     		uxtb	r3, r3
 426 0268 1846     		mov	r0, r3
 427 026a FFF7FEFF 		bl	LCD_PrintInt8
 428              	.L9:
 429              	.LBE2:
 430              		.loc 1 53 0
 431 026e 4FF00000 		mov	r0, #0
 432 0272 FFF7FEFF 		bl	ADC_IsEndConversion
 433 0276 0346     		mov	r3, r0
 434 0278 002B     		cmp	r3, #0
 435 027a 7FF438AF 		bne	.L12
  78:.\main.c      ****     }
  79:.\main.c      ****     
  80:.\main.c      ****     
  81:.\main.c      ****     LCD_UpdateStatus("cleaning...");
 436              		.loc 1 81 0
 437 027e 40F20000 		movw	r0, #:lower16:.LC12
 438 0282 C0F20000 		movt	r0, #:upper16:.LC12
 439 0286 FFF7FEFF 		bl	LCD_UpdateStatus
  82:.\main.c      ****     LCD_UpdateMessage("Interrupts");
 440              		.loc 1 82 0
 441 028a 40F20000 		movw	r0, #:lower16:.LC7
 442 028e C0F20000 		movt	r0, #:upper16:.LC7
 443 0292 FFF7FEFF 		bl	LCD_UpdateMessage
  83:.\main.c      ****     Mode_Stop();
 444              		.loc 1 83 0
 445 0296 FFF7FEFF 		bl	Mode_Stop
  84:.\main.c      ****     Sample_Stop();
 446              		.loc 1 84 0
 447 029a FFF7FEFF 		bl	Sample_Stop
  85:.\main.c      ****     LCD_UpdateMessage("Timer");
 448              		.loc 1 85 0
 449 029e 40F20000 		movw	r0, #:lower16:.LC5
 450 02a2 C0F20000 		movt	r0, #:upper16:.LC5
 451 02a6 FFF7FEFF 		bl	LCD_UpdateMessage
  86:.\main.c      ****     Timer_Stop();
 452              		.loc 1 86 0
 453 02aa FFF7FEFF 		bl	Timer_Stop
  87:.\main.c      ****     LCD_UpdateMessage("Counter");
 454              		.loc 1 87 0
 455 02ae 40F20000 		movw	r0, #:lower16:.LC4
 456 02b2 C0F20000 		movt	r0, #:upper16:.LC4
 457 02b6 FFF7FEFF 		bl	LCD_UpdateMessage
  88:.\main.c      ****     Counter_Stop();
 458              		.loc 1 88 0
 459 02ba FFF7FEFF 		bl	Counter_Stop
  89:.\main.c      ****     LCD_UpdateMessage("PWM");
ARM GAS  C:\Users\dmtucker\AppData\Local\Temp\cckh4c3v.s 			page 11


 460              		.loc 1 89 0
 461 02be 40F20000 		movw	r0, #:lower16:.LC3
 462 02c2 C0F20000 		movt	r0, #:upper16:.LC3
 463 02c6 FFF7FEFF 		bl	LCD_UpdateMessage
  90:.\main.c      ****     PWM_Stop();
 464              		.loc 1 90 0
 465 02ca FFF7FEFF 		bl	PWM_Stop
  91:.\main.c      ****     LCD_UpdateMessage("ADC");
 466              		.loc 1 91 0
 467 02ce 40F20000 		movw	r0, #:lower16:.LC2
 468 02d2 C0F20000 		movt	r0, #:upper16:.LC2
 469 02d6 FFF7FEFF 		bl	LCD_UpdateMessage
  92:.\main.c      ****     ADC_Stop();
 470              		.loc 1 92 0
 471 02da FFF7FEFF 		bl	ADC_Stop
  93:.\main.c      ****     LCD_UpdateMessage("Clock");
 472              		.loc 1 93 0
 473 02de 40F20000 		movw	r0, #:lower16:.LC1
 474 02e2 C0F20000 		movt	r0, #:upper16:.LC1
 475 02e6 FFF7FEFF 		bl	LCD_UpdateMessage
  94:.\main.c      ****     Clock_Stop();
 476              		.loc 1 94 0
 477 02ea FFF7FEFF 		bl	Clock_Stop
  95:.\main.c      **** }
 478              		.loc 1 95 0
 479 02ee 07F10C07 		add	r7, r7, #12
 480 02f2 BD46     		mov	sp, r7
 481 02f4 90BD     		pop	{r4, r7, pc}
 482              	.L15:
 483 02f6 00BF     		.align	3
 484              	.L14:
 485 02f8 B81E85EB 		.word	-343597384
 486 02fc 51B8AE3F 		.word	1068415057
 487 0300 B81E85EB 		.word	-343597384
 488 0304 51B8CE3F 		.word	1070512209
 489 0308 B81E85EB 		.word	-343597384
 490 030c 51B8BE3F 		.word	1069463633
 491 0310 00000000 		.word	0
 492 0314 0088B340 		.word	1085507584
 493 0318 00000000 		.word	0
 494 031c 007CD540 		.word	1087732736
 495              		.cfi_endproc
 496              	.LFE31:
 497              		.size	main, .-main
 498              		.text
 499              	.Letext0:
 500              		.section	.debug_loc,"",%progbits
 501              	.Ldebug_loc0:
 502              	.LLST0:
 503 0000 00000000 		.4byte	.LFB29
 504 0004 02000000 		.4byte	.LCFI0
 505 0008 0100     		.2byte	0x1
 506 000a 5D       		.byte	0x5d
 507 000b 02000000 		.4byte	.LCFI0
 508 000f 04000000 		.4byte	.LCFI1
 509 0013 0200     		.2byte	0x2
 510 0015 7D       		.byte	0x7d
ARM GAS  C:\Users\dmtucker\AppData\Local\Temp\cckh4c3v.s 			page 12


 511 0016 08       		.sleb128 8
 512 0017 04000000 		.4byte	.LCFI1
 513 001b 1A000000 		.4byte	.LFE29
 514 001f 0200     		.2byte	0x2
 515 0021 77       		.byte	0x77
 516 0022 08       		.sleb128 8
 517 0023 00000000 		.4byte	0x0
 518 0027 00000000 		.4byte	0x0
 519              	.LLST1:
 520 002b 00000000 		.4byte	.LFB30
 521 002f 02000000 		.4byte	.LCFI2
 522 0033 0100     		.2byte	0x1
 523 0035 5D       		.byte	0x5d
 524 0036 02000000 		.4byte	.LCFI2
 525 003a 04000000 		.4byte	.LCFI3
 526 003e 0200     		.2byte	0x2
 527 0040 7D       		.byte	0x7d
 528 0041 10       		.sleb128 16
 529 0042 04000000 		.4byte	.LCFI3
 530 0046 70000000 		.4byte	.LFE30
 531 004a 0200     		.2byte	0x2
 532 004c 77       		.byte	0x77
 533 004d 10       		.sleb128 16
 534 004e 00000000 		.4byte	0x0
 535 0052 00000000 		.4byte	0x0
 536              	.LLST2:
 537 0056 00000000 		.4byte	.LFB31
 538 005a 02000000 		.4byte	.LCFI4
 539 005e 0100     		.2byte	0x1
 540 0060 5D       		.byte	0x5d
 541 0061 02000000 		.4byte	.LCFI4
 542 0065 04000000 		.4byte	.LCFI5
 543 0069 0200     		.2byte	0x2
 544 006b 7D       		.byte	0x7d
 545 006c 0C       		.sleb128 12
 546 006d 04000000 		.4byte	.LCFI5
 547 0071 06000000 		.4byte	.LCFI6
 548 0075 0200     		.2byte	0x2
 549 0077 7D       		.byte	0x7d
 550 0078 20       		.sleb128 32
 551 0079 06000000 		.4byte	.LCFI6
 552 007d 20030000 		.4byte	.LFE31
 553 0081 0200     		.2byte	0x2
 554 0083 77       		.byte	0x77
 555 0084 18       		.sleb128 24
 556 0085 00000000 		.4byte	0x0
 557 0089 00000000 		.4byte	0x0
 558              		.file 2 "./Generated_Source/PSoC5/cytypes.h"
 559              		.file 3 "./Generated_Source/PSoC5/core_cm3.h"
 560              		.section	.debug_info
 561 0000 23010000 		.4byte	0x123
 562 0004 0200     		.2byte	0x2
 563 0006 00000000 		.4byte	.Ldebug_abbrev0
 564 000a 04       		.byte	0x4
 565 000b 01       		.uleb128 0x1
 566 000c 74000000 		.4byte	.LASF16
 567 0010 01       		.byte	0x1
ARM GAS  C:\Users\dmtucker\AppData\Local\Temp\cckh4c3v.s 			page 13


 568 0011 EB000000 		.4byte	.LASF17
 569 0015 1B000000 		.4byte	.LASF18
 570 0019 00000000 		.4byte	0x0
 571 001d 00000000 		.4byte	0x0
 572 0021 00000000 		.4byte	.Ldebug_ranges0+0x0
 573 0025 00000000 		.4byte	.Ldebug_line0
 574 0029 02       		.uleb128 0x2
 575 002a 01       		.byte	0x1
 576 002b 06       		.byte	0x6
 577 002c D9000000 		.4byte	.LASF0
 578 0030 02       		.uleb128 0x2
 579 0031 01       		.byte	0x1
 580 0032 08       		.byte	0x8
 581 0033 80000000 		.4byte	.LASF1
 582 0037 02       		.uleb128 0x2
 583 0038 02       		.byte	0x2
 584 0039 05       		.byte	0x5
 585 003a 53000000 		.4byte	.LASF2
 586 003e 02       		.uleb128 0x2
 587 003f 02       		.byte	0x2
 588 0040 07       		.byte	0x7
 589 0041 C6000000 		.4byte	.LASF3
 590 0045 02       		.uleb128 0x2
 591 0046 04       		.byte	0x4
 592 0047 05       		.byte	0x5
 593 0048 B4000000 		.4byte	.LASF4
 594 004c 02       		.uleb128 0x2
 595 004d 04       		.byte	0x4
 596 004e 07       		.byte	0x7
 597 004f 41000000 		.4byte	.LASF5
 598 0053 02       		.uleb128 0x2
 599 0054 08       		.byte	0x8
 600 0055 05       		.byte	0x5
 601 0056 00000000 		.4byte	.LASF6
 602 005a 02       		.uleb128 0x2
 603 005b 08       		.byte	0x8
 604 005c 07       		.byte	0x7
 605 005d 5D000000 		.4byte	.LASF7
 606 0061 03       		.uleb128 0x3
 607 0062 04       		.byte	0x4
 608 0063 05       		.byte	0x5
 609 0064 696E7400 		.ascii	"int\000"
 610 0068 02       		.uleb128 0x2
 611 0069 04       		.byte	0x4
 612 006a 07       		.byte	0x7
 613 006b 0E000000 		.4byte	.LASF8
 614 006f 04       		.uleb128 0x4
 615 0070 F4000000 		.4byte	.LASF19
 616 0074 02       		.byte	0x2
 617 0075 4D       		.byte	0x4d
 618 0076 3E000000 		.4byte	0x3e
 619 007a 02       		.uleb128 0x2
 620 007b 04       		.byte	0x4
 621 007c 04       		.byte	0x4
 622 007d E5000000 		.4byte	.LASF9
 623 0081 02       		.uleb128 0x2
 624 0082 08       		.byte	0x8
ARM GAS  C:\Users\dmtucker\AppData\Local\Temp\cckh4c3v.s 			page 14


 625 0083 04       		.byte	0x4
 626 0084 AD000000 		.4byte	.LASF10
 627 0088 02       		.uleb128 0x2
 628 0089 01       		.byte	0x1
 629 008a 08       		.byte	0x8
 630 008b 94000000 		.4byte	.LASF11
 631 008f 05       		.uleb128 0x5
 632 0090 04       		.byte	0x4
 633 0091 07       		.byte	0x7
 634 0092 06       		.uleb128 0x6
 635 0093 01       		.byte	0x1
 636 0094 FB000000 		.4byte	.LASF12
 637 0098 01       		.byte	0x1
 638 0099 0C       		.byte	0xc
 639 009a 01       		.byte	0x1
 640 009b 00000000 		.4byte	.LFB29
 641 009f 1A000000 		.4byte	.LFE29
 642 00a3 00000000 		.4byte	.LLST0
 643 00a7 06       		.uleb128 0x6
 644 00a8 01       		.byte	0x1
 645 00a9 A6000000 		.4byte	.LASF13
 646 00ad 01       		.byte	0x1
 647 00ae 10       		.byte	0x10
 648 00af 01       		.byte	0x1
 649 00b0 00000000 		.4byte	.LFB30
 650 00b4 70000000 		.4byte	.LFE30
 651 00b8 2B000000 		.4byte	.LLST1
 652 00bc 07       		.uleb128 0x7
 653 00bd 01       		.byte	0x1
 654 00be 3C000000 		.4byte	.LASF20
 655 00c2 01       		.byte	0x1
 656 00c3 18       		.byte	0x18
 657 00c4 00000000 		.4byte	.LFB31
 658 00c8 20030000 		.4byte	.LFE31
 659 00cc 56000000 		.4byte	.LLST2
 660 00d0 13010000 		.4byte	0x113
 661 00d4 08       		.uleb128 0x8
 662 00d5 EE000000 		.4byte	.LBB2
 663 00d9 6E020000 		.4byte	.LBE2
 664 00dd 09       		.uleb128 0x9
 665 00de 8E000000 		.4byte	.LASF14
 666 00e2 01       		.byte	0x1
 667 00e3 36       		.byte	0x36
 668 00e4 6F000000 		.4byte	0x6f
 669 00e8 02       		.byte	0x2
 670 00e9 91       		.byte	0x91
 671 00ea 6A       		.sleb128 -22
 672 00eb 0A       		.uleb128 0xa
 673 00ec 72706D00 		.ascii	"rpm\000"
 674 00f0 01       		.byte	0x1
 675 00f1 37       		.byte	0x37
 676 00f2 6F000000 		.4byte	0x6f
 677 00f6 02       		.byte	0x2
 678 00f7 91       		.byte	0x91
 679 00f8 6C       		.sleb128 -20
 680 00f9 08       		.uleb128 0x8
 681 00fa A4010000 		.4byte	.LBB3
ARM GAS  C:\Users\dmtucker\AppData\Local\Temp\cckh4c3v.s 			page 15


 682 00fe 28020000 		.4byte	.LBE3
 683 0102 09       		.uleb128 0x9
 684 0103 BD000000 		.4byte	.LASF15
 685 0107 01       		.byte	0x1
 686 0108 40       		.byte	0x40
 687 0109 6F000000 		.4byte	0x6f
 688 010d 02       		.byte	0x2
 689 010e 91       		.byte	0x91
 690 010f 6E       		.sleb128 -18
 691 0110 00       		.byte	0x0
 692 0111 00       		.byte	0x0
 693 0112 00       		.byte	0x0
 694 0113 0B       		.uleb128 0xb
 695 0114 99000000 		.4byte	.LASF21
 696 0118 03       		.byte	0x3
 697 0119 CE06     		.2byte	0x6ce
 698 011b 21010000 		.4byte	0x121
 699 011f 01       		.byte	0x1
 700 0120 01       		.byte	0x1
 701 0121 0C       		.uleb128 0xc
 702 0122 61000000 		.4byte	0x61
 703 0126 00       		.byte	0x0
 704              		.section	.debug_abbrev
 705 0000 01       		.uleb128 0x1
 706 0001 11       		.uleb128 0x11
 707 0002 01       		.byte	0x1
 708 0003 25       		.uleb128 0x25
 709 0004 0E       		.uleb128 0xe
 710 0005 13       		.uleb128 0x13
 711 0006 0B       		.uleb128 0xb
 712 0007 03       		.uleb128 0x3
 713 0008 0E       		.uleb128 0xe
 714 0009 1B       		.uleb128 0x1b
 715 000a 0E       		.uleb128 0xe
 716 000b 11       		.uleb128 0x11
 717 000c 01       		.uleb128 0x1
 718 000d 52       		.uleb128 0x52
 719 000e 01       		.uleb128 0x1
 720 000f 55       		.uleb128 0x55
 721 0010 06       		.uleb128 0x6
 722 0011 10       		.uleb128 0x10
 723 0012 06       		.uleb128 0x6
 724 0013 00       		.byte	0x0
 725 0014 00       		.byte	0x0
 726 0015 02       		.uleb128 0x2
 727 0016 24       		.uleb128 0x24
 728 0017 00       		.byte	0x0
 729 0018 0B       		.uleb128 0xb
 730 0019 0B       		.uleb128 0xb
 731 001a 3E       		.uleb128 0x3e
 732 001b 0B       		.uleb128 0xb
 733 001c 03       		.uleb128 0x3
 734 001d 0E       		.uleb128 0xe
 735 001e 00       		.byte	0x0
 736 001f 00       		.byte	0x0
 737 0020 03       		.uleb128 0x3
 738 0021 24       		.uleb128 0x24
ARM GAS  C:\Users\dmtucker\AppData\Local\Temp\cckh4c3v.s 			page 16


 739 0022 00       		.byte	0x0
 740 0023 0B       		.uleb128 0xb
 741 0024 0B       		.uleb128 0xb
 742 0025 3E       		.uleb128 0x3e
 743 0026 0B       		.uleb128 0xb
 744 0027 03       		.uleb128 0x3
 745 0028 08       		.uleb128 0x8
 746 0029 00       		.byte	0x0
 747 002a 00       		.byte	0x0
 748 002b 04       		.uleb128 0x4
 749 002c 16       		.uleb128 0x16
 750 002d 00       		.byte	0x0
 751 002e 03       		.uleb128 0x3
 752 002f 0E       		.uleb128 0xe
 753 0030 3A       		.uleb128 0x3a
 754 0031 0B       		.uleb128 0xb
 755 0032 3B       		.uleb128 0x3b
 756 0033 0B       		.uleb128 0xb
 757 0034 49       		.uleb128 0x49
 758 0035 13       		.uleb128 0x13
 759 0036 00       		.byte	0x0
 760 0037 00       		.byte	0x0
 761 0038 05       		.uleb128 0x5
 762 0039 24       		.uleb128 0x24
 763 003a 00       		.byte	0x0
 764 003b 0B       		.uleb128 0xb
 765 003c 0B       		.uleb128 0xb
 766 003d 3E       		.uleb128 0x3e
 767 003e 0B       		.uleb128 0xb
 768 003f 00       		.byte	0x0
 769 0040 00       		.byte	0x0
 770 0041 06       		.uleb128 0x6
 771 0042 2E       		.uleb128 0x2e
 772 0043 00       		.byte	0x0
 773 0044 3F       		.uleb128 0x3f
 774 0045 0C       		.uleb128 0xc
 775 0046 03       		.uleb128 0x3
 776 0047 0E       		.uleb128 0xe
 777 0048 3A       		.uleb128 0x3a
 778 0049 0B       		.uleb128 0xb
 779 004a 3B       		.uleb128 0x3b
 780 004b 0B       		.uleb128 0xb
 781 004c 27       		.uleb128 0x27
 782 004d 0C       		.uleb128 0xc
 783 004e 11       		.uleb128 0x11
 784 004f 01       		.uleb128 0x1
 785 0050 12       		.uleb128 0x12
 786 0051 01       		.uleb128 0x1
 787 0052 40       		.uleb128 0x40
 788 0053 06       		.uleb128 0x6
 789 0054 00       		.byte	0x0
 790 0055 00       		.byte	0x0
 791 0056 07       		.uleb128 0x7
 792 0057 2E       		.uleb128 0x2e
 793 0058 01       		.byte	0x1
 794 0059 3F       		.uleb128 0x3f
 795 005a 0C       		.uleb128 0xc
ARM GAS  C:\Users\dmtucker\AppData\Local\Temp\cckh4c3v.s 			page 17


 796 005b 03       		.uleb128 0x3
 797 005c 0E       		.uleb128 0xe
 798 005d 3A       		.uleb128 0x3a
 799 005e 0B       		.uleb128 0xb
 800 005f 3B       		.uleb128 0x3b
 801 0060 0B       		.uleb128 0xb
 802 0061 11       		.uleb128 0x11
 803 0062 01       		.uleb128 0x1
 804 0063 12       		.uleb128 0x12
 805 0064 01       		.uleb128 0x1
 806 0065 40       		.uleb128 0x40
 807 0066 06       		.uleb128 0x6
 808 0067 01       		.uleb128 0x1
 809 0068 13       		.uleb128 0x13
 810 0069 00       		.byte	0x0
 811 006a 00       		.byte	0x0
 812 006b 08       		.uleb128 0x8
 813 006c 0B       		.uleb128 0xb
 814 006d 01       		.byte	0x1
 815 006e 11       		.uleb128 0x11
 816 006f 01       		.uleb128 0x1
 817 0070 12       		.uleb128 0x12
 818 0071 01       		.uleb128 0x1
 819 0072 00       		.byte	0x0
 820 0073 00       		.byte	0x0
 821 0074 09       		.uleb128 0x9
 822 0075 34       		.uleb128 0x34
 823 0076 00       		.byte	0x0
 824 0077 03       		.uleb128 0x3
 825 0078 0E       		.uleb128 0xe
 826 0079 3A       		.uleb128 0x3a
 827 007a 0B       		.uleb128 0xb
 828 007b 3B       		.uleb128 0x3b
 829 007c 0B       		.uleb128 0xb
 830 007d 49       		.uleb128 0x49
 831 007e 13       		.uleb128 0x13
 832 007f 02       		.uleb128 0x2
 833 0080 0A       		.uleb128 0xa
 834 0081 00       		.byte	0x0
 835 0082 00       		.byte	0x0
 836 0083 0A       		.uleb128 0xa
 837 0084 34       		.uleb128 0x34
 838 0085 00       		.byte	0x0
 839 0086 03       		.uleb128 0x3
 840 0087 08       		.uleb128 0x8
 841 0088 3A       		.uleb128 0x3a
 842 0089 0B       		.uleb128 0xb
 843 008a 3B       		.uleb128 0x3b
 844 008b 0B       		.uleb128 0xb
 845 008c 49       		.uleb128 0x49
 846 008d 13       		.uleb128 0x13
 847 008e 02       		.uleb128 0x2
 848 008f 0A       		.uleb128 0xa
 849 0090 00       		.byte	0x0
 850 0091 00       		.byte	0x0
 851 0092 0B       		.uleb128 0xb
 852 0093 34       		.uleb128 0x34
ARM GAS  C:\Users\dmtucker\AppData\Local\Temp\cckh4c3v.s 			page 18


 853 0094 00       		.byte	0x0
 854 0095 03       		.uleb128 0x3
 855 0096 0E       		.uleb128 0xe
 856 0097 3A       		.uleb128 0x3a
 857 0098 0B       		.uleb128 0xb
 858 0099 3B       		.uleb128 0x3b
 859 009a 05       		.uleb128 0x5
 860 009b 49       		.uleb128 0x49
 861 009c 13       		.uleb128 0x13
 862 009d 3F       		.uleb128 0x3f
 863 009e 0C       		.uleb128 0xc
 864 009f 3C       		.uleb128 0x3c
 865 00a0 0C       		.uleb128 0xc
 866 00a1 00       		.byte	0x0
 867 00a2 00       		.byte	0x0
 868 00a3 0C       		.uleb128 0xc
 869 00a4 35       		.uleb128 0x35
 870 00a5 00       		.byte	0x0
 871 00a6 49       		.uleb128 0x49
 872 00a7 13       		.uleb128 0x13
 873 00a8 00       		.byte	0x0
 874 00a9 00       		.byte	0x0
 875 00aa 00       		.byte	0x0
 876              		.section	.debug_pubnames,"",%progbits
 877 0000 2D000000 		.4byte	0x2d
 878 0004 0200     		.2byte	0x2
 879 0006 00000000 		.4byte	.Ldebug_info0
 880 000a 27010000 		.4byte	0x127
 881 000e 92000000 		.4byte	0x92
 882 0012 746F6767 		.ascii	"toggle\000"
 882      6C6500
 883 0019 A7000000 		.4byte	0xa7
 884 001d 73616D70 		.ascii	"sample\000"
 884      6C6500
 885 0024 BC000000 		.4byte	0xbc
 886 0028 6D61696E 		.ascii	"main\000"
 886      00
 887 002d 00000000 		.4byte	0x0
 888              		.section	.debug_aranges,"",%progbits
 889 0000 2C000000 		.4byte	0x2c
 890 0004 0200     		.2byte	0x2
 891 0006 00000000 		.4byte	.Ldebug_info0
 892 000a 04       		.byte	0x4
 893 000b 00       		.byte	0x0
 894 000c 0000     		.2byte	0x0
 895 000e 0000     		.2byte	0x0
 896 0010 00000000 		.4byte	.LFB29
 897 0014 1A000000 		.4byte	.LFE29-.LFB29
 898 0018 00000000 		.4byte	.LFB30
 899 001c 70000000 		.4byte	.LFE30-.LFB30
 900 0020 00000000 		.4byte	.LFB31
 901 0024 20030000 		.4byte	.LFE31-.LFB31
 902 0028 00000000 		.4byte	0x0
 903 002c 00000000 		.4byte	0x0
 904              		.section	.debug_ranges,"",%progbits
 905              	.Ldebug_ranges0:
 906 0000 00000000 		.4byte	.Ltext0
ARM GAS  C:\Users\dmtucker\AppData\Local\Temp\cckh4c3v.s 			page 19


 907 0004 00000000 		.4byte	.Letext0
 908 0008 00000000 		.4byte	.LFB29
 909 000c 1A000000 		.4byte	.LFE29
 910 0010 00000000 		.4byte	.LFB30
 911 0014 70000000 		.4byte	.LFE30
 912 0018 00000000 		.4byte	.LFB31
 913 001c 20030000 		.4byte	.LFE31
 914 0020 00000000 		.4byte	0x0
 915 0024 00000000 		.4byte	0x0
 916              		.section	.debug_str,"MS",%progbits,1
 917              	.LASF6:
 918 0000 6C6F6E67 		.ascii	"long long int\000"
 918      206C6F6E 
 918      6720696E 
 918      7400
 919              	.LASF8:
 920 000e 756E7369 		.ascii	"unsigned int\000"
 920      676E6564 
 920      20696E74 
 920      00
 921              	.LASF18:
 922 001b 463A5C50 		.ascii	"F:\\PSoC Creator\\lab4\\part2.cydsn\000"
 922      536F4320 
 922      43726561 
 922      746F725C 
 922      6C616234 
 923              	.LASF20:
 924 003c 6D61696E 		.ascii	"main\000"
 924      00
 925              	.LASF5:
 926 0041 6C6F6E67 		.ascii	"long unsigned int\000"
 926      20756E73 
 926      69676E65 
 926      6420696E 
 926      7400
 927              	.LASF2:
 928 0053 73686F72 		.ascii	"short int\000"
 928      7420696E 
 928      7400
 929              	.LASF7:
 930 005d 6C6F6E67 		.ascii	"long long unsigned int\000"
 930      206C6F6E 
 930      6720756E 
 930      7369676E 
 930      65642069 
 931              	.LASF16:
 932 0074 474E5520 		.ascii	"GNU C 4.4.1\000"
 932      4320342E 
 932      342E3100 
 933              	.LASF1:
 934 0080 756E7369 		.ascii	"unsigned char\000"
 934      676E6564 
 934      20636861 
 934      7200
 935              	.LASF14:
 936 008e 73706565 		.ascii	"speed\000"
 936      6400
ARM GAS  C:\Users\dmtucker\AppData\Local\Temp\cckh4c3v.s 			page 20


 937              	.LASF11:
 938 0094 63686172 		.ascii	"char\000"
 938      00
 939              	.LASF21:
 940 0099 49544D5F 		.ascii	"ITM_RxBuffer\000"
 940      52784275 
 940      66666572 
 940      00
 941              	.LASF13:
 942 00a6 73616D70 		.ascii	"sample\000"
 942      6C6500
 943              	.LASF10:
 944 00ad 646F7562 		.ascii	"double\000"
 944      6C6500
 945              	.LASF4:
 946 00b4 6C6F6E67 		.ascii	"long int\000"
 946      20696E74 
 946      00
 947              	.LASF15:
 948 00bd 73657470 		.ascii	"setpoint\000"
 948      6F696E74 
 948      00
 949              	.LASF3:
 950 00c6 73686F72 		.ascii	"short unsigned int\000"
 950      7420756E 
 950      7369676E 
 950      65642069 
 950      6E7400
 951              	.LASF0:
 952 00d9 7369676E 		.ascii	"signed char\000"
 952      65642063 
 952      68617200 
 953              	.LASF9:
 954 00e5 666C6F61 		.ascii	"float\000"
 954      7400
 955              	.LASF17:
 956 00eb 2E5C6D61 		.ascii	".\\main.c\000"
 956      696E2E63 
 956      00
 957              	.LASF19:
 958 00f4 75696E74 		.ascii	"uint16\000"
 958      313600
 959              	.LASF12:
 960 00fb 746F6767 		.ascii	"toggle\000"
 960      6C6500
 961              		.ident	"GCC: (Sourcery G++ Lite 2010q1-188) 4.4.1"
