ARM GAS  C:\Users\dmtucker\AppData\Local\Temp\ccq6UoL9.s 			page 1


   1              		.syntax unified
   2              		.cpu cortex-m3
   3              		.fpu softvfp
   4              		.eabi_attribute 20, 1
   5              		.eabi_attribute 21, 1
   6              		.eabi_attribute 23, 3
   7              		.eabi_attribute 24, 1
   8              		.eabi_attribute 25, 1
   9              		.eabi_attribute 26, 1
  10              		.eabi_attribute 30, 6
  11              		.eabi_attribute 18, 4
  12              		.thumb
  13              		.file	"PID.c"
  20 0000 29010000 		.text
  20      02004500 
  20      00000201 
  20      FB0E0D00 
  20      01010101 
  21              	.Ltext0:
  22              		.cfi_sections	.debug_frame
  23              		.global	mode
  24              		.bss
  25              		.align	2
  26              		.type	mode, %object
  27              		.size	mode, 4
  28              	mode:
  29 0000 00000000 		.space	4
  30              		.comm	Input,8,8
  31              		.comm	Output,8,8
  32              		.comm	Setpoint,8,8
  33              		.comm	kp,8,8
  34              		.comm	ki,8,8
  35              		.comm	kd,8,8
  36              		.comm	ITerm,8,8
  37              		.comm	lastInput,8,8
  38              		.comm	outMin,8,8
  39              		.comm	outMax,8,8
  40              		.section	.text.PID_toggle,"ax",%progbits
  41              		.align	2
  42              		.global	PID_toggle
  43              		.thumb
  44              		.thumb_func
  45              		.type	PID_toggle, %function
  46              	PID_toggle:
  47              	.LFB29:
  48              		.file 1 ".\\PID.c"
   1:.\PID.c       **** #include <device.h>
   2:.\PID.c       **** #include <stdbool.h>
   3:.\PID.c       **** #include <PID.h>
   4:.\PID.c       **** 
   5:.\PID.c       **** 
ARM GAS  C:\Users\dmtucker\AppData\Local\Temp\ccq6UoL9.s 			page 2


   6:.\PID.c       **** 
   7:.\PID.c       **** 
   8:.\PID.c       **** int mode = MANUAL;
   9:.\PID.c       **** double Input, Output, Setpoint;
  10:.\PID.c       **** double kp, ki, kd;
  11:.\PID.c       **** double ITerm, lastInput;
  12:.\PID.c       **** double outMin, outMax;
  13:.\PID.c       **** 
  14:.\PID.c       **** 
  15:.\PID.c       **** 
  16:.\PID.c       **** 
  17:.\PID.c       **** int PID_toggle () {
  49              		.loc 1 17 0
  50              		.cfi_startproc
  51              		@ args = 0, pretend = 0, frame = 0
  52              		@ frame_needed = 1, uses_anonymous_args = 0
  53 0000 80B5     		push	{r7, lr}
  54              	.LCFI0:
  55              		.cfi_def_cfa_offset 8
  56 0002 00AF     		add	r7, sp, #0
  57              		.cfi_offset 14, -4
  58              		.cfi_offset 7, -8
  59              	.LCFI1:
  60              		.cfi_def_cfa_register 7
  18:.\PID.c       ****     set_PID_mode((mode == MANUAL) ? AUTOMATIC : MANUAL);
  61              		.loc 1 18 0
  62 0004 40F20003 		movw	r3, #:lower16:mode
  63 0008 C0F20003 		movt	r3, #:upper16:mode
  64 000c 1B68     		ldr	r3, [r3, #0]
  65 000e 002B     		cmp	r3, #0
  66 0010 14BF     		ite	ne
  67 0012 0023     		movne	r3, #0
  68 0014 0123     		moveq	r3, #1
  69 0016 1846     		mov	r0, r3
  70 0018 FFF7FEFF 		bl	set_PID_mode
  19:.\PID.c       ****     return mode;
  71              		.loc 1 19 0
  72 001c 40F20003 		movw	r3, #:lower16:mode
  73 0020 C0F20003 		movt	r3, #:upper16:mode
  74 0024 1B68     		ldr	r3, [r3, #0]
  20:.\PID.c       **** }
  75              		.loc 1 20 0
  76 0026 1846     		mov	r0, r3
  77 0028 80BD     		pop	{r7, pc}
  78              		.cfi_endproc
  79              	.LFE29:
  80              		.size	PID_toggle, .-PID_toggle
  81 002a 00BF     		.section	.text.PID_mode,"ax",%progbits
  82              		.align	2
  83              		.global	PID_mode
  84              		.thumb
  85              		.thumb_func
  86              		.type	PID_mode, %function
  87              	PID_mode:
  88              	.LFB30:
  21:.\PID.c       **** 
  22:.\PID.c       **** 
ARM GAS  C:\Users\dmtucker\AppData\Local\Temp\ccq6UoL9.s 			page 3


  23:.\PID.c       **** 
  24:.\PID.c       **** 
  25:.\PID.c       **** int PID_mode () {
  89              		.loc 1 25 0
  90              		.cfi_startproc
  91              		@ args = 0, pretend = 0, frame = 0
  92              		@ frame_needed = 1, uses_anonymous_args = 0
  93              		@ link register save eliminated.
  94 0000 80B4     		push	{r7}
  95              	.LCFI2:
  96              		.cfi_def_cfa_offset 4
  97 0002 00AF     		add	r7, sp, #0
  98              		.cfi_offset 7, -4
  99              	.LCFI3:
 100              		.cfi_def_cfa_register 7
  26:.\PID.c       ****     return mode;
 101              		.loc 1 26 0
 102 0004 40F20003 		movw	r3, #:lower16:mode
 103 0008 C0F20003 		movt	r3, #:upper16:mode
 104 000c 1B68     		ldr	r3, [r3, #0]
  27:.\PID.c       **** }
 105              		.loc 1 27 0
 106 000e 1846     		mov	r0, r3
 107 0010 BD46     		mov	sp, r7
 108 0012 80BC     		pop	{r7}
 109 0014 7047     		bx	lr
 110              		.cfi_endproc
 111              	.LFE30:
 112              		.size	PID_mode, .-PID_mode
 113              		.global	__aeabi_dcmpgt
 114              		.global	__aeabi_dcmplt
 115 0016 00BF     		.section	.text.set_PID_mode,"ax",%progbits
 116              		.align	2
 117              		.global	set_PID_mode
 118              		.thumb
 119              		.thumb_func
 120              		.type	set_PID_mode, %function
 121              	set_PID_mode:
 122              	.LFB31:
  28:.\PID.c       **** 
  29:.\PID.c       **** 
  30:.\PID.c       **** 
  31:.\PID.c       **** 
  32:.\PID.c       **** void set_PID_mode (int newMode) {
 123              		.loc 1 32 0
 124              		.cfi_startproc
 125              		@ args = 0, pretend = 0, frame = 8
 126              		@ frame_needed = 1, uses_anonymous_args = 0
 127 0000 90B5     		push	{r4, r7, lr}
 128              	.LCFI4:
 129              		.cfi_def_cfa_offset 12
 130 0002 83B0     		sub	sp, sp, #12
 131              	.LCFI5:
 132              		.cfi_def_cfa_offset 24
 133 0004 00AF     		add	r7, sp, #0
 134              		.cfi_offset 14, -4
 135              		.cfi_offset 7, -8
ARM GAS  C:\Users\dmtucker\AppData\Local\Temp\ccq6UoL9.s 			page 4


 136              		.cfi_offset 4, -12
 137              	.LCFI6:
 138              		.cfi_def_cfa_register 7
 139 0006 7860     		str	r0, [r7, #4]
  33:.\PID.c       ****     if (newMode == AUTOMATIC && mode != AUTOMATIC) {
 140              		.loc 1 33 0
 141 0008 7B68     		ldr	r3, [r7, #4]
 142 000a 012B     		cmp	r3, #1
 143 000c 6BD1     		bne	.L6
 144 000e 40F20003 		movw	r3, #:lower16:mode
 145 0012 C0F20003 		movt	r3, #:upper16:mode
 146 0016 1B68     		ldr	r3, [r3, #0]
 147 0018 012B     		cmp	r3, #1
 148 001a 64D0     		beq	.L6
  34:.\PID.c       ****         lastInput = Input;
 149              		.loc 1 34 0
 150 001c 40F20003 		movw	r3, #:lower16:Input
 151 0020 C0F20003 		movt	r3, #:upper16:Input
 152 0024 D3E90001 		ldrd	r0, [r3]
 153 0028 40F20003 		movw	r3, #:lower16:lastInput
 154 002c C0F20003 		movt	r3, #:upper16:lastInput
 155 0030 C3E90001 		strd	r0, [r3]
  35:.\PID.c       ****         ITerm     = Output;
 156              		.loc 1 35 0
 157 0034 40F20003 		movw	r3, #:lower16:Output
 158 0038 C0F20003 		movt	r3, #:upper16:Output
 159 003c D3E90001 		ldrd	r0, [r3]
 160 0040 40F20003 		movw	r3, #:lower16:ITerm
 161 0044 C0F20003 		movt	r3, #:upper16:ITerm
 162 0048 C3E90001 		strd	r0, [r3]
  36:.\PID.c       ****         if      (ITerm > outMax) ITerm = outMax;
 163              		.loc 1 36 0
 164 004c 40F20003 		movw	r3, #:lower16:ITerm
 165 0050 C0F20003 		movt	r3, #:upper16:ITerm
 166 0054 D3E90001 		ldrd	r0, [r3]
 167 0058 40F20003 		movw	r3, #:lower16:outMax
 168 005c C0F20003 		movt	r3, #:upper16:outMax
 169 0060 D3E90023 		ldrd	r2, [r3]
 170 0064 4FF0000C 		mov	ip, #0
 171 0068 6446     		mov	r4, ip
 172 006a FFF7FEFF 		bl	__aeabi_dcmpgt
 173 006e 0346     		mov	r3, r0
 174 0070 002B     		cmp	r3, #0
 175 0072 02D0     		beq	.L7
 176              	.L8:
 177 0074 4FF00103 		mov	r3, #1
 178 0078 1C46     		mov	r4, r3
 179              	.L7:
 180 007a E3B2     		uxtb	r3, r4
 181 007c 002B     		cmp	r3, #0
 182 007e 0CD0     		beq	.L9
 183 0080 40F20003 		movw	r3, #:lower16:outMax
 184 0084 C0F20003 		movt	r3, #:upper16:outMax
 185 0088 D3E90001 		ldrd	r0, [r3]
 186 008c 40F20003 		movw	r3, #:lower16:ITerm
 187 0090 C0F20003 		movt	r3, #:upper16:ITerm
 188 0094 C3E90001 		strd	r0, [r3]
ARM GAS  C:\Users\dmtucker\AppData\Local\Temp\ccq6UoL9.s 			page 5


 189 0098 25E0     		b	.L6
 190              	.L9:
  37:.\PID.c       ****         else if (ITerm < outMin) ITerm = outMin;
 191              		.loc 1 37 0
 192 009a 40F20003 		movw	r3, #:lower16:ITerm
 193 009e C0F20003 		movt	r3, #:upper16:ITerm
 194 00a2 D3E90001 		ldrd	r0, [r3]
 195 00a6 40F20003 		movw	r3, #:lower16:outMin
 196 00aa C0F20003 		movt	r3, #:upper16:outMin
 197 00ae D3E90023 		ldrd	r2, [r3]
 198 00b2 4FF0000C 		mov	ip, #0
 199 00b6 6446     		mov	r4, ip
 200 00b8 FFF7FEFF 		bl	__aeabi_dcmplt
 201 00bc 0346     		mov	r3, r0
 202 00be 002B     		cmp	r3, #0
 203 00c0 02D0     		beq	.L10
 204              	.L11:
 205 00c2 4FF00103 		mov	r3, #1
 206 00c6 1C46     		mov	r4, r3
 207              	.L10:
 208 00c8 E3B2     		uxtb	r3, r4
 209 00ca 002B     		cmp	r3, #0
 210 00cc 0BD0     		beq	.L6
 211 00ce 40F20003 		movw	r3, #:lower16:outMin
 212 00d2 C0F20003 		movt	r3, #:upper16:outMin
 213 00d6 D3E90001 		ldrd	r0, [r3]
 214 00da 40F20003 		movw	r3, #:lower16:ITerm
 215 00de C0F20003 		movt	r3, #:upper16:ITerm
 216 00e2 C3E90001 		strd	r0, [r3]
 217              	.L6:
  38:.\PID.c       ****     }
  39:.\PID.c       ****     mode = newMode;
 218              		.loc 1 39 0
 219 00e6 40F20003 		movw	r3, #:lower16:mode
 220 00ea C0F20003 		movt	r3, #:upper16:mode
 221 00ee 7A68     		ldr	r2, [r7, #4]
 222 00f0 1A60     		str	r2, [r3, #0]
  40:.\PID.c       **** }
 223              		.loc 1 40 0
 224 00f2 07F10C07 		add	r7, r7, #12
 225 00f6 BD46     		mov	sp, r7
 226 00f8 90BD     		pop	{r4, r7, pc}
 227              		.cfi_endproc
 228              	.LFE31:
 229              		.size	set_PID_mode, .-set_PID_mode
 230 00fa 00BF     		.section	.text.set_PID_input,"ax",%progbits
 231              		.align	2
 232              		.global	set_PID_input
 233              		.thumb
 234              		.thumb_func
 235              		.type	set_PID_input, %function
 236              	set_PID_input:
 237              	.LFB32:
  41:.\PID.c       **** 
  42:.\PID.c       **** 
  43:.\PID.c       **** 
  44:.\PID.c       **** 
ARM GAS  C:\Users\dmtucker\AppData\Local\Temp\ccq6UoL9.s 			page 6


  45:.\PID.c       **** void set_PID_input (double newInput) {
 238              		.loc 1 45 0
 239              		.cfi_startproc
 240              		@ args = 0, pretend = 0, frame = 8
 241              		@ frame_needed = 1, uses_anonymous_args = 0
 242              		@ link register save eliminated.
 243 0000 80B4     		push	{r7}
 244              	.LCFI7:
 245              		.cfi_def_cfa_offset 4
 246 0002 83B0     		sub	sp, sp, #12
 247              	.LCFI8:
 248              		.cfi_def_cfa_offset 16
 249 0004 00AF     		add	r7, sp, #0
 250              		.cfi_offset 7, -4
 251              	.LCFI9:
 252              		.cfi_def_cfa_register 7
 253 0006 C7E90001 		strd	r0, [r7]
  46:.\PID.c       ****     Input = newInput;
 254              		.loc 1 46 0
 255 000a 40F20003 		movw	r3, #:lower16:Input
 256 000e C0F20003 		movt	r3, #:upper16:Input
 257 0012 D7E90001 		ldrd	r0, [r7]
 258 0016 C3E90001 		strd	r0, [r3]
  47:.\PID.c       **** }
 259              		.loc 1 47 0
 260 001a 07F10C07 		add	r7, r7, #12
 261 001e BD46     		mov	sp, r7
 262 0020 80BC     		pop	{r7}
 263 0022 7047     		bx	lr
 264              		.cfi_endproc
 265              	.LFE32:
 266              		.size	set_PID_input, .-set_PID_input
 267              		.section	.text.set_PID_setpoint,"ax",%progbits
 268              		.align	2
 269              		.global	set_PID_setpoint
 270              		.thumb
 271              		.thumb_func
 272              		.type	set_PID_setpoint, %function
 273              	set_PID_setpoint:
 274              	.LFB33:
  48:.\PID.c       **** 
  49:.\PID.c       **** 
  50:.\PID.c       **** 
  51:.\PID.c       **** 
  52:.\PID.c       **** void set_PID_setpoint (double newSetpoint) {
 275              		.loc 1 52 0
 276              		.cfi_startproc
 277              		@ args = 0, pretend = 0, frame = 8
 278              		@ frame_needed = 1, uses_anonymous_args = 0
 279 0000 90B5     		push	{r4, r7, lr}
 280              	.LCFI10:
 281              		.cfi_def_cfa_offset 12
 282 0002 83B0     		sub	sp, sp, #12
 283              	.LCFI11:
 284              		.cfi_def_cfa_offset 24
 285 0004 00AF     		add	r7, sp, #0
 286              		.cfi_offset 14, -4
ARM GAS  C:\Users\dmtucker\AppData\Local\Temp\ccq6UoL9.s 			page 7


 287              		.cfi_offset 7, -8
 288              		.cfi_offset 4, -12
 289              	.LCFI12:
 290              		.cfi_def_cfa_register 7
 291 0006 C7E90001 		strd	r0, [r7]
  53:.\PID.c       ****     Setpoint = newSetpoint;
 292              		.loc 1 53 0
 293 000a 40F20003 		movw	r3, #:lower16:Setpoint
 294 000e C0F20003 		movt	r3, #:upper16:Setpoint
 295 0012 D7E90001 		ldrd	r0, [r7]
 296 0016 C3E90001 		strd	r0, [r3]
  54:.\PID.c       ****     if      (Setpoint > outMax) Setpoint = outMax;
 297              		.loc 1 54 0
 298 001a 40F20003 		movw	r3, #:lower16:Setpoint
 299 001e C0F20003 		movt	r3, #:upper16:Setpoint
 300 0022 D3E90001 		ldrd	r0, [r3]
 301 0026 40F20003 		movw	r3, #:lower16:outMax
 302 002a C0F20003 		movt	r3, #:upper16:outMax
 303 002e D3E90023 		ldrd	r2, [r3]
 304 0032 4FF0000C 		mov	ip, #0
 305 0036 6446     		mov	r4, ip
 306 0038 FFF7FEFF 		bl	__aeabi_dcmpgt
 307 003c 0346     		mov	r3, r0
 308 003e 002B     		cmp	r3, #0
 309 0040 02D0     		beq	.L16
 310              	.L17:
 311 0042 4FF00103 		mov	r3, #1
 312 0046 1C46     		mov	r4, r3
 313              	.L16:
 314 0048 E3B2     		uxtb	r3, r4
 315 004a 002B     		cmp	r3, #0
 316 004c 0CD0     		beq	.L18
 317 004e 40F20003 		movw	r3, #:lower16:outMax
 318 0052 C0F20003 		movt	r3, #:upper16:outMax
 319 0056 D3E90001 		ldrd	r0, [r3]
 320 005a 40F20003 		movw	r3, #:lower16:Setpoint
 321 005e C0F20003 		movt	r3, #:upper16:Setpoint
 322 0062 C3E90001 		strd	r0, [r3]
 323 0066 25E0     		b	.L22
 324              	.L18:
  55:.\PID.c       ****     else if (Setpoint < outMin) Setpoint = outMin;
 325              		.loc 1 55 0
 326 0068 40F20003 		movw	r3, #:lower16:Setpoint
 327 006c C0F20003 		movt	r3, #:upper16:Setpoint
 328 0070 D3E90001 		ldrd	r0, [r3]
 329 0074 40F20003 		movw	r3, #:lower16:outMin
 330 0078 C0F20003 		movt	r3, #:upper16:outMin
 331 007c D3E90023 		ldrd	r2, [r3]
 332 0080 4FF0000C 		mov	ip, #0
 333 0084 6446     		mov	r4, ip
 334 0086 FFF7FEFF 		bl	__aeabi_dcmplt
 335 008a 0346     		mov	r3, r0
 336 008c 002B     		cmp	r3, #0
 337 008e 02D0     		beq	.L20
 338              	.L21:
 339 0090 4FF00103 		mov	r3, #1
 340 0094 1C46     		mov	r4, r3
ARM GAS  C:\Users\dmtucker\AppData\Local\Temp\ccq6UoL9.s 			page 8


 341              	.L20:
 342 0096 E3B2     		uxtb	r3, r4
 343 0098 002B     		cmp	r3, #0
 344 009a 0BD0     		beq	.L22
 345 009c 40F20003 		movw	r3, #:lower16:outMin
 346 00a0 C0F20003 		movt	r3, #:upper16:outMin
 347 00a4 D3E90001 		ldrd	r0, [r3]
 348 00a8 40F20003 		movw	r3, #:lower16:Setpoint
 349 00ac C0F20003 		movt	r3, #:upper16:Setpoint
 350 00b0 C3E90001 		strd	r0, [r3]
 351              	.L22:
  56:.\PID.c       **** }
 352              		.loc 1 56 0
 353 00b4 07F10C07 		add	r7, r7, #12
 354 00b8 BD46     		mov	sp, r7
 355 00ba 90BD     		pop	{r4, r7, pc}
 356              		.cfi_endproc
 357              	.LFE33:
 358              		.size	set_PID_setpoint, .-set_PID_setpoint
 359              		.section	.text.set_PID_tunings,"ax",%progbits
 360              		.align	2
 361              		.global	set_PID_tunings
 362              		.thumb
 363              		.thumb_func
 364              		.type	set_PID_tunings, %function
 365              	set_PID_tunings:
 366              	.LFB34:
  57:.\PID.c       **** 
  58:.\PID.c       **** 
  59:.\PID.c       **** 
  60:.\PID.c       **** 
  61:.\PID.c       **** void set_PID_tunings (double Kp, double Ki, double Kd) {
 367              		.loc 1 61 0
 368              		.cfi_startproc
 369              		@ args = 8, pretend = 0, frame = 16
 370              		@ frame_needed = 1, uses_anonymous_args = 0
 371              		@ link register save eliminated.
 372 0000 80B4     		push	{r7}
 373              	.LCFI13:
 374              		.cfi_def_cfa_offset 4
 375 0002 85B0     		sub	sp, sp, #20
 376              	.LCFI14:
 377              		.cfi_def_cfa_offset 24
 378 0004 00AF     		add	r7, sp, #0
 379              		.cfi_offset 7, -4
 380              	.LCFI15:
 381              		.cfi_def_cfa_register 7
 382 0006 C7E90201 		strd	r0, [r7, #8]
 383 000a C7E90023 		strd	r2, [r7]
  62:.\PID.c       ****     kp = Kp;
 384              		.loc 1 62 0
 385 000e 40F20003 		movw	r3, #:lower16:kp
 386 0012 C0F20003 		movt	r3, #:upper16:kp
 387 0016 D7E90201 		ldrd	r0, [r7, #8]
 388 001a C3E90001 		strd	r0, [r3]
  63:.\PID.c       ****     ki = Ki;
 389              		.loc 1 63 0
ARM GAS  C:\Users\dmtucker\AppData\Local\Temp\ccq6UoL9.s 			page 9


 390 001e 40F20003 		movw	r3, #:lower16:ki
 391 0022 C0F20003 		movt	r3, #:upper16:ki
 392 0026 D7E90001 		ldrd	r0, [r7]
 393 002a C3E90001 		strd	r0, [r3]
  64:.\PID.c       ****     kd = Kd;
 394              		.loc 1 64 0
 395 002e 40F20003 		movw	r3, #:lower16:kd
 396 0032 C0F20003 		movt	r3, #:upper16:kd
 397 0036 D7E90601 		ldrd	r0, [r7, #24]
 398 003a C3E90001 		strd	r0, [r3]
  65:.\PID.c       **** }
 399              		.loc 1 65 0
 400 003e 07F11407 		add	r7, r7, #20
 401 0042 BD46     		mov	sp, r7
 402 0044 80BC     		pop	{r7}
 403 0046 7047     		bx	lr
 404              		.cfi_endproc
 405              	.LFE34:
 406              		.size	set_PID_tunings, .-set_PID_tunings
 407              		.section	.text.set_PID_limits,"ax",%progbits
 408              		.align	2
 409              		.global	set_PID_limits
 410              		.thumb
 411              		.thumb_func
 412              		.type	set_PID_limits, %function
 413              	set_PID_limits:
 414              	.LFB35:
  66:.\PID.c       **** 
  67:.\PID.c       **** 
  68:.\PID.c       **** 
  69:.\PID.c       **** 
  70:.\PID.c       **** void set_PID_limits (double min, double max) {
 415              		.loc 1 70 0
 416              		.cfi_startproc
 417              		@ args = 0, pretend = 0, frame = 16
 418              		@ frame_needed = 1, uses_anonymous_args = 0
 419 0000 90B5     		push	{r4, r7, lr}
 420              	.LCFI16:
 421              		.cfi_def_cfa_offset 12
 422 0002 85B0     		sub	sp, sp, #20
 423              	.LCFI17:
 424              		.cfi_def_cfa_offset 32
 425 0004 00AF     		add	r7, sp, #0
 426              		.cfi_offset 14, -4
 427              		.cfi_offset 7, -8
 428              		.cfi_offset 4, -12
 429              	.LCFI18:
 430              		.cfi_def_cfa_register 7
 431 0006 C7E90201 		strd	r0, [r7, #8]
 432 000a C7E90023 		strd	r2, [r7]
  71:.\PID.c       ****    if (min > max) return;
 433              		.loc 1 71 0
 434 000e 4FF00003 		mov	r3, #0
 435 0012 1C46     		mov	r4, r3
 436 0014 D7E90201 		ldrd	r0, [r7, #8]
 437 0018 D7E90023 		ldrd	r2, [r7]
 438 001c FFF7FEFF 		bl	__aeabi_dcmpgt
ARM GAS  C:\Users\dmtucker\AppData\Local\Temp\ccq6UoL9.s 			page 10


 439 0020 0346     		mov	r3, r0
 440 0022 002B     		cmp	r3, #0
 441 0024 02D0     		beq	.L26
 442              	.L27:
 443 0026 4FF00103 		mov	r3, #1
 444 002a 1C46     		mov	r4, r3
 445              	.L26:
 446 002c E3B2     		uxtb	r3, r4
 447 002e 002B     		cmp	r3, #0
 448 0030 40F0AB80 		bne	.L42
 449              	.L28:
  72:.\PID.c       ****    outMin = min;
 450              		.loc 1 72 0
 451 0034 40F20003 		movw	r3, #:lower16:outMin
 452 0038 C0F20003 		movt	r3, #:upper16:outMin
 453 003c D7E90201 		ldrd	r0, [r7, #8]
 454 0040 C3E90001 		strd	r0, [r3]
  73:.\PID.c       ****    outMax = max;
 455              		.loc 1 73 0
 456 0044 40F20003 		movw	r3, #:lower16:outMax
 457 0048 C0F20003 		movt	r3, #:upper16:outMax
 458 004c D7E90001 		ldrd	r0, [r7]
 459 0050 C3E90001 		strd	r0, [r3]
  74:.\PID.c       ****  
  75:.\PID.c       ****    if      (Output > outMax) Output = outMax;
 460              		.loc 1 75 0
 461 0054 40F20003 		movw	r3, #:lower16:Output
 462 0058 C0F20003 		movt	r3, #:upper16:Output
 463 005c D3E90001 		ldrd	r0, [r3]
 464 0060 40F20003 		movw	r3, #:lower16:outMax
 465 0064 C0F20003 		movt	r3, #:upper16:outMax
 466 0068 D3E90023 		ldrd	r2, [r3]
 467 006c 4FF0000C 		mov	ip, #0
 468 0070 6446     		mov	r4, ip
 469 0072 FFF7FEFF 		bl	__aeabi_dcmpgt
 470 0076 0346     		mov	r3, r0
 471 0078 002B     		cmp	r3, #0
 472 007a 02D0     		beq	.L30
 473              	.L31:
 474 007c 4FF00103 		mov	r3, #1
 475 0080 1C46     		mov	r4, r3
 476              	.L30:
 477 0082 E3B2     		uxtb	r3, r4
 478 0084 002B     		cmp	r3, #0
 479 0086 0CD0     		beq	.L32
 480 0088 40F20003 		movw	r3, #:lower16:outMax
 481 008c C0F20003 		movt	r3, #:upper16:outMax
 482 0090 D3E90001 		ldrd	r0, [r3]
 483 0094 40F20003 		movw	r3, #:lower16:Output
 484 0098 C0F20003 		movt	r3, #:upper16:Output
 485 009c C3E90001 		strd	r0, [r3]
 486 00a0 25E0     		b	.L33
 487              	.L32:
  76:.\PID.c       ****    else if (Output < outMin) Output = outMin;
 488              		.loc 1 76 0
 489 00a2 40F20003 		movw	r3, #:lower16:Output
 490 00a6 C0F20003 		movt	r3, #:upper16:Output
ARM GAS  C:\Users\dmtucker\AppData\Local\Temp\ccq6UoL9.s 			page 11


 491 00aa D3E90001 		ldrd	r0, [r3]
 492 00ae 40F20003 		movw	r3, #:lower16:outMin
 493 00b2 C0F20003 		movt	r3, #:upper16:outMin
 494 00b6 D3E90023 		ldrd	r2, [r3]
 495 00ba 4FF0000C 		mov	ip, #0
 496 00be 6446     		mov	r4, ip
 497 00c0 FFF7FEFF 		bl	__aeabi_dcmplt
 498 00c4 0346     		mov	r3, r0
 499 00c6 002B     		cmp	r3, #0
 500 00c8 02D0     		beq	.L34
 501              	.L35:
 502 00ca 4FF00103 		mov	r3, #1
 503 00ce 1C46     		mov	r4, r3
 504              	.L34:
 505 00d0 E3B2     		uxtb	r3, r4
 506 00d2 002B     		cmp	r3, #0
 507 00d4 0BD0     		beq	.L33
 508 00d6 40F20003 		movw	r3, #:lower16:outMin
 509 00da C0F20003 		movt	r3, #:upper16:outMin
 510 00de D3E90001 		ldrd	r0, [r3]
 511 00e2 40F20003 		movw	r3, #:lower16:Output
 512 00e6 C0F20003 		movt	r3, #:upper16:Output
 513 00ea C3E90001 		strd	r0, [r3]
 514              	.L33:
  77:.\PID.c       ****  
  78:.\PID.c       ****    if      (ITerm > outMax) ITerm = outMax;
 515              		.loc 1 78 0
 516 00ee 40F20003 		movw	r3, #:lower16:ITerm
 517 00f2 C0F20003 		movt	r3, #:upper16:ITerm
 518 00f6 D3E90001 		ldrd	r0, [r3]
 519 00fa 40F20003 		movw	r3, #:lower16:outMax
 520 00fe C0F20003 		movt	r3, #:upper16:outMax
 521 0102 D3E90023 		ldrd	r2, [r3]
 522 0106 4FF0000C 		mov	ip, #0
 523 010a 6446     		mov	r4, ip
 524 010c FFF7FEFF 		bl	__aeabi_dcmpgt
 525 0110 0346     		mov	r3, r0
 526 0112 002B     		cmp	r3, #0
 527 0114 02D0     		beq	.L36
 528              	.L37:
 529 0116 4FF00103 		mov	r3, #1
 530 011a 1C46     		mov	r4, r3
 531              	.L36:
 532 011c E3B2     		uxtb	r3, r4
 533 011e 002B     		cmp	r3, #0
 534 0120 0CD0     		beq	.L38
 535 0122 40F20003 		movw	r3, #:lower16:outMax
 536 0126 C0F20003 		movt	r3, #:upper16:outMax
 537 012a D3E90001 		ldrd	r0, [r3]
 538 012e 40F20003 		movw	r3, #:lower16:ITerm
 539 0132 C0F20003 		movt	r3, #:upper16:ITerm
 540 0136 C3E90001 		strd	r0, [r3]
 541 013a 27E0     		b	.L41
 542              	.L38:
  79:.\PID.c       ****    else if (ITerm < outMin) ITerm = outMin;
 543              		.loc 1 79 0
 544 013c 40F20003 		movw	r3, #:lower16:ITerm
ARM GAS  C:\Users\dmtucker\AppData\Local\Temp\ccq6UoL9.s 			page 12


 545 0140 C0F20003 		movt	r3, #:upper16:ITerm
 546 0144 D3E90001 		ldrd	r0, [r3]
 547 0148 40F20003 		movw	r3, #:lower16:outMin
 548 014c C0F20003 		movt	r3, #:upper16:outMin
 549 0150 D3E90023 		ldrd	r2, [r3]
 550 0154 4FF0000C 		mov	ip, #0
 551 0158 6446     		mov	r4, ip
 552 015a FFF7FEFF 		bl	__aeabi_dcmplt
 553 015e 0346     		mov	r3, r0
 554 0160 002B     		cmp	r3, #0
 555 0162 02D0     		beq	.L39
 556              	.L40:
 557 0164 4FF00103 		mov	r3, #1
 558 0168 1C46     		mov	r4, r3
 559              	.L39:
 560 016a E3B2     		uxtb	r3, r4
 561 016c 002B     		cmp	r3, #0
 562 016e 0DD0     		beq	.L41
 563 0170 40F20003 		movw	r3, #:lower16:outMin
 564 0174 C0F20003 		movt	r3, #:upper16:outMin
 565 0178 D3E90001 		ldrd	r0, [r3]
 566 017c 40F20003 		movw	r3, #:lower16:ITerm
 567 0180 C0F20003 		movt	r3, #:upper16:ITerm
 568 0184 C3E90001 		strd	r0, [r3]
 569 0188 00E0     		b	.L41
 570              	.L42:
 571              		.loc 1 71 0
 572 018a 00BF     		nop
 573              	.L41:
  80:.\PID.c       **** }
 574              		.loc 1 80 0
 575 018c 07F11407 		add	r7, r7, #20
 576 0190 BD46     		mov	sp, r7
 577 0192 90BD     		pop	{r4, r7, pc}
 578              		.cfi_endproc
 579              	.LFE35:
 580              		.size	set_PID_limits, .-set_PID_limits
 581              		.global	__aeabi_dsub
 582              		.global	__aeabi_dmul
 583              		.global	__aeabi_dadd
 584              		.section	.text.PID_controller,"ax",%progbits
 585              		.align	2
 586              		.global	PID_controller
 587              		.thumb
 588              		.thumb_func
 589              		.type	PID_controller, %function
 590              	PID_controller:
 591              	.LFB36:
  81:.\PID.c       **** 
  82:.\PID.c       **** 
  83:.\PID.c       **** 
  84:.\PID.c       **** 
  85:.\PID.c       **** void PID_controller () {
 592              		.loc 1 85 0
 593              		.cfi_startproc
 594              		@ args = 0, pretend = 0, frame = 16
 595              		@ frame_needed = 1, uses_anonymous_args = 0
ARM GAS  C:\Users\dmtucker\AppData\Local\Temp\ccq6UoL9.s 			page 13


 596 0000 B0B5     		push	{r4, r5, r7, lr}
 597              	.LCFI19:
 598              		.cfi_def_cfa_offset 16
 599 0002 84B0     		sub	sp, sp, #16
 600              	.LCFI20:
 601              		.cfi_def_cfa_offset 32
 602 0004 00AF     		add	r7, sp, #0
 603              		.cfi_offset 14, -4
 604              		.cfi_offset 7, -8
 605              		.cfi_offset 5, -12
 606              		.cfi_offset 4, -16
 607              	.LCFI21:
 608              		.cfi_def_cfa_register 7
  86:.\PID.c       ****     if (mode != AUTOMATIC) return;
 609              		.loc 1 86 0
 610 0006 40F20003 		movw	r3, #:lower16:mode
 611 000a C0F20003 		movt	r3, #:upper16:mode
 612 000e 1B68     		ldr	r3, [r3, #0]
 613 0010 012B     		cmp	r3, #1
 614 0012 40F02581 		bne	.L58
 615              	.L44:
  87:.\PID.c       ****     
  88:.\PID.c       ****     // Proportional
  89:.\PID.c       ****     double error = Setpoint - Input;
 616              		.loc 1 89 0
 617 0016 40F20003 		movw	r3, #:lower16:Setpoint
 618 001a C0F20003 		movt	r3, #:upper16:Setpoint
 619 001e D3E90001 		ldrd	r0, [r3]
 620 0022 40F20003 		movw	r3, #:lower16:Input
 621 0026 C0F20003 		movt	r3, #:upper16:Input
 622 002a D3E90023 		ldrd	r2, [r3]
 623 002e FFF7FEFF 		bl	__aeabi_dsub
 624 0032 0246     		mov	r2, r0
 625 0034 0B46     		mov	r3, r1
 626 0036 C7E90023 		strd	r2, [r7]
  90:.\PID.c       ****     
  91:.\PID.c       ****     // Integral
  92:.\PID.c       ****     ITerm += ki*error;
 627              		.loc 1 92 0
 628 003a 40F20003 		movw	r3, #:lower16:ki
 629 003e C0F20003 		movt	r3, #:upper16:ki
 630 0042 D3E90023 		ldrd	r2, [r3]
 631 0046 1046     		mov	r0, r2
 632 0048 1946     		mov	r1, r3
 633 004a D7E90023 		ldrd	r2, [r7]
 634 004e FFF7FEFF 		bl	__aeabi_dmul
 635 0052 0246     		mov	r2, r0
 636 0054 0B46     		mov	r3, r1
 637 0056 1046     		mov	r0, r2
 638 0058 1946     		mov	r1, r3
 639 005a 40F20003 		movw	r3, #:lower16:ITerm
 640 005e C0F20003 		movt	r3, #:upper16:ITerm
 641 0062 D3E90023 		ldrd	r2, [r3]
 642 0066 FFF7FEFF 		bl	__aeabi_dadd
 643 006a 0246     		mov	r2, r0
 644 006c 0B46     		mov	r3, r1
 645 006e 1046     		mov	r0, r2
ARM GAS  C:\Users\dmtucker\AppData\Local\Temp\ccq6UoL9.s 			page 14


 646 0070 1946     		mov	r1, r3
 647 0072 40F20003 		movw	r3, #:lower16:ITerm
 648 0076 C0F20003 		movt	r3, #:upper16:ITerm
 649 007a C3E90001 		strd	r0, [r3]
  93:.\PID.c       ****     if      (ITerm > outMax) ITerm = outMax;
 650              		.loc 1 93 0
 651 007e 40F20003 		movw	r3, #:lower16:ITerm
 652 0082 C0F20003 		movt	r3, #:upper16:ITerm
 653 0086 D3E90001 		ldrd	r0, [r3]
 654 008a 40F20003 		movw	r3, #:lower16:outMax
 655 008e C0F20003 		movt	r3, #:upper16:outMax
 656 0092 D3E90023 		ldrd	r2, [r3]
 657 0096 4FF0000C 		mov	ip, #0
 658 009a 6446     		mov	r4, ip
 659 009c FFF7FEFF 		bl	__aeabi_dcmpgt
 660 00a0 0346     		mov	r3, r0
 661 00a2 002B     		cmp	r3, #0
 662 00a4 02D0     		beq	.L46
 663              	.L47:
 664 00a6 4FF00103 		mov	r3, #1
 665 00aa 1C46     		mov	r4, r3
 666              	.L46:
 667 00ac E3B2     		uxtb	r3, r4
 668 00ae 002B     		cmp	r3, #0
 669 00b0 0CD0     		beq	.L48
 670 00b2 40F20003 		movw	r3, #:lower16:outMax
 671 00b6 C0F20003 		movt	r3, #:upper16:outMax
 672 00ba D3E90001 		ldrd	r0, [r3]
 673 00be 40F20003 		movw	r3, #:lower16:ITerm
 674 00c2 C0F20003 		movt	r3, #:upper16:ITerm
 675 00c6 C3E90001 		strd	r0, [r3]
 676 00ca 25E0     		b	.L49
 677              	.L48:
  94:.\PID.c       ****     else if (ITerm < outMin) ITerm = outMin;
 678              		.loc 1 94 0
 679 00cc 40F20003 		movw	r3, #:lower16:ITerm
 680 00d0 C0F20003 		movt	r3, #:upper16:ITerm
 681 00d4 D3E90001 		ldrd	r0, [r3]
 682 00d8 40F20003 		movw	r3, #:lower16:outMin
 683 00dc C0F20003 		movt	r3, #:upper16:outMin
 684 00e0 D3E90023 		ldrd	r2, [r3]
 685 00e4 4FF0000C 		mov	ip, #0
 686 00e8 6446     		mov	r4, ip
 687 00ea FFF7FEFF 		bl	__aeabi_dcmplt
 688 00ee 0346     		mov	r3, r0
 689 00f0 002B     		cmp	r3, #0
 690 00f2 02D0     		beq	.L50
 691              	.L51:
 692 00f4 4FF00103 		mov	r3, #1
 693 00f8 1C46     		mov	r4, r3
 694              	.L50:
 695 00fa E3B2     		uxtb	r3, r4
 696 00fc 002B     		cmp	r3, #0
 697 00fe 0BD0     		beq	.L49
 698 0100 40F20003 		movw	r3, #:lower16:outMin
 699 0104 C0F20003 		movt	r3, #:upper16:outMin
 700 0108 D3E90001 		ldrd	r0, [r3]
ARM GAS  C:\Users\dmtucker\AppData\Local\Temp\ccq6UoL9.s 			page 15


 701 010c 40F20003 		movw	r3, #:lower16:ITerm
 702 0110 C0F20003 		movt	r3, #:upper16:ITerm
 703 0114 C3E90001 		strd	r0, [r3]
 704              	.L49:
  95:.\PID.c       ****     
  96:.\PID.c       ****     // Derivative
  97:.\PID.c       ****     double dInput = Input-lastInput;
 705              		.loc 1 97 0
 706 0118 40F20003 		movw	r3, #:lower16:Input
 707 011c C0F20003 		movt	r3, #:upper16:Input
 708 0120 D3E90001 		ldrd	r0, [r3]
 709 0124 40F20003 		movw	r3, #:lower16:lastInput
 710 0128 C0F20003 		movt	r3, #:upper16:lastInput
 711 012c D3E90023 		ldrd	r2, [r3]
 712 0130 FFF7FEFF 		bl	__aeabi_dsub
 713 0134 0246     		mov	r2, r0
 714 0136 0B46     		mov	r3, r1
 715 0138 C7E90223 		strd	r2, [r7, #8]
  98:.\PID.c       ****     lastInput = Input;
 716              		.loc 1 98 0
 717 013c 40F20003 		movw	r3, #:lower16:Input
 718 0140 C0F20003 		movt	r3, #:upper16:Input
 719 0144 D3E90001 		ldrd	r0, [r3]
 720 0148 40F20003 		movw	r3, #:lower16:lastInput
 721 014c C0F20003 		movt	r3, #:upper16:lastInput
 722 0150 C3E90001 		strd	r0, [r3]
  99:.\PID.c       **** 
 100:.\PID.c       ****     // controller
 101:.\PID.c       ****     Output = kp*error + ITerm - kd*dInput;
 723              		.loc 1 101 0
 724 0154 40F20003 		movw	r3, #:lower16:kp
 725 0158 C0F20003 		movt	r3, #:upper16:kp
 726 015c D3E90023 		ldrd	r2, [r3]
 727 0160 1046     		mov	r0, r2
 728 0162 1946     		mov	r1, r3
 729 0164 D7E90023 		ldrd	r2, [r7]
 730 0168 FFF7FEFF 		bl	__aeabi_dmul
 731 016c 0246     		mov	r2, r0
 732 016e 0B46     		mov	r3, r1
 733 0170 1046     		mov	r0, r2
 734 0172 1946     		mov	r1, r3
 735 0174 40F20003 		movw	r3, #:lower16:ITerm
 736 0178 C0F20003 		movt	r3, #:upper16:ITerm
 737 017c D3E90023 		ldrd	r2, [r3]
 738 0180 FFF7FEFF 		bl	__aeabi_dadd
 739 0184 0246     		mov	r2, r0
 740 0186 0B46     		mov	r3, r1
 741 0188 1446     		mov	r4, r2
 742 018a 1D46     		mov	r5, r3
 743 018c 40F20003 		movw	r3, #:lower16:kd
 744 0190 C0F20003 		movt	r3, #:upper16:kd
 745 0194 D3E90023 		ldrd	r2, [r3]
 746 0198 1046     		mov	r0, r2
 747 019a 1946     		mov	r1, r3
 748 019c D7E90223 		ldrd	r2, [r7, #8]
 749 01a0 FFF7FEFF 		bl	__aeabi_dmul
 750 01a4 0246     		mov	r2, r0
ARM GAS  C:\Users\dmtucker\AppData\Local\Temp\ccq6UoL9.s 			page 16


 751 01a6 0B46     		mov	r3, r1
 752 01a8 2046     		mov	r0, r4
 753 01aa 2946     		mov	r1, r5
 754 01ac FFF7FEFF 		bl	__aeabi_dsub
 755 01b0 0246     		mov	r2, r0
 756 01b2 0B46     		mov	r3, r1
 757 01b4 1046     		mov	r0, r2
 758 01b6 1946     		mov	r1, r3
 759 01b8 40F20003 		movw	r3, #:lower16:Output
 760 01bc C0F20003 		movt	r3, #:upper16:Output
 761 01c0 C3E90001 		strd	r0, [r3]
 102:.\PID.c       ****     if      (Output > outMax) Output = outMax;
 762              		.loc 1 102 0
 763 01c4 40F20003 		movw	r3, #:lower16:Output
 764 01c8 C0F20003 		movt	r3, #:upper16:Output
 765 01cc D3E90001 		ldrd	r0, [r3]
 766 01d0 40F20003 		movw	r3, #:lower16:outMax
 767 01d4 C0F20003 		movt	r3, #:upper16:outMax
 768 01d8 D3E90023 		ldrd	r2, [r3]
 769 01dc 4FF0000C 		mov	ip, #0
 770 01e0 6446     		mov	r4, ip
 771 01e2 FFF7FEFF 		bl	__aeabi_dcmpgt
 772 01e6 0346     		mov	r3, r0
 773 01e8 002B     		cmp	r3, #0
 774 01ea 02D0     		beq	.L52
 775              	.L53:
 776 01ec 4FF00103 		mov	r3, #1
 777 01f0 1C46     		mov	r4, r3
 778              	.L52:
 779 01f2 E3B2     		uxtb	r3, r4
 780 01f4 002B     		cmp	r3, #0
 781 01f6 0CD0     		beq	.L54
 782 01f8 40F20003 		movw	r3, #:lower16:outMax
 783 01fc C0F20003 		movt	r3, #:upper16:outMax
 784 0200 D3E90001 		ldrd	r0, [r3]
 785 0204 40F20003 		movw	r3, #:lower16:Output
 786 0208 C0F20003 		movt	r3, #:upper16:Output
 787 020c C3E90001 		strd	r0, [r3]
 788 0210 27E0     		b	.L57
 789              	.L54:
 103:.\PID.c       ****     else if (Output < outMin) Output = outMin;
 790              		.loc 1 103 0
 791 0212 40F20003 		movw	r3, #:lower16:Output
 792 0216 C0F20003 		movt	r3, #:upper16:Output
 793 021a D3E90001 		ldrd	r0, [r3]
 794 021e 40F20003 		movw	r3, #:lower16:outMin
 795 0222 C0F20003 		movt	r3, #:upper16:outMin
 796 0226 D3E90023 		ldrd	r2, [r3]
 797 022a 4FF0000C 		mov	ip, #0
 798 022e 6446     		mov	r4, ip
 799 0230 FFF7FEFF 		bl	__aeabi_dcmplt
 800 0234 0346     		mov	r3, r0
 801 0236 002B     		cmp	r3, #0
 802 0238 02D0     		beq	.L55
 803              	.L56:
 804 023a 4FF00103 		mov	r3, #1
 805 023e 1C46     		mov	r4, r3
ARM GAS  C:\Users\dmtucker\AppData\Local\Temp\ccq6UoL9.s 			page 17


 806              	.L55:
 807 0240 E3B2     		uxtb	r3, r4
 808 0242 002B     		cmp	r3, #0
 809 0244 0DD0     		beq	.L57
 810 0246 40F20003 		movw	r3, #:lower16:outMin
 811 024a C0F20003 		movt	r3, #:upper16:outMin
 812 024e D3E90001 		ldrd	r0, [r3]
 813 0252 40F20003 		movw	r3, #:lower16:Output
 814 0256 C0F20003 		movt	r3, #:upper16:Output
 815 025a C3E90001 		strd	r0, [r3]
 816 025e 00E0     		b	.L57
 817              	.L58:
 818              		.loc 1 86 0
 819 0260 00BF     		nop
 820              	.L57:
 104:.\PID.c       **** }
 821              		.loc 1 104 0
 822 0262 07F11007 		add	r7, r7, #16
 823 0266 BD46     		mov	sp, r7
 824 0268 B0BD     		pop	{r4, r5, r7, pc}
 825              		.cfi_endproc
 826              	.LFE36:
 827              		.size	PID_controller, .-PID_controller
 828 026a 00BF     		.section	.text.PID_output,"ax",%progbits
 829              		.align	2
 830              		.global	PID_output
 831              		.thumb
 832              		.thumb_func
 833              		.type	PID_output, %function
 834              	PID_output:
 835              	.LFB37:
 105:.\PID.c       **** 
 106:.\PID.c       **** 
 107:.\PID.c       **** 
 108:.\PID.c       **** 
 109:.\PID.c       **** double PID_output () {
 836              		.loc 1 109 0
 837              		.cfi_startproc
 838              		@ args = 0, pretend = 0, frame = 0
 839              		@ frame_needed = 1, uses_anonymous_args = 0
 840              		@ link register save eliminated.
 841 0000 80B4     		push	{r7}
 842              	.LCFI22:
 843              		.cfi_def_cfa_offset 4
 844 0002 00AF     		add	r7, sp, #0
 845              		.cfi_offset 7, -4
 846              	.LCFI23:
 847              		.cfi_def_cfa_register 7
 110:.\PID.c       ****     return Output;
 848              		.loc 1 110 0
 849 0004 40F20003 		movw	r3, #:lower16:Output
 850 0008 C0F20003 		movt	r3, #:upper16:Output
 851 000c D3E90023 		ldrd	r2, [r3]
 111:.\PID.c       **** }
 852              		.loc 1 111 0
 853 0010 1046     		mov	r0, r2
 854 0012 1946     		mov	r1, r3
ARM GAS  C:\Users\dmtucker\AppData\Local\Temp\ccq6UoL9.s 			page 18


 855 0014 BD46     		mov	sp, r7
 856 0016 80BC     		pop	{r7}
 857 0018 7047     		bx	lr
 858              		.cfi_endproc
 859              	.LFE37:
 860              		.size	PID_output, .-PID_output
 861 001a 00BF     		.text
 862              	.Letext0: