ARM GAS  C:\Users\dmtucker\AppData\Local\Temp\ccZ2Y4ln.s 			page 1


   1              		.syntax unified
   2              		.cpu cortex-m3
   3              		.fpu softvfp
   4              		.eabi_attribute 20, 1
   5              		.eabi_attribute 21, 1
   6              		.eabi_attribute 23, 3
   7              		.eabi_attribute 24, 1
   8              		.eabi_attribute 25, 1
   9              		.eabi_attribute 26, 1
  10              		.eabi_attribute 30, 6
  11              		.eabi_attribute 18, 4
  12              		.thumb
  13              		.file	"Timer_PM.c"
  20 0000 C7000000 		.text
  20      02006C00 
  20      00000201 
  20      FB0E0D00 
  20      01010101 
  21              	.Ltext0:
  22              		.cfi_sections	.debug_frame
  23              		.bss
  24              		.align	2
  25              	Timer_backup:
  26 0000 00000000 		.space	12
  26      00000000 
  26      00000000 
  27              		.section	.text.Timer_SaveConfig,"ax",%progbits
  28              		.align	2
  29              		.global	Timer_SaveConfig
  30              		.thumb
  31              		.thumb_func
  32              		.type	Timer_SaveConfig, %function
  33              	Timer_SaveConfig:
  34              	.LFB0:
  35              		.file 1 ".\\Generated_Source\\PSoC5\\Timer_PM.c"
   1:.\Generated_Source\PSoC5/Timer_PM.c **** /*******************************************************************************
   2:.\Generated_Source\PSoC5/Timer_PM.c **** * File Name: Timer_PM.c
   3:.\Generated_Source\PSoC5/Timer_PM.c **** * Version 2.40
   4:.\Generated_Source\PSoC5/Timer_PM.c **** *
   5:.\Generated_Source\PSoC5/Timer_PM.c **** *  Description:
   6:.\Generated_Source\PSoC5/Timer_PM.c **** *     This file provides the power management source code to API for the
   7:.\Generated_Source\PSoC5/Timer_PM.c **** *     Timer.
   8:.\Generated_Source\PSoC5/Timer_PM.c **** *
   9:.\Generated_Source\PSoC5/Timer_PM.c **** *   Note:
  10:.\Generated_Source\PSoC5/Timer_PM.c **** *     None
  11:.\Generated_Source\PSoC5/Timer_PM.c **** *
  12:.\Generated_Source\PSoC5/Timer_PM.c **** *******************************************************************************
  13:.\Generated_Source\PSoC5/Timer_PM.c **** * Copyright 2008-2012, Cypress Semiconductor Corporation.  All rights reserved.
  14:.\Generated_Source\PSoC5/Timer_PM.c **** * You may use this file only in accordance with the license, terms, conditions,
  15:.\Generated_Source\PSoC5/Timer_PM.c **** * disclaimers, and limitations in the end user license agreement accompanying
  16:.\Generated_Source\PSoC5/Timer_PM.c **** * the software package with which this file was provided.
ARM GAS  C:\Users\dmtucker\AppData\Local\Temp\ccZ2Y4ln.s 			page 2


  17:.\Generated_Source\PSoC5/Timer_PM.c **** ********************************************************************************/
  18:.\Generated_Source\PSoC5/Timer_PM.c **** 
  19:.\Generated_Source\PSoC5/Timer_PM.c **** #include "Timer.h"
  20:.\Generated_Source\PSoC5/Timer_PM.c **** static Timer_backupStruct Timer_backup;
  21:.\Generated_Source\PSoC5/Timer_PM.c **** 
  22:.\Generated_Source\PSoC5/Timer_PM.c **** 
  23:.\Generated_Source\PSoC5/Timer_PM.c **** /*******************************************************************************
  24:.\Generated_Source\PSoC5/Timer_PM.c **** * Function Name: Timer_SaveConfig
  25:.\Generated_Source\PSoC5/Timer_PM.c **** ********************************************************************************
  26:.\Generated_Source\PSoC5/Timer_PM.c **** *
  27:.\Generated_Source\PSoC5/Timer_PM.c **** * Summary:
  28:.\Generated_Source\PSoC5/Timer_PM.c **** *     Save the current user configuration
  29:.\Generated_Source\PSoC5/Timer_PM.c **** *
  30:.\Generated_Source\PSoC5/Timer_PM.c **** * Parameters:
  31:.\Generated_Source\PSoC5/Timer_PM.c **** *  void
  32:.\Generated_Source\PSoC5/Timer_PM.c **** *
  33:.\Generated_Source\PSoC5/Timer_PM.c **** * Return:
  34:.\Generated_Source\PSoC5/Timer_PM.c **** *  void
  35:.\Generated_Source\PSoC5/Timer_PM.c **** *
  36:.\Generated_Source\PSoC5/Timer_PM.c **** * Global variables:
  37:.\Generated_Source\PSoC5/Timer_PM.c **** *  Timer_backup:  Variables of this global structure are modified to
  38:.\Generated_Source\PSoC5/Timer_PM.c **** *  store the values of non retention configuration registers when Sleep() API is
  39:.\Generated_Source\PSoC5/Timer_PM.c **** *  called.
  40:.\Generated_Source\PSoC5/Timer_PM.c **** *
  41:.\Generated_Source\PSoC5/Timer_PM.c **** *******************************************************************************/
  42:.\Generated_Source\PSoC5/Timer_PM.c **** void Timer_SaveConfig(void) 
  43:.\Generated_Source\PSoC5/Timer_PM.c **** {
  36              		.loc 1 43 0
  37              		.cfi_startproc
  38              		@ args = 0, pretend = 0, frame = 0
  39              		@ frame_needed = 1, uses_anonymous_args = 0
  40 0000 80B5     		push	{r7, lr}
  41              	.LCFI0:
  42              		.cfi_def_cfa_offset 8
  43 0002 00AF     		add	r7, sp, #0
  44              		.cfi_offset 14, -4
  45              		.cfi_offset 7, -8
  46              	.LCFI1:
  47              		.cfi_def_cfa_register 7
  44:.\Generated_Source\PSoC5/Timer_PM.c ****     #if (!Timer_UsingFixedFunction)
  45:.\Generated_Source\PSoC5/Timer_PM.c ****         /* Backup the UDB non-rentention registers for PSoC5A*/
  46:.\Generated_Source\PSoC5/Timer_PM.c ****         #if (CY_PSOC5A)
  47:.\Generated_Source\PSoC5/Timer_PM.c ****             Timer_backup.TimerUdb = Timer_ReadCounter();
  48:.\Generated_Source\PSoC5/Timer_PM.c ****             Timer_backup.TimerPeriod = Timer_ReadPeriod();
  49:.\Generated_Source\PSoC5/Timer_PM.c ****             Timer_backup.InterruptMaskValue = Timer_STATUS_MASK;
  50:.\Generated_Source\PSoC5/Timer_PM.c ****             #if (Timer_UsingHWCaptureCounter)
  51:.\Generated_Source\PSoC5/Timer_PM.c ****                 Timer_backup.TimerCaptureCounter = Timer_ReadCaptureCount();
  52:.\Generated_Source\PSoC5/Timer_PM.c ****             #endif /* Backup the UDB non-rentention register capture counter for PSoC5A */
  53:.\Generated_Source\PSoC5/Timer_PM.c ****         #endif /* Backup the UDB non-rentention registers for PSoC5A */
  54:.\Generated_Source\PSoC5/Timer_PM.c **** 
  55:.\Generated_Source\PSoC5/Timer_PM.c ****         #if (CY_PSOC3 || CY_PSOC5LP)
  56:.\Generated_Source\PSoC5/Timer_PM.c ****             Timer_backup.TimerUdb = Timer_ReadCounter();
  48              		.loc 1 56 0
  49 0004 FFF7FEFF 		bl	Timer_ReadCounter
  50 0008 0246     		mov	r2, r0
  51 000a 40F20003 		movw	r3, #:lower16:Timer_backup
  52 000e C0F20003 		movt	r3, #:upper16:Timer_backup
ARM GAS  C:\Users\dmtucker\AppData\Local\Temp\ccZ2Y4ln.s 			page 3


  53 0012 5A60     		str	r2, [r3, #4]
  57:.\Generated_Source\PSoC5/Timer_PM.c ****             Timer_backup.InterruptMaskValue = Timer_STATUS_MASK;
  54              		.loc 1 57 0
  55 0014 46F28A43 		movw	r3, #:lower16:1073767562
  56 0018 C4F20003 		movt	r3, #:upper16:1073767562
  57 001c 1B78     		ldrb	r3, [r3, #0]
  58 001e DAB2     		uxtb	r2, r3
  59 0020 40F20003 		movw	r3, #:lower16:Timer_backup
  60 0024 C0F20003 		movt	r3, #:upper16:Timer_backup
  61 0028 1A72     		strb	r2, [r3, #8]
  58:.\Generated_Source\PSoC5/Timer_PM.c ****             #if (Timer_UsingHWCaptureCounter)
  59:.\Generated_Source\PSoC5/Timer_PM.c ****                 Timer_backup.TimerCaptureCounter = Timer_ReadCaptureCount();
  60:.\Generated_Source\PSoC5/Timer_PM.c ****             #endif /* Back Up capture counter register  */
  61:.\Generated_Source\PSoC5/Timer_PM.c ****         #endif /* Backup non retention registers, interrupt mask and capture counter for PSoC3 or P
  62:.\Generated_Source\PSoC5/Timer_PM.c **** 
  63:.\Generated_Source\PSoC5/Timer_PM.c ****         #if(!Timer_ControlRegRemoved)
  64:.\Generated_Source\PSoC5/Timer_PM.c ****             Timer_backup.TimerControlRegister = Timer_ReadControlRegister();
  62              		.loc 1 64 0
  63 002a FFF7FEFF 		bl	Timer_ReadControlRegister
  64 002e 0346     		mov	r3, r0
  65 0030 1A46     		mov	r2, r3
  66 0032 40F20003 		movw	r3, #:lower16:Timer_backup
  67 0036 C0F20003 		movt	r3, #:upper16:Timer_backup
  68 003a 5A72     		strb	r2, [r3, #9]
  65:.\Generated_Source\PSoC5/Timer_PM.c ****         #endif /* Backup the enable state of the Timer component */
  66:.\Generated_Source\PSoC5/Timer_PM.c ****     #endif /* Backup non retention registers in UDB implementation. All fixed function registers ar
  67:.\Generated_Source\PSoC5/Timer_PM.c **** }
  69              		.loc 1 67 0
  70 003c 80BD     		pop	{r7, pc}
  71              		.cfi_endproc
  72              	.LFE0:
  73              		.size	Timer_SaveConfig, .-Timer_SaveConfig
  74 003e 00BF     		.section	.text.Timer_RestoreConfig,"ax",%progbits
  75              		.align	2
  76              		.global	Timer_RestoreConfig
  77              		.thumb
  78              		.thumb_func
  79              		.type	Timer_RestoreConfig, %function
  80              	Timer_RestoreConfig:
  81              	.LFB1:
  68:.\Generated_Source\PSoC5/Timer_PM.c **** 
  69:.\Generated_Source\PSoC5/Timer_PM.c **** 
  70:.\Generated_Source\PSoC5/Timer_PM.c **** /*******************************************************************************
  71:.\Generated_Source\PSoC5/Timer_PM.c **** * Function Name: Timer_RestoreConfig
  72:.\Generated_Source\PSoC5/Timer_PM.c **** ********************************************************************************
  73:.\Generated_Source\PSoC5/Timer_PM.c **** *
  74:.\Generated_Source\PSoC5/Timer_PM.c **** * Summary:
  75:.\Generated_Source\PSoC5/Timer_PM.c **** *  Restores the current user configuration.
  76:.\Generated_Source\PSoC5/Timer_PM.c **** *
  77:.\Generated_Source\PSoC5/Timer_PM.c **** * Parameters:
  78:.\Generated_Source\PSoC5/Timer_PM.c **** *  void
  79:.\Generated_Source\PSoC5/Timer_PM.c **** *
  80:.\Generated_Source\PSoC5/Timer_PM.c **** * Return:
  81:.\Generated_Source\PSoC5/Timer_PM.c **** *  void
  82:.\Generated_Source\PSoC5/Timer_PM.c **** *
  83:.\Generated_Source\PSoC5/Timer_PM.c **** * Global variables:
  84:.\Generated_Source\PSoC5/Timer_PM.c **** *  Timer_backup:  Variables of this global structure are used to
ARM GAS  C:\Users\dmtucker\AppData\Local\Temp\ccZ2Y4ln.s 			page 4


  85:.\Generated_Source\PSoC5/Timer_PM.c **** *  restore the values of non retention registers on wakeup from sleep mode.
  86:.\Generated_Source\PSoC5/Timer_PM.c **** *
  87:.\Generated_Source\PSoC5/Timer_PM.c **** *******************************************************************************/
  88:.\Generated_Source\PSoC5/Timer_PM.c **** void Timer_RestoreConfig(void) 
  89:.\Generated_Source\PSoC5/Timer_PM.c **** {   
  82              		.loc 1 89 0
  83              		.cfi_startproc
  84              		@ args = 0, pretend = 0, frame = 0
  85              		@ frame_needed = 1, uses_anonymous_args = 0
  86 0000 80B5     		push	{r7, lr}
  87              	.LCFI2:
  88              		.cfi_def_cfa_offset 8
  89 0002 00AF     		add	r7, sp, #0
  90              		.cfi_offset 14, -4
  91              		.cfi_offset 7, -8
  92              	.LCFI3:
  93              		.cfi_def_cfa_register 7
  90:.\Generated_Source\PSoC5/Timer_PM.c ****     #if (!Timer_UsingFixedFunction)
  91:.\Generated_Source\PSoC5/Timer_PM.c ****         /* Restore the UDB non-rentention registers for PSoC5A */
  92:.\Generated_Source\PSoC5/Timer_PM.c ****         #if (CY_PSOC5A)
  93:.\Generated_Source\PSoC5/Timer_PM.c ****             /* Interrupt State Backup for Critical Region*/
  94:.\Generated_Source\PSoC5/Timer_PM.c ****             uint8 Timer_interruptState;
  95:.\Generated_Source\PSoC5/Timer_PM.c **** 
  96:.\Generated_Source\PSoC5/Timer_PM.c ****             Timer_WriteCounter(Timer_backup.TimerUdb);
  97:.\Generated_Source\PSoC5/Timer_PM.c ****             Timer_WritePeriod(Timer_backup.TimerPeriod);
  98:.\Generated_Source\PSoC5/Timer_PM.c ****             /* CyEnterCriticalRegion and CyExitCriticalRegion are used to mark following region cri
  99:.\Generated_Source\PSoC5/Timer_PM.c ****             /* Enter Critical Region*/
 100:.\Generated_Source\PSoC5/Timer_PM.c ****             Timer_interruptState = CyEnterCriticalSection();
 101:.\Generated_Source\PSoC5/Timer_PM.c ****             /* Use the interrupt output of the status register for IRQ output */
 102:.\Generated_Source\PSoC5/Timer_PM.c ****             Timer_STATUS_AUX_CTRL |= Timer_STATUS_ACTL_INT_EN_MASK;
 103:.\Generated_Source\PSoC5/Timer_PM.c ****             /* Exit Critical Region*/
 104:.\Generated_Source\PSoC5/Timer_PM.c ****             CyExitCriticalSection(Timer_interruptState);
 105:.\Generated_Source\PSoC5/Timer_PM.c ****             Timer_STATUS_MASK =Timer_backup.InterruptMaskValue;
 106:.\Generated_Source\PSoC5/Timer_PM.c ****             #if (Timer_UsingHWCaptureCounter)
 107:.\Generated_Source\PSoC5/Timer_PM.c ****                 Timer_SetCaptureCount(Timer_backup.TimerCaptureCounter);
 108:.\Generated_Source\PSoC5/Timer_PM.c ****             #endif /* Restore the UDB non-rentention register capture counter for PSoC5A */
 109:.\Generated_Source\PSoC5/Timer_PM.c ****         #endif /* Restore the UDB non-rentention registers for PSoC5A */
 110:.\Generated_Source\PSoC5/Timer_PM.c **** 
 111:.\Generated_Source\PSoC5/Timer_PM.c ****         #if (CY_PSOC3 || CY_PSOC5LP)
 112:.\Generated_Source\PSoC5/Timer_PM.c ****             Timer_WriteCounter(Timer_backup.TimerUdb);
  94              		.loc 1 112 0
  95 0004 40F20003 		movw	r3, #:lower16:Timer_backup
  96 0008 C0F20003 		movt	r3, #:upper16:Timer_backup
  97 000c 5B68     		ldr	r3, [r3, #4]
  98 000e 1846     		mov	r0, r3
  99 0010 FFF7FEFF 		bl	Timer_WriteCounter
 113:.\Generated_Source\PSoC5/Timer_PM.c ****             Timer_STATUS_MASK =Timer_backup.InterruptMaskValue;
 100              		.loc 1 113 0
 101 0014 46F28A43 		movw	r3, #:lower16:1073767562
 102 0018 C4F20003 		movt	r3, #:upper16:1073767562
 103 001c 40F20002 		movw	r2, #:lower16:Timer_backup
 104 0020 C0F20002 		movt	r2, #:upper16:Timer_backup
 105 0024 127A     		ldrb	r2, [r2, #8]	@ zero_extendqisi2
 106 0026 1A70     		strb	r2, [r3, #0]
 114:.\Generated_Source\PSoC5/Timer_PM.c ****             #if (Timer_UsingHWCaptureCounter)
 115:.\Generated_Source\PSoC5/Timer_PM.c ****                 Timer_SetCaptureCount(Timer_backup.TimerCaptureCounter);
 116:.\Generated_Source\PSoC5/Timer_PM.c ****             #endif /* Restore Capture counter register*/
ARM GAS  C:\Users\dmtucker\AppData\Local\Temp\ccZ2Y4ln.s 			page 5


 117:.\Generated_Source\PSoC5/Timer_PM.c ****         #endif /* Restore up non retention registers, interrupt mask and capture counter for PSoC3 
 118:.\Generated_Source\PSoC5/Timer_PM.c **** 
 119:.\Generated_Source\PSoC5/Timer_PM.c ****         #if(!Timer_ControlRegRemoved)
 120:.\Generated_Source\PSoC5/Timer_PM.c ****             Timer_WriteControlRegister(Timer_backup.TimerControlRegister);
 107              		.loc 1 120 0
 108 0028 40F20003 		movw	r3, #:lower16:Timer_backup
 109 002c C0F20003 		movt	r3, #:upper16:Timer_backup
 110 0030 5B7A     		ldrb	r3, [r3, #9]	@ zero_extendqisi2
 111 0032 1846     		mov	r0, r3
 112 0034 FFF7FEFF 		bl	Timer_WriteControlRegister
 121:.\Generated_Source\PSoC5/Timer_PM.c ****         #endif /* Restore the enable state of the Timer component */
 122:.\Generated_Source\PSoC5/Timer_PM.c ****     #endif /* Restore non retention registers in the UDB implementation only */
 123:.\Generated_Source\PSoC5/Timer_PM.c **** }
 113              		.loc 1 123 0
 114 0038 80BD     		pop	{r7, pc}
 115              		.cfi_endproc
 116              	.LFE1:
 117              		.size	Timer_RestoreConfig, .-Timer_RestoreConfig
 118 003a 00BF     		.section	.text.Timer_Sleep,"ax",%progbits
 119              		.align	2
 120              		.global	Timer_Sleep
 121              		.thumb
 122              		.thumb_func
 123              		.type	Timer_Sleep, %function
 124              	Timer_Sleep:
 125              	.LFB2:
 124:.\Generated_Source\PSoC5/Timer_PM.c **** 
 125:.\Generated_Source\PSoC5/Timer_PM.c **** 
 126:.\Generated_Source\PSoC5/Timer_PM.c **** /*******************************************************************************
 127:.\Generated_Source\PSoC5/Timer_PM.c **** * Function Name: Timer_Sleep
 128:.\Generated_Source\PSoC5/Timer_PM.c **** ********************************************************************************
 129:.\Generated_Source\PSoC5/Timer_PM.c **** *
 130:.\Generated_Source\PSoC5/Timer_PM.c **** * Summary:
 131:.\Generated_Source\PSoC5/Timer_PM.c **** *     Stop and Save the user configuration
 132:.\Generated_Source\PSoC5/Timer_PM.c **** *
 133:.\Generated_Source\PSoC5/Timer_PM.c **** * Parameters:
 134:.\Generated_Source\PSoC5/Timer_PM.c **** *  void
 135:.\Generated_Source\PSoC5/Timer_PM.c **** *
 136:.\Generated_Source\PSoC5/Timer_PM.c **** * Return:
 137:.\Generated_Source\PSoC5/Timer_PM.c **** *  void
 138:.\Generated_Source\PSoC5/Timer_PM.c **** *
 139:.\Generated_Source\PSoC5/Timer_PM.c **** * Global variables:
 140:.\Generated_Source\PSoC5/Timer_PM.c **** *  Timer_backup.TimerEnableState:  Is modified depending on the
 141:.\Generated_Source\PSoC5/Timer_PM.c **** *  enable state of the block before entering sleep mode.
 142:.\Generated_Source\PSoC5/Timer_PM.c **** *
 143:.\Generated_Source\PSoC5/Timer_PM.c **** *******************************************************************************/
 144:.\Generated_Source\PSoC5/Timer_PM.c **** void Timer_Sleep(void) 
 145:.\Generated_Source\PSoC5/Timer_PM.c **** {
 126              		.loc 1 145 0
 127              		.cfi_startproc
 128              		@ args = 0, pretend = 0, frame = 0
 129              		@ frame_needed = 1, uses_anonymous_args = 0
 130 0000 80B5     		push	{r7, lr}
 131              	.LCFI4:
 132              		.cfi_def_cfa_offset 8
 133 0002 00AF     		add	r7, sp, #0
 134              		.cfi_offset 14, -4
ARM GAS  C:\Users\dmtucker\AppData\Local\Temp\ccZ2Y4ln.s 			page 6


 135              		.cfi_offset 7, -8
 136              	.LCFI5:
 137              		.cfi_def_cfa_register 7
 146:.\Generated_Source\PSoC5/Timer_PM.c ****     #if(!Timer_ControlRegRemoved)
 147:.\Generated_Source\PSoC5/Timer_PM.c ****         /* Save Counter's enable state */
 148:.\Generated_Source\PSoC5/Timer_PM.c ****         if(Timer_CTRL_ENABLE == (Timer_CONTROL & Timer_CTRL_ENABLE))
 138              		.loc 1 148 0
 139 0004 46F27B43 		movw	r3, #:lower16:1073767547
 140 0008 C4F20003 		movt	r3, #:upper16:1073767547
 141 000c 1B78     		ldrb	r3, [r3, #0]
 142 000e DBB2     		uxtb	r3, r3
 143 0010 5BB2     		sxtb	r3, r3
 144 0012 002B     		cmp	r3, #0
 145 0014 07DA     		bge	.L6
 149:.\Generated_Source\PSoC5/Timer_PM.c ****         {
 150:.\Generated_Source\PSoC5/Timer_PM.c ****             /* Timer is enabled */
 151:.\Generated_Source\PSoC5/Timer_PM.c ****             Timer_backup.TimerEnableState = 1u;
 146              		.loc 1 151 0
 147 0016 40F20003 		movw	r3, #:lower16:Timer_backup
 148 001a C0F20003 		movt	r3, #:upper16:Timer_backup
 149 001e 4FF00102 		mov	r2, #1
 150 0022 1A70     		strb	r2, [r3, #0]
 151 0024 06E0     		b	.L7
 152              	.L6:
 152:.\Generated_Source\PSoC5/Timer_PM.c ****         }
 153:.\Generated_Source\PSoC5/Timer_PM.c ****         else
 154:.\Generated_Source\PSoC5/Timer_PM.c ****         {
 155:.\Generated_Source\PSoC5/Timer_PM.c ****             /* Timer is disabled */
 156:.\Generated_Source\PSoC5/Timer_PM.c ****             Timer_backup.TimerEnableState = 0u;
 153              		.loc 1 156 0
 154 0026 40F20003 		movw	r3, #:lower16:Timer_backup
 155 002a C0F20003 		movt	r3, #:upper16:Timer_backup
 156 002e 4FF00002 		mov	r2, #0
 157 0032 1A70     		strb	r2, [r3, #0]
 158              	.L7:
 157:.\Generated_Source\PSoC5/Timer_PM.c ****         }
 158:.\Generated_Source\PSoC5/Timer_PM.c ****     #endif /* Back up enable state from the Timer control register */
 159:.\Generated_Source\PSoC5/Timer_PM.c ****     Timer_Stop();
 159              		.loc 1 159 0
 160 0034 FFF7FEFF 		bl	Timer_Stop
 160:.\Generated_Source\PSoC5/Timer_PM.c ****     Timer_SaveConfig();
 161              		.loc 1 160 0
 162 0038 FFF7FEFF 		bl	Timer_SaveConfig
 161:.\Generated_Source\PSoC5/Timer_PM.c **** }
 163              		.loc 1 161 0
 164 003c 80BD     		pop	{r7, pc}
 165              		.cfi_endproc
 166              	.LFE2:
 167              		.size	Timer_Sleep, .-Timer_Sleep
 168 003e 00BF     		.section	.text.Timer_Wakeup,"ax",%progbits
 169              		.align	2
 170              		.global	Timer_Wakeup
 171              		.thumb
 172              		.thumb_func
 173              		.type	Timer_Wakeup, %function
 174              	Timer_Wakeup:
 175              	.LFB3:
ARM GAS  C:\Users\dmtucker\AppData\Local\Temp\ccZ2Y4ln.s 			page 7


 162:.\Generated_Source\PSoC5/Timer_PM.c **** 
 163:.\Generated_Source\PSoC5/Timer_PM.c **** 
 164:.\Generated_Source\PSoC5/Timer_PM.c **** /*******************************************************************************
 165:.\Generated_Source\PSoC5/Timer_PM.c **** * Function Name: Timer_Wakeup
 166:.\Generated_Source\PSoC5/Timer_PM.c **** ********************************************************************************
 167:.\Generated_Source\PSoC5/Timer_PM.c **** *
 168:.\Generated_Source\PSoC5/Timer_PM.c **** * Summary:
 169:.\Generated_Source\PSoC5/Timer_PM.c **** *  Restores and enables the user configuration
 170:.\Generated_Source\PSoC5/Timer_PM.c **** *
 171:.\Generated_Source\PSoC5/Timer_PM.c **** * Parameters:
 172:.\Generated_Source\PSoC5/Timer_PM.c **** *  void
 173:.\Generated_Source\PSoC5/Timer_PM.c **** *
 174:.\Generated_Source\PSoC5/Timer_PM.c **** * Return:
 175:.\Generated_Source\PSoC5/Timer_PM.c **** *  void
 176:.\Generated_Source\PSoC5/Timer_PM.c **** *
 177:.\Generated_Source\PSoC5/Timer_PM.c **** * Global variables:
 178:.\Generated_Source\PSoC5/Timer_PM.c **** *  Timer_backup.enableState:  Is used to restore the enable state of
 179:.\Generated_Source\PSoC5/Timer_PM.c **** *  block on wakeup from sleep mode.
 180:.\Generated_Source\PSoC5/Timer_PM.c **** *
 181:.\Generated_Source\PSoC5/Timer_PM.c **** *******************************************************************************/
 182:.\Generated_Source\PSoC5/Timer_PM.c **** void Timer_Wakeup(void) 
 183:.\Generated_Source\PSoC5/Timer_PM.c **** {
 176              		.loc 1 183 0
 177              		.cfi_startproc
 178              		@ args = 0, pretend = 0, frame = 0
 179              		@ frame_needed = 1, uses_anonymous_args = 0
 180 0000 80B5     		push	{r7, lr}
 181              	.LCFI6:
 182              		.cfi_def_cfa_offset 8
 183 0002 00AF     		add	r7, sp, #0
 184              		.cfi_offset 14, -4
 185              		.cfi_offset 7, -8
 186              	.LCFI7:
 187              		.cfi_def_cfa_register 7
 184:.\Generated_Source\PSoC5/Timer_PM.c ****     Timer_RestoreConfig();
 188              		.loc 1 184 0
 189 0004 FFF7FEFF 		bl	Timer_RestoreConfig
 185:.\Generated_Source\PSoC5/Timer_PM.c ****     #if(!Timer_ControlRegRemoved)
 186:.\Generated_Source\PSoC5/Timer_PM.c ****         if(Timer_backup.TimerEnableState == 1u)
 190              		.loc 1 186 0
 191 0008 40F20003 		movw	r3, #:lower16:Timer_backup
 192 000c C0F20003 		movt	r3, #:upper16:Timer_backup
 193 0010 1B78     		ldrb	r3, [r3, #0]	@ zero_extendqisi2
 194 0012 012B     		cmp	r3, #1
 195 0014 01D1     		bne	.L11
 187:.\Generated_Source\PSoC5/Timer_PM.c ****         {     /* Enable Timer's operation */
 188:.\Generated_Source\PSoC5/Timer_PM.c ****                 Timer_Enable();
 196              		.loc 1 188 0
 197 0016 FFF7FEFF 		bl	Timer_Enable
 198              	.L11:
 189:.\Generated_Source\PSoC5/Timer_PM.c ****         } /* Do nothing if Timer was disabled before */
 190:.\Generated_Source\PSoC5/Timer_PM.c ****     #endif /* Remove this code section if Control register is removed */
 191:.\Generated_Source\PSoC5/Timer_PM.c **** }
 199              		.loc 1 191 0
 200 001a 80BD     		pop	{r7, pc}
 201              		.cfi_endproc
 202              	.LFE3:
ARM GAS  C:\Users\dmtucker\AppData\Local\Temp\ccZ2Y4ln.s 			page 8


 203              		.size	Timer_Wakeup, .-Timer_Wakeup
 204              		.text
 205              	.Letext0: