ARM GAS  C:\DOCUME~1\david\LOCALS~1\Temp\ccWbOjJF.s 			page 1


   1              		.syntax unified
   2              		.cpu cortex-m3
   3              		.fpu softvfp
   4              		.eabi_attribute 20, 1
   5              		.eabi_attribute 21, 1
   6              		.eabi_attribute 23, 3
   7              		.eabi_attribute 24, 1
   8              		.eabi_attribute 25, 1
   9              		.eabi_attribute 26, 1
  10              		.eabi_attribute 30, 6
  11              		.eabi_attribute 18, 4
  12              		.thumb
  13              		.file	"main.c"
  20 0000 B2020000 		.text
  20      02005300 
  20      00000201 
  20      FB0E0D00 
  20      01010101 
  21              	.Ltext0:
  22              		.cfi_sections	.debug_frame
  23              		.global	player1_turn
  24              		.data
  25              		.type	player1_turn, %object
  26              		.size	player1_turn, 1
  27              	player1_turn:
  28 0000 01       		.byte	1
  29              		.global	player2_local
  30              		.type	player2_local, %object
  31              		.size	player2_local, 1
  32              	player2_local:
  33 0001 01       		.byte	1
  34              		.global	player1_color
  35              		.type	player1_color, %object
  36              		.size	player1_color, 1
  37              	player1_color:
  38 0002 01       		.byte	1
  39              		.global	player2_color
  40              		.type	player2_color, %object
  41              		.size	player2_color, 1
  42              	player2_color:
  43 0003 04       		.byte	4
  44              		.comm	player1,64,4
  45              		.comm	player2,64,4
  46              		.comm	last_move,2,4
  47              		.global	locating
  48              		.bss
  49              		.type	locating, %object
  50              		.size	locating, 1
  51              	locating:
  52 0000 00       		.space	1
  53              		.section	.text.toggle,"ax",%progbits
ARM GAS  C:\DOCUME~1\david\LOCALS~1\Temp\ccWbOjJF.s 			page 2


  54              		.align	2
  55              		.global	toggle
  56              		.thumb
  57              		.thumb_func
  58              		.type	toggle, %function
  59              	toggle:
  60              	.LFB29:
  61              		.file 1 ".\\main.c"
   1:.\main.c      **** #include <device.h>
   2:.\main.c      **** #include <stdbool.h>
   3:.\main.c      **** #include <display.h>
   4:.\main.c      **** #include <matrix.h>
   5:.\main.c      **** 
   6:.\main.c      **** #define BUS_CLK_FREQ    24000000 // Hz
   7:.\main.c      **** #define REFRESH_RATE    3000     // [370,BUS_CLK_FREQ] Hz
   8:.\main.c      **** #define XBEE_CONFIGURED false
   9:.\main.c      **** #define XBEE_VERIFY     true
  10:.\main.c      **** #define XBEE_GUARD_TIME 1000     // ms
  11:.\main.c      **** #define XBEE_CHANNEL    0x0C     // [0x0B,0x1A]
  12:.\main.c      **** #define XBEE_REMEMBER   false
  13:.\main.c      **** #define PLAYER1_ID      0xDA     // [0x00,0xFF]
  14:.\main.c      **** #define PLAYER2_ID      0x85     // ID > max(MATRIX_ROWS,MATRIX_COLS) recommended
  15:.\main.c      **** #define PACKET_TYPE     0x00     // version
  16:.\main.c      **** 
  17:.\main.c      **** typedef struct play {
  18:.\main.c      ****     uint8  row;
  19:.\main.c      ****     uint8  col;
  20:.\main.c      **** } play_t;
  21:.\main.c      **** 
  22:.\main.c      **** bool  player1_turn  = true;
  23:.\main.c      **** bool  player2_local = true;
  24:.\main.c      **** uint8 player1_color = RED;
  25:.\main.c      **** uint8 player2_color = BLUE;
  26:.\main.c      **** //uint8 XBee_channel  = XBEE_CHANNEL;
  27:.\main.c      **** 
  28:.\main.c      **** bool  player1[MATRIX_ROWS][MATRIX_COLS];
  29:.\main.c      **** bool  player2[MATRIX_ROWS][MATRIX_COLS];
  30:.\main.c      **** play_t last_move;
  31:.\main.c      **** 
  32:.\main.c      **** void  initialize     ( );
  33:.\main.c      **** void  clear_board    ( );
  34:.\main.c      **** void  configure_XBee ( );//uint8 channel );
  35:.\main.c      **** uint8 get_move       ( );
  36:.\main.c      **** uint8 receive_move   ( ); 
  37:.\main.c      **** void  receive_packet ( play_t * move );
  38:.\main.c      **** void  send_packet    ( play_t * move );
  39:.\main.c      **** void  send_move      ( uint8 row , uint8 col );
  40:.\main.c      **** uint8 animate        ( uint8 c );
  41:.\main.c      **** void  winner_check   ( );
  42:.\main.c      **** void  cleanup        ( );
  43:.\main.c      **** 
  44:.\main.c      **** //void  receive_packet ( packet_t * move );
  45:.\main.c      **** //void  show_packet    ( packet_t * move );
  46:.\main.c      **** //void  send_packet    ( packet_t * move );
  47:.\main.c      **** //void  send_move      ( uint8 r , uint8 c ); 
  48:.\main.c      **** 
  49:.\main.c      **** 
ARM GAS  C:\DOCUME~1\david\LOCALS~1\Temp\ccWbOjJF.s 			page 3


  50:.\main.c      **** 
  51:.\main.c      **** 
  52:.\main.c      **** bool locating = false;//, channel_change = false;
  53:.\main.c      **** CY_ISR (toggle) {
  62              		.loc 1 53 0
  63              		.cfi_startproc
  64              		@ args = 0, pretend = 0, frame = 0
  65              		@ frame_needed = 1, uses_anonymous_args = 0
  66              		@ link register save eliminated.
  67 0000 80B4     		push	{r7}
  68              	.LCFI0:
  69              		.cfi_def_cfa_offset 4
  70 0002 00AF     		add	r7, sp, #0
  71              		.cfi_offset 7, -4
  72              	.LCFI1:
  73              		.cfi_def_cfa_register 7
  54:.\main.c      ****     if (locating) player2_local = !player2_local;
  74              		.loc 1 54 0
  75 0004 40F20003 		movw	r3, #:lower16:locating
  76 0008 C0F20003 		movt	r3, #:upper16:locating
  77 000c 1B78     		ldrb	r3, [r3, #0]	@ zero_extendqisi2
  78 000e 002B     		cmp	r3, #0
  79 0010 0DD0     		beq	.L3
  80 0012 40F20003 		movw	r3, #:lower16:player2_local
  81 0016 C0F20003 		movt	r3, #:upper16:player2_local
  82 001a 1B78     		ldrb	r3, [r3, #0]	@ zero_extendqisi2
  83 001c 83F00103 		eor	r3, r3, #1
  84 0020 DBB2     		uxtb	r3, r3
  85 0022 DAB2     		uxtb	r2, r3
  86 0024 40F20003 		movw	r3, #:lower16:player2_local
  87 0028 C0F20003 		movt	r3, #:upper16:player2_local
  88 002c 1A70     		strb	r2, [r3, #0]
  89              	.L3:
  55:.\main.c      ****     //else channel_change = true;
  56:.\main.c      **** }
  90              		.loc 1 56 0
  91 002e BD46     		mov	sp, r7
  92 0030 80BC     		pop	{r7}
  93 0032 7047     		bx	lr
  94              		.cfi_endproc
  95              	.LFE29:
  96              		.size	toggle, .-toggle
  97              		.global	rPos
  98              		.data
  99              		.type	rPos, %object
 100              		.size	rPos, 1
 101              	rPos:
 102 0004 FF       		.byte	-1
 103              		.global	cPos
 104              		.type	cPos, %object
 105              		.size	cPos, 1
 106              	cPos:
 107 0005 FF       		.byte	-1
 108              		.section	.text.refresh,"ax",%progbits
 109              		.align	2
 110              		.global	refresh
 111              		.thumb
ARM GAS  C:\DOCUME~1\david\LOCALS~1\Temp\ccWbOjJF.s 			page 4


 112              		.thumb_func
 113              		.type	refresh, %function
 114              	refresh:
 115              	.LFB30:
  57:.\main.c      **** 
  58:.\main.c      **** 
  59:.\main.c      **** 
  60:.\main.c      **** 
  61:.\main.c      **** uint8 rPos = -1, cPos = -1;
  62:.\main.c      **** CY_ISR (refresh) {
 116              		.loc 1 62 0
 117              		.cfi_startproc
 118              		@ args = 0, pretend = 0, frame = 8
 119              		@ frame_needed = 1, uses_anonymous_args = 0
 120 0000 80B5     		push	{r7, lr}
 121              	.LCFI2:
 122              		.cfi_def_cfa_offset 8
 123 0002 82B0     		sub	sp, sp, #8
 124              	.LCFI3:
 125              		.cfi_def_cfa_offset 16
 126 0004 00AF     		add	r7, sp, #0
 127              		.cfi_offset 14, -4
 128              		.cfi_offset 7, -8
 129              	.LCFI4:
 130              		.cfi_def_cfa_register 7
 131              	.LBB2:
  63:.\main.c      ****     if (false) {
  64:.\main.c      ****     //if (SERIAL) {
  65:.\main.c      ****         /**/
  66:.\main.c      ****         matrix_deluminate();
  67:.\main.c      ****         if (++cPos > MATRIX_COLS) cPos = 0;
  68:.\main.c      ****         for (rPos=0; rPos < MATRIX_ROWS ;++rPos) {
  69:.\main.c      ****             if (player1[rPos][cPos]) matrix_illuminate(rPos,cPos,player1_color);
  70:.\main.c      ****             if (player2[rPos][cPos]) matrix_illuminate(rPos,cPos,player2_color);
  71:.\main.c      ****         }
  72:.\main.c      ****         /**
  73:.\main.c      ****         matrix_deluminate();
  74:.\main.c      ****         if (++rPos > MATRIX_ROWS) rPos = 0;
  75:.\main.c      ****         for (cPos=0; cPos < MATRIX_COLS ;++cPos) {
  76:.\main.c      ****             if (player1[rPos][cPos]) matrix_illuminate(rPos,cPos,player1_color);
  77:.\main.c      ****             if (player2[rPos][cPos]) matrix_illuminate(rPos,cPos,player2_color);
  78:.\main.c      ****         }
  79:.\main.c      ****         /**/
  80:.\main.c      ****     }
  81:.\main.c      ****     else {
  82:.\main.c      ****         uint16 cells = MATRIX_ROWS*MATRIX_COLS;
 132              		.loc 1 82 0
 133 0006 4FF04003 		mov	r3, #64
 134 000a FB80     		strh	r3, [r7, #6]	@ movhi
  83:.\main.c      ****         while (cells-- > 0) {
 135              		.loc 1 83 0
 136 000c 93E0     		b	.L5
 137              	.L9:
  84:.\main.c      ****             if (++cPos > MATRIX_COLS) {
 138              		.loc 1 84 0
 139 000e 40F20003 		movw	r3, #:lower16:cPos
 140 0012 C0F20003 		movt	r3, #:upper16:cPos
ARM GAS  C:\DOCUME~1\david\LOCALS~1\Temp\ccWbOjJF.s 			page 5


 141 0016 1B78     		ldrb	r3, [r3, #0]	@ zero_extendqisi2
 142 0018 03F10103 		add	r3, r3, #1
 143 001c DAB2     		uxtb	r2, r3
 144 001e 40F20003 		movw	r3, #:lower16:cPos
 145 0022 C0F20003 		movt	r3, #:upper16:cPos
 146 0026 1A70     		strb	r2, [r3, #0]
 147 0028 40F20003 		movw	r3, #:lower16:cPos
 148 002c C0F20003 		movt	r3, #:upper16:cPos
 149 0030 1B78     		ldrb	r3, [r3, #0]	@ zero_extendqisi2
 150 0032 082B     		cmp	r3, #8
 151 0034 21D9     		bls	.L6
  85:.\main.c      ****                 cPos = 0;
 152              		.loc 1 85 0
 153 0036 40F20003 		movw	r3, #:lower16:cPos
 154 003a C0F20003 		movt	r3, #:upper16:cPos
 155 003e 4FF00002 		mov	r2, #0
 156 0042 1A70     		strb	r2, [r3, #0]
  86:.\main.c      ****                 if (++rPos > MATRIX_ROWS) rPos = 0;
 157              		.loc 1 86 0
 158 0044 40F20003 		movw	r3, #:lower16:rPos
 159 0048 C0F20003 		movt	r3, #:upper16:rPos
 160 004c 1B78     		ldrb	r3, [r3, #0]	@ zero_extendqisi2
 161 004e 03F10103 		add	r3, r3, #1
 162 0052 DAB2     		uxtb	r2, r3
 163 0054 40F20003 		movw	r3, #:lower16:rPos
 164 0058 C0F20003 		movt	r3, #:upper16:rPos
 165 005c 1A70     		strb	r2, [r3, #0]
 166 005e 40F20003 		movw	r3, #:lower16:rPos
 167 0062 C0F20003 		movt	r3, #:upper16:rPos
 168 0066 1B78     		ldrb	r3, [r3, #0]	@ zero_extendqisi2
 169 0068 082B     		cmp	r3, #8
 170 006a 06D9     		bls	.L6
 171 006c 40F20003 		movw	r3, #:lower16:rPos
 172 0070 C0F20003 		movt	r3, #:upper16:rPos
 173 0074 4FF00002 		mov	r2, #0
 174 0078 1A70     		strb	r2, [r3, #0]
 175              	.L6:
  87:.\main.c      ****             }
  88:.\main.c      ****             if (player1[rPos][cPos]) {
 176              		.loc 1 88 0
 177 007a 40F20003 		movw	r3, #:lower16:rPos
 178 007e C0F20003 		movt	r3, #:upper16:rPos
 179 0082 1B78     		ldrb	r3, [r3, #0]	@ zero_extendqisi2
 180 0084 1946     		mov	r1, r3
 181 0086 40F20003 		movw	r3, #:lower16:cPos
 182 008a C0F20003 		movt	r3, #:upper16:cPos
 183 008e 1B78     		ldrb	r3, [r3, #0]	@ zero_extendqisi2
 184 0090 1A46     		mov	r2, r3
 185 0092 40F20003 		movw	r3, #:lower16:player1
 186 0096 C0F20003 		movt	r3, #:upper16:player1
 187 009a 4FEAC101 		lsl	r1, r1, #3
 188 009e 0A44     		add	r2, r1, r2
 189 00a0 1344     		add	r3, r2, r3
 190 00a2 1B78     		ldrb	r3, [r3, #0]	@ zero_extendqisi2
 191 00a4 002B     		cmp	r3, #0
 192 00a6 16D0     		beq	.L7
  89:.\main.c      ****                 //matrix_deluminate();
ARM GAS  C:\DOCUME~1\david\LOCALS~1\Temp\ccWbOjJF.s 			page 6


  90:.\main.c      ****                 matrix_illuminate(rPos,cPos,player1_color);
 193              		.loc 1 90 0
 194 00a8 40F20003 		movw	r3, #:lower16:rPos
 195 00ac C0F20003 		movt	r3, #:upper16:rPos
 196 00b0 1B78     		ldrb	r3, [r3, #0]	@ zero_extendqisi2
 197 00b2 1946     		mov	r1, r3
 198 00b4 40F20003 		movw	r3, #:lower16:cPos
 199 00b8 C0F20003 		movt	r3, #:upper16:cPos
 200 00bc 1B78     		ldrb	r3, [r3, #0]	@ zero_extendqisi2
 201 00be 1A46     		mov	r2, r3
 202 00c0 40F20003 		movw	r3, #:lower16:player1_color
 203 00c4 C0F20003 		movt	r3, #:upper16:player1_color
 204 00c8 1B78     		ldrb	r3, [r3, #0]	@ zero_extendqisi2
 205 00ca 0846     		mov	r0, r1
 206 00cc 1146     		mov	r1, r2
 207 00ce 1A46     		mov	r2, r3
 208 00d0 FFF7FEFF 		bl	matrix_illuminate
  91:.\main.c      ****                 break;
 209              		.loc 1 91 0
 210 00d4 3CE0     		b	.L10
 211              	.L7:
  92:.\main.c      ****             }
  93:.\main.c      ****             if (player2[rPos][cPos]) {
 212              		.loc 1 93 0
 213 00d6 40F20003 		movw	r3, #:lower16:rPos
 214 00da C0F20003 		movt	r3, #:upper16:rPos
 215 00de 1B78     		ldrb	r3, [r3, #0]	@ zero_extendqisi2
 216 00e0 1946     		mov	r1, r3
 217 00e2 40F20003 		movw	r3, #:lower16:cPos
 218 00e6 C0F20003 		movt	r3, #:upper16:cPos
 219 00ea 1B78     		ldrb	r3, [r3, #0]	@ zero_extendqisi2
 220 00ec 1A46     		mov	r2, r3
 221 00ee 40F20003 		movw	r3, #:lower16:player2
 222 00f2 C0F20003 		movt	r3, #:upper16:player2
 223 00f6 4FEAC101 		lsl	r1, r1, #3
 224 00fa 0A44     		add	r2, r1, r2
 225 00fc 1344     		add	r3, r2, r3
 226 00fe 1B78     		ldrb	r3, [r3, #0]	@ zero_extendqisi2
 227 0100 002B     		cmp	r3, #0
 228 0102 18D0     		beq	.L5
  94:.\main.c      ****                 matrix_deluminate();
 229              		.loc 1 94 0
 230 0104 FFF7FEFF 		bl	matrix_deluminate
  95:.\main.c      ****                 matrix_illuminate(rPos,cPos,player2_color);
 231              		.loc 1 95 0
 232 0108 40F20003 		movw	r3, #:lower16:rPos
 233 010c C0F20003 		movt	r3, #:upper16:rPos
 234 0110 1B78     		ldrb	r3, [r3, #0]	@ zero_extendqisi2
 235 0112 1946     		mov	r1, r3
 236 0114 40F20003 		movw	r3, #:lower16:cPos
 237 0118 C0F20003 		movt	r3, #:upper16:cPos
 238 011c 1B78     		ldrb	r3, [r3, #0]	@ zero_extendqisi2
 239 011e 1A46     		mov	r2, r3
 240 0120 40F20003 		movw	r3, #:lower16:player2_color
 241 0124 C0F20003 		movt	r3, #:upper16:player2_color
 242 0128 1B78     		ldrb	r3, [r3, #0]	@ zero_extendqisi2
 243 012a 0846     		mov	r0, r1
ARM GAS  C:\DOCUME~1\david\LOCALS~1\Temp\ccWbOjJF.s 			page 7


 244 012c 1146     		mov	r1, r2
 245 012e 1A46     		mov	r2, r3
 246 0130 FFF7FEFF 		bl	matrix_illuminate
  96:.\main.c      ****                 break;
 247              		.loc 1 96 0
 248 0134 0CE0     		b	.L10
 249              	.L5:
 250              		.loc 1 83 0
 251 0136 FB88     		ldrh	r3, [r7, #6]
 252 0138 002B     		cmp	r3, #0
 253 013a 0CBF     		ite	eq
 254 013c 0023     		moveq	r3, #0
 255 013e 0123     		movne	r3, #1
 256 0140 DBB2     		uxtb	r3, r3
 257 0142 FA88     		ldrh	r2, [r7, #6]	@ movhi
 258 0144 02F1FF32 		add	r2, r2, #-1
 259 0148 FA80     		strh	r2, [r7, #6]	@ movhi
 260 014a 002B     		cmp	r3, #0
 261 014c 7FF45FAF 		bne	.L9
 262              	.L10:
 263              	.LBE2:
  97:.\main.c      ****             }
  98:.\main.c      ****         }
  99:.\main.c      ****     }
 100:.\main.c      **** }
 264              		.loc 1 100 0
 265 0150 07F10807 		add	r7, r7, #8
 266 0154 BD46     		mov	sp, r7
 267 0156 80BD     		pop	{r7, pc}
 268              		.cfi_endproc
 269              	.LFE30:
 270              		.size	refresh, .-refresh
 271              		.section	.rodata
 272              		.align	2
 273              	.LC0:
 274 0000 436F6E6E 		.ascii	"Connect 4\000"
 274      65637420 
 274      3400
 275 000a 0000     		.align	2
 276              	.LC1:
 277 000c 506C6179 		.ascii	"Player 1\000"
 277      65722031 
 277      00
 278 0015 000000   		.align	2
 279              	.LC2:
 280 0018 506C6179 		.ascii	"Player 2\000"
 280      65722032 
 280      00
 281              		.section	.text.main,"ax",%progbits
 282              		.align	2
 283              		.global	main
 284              		.thumb
 285              		.thumb_func
 286              		.type	main, %function
 287              	main:
 288              	.LFB31:
 101:.\main.c      **** 
ARM GAS  C:\DOCUME~1\david\LOCALS~1\Temp\ccWbOjJF.s 			page 8


 102:.\main.c      **** 
 103:.\main.c      **** 
 104:.\main.c      **** 
 105:.\main.c      **** void main () {
 289              		.loc 1 105 0
 290              		.cfi_startproc
 291              		@ args = 0, pretend = 0, frame = 8
 292              		@ frame_needed = 1, uses_anonymous_args = 0
 293 0000 80B5     		push	{r7, lr}
 294              	.LCFI5:
 295              		.cfi_def_cfa_offset 8
 296 0002 82B0     		sub	sp, sp, #8
 297              	.LCFI6:
 298              		.cfi_def_cfa_offset 16
 299 0004 00AF     		add	r7, sp, #0
 300              		.cfi_offset 14, -4
 301              		.cfi_offset 7, -8
 302              	.LCFI7:
 303              		.cfi_def_cfa_register 7
 106:.\main.c      ****     initialize();
 304              		.loc 1 106 0
 305 0006 FFF7FEFF 		bl	initialize
 107:.\main.c      ****     LCD_UpdateStatus("Connect 4");
 306              		.loc 1 107 0
 307 000a 40F20000 		movw	r0, #:lower16:.LC0
 308 000e C0F20000 		movt	r0, #:upper16:.LC0
 309 0012 FFF7FEFF 		bl	LCD_UpdateStatus
 310              	.L18:
 311              	.LBB3:
 108:.\main.c      ****     while (true) {
 109:.\main.c      ****         uint8 row, col;
 110:.\main.c      ****         if (player1_turn || player2_local) {
 312              		.loc 1 110 0
 313 0016 40F20003 		movw	r3, #:lower16:player1_turn
 314 001a C0F20003 		movt	r3, #:upper16:player1_turn
 315 001e 1B78     		ldrb	r3, [r3, #0]	@ zero_extendqisi2
 316 0020 002B     		cmp	r3, #0
 317 0022 06D1     		bne	.L12
 318 0024 40F20003 		movw	r3, #:lower16:player2_local
 319 0028 C0F20003 		movt	r3, #:upper16:player2_local
 320 002c 1B78     		ldrb	r3, [r3, #0]	@ zero_extendqisi2
 321 002e 002B     		cmp	r3, #0
 322 0030 33D0     		beq	.L13
 323              	.L12:
 111:.\main.c      ****             LCD_UpdateStatus((player1_turn) ? "Player 1" : "Player 2");
 324              		.loc 1 111 0
 325 0032 40F20003 		movw	r3, #:lower16:player1_turn
 326 0036 C0F20003 		movt	r3, #:upper16:player1_turn
 327 003a 1B78     		ldrb	r3, [r3, #0]	@ zero_extendqisi2
 328 003c 002B     		cmp	r3, #0
 329 003e 04D0     		beq	.L14
 330 0040 40F20003 		movw	r3, #:lower16:.LC1
 331 0044 C0F20003 		movt	r3, #:upper16:.LC1
 332 0048 03E0     		b	.L15
 333              	.L14:
 334 004a 40F20003 		movw	r3, #:lower16:.LC2
 335 004e C0F20003 		movt	r3, #:upper16:.LC2
ARM GAS  C:\DOCUME~1\david\LOCALS~1\Temp\ccWbOjJF.s 			page 9


 336              	.L15:
 337 0052 1846     		mov	r0, r3
 338 0054 FFF7FEFF 		bl	LCD_UpdateStatus
 112:.\main.c      ****             col = get_move();
 339              		.loc 1 112 0
 340 0058 FFF7FEFF 		bl	get_move
 341 005c 0346     		mov	r3, r0
 342 005e FB71     		strb	r3, [r7, #7]
 113:.\main.c      ****             row = animate(col);
 343              		.loc 1 113 0
 344 0060 FB79     		ldrb	r3, [r7, #7]	@ zero_extendqisi2
 345 0062 1846     		mov	r0, r3
 346 0064 FFF7FEFF 		bl	animate
 347 0068 0346     		mov	r3, r0
 348 006a BB71     		strb	r3, [r7, #6]
 114:.\main.c      ****             if (!player2_local) send_move(MATRIX_ROWS-row,col+1);
 349              		.loc 1 114 0
 350 006c 40F20003 		movw	r3, #:lower16:player2_local
 351 0070 C0F20003 		movt	r3, #:upper16:player2_local
 352 0074 1B78     		ldrb	r3, [r3, #0]	@ zero_extendqisi2
 353 0076 83F00103 		eor	r3, r3, #1
 354 007a DBB2     		uxtb	r3, r3
 355 007c 002B     		cmp	r3, #0
 356 007e 1DD0     		beq	.L20
 357 0080 BB79     		ldrb	r3, [r7, #6]
 358 0082 C3F10803 		rsb	r3, r3, #8
 359 0086 DAB2     		uxtb	r2, r3
 360 0088 FB79     		ldrb	r3, [r7, #7]
 361 008a 03F10103 		add	r3, r3, #1
 362 008e DBB2     		uxtb	r3, r3
 363 0090 1046     		mov	r0, r2
 364 0092 1946     		mov	r1, r3
 365 0094 FFF7FEFF 		bl	send_move
 366              		.loc 1 110 0
 367 0098 11E0     		b	.L17
 368              	.L13:
 115:.\main.c      ****         }
 116:.\main.c      ****         else {
 117:.\main.c      ****             LCD_UpdateStatus("Player 2");
 369              		.loc 1 117 0
 370 009a 40F20000 		movw	r0, #:lower16:.LC2
 371 009e C0F20000 		movt	r0, #:upper16:.LC2
 372 00a2 FFF7FEFF 		bl	LCD_UpdateStatus
 118:.\main.c      ****             col = receive_move();
 373              		.loc 1 118 0
 374 00a6 FFF7FEFF 		bl	receive_move
 375 00aa 0346     		mov	r3, r0
 376 00ac FB71     		strb	r3, [r7, #7]
 119:.\main.c      ****             row = animate(col);
 377              		.loc 1 119 0
 378 00ae FB79     		ldrb	r3, [r7, #7]	@ zero_extendqisi2
 379 00b0 1846     		mov	r0, r3
 380 00b2 FFF7FEFF 		bl	animate
 381 00b6 0346     		mov	r3, r0
 382 00b8 BB71     		strb	r3, [r7, #6]
 383 00ba 00E0     		b	.L17
 384              	.L20:
ARM GAS  C:\DOCUME~1\david\LOCALS~1\Temp\ccWbOjJF.s 			page 10


 385              		.loc 1 110 0
 386 00bc 00BF     		nop
 387              	.L17:
 120:.\main.c      ****         }
 121:.\main.c      ****         winner_check();
 388              		.loc 1 121 0
 389 00be FFF7FEFF 		bl	winner_check
 122:.\main.c      ****         player1_turn = !player1_turn;
 390              		.loc 1 122 0
 391 00c2 40F20003 		movw	r3, #:lower16:player1_turn
 392 00c6 C0F20003 		movt	r3, #:upper16:player1_turn
 393 00ca 1B78     		ldrb	r3, [r3, #0]	@ zero_extendqisi2
 394 00cc 83F00103 		eor	r3, r3, #1
 395 00d0 DBB2     		uxtb	r3, r3
 396 00d2 DAB2     		uxtb	r2, r3
 397 00d4 40F20003 		movw	r3, #:lower16:player1_turn
 398 00d8 C0F20003 		movt	r3, #:upper16:player1_turn
 399 00dc 1A70     		strb	r2, [r3, #0]
 400              	.LBE3:
 123:.\main.c      ****         
 124:.\main.c      ****         /*
 125:.\main.c      ****         if (channel_change) {
 126:.\main.c      ****             if (++XBee_channel > 0x1A) XBee_channel = 0x0B;
 127:.\main.c      ****             configure_XBee(XBee_channel);
 128:.\main.c      ****             channel_change = false;
 129:.\main.c      ****             LCD_UpdateStatus("Change Channel");
 130:.\main.c      ****             LCD_ClearLine(1);
 131:.\main.c      ****             LCD_PrintString("0x");
 132:.\main.c      ****             LCD_PrintInt8(XBee_channel);
 133:.\main.c      ****             CyDelay(500);
 134:.\main.c      ****         }
 135:.\main.c      ****         */
 136:.\main.c      ****     }
 401              		.loc 1 136 0
 402 00de 9AE7     		b	.L18
 403              		.cfi_endproc
 404              	.LFE31:
 405              		.size	main, .-main
 406              		.section	.rodata
 407 0021 000000   		.align	2
 408              	.LC3:
 409 0024 696E6974 		.ascii	"initializing...\000"
 409      69616C69 
 409      7A696E67 
 409      2E2E2E00 
 410              		.align	2
 411              	.LC4:
 412 0034 626F6172 		.ascii	"board\000"
 412      6400
 413 003a 0000     		.align	2
 414              	.LC5:
 415 003c 6D617472 		.ascii	"matrix\000"
 415      697800
 416 0043 00       		.align	2
 417              	.LC6:
 418 0044 696E7465 		.ascii	"interrupts\000"
 418      72727570 
ARM GAS  C:\DOCUME~1\david\LOCALS~1\Temp\ccWbOjJF.s 			page 11


 418      747300
 419 004f 00       		.align	2
 420              	.LC7:
 421 0050 74696D65 		.ascii	"timer\000"
 421      7200
 422 0056 0000     		.align	2
 423              	.LC8:
 424 0058 43617053 		.ascii	"CapSense\000"
 424      656E7365 
 424      00
 425 0061 000000   		.align	2
 426              	.LC9:
 427 0064 6C6F6361 		.ascii	"locate opponent\000"
 427      7465206F 
 427      70706F6E 
 427      656E7400 
 428              		.align	2
 429              	.LC10:
 430 0074 6C6F6361 		.ascii	"local\000"
 430      6C00
 431 007a 0000     		.align	2
 432              	.LC11:
 433 007c 72656D6F 		.ascii	"remote\000"
 433      746500
 434 0083 00       		.align	2
 435              	.LC12:
 436 0084 55415254 		.ascii	"UART\000"
 436      00
 437 0089 000000   		.align	2
 438              	.LC13:
 439 008c 58426565 		.ascii	"XBee\000"
 439      00
 440 0091 000000   		.align	2
 441              	.LC14:
 442 0094 64697370 		.ascii	"display\000"
 442      6C617900 
 443              		.section	.text.initialize,"ax",%progbits
 444              		.align	2
 445              		.global	initialize
 446              		.thumb
 447              		.thumb_func
 448              		.type	initialize, %function
 449              	initialize:
 450              	.LFB32:
 137:.\main.c      ****     cleanup();
 138:.\main.c      **** }
 139:.\main.c      **** 
 140:.\main.c      **** 
 141:.\main.c      **** 
 142:.\main.c      **** 
 143:.\main.c      **** void initialize () {
 451              		.loc 1 143 0
 452              		.cfi_startproc
 453              		@ args = 0, pretend = 0, frame = 8
 454              		@ frame_needed = 1, uses_anonymous_args = 0
 455 0000 80B5     		push	{r7, lr}
 456              	.LCFI8:
ARM GAS  C:\DOCUME~1\david\LOCALS~1\Temp\ccWbOjJF.s 			page 12


 457              		.cfi_def_cfa_offset 8
 458 0002 82B0     		sub	sp, sp, #8
 459              	.LCFI9:
 460              		.cfi_def_cfa_offset 16
 461 0004 00AF     		add	r7, sp, #0
 462              		.cfi_offset 14, -4
 463              		.cfi_offset 7, -8
 464              	.LCFI10:
 465              		.cfi_def_cfa_register 7
 144:.\main.c      ****     LCD_Start();
 466              		.loc 1 144 0
 467 0006 FFF7FEFF 		bl	LCD_Start
 145:.\main.c      ****     LCD_UpdateStatus("initializing...");
 468              		.loc 1 145 0
 469 000a 40F20000 		movw	r0, #:lower16:.LC3
 470 000e C0F20000 		movt	r0, #:upper16:.LC3
 471 0012 FFF7FEFF 		bl	LCD_UpdateStatus
 146:.\main.c      ****     
 147:.\main.c      ****     LCD_UpdateMessage("board");
 472              		.loc 1 147 0
 473 0016 40F20000 		movw	r0, #:lower16:.LC4
 474 001a C0F20000 		movt	r0, #:upper16:.LC4
 475 001e FFF7FEFF 		bl	LCD_UpdateMessage
 148:.\main.c      ****     clear_board();
 476              		.loc 1 148 0
 477 0022 FFF7FEFF 		bl	clear_board
 149:.\main.c      ****     
 150:.\main.c      ****     LCD_UpdateMessage("matrix");
 478              		.loc 1 150 0
 479 0026 40F20000 		movw	r0, #:lower16:.LC5
 480 002a C0F20000 		movt	r0, #:upper16:.LC5
 481 002e FFF7FEFF 		bl	LCD_UpdateMessage
 151:.\main.c      ****     matrix_test(true,false);
 482              		.loc 1 151 0
 483 0032 4FF00100 		mov	r0, #1
 484 0036 4FF00001 		mov	r1, #0
 485 003a FFF7FEFF 		bl	matrix_test
 152:.\main.c      ****     matrix_deluminate();
 486              		.loc 1 152 0
 487 003e FFF7FEFF 		bl	matrix_deluminate
 153:.\main.c      ****     
 154:.\main.c      ****     LCD_UpdateMessage("interrupts");
 488              		.loc 1 154 0
 489 0042 40F20000 		movw	r0, #:lower16:.LC6
 490 0046 C0F20000 		movt	r0, #:upper16:.LC6
 491 004a FFF7FEFF 		bl	LCD_UpdateMessage
 155:.\main.c      ****     CyGlobalIntEnable;
 492              		.loc 1 155 0
 493              	@ 155 ".\main.c" 1
 494 004e 62B6     		CPSIE   i
 495              	@ 0 "" 2
 156:.\main.c      ****     
 157:.\main.c      ****     LCD_UpdateMessage("timer");
 496              		.loc 1 157 0
 497              		.thumb
 498 0050 40F20000 		movw	r0, #:lower16:.LC7
 499 0054 C0F20000 		movt	r0, #:upper16:.LC7
ARM GAS  C:\DOCUME~1\david\LOCALS~1\Temp\ccWbOjJF.s 			page 13


 500 0058 FFF7FEFF 		bl	LCD_UpdateMessage
 158:.\main.c      ****     Timer_Start();
 501              		.loc 1 158 0
 502 005c FFF7FEFF 		bl	Timer_Start
 159:.\main.c      ****     Timer_WritePeriod(BUS_CLK_FREQ/REFRESH_RATE);
 503              		.loc 1 159 0
 504 0060 4FF4FA50 		mov	r0, #8000
 505 0064 FFF7FEFF 		bl	Timer_WritePeriod
 160:.\main.c      ****     
 161:.\main.c      ****     LCD_UpdateMessage("CapSense");
 506              		.loc 1 161 0
 507 0068 40F20000 		movw	r0, #:lower16:.LC8
 508 006c C0F20000 		movt	r0, #:upper16:.LC8
 509 0070 FFF7FEFF 		bl	LCD_UpdateMessage
 162:.\main.c      ****     CapSense_Start();
 510              		.loc 1 162 0
 511 0074 FFF7FEFF 		bl	CapSense_Start
 163:.\main.c      ****     CapSense_InitializeAllBaselines();
 512              		.loc 1 163 0
 513 0078 FFF7FEFF 		bl	CapSense_InitializeAllBaselines
 164:.\main.c      ****     
 165:.\main.c      ****     LCD_UpdateStatus("locate opponent");
 514              		.loc 1 165 0
 515 007c 40F20000 		movw	r0, #:lower16:.LC9
 516 0080 C0F20000 		movt	r0, #:upper16:.LC9
 517 0084 FFF7FEFF 		bl	LCD_UpdateStatus
 166:.\main.c      ****     ISR_StartEx(toggle);
 518              		.loc 1 166 0
 519 0088 40F20000 		movw	r0, #:lower16:toggle
 520 008c C0F20000 		movt	r0, #:upper16:toggle
 521 0090 FFF7FEFF 		bl	ISR_StartEx
 167:.\main.c      ****     locating = true;
 522              		.loc 1 167 0
 523 0094 40F20003 		movw	r3, #:lower16:locating
 524 0098 C0F20003 		movt	r3, #:upper16:locating
 525 009c 4FF00102 		mov	r2, #1
 526 00a0 1A70     		strb	r2, [r3, #0]
 168:.\main.c      ****     uint8 t;
 169:.\main.c      ****     for (t=5; t > 0 ;--t) {
 527              		.loc 1 169 0
 528 00a2 4FF00503 		mov	r3, #5
 529 00a6 FB71     		strb	r3, [r7, #7]
 530 00a8 28E0     		b	.L22
 531              	.L25:
 170:.\main.c      ****         LCD_UpdateMessage((player2_local) ? "local" : "remote");
 532              		.loc 1 170 0
 533 00aa 40F20003 		movw	r3, #:lower16:player2_local
 534 00ae C0F20003 		movt	r3, #:upper16:player2_local
 535 00b2 1B78     		ldrb	r3, [r3, #0]	@ zero_extendqisi2
 536 00b4 002B     		cmp	r3, #0
 537 00b6 04D0     		beq	.L23
 538 00b8 40F20003 		movw	r3, #:lower16:.LC10
 539 00bc C0F20003 		movt	r3, #:upper16:.LC10
 540 00c0 03E0     		b	.L24
 541              	.L23:
 542 00c2 40F20003 		movw	r3, #:lower16:.LC11
 543 00c6 C0F20003 		movt	r3, #:upper16:.LC11
ARM GAS  C:\DOCUME~1\david\LOCALS~1\Temp\ccWbOjJF.s 			page 14


 544              	.L24:
 545 00ca 1846     		mov	r0, r3
 546 00cc FFF7FEFF 		bl	LCD_UpdateMessage
 171:.\main.c      ****         CyDelay(500);
 547              		.loc 1 171 0
 548 00d0 4FF4FA70 		mov	r0, #500
 549 00d4 FFF7FEFF 		bl	CyDelay
 172:.\main.c      ****         LCD_Position(1,15);
 550              		.loc 1 172 0
 551 00d8 4FF00100 		mov	r0, #1
 552 00dc 4FF00F01 		mov	r1, #15
 553 00e0 FFF7FEFF 		bl	LCD_Position
 173:.\main.c      ****         LCD_PrintNumber(t);
 554              		.loc 1 173 0
 555 00e4 FB79     		ldrb	r3, [r7, #7]	@ zero_extendqisi2
 556 00e6 1846     		mov	r0, r3
 557 00e8 FFF7FEFF 		bl	LCD_PrintNumber
 174:.\main.c      ****         CyDelay(500);
 558              		.loc 1 174 0
 559 00ec 4FF4FA70 		mov	r0, #500
 560 00f0 FFF7FEFF 		bl	CyDelay
 561              		.loc 1 169 0
 562 00f4 FB79     		ldrb	r3, [r7, #7]
 563 00f6 03F1FF33 		add	r3, r3, #-1
 564 00fa FB71     		strb	r3, [r7, #7]
 565              	.L22:
 566 00fc FB79     		ldrb	r3, [r7, #7]	@ zero_extendqisi2
 567 00fe 002B     		cmp	r3, #0
 568 0100 D3D1     		bne	.L25
 175:.\main.c      ****     }
 176:.\main.c      ****     locating = false;
 569              		.loc 1 176 0
 570 0102 40F20003 		movw	r3, #:lower16:locating
 571 0106 C0F20003 		movt	r3, #:upper16:locating
 572 010a 4FF00002 		mov	r2, #0
 573 010e 1A70     		strb	r2, [r3, #0]
 177:.\main.c      ****     ISR_Stop();
 574              		.loc 1 177 0
 575 0110 FFF7FEFF 		bl	ISR_Stop
 178:.\main.c      ****     if (!player2_local) {
 576              		.loc 1 178 0
 577 0114 40F20003 		movw	r3, #:lower16:player2_local
 578 0118 C0F20003 		movt	r3, #:upper16:player2_local
 579 011c 1B78     		ldrb	r3, [r3, #0]	@ zero_extendqisi2
 580 011e 83F00103 		eor	r3, r3, #1
 581 0122 DBB2     		uxtb	r3, r3
 582 0124 002B     		cmp	r3, #0
 583 0126 19D0     		beq	.L26
 179:.\main.c      ****         LCD_UpdateStatus("initializing...");
 584              		.loc 1 179 0
 585 0128 40F20000 		movw	r0, #:lower16:.LC3
 586 012c C0F20000 		movt	r0, #:upper16:.LC3
 587 0130 FFF7FEFF 		bl	LCD_UpdateStatus
 180:.\main.c      ****         LCD_UpdateMessage("UART");
 588              		.loc 1 180 0
 589 0134 40F20000 		movw	r0, #:lower16:.LC12
 590 0138 C0F20000 		movt	r0, #:upper16:.LC12
ARM GAS  C:\DOCUME~1\david\LOCALS~1\Temp\ccWbOjJF.s 			page 15


 591 013c FFF7FEFF 		bl	LCD_UpdateMessage
 181:.\main.c      ****         UART_Start();
 592              		.loc 1 181 0
 593 0140 FFF7FEFF 		bl	UART_Start
 182:.\main.c      ****         UART_ClearTxBuffer();
 594              		.loc 1 182 0
 595 0144 FFF7FEFF 		bl	UART_ClearTxBuffer
 183:.\main.c      ****         UART_ClearRxBuffer();
 596              		.loc 1 183 0
 597 0148 FFF7FEFF 		bl	UART_ClearRxBuffer
 184:.\main.c      ****         LCD_UpdateMessage("XBee");
 598              		.loc 1 184 0
 599 014c 40F20000 		movw	r0, #:lower16:.LC13
 600 0150 C0F20000 		movt	r0, #:upper16:.LC13
 601 0154 FFF7FEFF 		bl	LCD_UpdateMessage
 185:.\main.c      ****         if (!XBEE_CONFIGURED) configure_XBee();//XBee_channel);
 602              		.loc 1 185 0
 603 0158 FFF7FEFF 		bl	configure_XBee
 604              	.L26:
 186:.\main.c      ****     }
 187:.\main.c      ****     
 188:.\main.c      ****     LCD_UpdateMessage("display");
 605              		.loc 1 188 0
 606 015c 40F20000 		movw	r0, #:lower16:.LC14
 607 0160 C0F20000 		movt	r0, #:upper16:.LC14
 608 0164 FFF7FEFF 		bl	LCD_UpdateMessage
 189:.\main.c      ****     Beam_StartEx(refresh);
 609              		.loc 1 189 0
 610 0168 40F20000 		movw	r0, #:lower16:refresh
 611 016c C0F20000 		movt	r0, #:upper16:refresh
 612 0170 FFF7FEFF 		bl	Beam_StartEx
 190:.\main.c      **** }
 613              		.loc 1 190 0
 614 0174 07F10807 		add	r7, r7, #8
 615 0178 BD46     		mov	sp, r7
 616 017a 80BD     		pop	{r7, pc}
 617              		.cfi_endproc
 618              	.LFE32:
 619              		.size	initialize, .-initialize
 620              		.section	.text.clear_board,"ax",%progbits
 621              		.align	2
 622              		.global	clear_board
 623              		.thumb
 624              		.thumb_func
 625              		.type	clear_board, %function
 626              	clear_board:
 627              	.LFB33:
 191:.\main.c      **** 
 192:.\main.c      **** 
 193:.\main.c      **** 
 194:.\main.c      **** 
 195:.\main.c      **** void clear_board () {
 628              		.loc 1 195 0
 629              		.cfi_startproc
 630              		@ args = 0, pretend = 0, frame = 8
 631              		@ frame_needed = 1, uses_anonymous_args = 0
 632              		@ link register save eliminated.
ARM GAS  C:\DOCUME~1\david\LOCALS~1\Temp\ccWbOjJF.s 			page 16


 633 0000 80B4     		push	{r7}
 634              	.LCFI11:
 635              		.cfi_def_cfa_offset 4
 636 0002 83B0     		sub	sp, sp, #12
 637              	.LCFI12:
 638              		.cfi_def_cfa_offset 16
 639 0004 00AF     		add	r7, sp, #0
 640              		.cfi_offset 7, -4
 641              	.LCFI13:
 642              		.cfi_def_cfa_register 7
 196:.\main.c      ****     uint8 row, col;
 197:.\main.c      ****     for (row=0; row < MATRIX_ROWS ;++row) {
 643              		.loc 1 197 0
 644 0006 4FF00003 		mov	r3, #0
 645 000a BB71     		strb	r3, [r7, #6]
 646 000c 28E0     		b	.L29
 647              	.L32:
 198:.\main.c      ****         for (col=0; col < MATRIX_COLS ;++col) {
 648              		.loc 1 198 0
 649 000e 4FF00003 		mov	r3, #0
 650 0012 FB71     		strb	r3, [r7, #7]
 651 0014 1DE0     		b	.L30
 652              	.L31:
 199:.\main.c      ****             player1[row][col] = false;
 653              		.loc 1 199 0
 654 0016 B979     		ldrb	r1, [r7, #6]	@ zero_extendqisi2
 655 0018 FA79     		ldrb	r2, [r7, #7]	@ zero_extendqisi2
 656 001a 40F20003 		movw	r3, #:lower16:player1
 657 001e C0F20003 		movt	r3, #:upper16:player1
 658 0022 4FEAC101 		lsl	r1, r1, #3
 659 0026 0A44     		add	r2, r1, r2
 660 0028 1344     		add	r3, r2, r3
 661 002a 4FF00002 		mov	r2, #0
 662 002e 1A70     		strb	r2, [r3, #0]
 200:.\main.c      ****             player2[row][col] = false;
 663              		.loc 1 200 0
 664 0030 B979     		ldrb	r1, [r7, #6]	@ zero_extendqisi2
 665 0032 FA79     		ldrb	r2, [r7, #7]	@ zero_extendqisi2
 666 0034 40F20003 		movw	r3, #:lower16:player2
 667 0038 C0F20003 		movt	r3, #:upper16:player2
 668 003c 4FEAC101 		lsl	r1, r1, #3
 669 0040 0A44     		add	r2, r1, r2
 670 0042 1344     		add	r3, r2, r3
 671 0044 4FF00002 		mov	r2, #0
 672 0048 1A70     		strb	r2, [r3, #0]
 673              		.loc 1 198 0
 674 004a FB79     		ldrb	r3, [r7, #7]
 675 004c 03F10103 		add	r3, r3, #1
 676 0050 FB71     		strb	r3, [r7, #7]
 677              	.L30:
 678 0052 FB79     		ldrb	r3, [r7, #7]	@ zero_extendqisi2
 679 0054 072B     		cmp	r3, #7
 680 0056 DED9     		bls	.L31
 681              		.loc 1 197 0
 682 0058 BB79     		ldrb	r3, [r7, #6]
 683 005a 03F10103 		add	r3, r3, #1
 684 005e BB71     		strb	r3, [r7, #6]
ARM GAS  C:\DOCUME~1\david\LOCALS~1\Temp\ccWbOjJF.s 			page 17


 685              	.L29:
 686 0060 BB79     		ldrb	r3, [r7, #6]	@ zero_extendqisi2
 687 0062 072B     		cmp	r3, #7
 688 0064 D3D9     		bls	.L32
 201:.\main.c      ****         }
 202:.\main.c      ****     }
 203:.\main.c      **** }
 689              		.loc 1 203 0
 690 0066 07F10C07 		add	r7, r7, #12
 691 006a BD46     		mov	sp, r7
 692 006c 80BC     		pop	{r7}
 693 006e 7047     		bx	lr
 694              		.cfi_endproc
 695              	.LFE33:
 696              		.size	clear_board, .-clear_board
 697              		.section	.rodata
 698              		.align	2
 699              	.LC15:
 700 009c 436F6E66 		.ascii	"Config\000"
 700      696700
 701 00a3 00       		.align	2
 702              	.LC16:
 703 00a4 2B2B2B00 		.ascii	"+++\000"
 704              		.align	2
 705              	.LC17:
 706 00a8 41504920 		.ascii	"API Mode\000"
 706      4D6F6465 
 706      00
 707 00b1 000000   		.align	2
 708              	.LC18:
 709 00b4 41544150 		.ascii	"ATAP1\015\000"
 709      310D00
 710 00bb 00       		.align	2
 711              	.LC19:
 712 00bc 4368616E 		.ascii	"Channel \000"
 712      6E656C20 
 712      00
 713 00c5 000000   		.align	2
 714              	.LC20:
 715 00c8 41544348 		.ascii	"ATCH\000"
 715      00
 716 00cd 000000   		.align	2
 717              	.LC21:
 718 00d0 52656164 		.ascii	"Ready   \000"
 718      79202020 
 718      00
 719 00d9 000000   		.align	2
 720              	.LC22:
 721 00dc 4154434E 		.ascii	"ATCN\015\000"
 721      0D00
 722              		.section	.text.configure_XBee,"ax",%progbits
 723              		.align	2
 724              		.global	configure_XBee
 725              		.thumb
 726              		.thumb_func
 727              		.type	configure_XBee, %function
 728              	configure_XBee:
ARM GAS  C:\DOCUME~1\david\LOCALS~1\Temp\ccWbOjJF.s 			page 18


 729              	.LFB34:
 204:.\main.c      **** 
 205:.\main.c      **** 
 206:.\main.c      **** 
 207:.\main.c      **** 
 208:.\main.c      **** void configure_XBee () {//uint8 channel ) {
 730              		.loc 1 208 0
 731              		.cfi_startproc
 732              		@ args = 0, pretend = 0, frame = 0
 733              		@ frame_needed = 1, uses_anonymous_args = 0
 734 0000 80B5     		push	{r7, lr}
 735              	.LCFI14:
 736              		.cfi_def_cfa_offset 8
 737 0002 00AF     		add	r7, sp, #0
 738              		.cfi_offset 14, -4
 739              		.cfi_offset 7, -8
 740              	.LCFI15:
 741              		.cfi_def_cfa_register 7
 209:.\main.c      ****     //if (!channel_change) {
 210:.\main.c      ****         LCD_Position(1,5);
 742              		.loc 1 210 0
 743 0004 4FF00100 		mov	r0, #1
 744 0008 4FF00501 		mov	r1, #5
 745 000c FFF7FEFF 		bl	LCD_Position
 211:.\main.c      ****         LCD_PrintString("Config");
 746              		.loc 1 211 0
 747 0010 40F20000 		movw	r0, #:lower16:.LC15
 748 0014 C0F20000 		movt	r0, #:upper16:.LC15
 749 0018 FFF7FEFF 		bl	LCD_PrintString
 212:.\main.c      ****     //}
 213:.\main.c      ****     CyDelay(XBEE_GUARD_TIME);
 750              		.loc 1 213 0
 751 001c 4FF47A70 		mov	r0, #1000
 752 0020 FFF7FEFF 		bl	CyDelay
 214:.\main.c      ****     UART_PutString("+++");
 753              		.loc 1 214 0
 754 0024 40F20000 		movw	r0, #:lower16:.LC16
 755 0028 C0F20000 		movt	r0, #:upper16:.LC16
 756 002c FFF7FEFF 		bl	UART_PutString
 215:.\main.c      ****     CyDelay(XBEE_GUARD_TIME*3);
 757              		.loc 1 215 0
 758 0030 40F6B830 		movw	r0, #3000
 759 0034 FFF7FEFF 		bl	CyDelay
 760              	.L35:
 216:.\main.c      ****     if (XBEE_VERIFY) {
 217:.\main.c      ****         while (UART_GetRxBufferSize() < 3);
 761              		.loc 1 217 0
 762 0038 FFF7FEFF 		bl	UART_GetRxBufferSize
 763 003c 0346     		mov	r3, r0
 764 003e 022B     		cmp	r3, #2
 765 0040 FAD9     		bls	.L35
 218:.\main.c      ****         if (UART_ReadRxData() != 'O'
 219:.\main.c      ****         ||  UART_ReadRxData() != 'K'
 766              		.loc 1 219 0
 767 0042 FFF7FEFF 		bl	UART_ReadRxData
 768 0046 0346     		mov	r3, r0
 769              		.loc 1 218 0
ARM GAS  C:\DOCUME~1\david\LOCALS~1\Temp\ccWbOjJF.s 			page 19


 770 0048 4F2B     		cmp	r3, #79
 771 004a 09D1     		bne	.L36
 220:.\main.c      ****         ||  UART_ReadRxData() != '\r') Error_Write(0x01);
 772              		.loc 1 220 0
 773 004c FFF7FEFF 		bl	UART_ReadRxData
 774 0050 0346     		mov	r3, r0
 775              		.loc 1 218 0
 776 0052 4B2B     		cmp	r3, #75
 777 0054 04D1     		bne	.L36
 778              		.loc 1 220 0
 779 0056 FFF7FEFF 		bl	UART_ReadRxData
 780 005a 0346     		mov	r3, r0
 781              		.loc 1 218 0
 782 005c 0D2B     		cmp	r3, #13
 783 005e 03D0     		beq	.L37
 784              	.L36:
 785              		.loc 1 220 0
 786 0060 4FF00100 		mov	r0, #1
 787 0064 FFF7FEFF 		bl	Error_Write
 788              	.L37:
 221:.\main.c      ****     }
 222:.\main.c      ****     
 223:.\main.c      ****     //if (!channel_change) {
 224:.\main.c      ****         LCD_Position(1,5);
 789              		.loc 1 224 0
 790 0068 4FF00100 		mov	r0, #1
 791 006c 4FF00501 		mov	r1, #5
 792 0070 FFF7FEFF 		bl	LCD_Position
 225:.\main.c      ****         LCD_PrintString("API Mode");
 793              		.loc 1 225 0
 794 0074 40F20000 		movw	r0, #:lower16:.LC17
 795 0078 C0F20000 		movt	r0, #:upper16:.LC17
 796 007c FFF7FEFF 		bl	LCD_PrintString
 226:.\main.c      ****     //}
 227:.\main.c      ****     UART_PutString("ATAP1\r");
 797              		.loc 1 227 0
 798 0080 40F20000 		movw	r0, #:lower16:.LC18
 799 0084 C0F20000 		movt	r0, #:upper16:.LC18
 800 0088 FFF7FEFF 		bl	UART_PutString
 801              	.L38:
 228:.\main.c      ****     if (XBEE_VERIFY) {
 229:.\main.c      ****         while (UART_GetRxBufferSize() < 3);
 802              		.loc 1 229 0
 803 008c FFF7FEFF 		bl	UART_GetRxBufferSize
 804 0090 0346     		mov	r3, r0
 805 0092 022B     		cmp	r3, #2
 806 0094 FAD9     		bls	.L38
 230:.\main.c      ****         if (UART_ReadRxData() != 'O'
 231:.\main.c      ****         ||  UART_ReadRxData() != 'K'
 807              		.loc 1 231 0
 808 0096 FFF7FEFF 		bl	UART_ReadRxData
 809 009a 0346     		mov	r3, r0
 810              		.loc 1 230 0
 811 009c 4F2B     		cmp	r3, #79
 812 009e 09D1     		bne	.L39
 232:.\main.c      ****         ||  UART_ReadRxData() != '\r') Error_Write(0x01);
 813              		.loc 1 232 0
ARM GAS  C:\DOCUME~1\david\LOCALS~1\Temp\ccWbOjJF.s 			page 20


 814 00a0 FFF7FEFF 		bl	UART_ReadRxData
 815 00a4 0346     		mov	r3, r0
 816              		.loc 1 230 0
 817 00a6 4B2B     		cmp	r3, #75
 818 00a8 04D1     		bne	.L39
 819              		.loc 1 232 0
 820 00aa FFF7FEFF 		bl	UART_ReadRxData
 821 00ae 0346     		mov	r3, r0
 822              		.loc 1 230 0
 823 00b0 0D2B     		cmp	r3, #13
 824 00b2 03D0     		beq	.L40
 825              	.L39:
 826              		.loc 1 232 0
 827 00b4 4FF00100 		mov	r0, #1
 828 00b8 FFF7FEFF 		bl	Error_Write
 829              	.L40:
 233:.\main.c      ****     }
 234:.\main.c      ****     
 235:.\main.c      ****     //if (!channel_change) {
 236:.\main.c      ****         LCD_Position(1,5);
 830              		.loc 1 236 0
 831 00bc 4FF00100 		mov	r0, #1
 832 00c0 4FF00501 		mov	r1, #5
 833 00c4 FFF7FEFF 		bl	LCD_Position
 237:.\main.c      ****         LCD_PrintString("Channel ");
 834              		.loc 1 237 0
 835 00c8 40F20000 		movw	r0, #:lower16:.LC19
 836 00cc C0F20000 		movt	r0, #:upper16:.LC19
 837 00d0 FFF7FEFF 		bl	LCD_PrintString
 238:.\main.c      ****     //}
 239:.\main.c      ****     UART_PutString("ATCH");
 838              		.loc 1 239 0
 839 00d4 40F20000 		movw	r0, #:lower16:.LC20
 840 00d8 C0F20000 		movt	r0, #:upper16:.LC20
 841 00dc FFF7FEFF 		bl	UART_PutString
 240:.\main.c      ****     UART_WriteTxData(XBEE_CHANNEL);//channel);
 842              		.loc 1 240 0
 843 00e0 4FF00C00 		mov	r0, #12
 844 00e4 FFF7FEFF 		bl	UART_WriteTxData
 241:.\main.c      ****     UART_PutChar('\r');
 845              		.loc 1 241 0
 846 00e8 4FF00D00 		mov	r0, #13
 847 00ec FFF7FEFF 		bl	UART_PutChar
 848              	.L41:
 242:.\main.c      ****     if (XBEE_VERIFY) {
 243:.\main.c      ****         while (UART_GetRxBufferSize() < 3);
 849              		.loc 1 243 0
 850 00f0 FFF7FEFF 		bl	UART_GetRxBufferSize
 851 00f4 0346     		mov	r3, r0
 852 00f6 022B     		cmp	r3, #2
 853 00f8 FAD9     		bls	.L41
 244:.\main.c      ****         if (UART_ReadRxData() != 'O'
 245:.\main.c      ****         ||  UART_ReadRxData() != 'K'
 854              		.loc 1 245 0
 855 00fa FFF7FEFF 		bl	UART_ReadRxData
 856 00fe 0346     		mov	r3, r0
 857              		.loc 1 244 0
ARM GAS  C:\DOCUME~1\david\LOCALS~1\Temp\ccWbOjJF.s 			page 21


 858 0100 4F2B     		cmp	r3, #79
 859 0102 09D1     		bne	.L42
 246:.\main.c      ****         ||  UART_ReadRxData() != '\r') Error_Write(0x01);
 860              		.loc 1 246 0
 861 0104 FFF7FEFF 		bl	UART_ReadRxData
 862 0108 0346     		mov	r3, r0
 863              		.loc 1 244 0
 864 010a 4B2B     		cmp	r3, #75
 865 010c 04D1     		bne	.L42
 866              		.loc 1 246 0
 867 010e FFF7FEFF 		bl	UART_ReadRxData
 868 0112 0346     		mov	r3, r0
 869              		.loc 1 244 0
 870 0114 0D2B     		cmp	r3, #13
 871 0116 03D0     		beq	.L43
 872              	.L42:
 873              		.loc 1 246 0
 874 0118 4FF00100 		mov	r0, #1
 875 011c FFF7FEFF 		bl	Error_Write
 876              	.L43:
 247:.\main.c      ****     }
 248:.\main.c      ****     
 249:.\main.c      ****     if (XBEE_REMEMBER) {
 250:.\main.c      ****         //if (!channel_change) {
 251:.\main.c      ****             LCD_Position(1,5);
 252:.\main.c      ****             LCD_PrintString("Write   ");
 253:.\main.c      ****         //}
 254:.\main.c      ****         UART_PutString("ATWR\r");
 255:.\main.c      ****         if (XBEE_VERIFY) {
 256:.\main.c      ****             while (UART_GetRxBufferSize() < 3);
 257:.\main.c      ****         if (UART_ReadRxData() != 'O'
 258:.\main.c      ****         ||  UART_ReadRxData() != 'K'
 259:.\main.c      ****         ||  UART_ReadRxData() != '\r') Error_Write(0x01);
 260:.\main.c      ****         }
 261:.\main.c      ****     }
 262:.\main.c      ****     
 263:.\main.c      ****     //if (!channel_change) {
 264:.\main.c      ****         LCD_Position(1,5);
 877              		.loc 1 264 0
 878 0120 4FF00100 		mov	r0, #1
 879 0124 4FF00501 		mov	r1, #5
 880 0128 FFF7FEFF 		bl	LCD_Position
 265:.\main.c      ****         LCD_PrintString("Ready   ");
 881              		.loc 1 265 0
 882 012c 40F20000 		movw	r0, #:lower16:.LC21
 883 0130 C0F20000 		movt	r0, #:upper16:.LC21
 884 0134 FFF7FEFF 		bl	LCD_PrintString
 266:.\main.c      ****     //}
 267:.\main.c      ****     UART_PutString("ATCN\r");
 885              		.loc 1 267 0
 886 0138 40F20000 		movw	r0, #:lower16:.LC22
 887 013c C0F20000 		movt	r0, #:upper16:.LC22
 888 0140 FFF7FEFF 		bl	UART_PutString
 889              	.L44:
 268:.\main.c      ****     if (XBEE_VERIFY) {
 269:.\main.c      ****         while (UART_GetRxBufferSize() < 3);
 890              		.loc 1 269 0
ARM GAS  C:\DOCUME~1\david\LOCALS~1\Temp\ccWbOjJF.s 			page 22


 891 0144 FFF7FEFF 		bl	UART_GetRxBufferSize
 892 0148 0346     		mov	r3, r0
 893 014a 022B     		cmp	r3, #2
 894 014c FAD9     		bls	.L44
 270:.\main.c      ****         if (UART_ReadRxData() != 'O'
 271:.\main.c      ****         ||  UART_ReadRxData() != 'K'
 895              		.loc 1 271 0
 896 014e FFF7FEFF 		bl	UART_ReadRxData
 897 0152 0346     		mov	r3, r0
 898              		.loc 1 270 0
 899 0154 4F2B     		cmp	r3, #79
 900 0156 09D1     		bne	.L45
 272:.\main.c      ****         ||  UART_ReadRxData() != '\r') Error_Write(0x01);
 901              		.loc 1 272 0
 902 0158 FFF7FEFF 		bl	UART_ReadRxData
 903 015c 0346     		mov	r3, r0
 904              		.loc 1 270 0
 905 015e 4B2B     		cmp	r3, #75
 906 0160 04D1     		bne	.L45
 907              		.loc 1 272 0
 908 0162 FFF7FEFF 		bl	UART_ReadRxData
 909 0166 0346     		mov	r3, r0
 910              		.loc 1 270 0
 911 0168 0D2B     		cmp	r3, #13
 912 016a 03D0     		beq	.L46
 913              	.L45:
 914              		.loc 1 272 0
 915 016c 4FF00100 		mov	r0, #1
 916 0170 FFF7FEFF 		bl	Error_Write
 917              	.L46:
 273:.\main.c      ****     }
 274:.\main.c      ****     
 275:.\main.c      ****     Remote_Write(0x01);
 918              		.loc 1 275 0
 919 0174 4FF00100 		mov	r0, #1
 920 0178 FFF7FEFF 		bl	Remote_Write
 276:.\main.c      **** }
 921              		.loc 1 276 0
 922 017c 80BD     		pop	{r7, pc}
 923              		.cfi_endproc
 924              	.LFE34:
 925              		.size	configure_XBee, .-configure_XBee
 926 017e 00BF     		.section	.rodata
 927 00e2 0000     		.align	2
 928              	.LC23:
 929 00e4 506C6163 		.ascii	"Place a disc!\000"
 929      65206120 
 929      64697363 
 929      2100
 930 00f2 0000     		.align	2
 931              	.LC24:
 932 00f4 47616D65 		.ascii	"Game Over\000"
 932      204F7665 
 932      7200
 933 00fe 0000     		.align	2
 934              	.LC25:
 935 0100 426F6172 		.ascii	"Board Full\000"
ARM GAS  C:\DOCUME~1\david\LOCALS~1\Temp\ccWbOjJF.s 			page 23


 935      64204675 
 935      6C6C00
 936 010b 00       		.align	2
 937              	.LC26:
 938 010c 436F6C75 		.ascii	"Column Full\000"
 938      6D6E2046 
 938      756C6C00 
 939              		.section	.text.get_move,"ax",%progbits
 940              		.align	2
 941              		.global	get_move
 942              		.thumb
 943              		.thumb_func
 944              		.type	get_move, %function
 945              	get_move:
 946              	.LFB35:
 277:.\main.c      **** 
 278:.\main.c      **** 
 279:.\main.c      **** 
 280:.\main.c      **** 
 281:.\main.c      **** uint8 get_move () {
 947              		.loc 1 281 0
 948              		.cfi_startproc
 949              		@ args = 0, pretend = 0, frame = 16
 950              		@ frame_needed = 1, uses_anonymous_args = 0
 951 0000 80B5     		push	{r7, lr}
 952              	.LCFI16:
 953              		.cfi_def_cfa_offset 8
 954 0002 84B0     		sub	sp, sp, #16
 955              	.LCFI17:
 956              		.cfi_def_cfa_offset 24
 957 0004 00AF     		add	r7, sp, #0
 958              		.cfi_offset 14, -4
 959              		.cfi_offset 7, -8
 960              	.LCFI18:
 961              		.cfi_def_cfa_register 7
 282:.\main.c      ****     LCD_UpdateMessage("Place a disc!");
 962              		.loc 1 282 0
 963 0006 40F20000 		movw	r0, #:lower16:.LC23
 964 000a C0F20000 		movt	r0, #:upper16:.LC23
 965 000e FFF7FEFF 		bl	LCD_UpdateMessage
 283:.\main.c      ****     
 284:.\main.c      ****     //guide
 285:.\main.c      ****     uint8 disc = 0;
 966              		.loc 1 285 0
 967 0012 4FF00003 		mov	r3, #0
 968 0016 FB71     		strb	r3, [r7, #7]
 286:.\main.c      ****     while (player1[1][disc] || player2[1][disc]) {
 969              		.loc 1 286 0
 970 0018 13E0     		b	.L49
 971              	.L51:
 287:.\main.c      ****         if (++disc >= MATRIX_COLS) {
 972              		.loc 1 287 0
 973 001a FB79     		ldrb	r3, [r7, #7]
 974 001c 03F10103 		add	r3, r3, #1
 975 0020 FB71     		strb	r3, [r7, #7]
 976 0022 FB79     		ldrb	r3, [r7, #7]	@ zero_extendqisi2
 977 0024 072B     		cmp	r3, #7
ARM GAS  C:\DOCUME~1\david\LOCALS~1\Temp\ccWbOjJF.s 			page 24


 978 0026 0CD9     		bls	.L49
 288:.\main.c      ****             LCD_UpdateStatus("Game Over");
 979              		.loc 1 288 0
 980 0028 40F20000 		movw	r0, #:lower16:.LC24
 981 002c C0F20000 		movt	r0, #:upper16:.LC24
 982 0030 FFF7FEFF 		bl	LCD_UpdateStatus
 289:.\main.c      ****             LCD_UpdateMessage("Board Full");
 983              		.loc 1 289 0
 984 0034 40F20000 		movw	r0, #:lower16:.LC25
 985 0038 C0F20000 		movt	r0, #:upper16:.LC25
 986 003c FFF7FEFF 		bl	LCD_UpdateMessage
 987              	.L50:
 290:.\main.c      ****             while (true);
 988              		.loc 1 290 0
 989 0040 FEE7     		b	.L50
 990              	.L49:
 991              		.loc 1 286 0
 992 0042 FA79     		ldrb	r2, [r7, #7]	@ zero_extendqisi2
 993 0044 40F20003 		movw	r3, #:lower16:player1
 994 0048 C0F20003 		movt	r3, #:upper16:player1
 995 004c 1344     		add	r3, r2, r3
 996 004e 1B7A     		ldrb	r3, [r3, #8]	@ zero_extendqisi2
 997 0050 002B     		cmp	r3, #0
 998 0052 E2D1     		bne	.L51
 999 0054 FA79     		ldrb	r2, [r7, #7]	@ zero_extendqisi2
 1000 0056 40F20003 		movw	r3, #:lower16:player2
 1001 005a C0F20003 		movt	r3, #:upper16:player2
 1002 005e 1344     		add	r3, r2, r3
 1003 0060 1B7A     		ldrb	r3, [r3, #8]	@ zero_extendqisi2
 1004 0062 002B     		cmp	r3, #0
 1005 0064 D9D1     		bne	.L51
 291:.\main.c      ****         }
 292:.\main.c      ****     }
 293:.\main.c      ****     
 294:.\main.c      ****     bool pushed = false, dropped = false;
 1006              		.loc 1 294 0
 1007 0066 4FF00003 		mov	r3, #0
 1008 006a 3B72     		strb	r3, [r7, #8]
 1009 006c 4FF00003 		mov	r3, #0
 1010 0070 7B72     		strb	r3, [r7, #9]
 1011              	.L65:
 295:.\main.c      ****     do {
 296:.\main.c      ****         CapSense_UpdateEnabledBaselines();
 1012              		.loc 1 296 0
 1013 0072 FFF7FEFF 		bl	CapSense_UpdateEnabledBaselines
 297:.\main.c      ****         CapSense_ScanEnabledWidgets();
 1014              		.loc 1 297 0
 1015 0076 FFF7FEFF 		bl	CapSense_ScanEnabledWidgets
 1016              	.L52:
 298:.\main.c      ****         while (CapSense_IsBusy());
 1017              		.loc 1 298 0
 1018 007a FFF7FEFF 		bl	CapSense_IsBusy
 1019 007e 0346     		mov	r3, r0
 1020 0080 002B     		cmp	r3, #0
 1021 0082 FAD1     		bne	.L52
 299:.\main.c      ****         if (CapSense_CheckIsWidgetActive(CapSense_BUTTON0__BTN)) {
 1022              		.loc 1 299 0
ARM GAS  C:\DOCUME~1\david\LOCALS~1\Temp\ccWbOjJF.s 			page 25


 1023 0084 4FF00100 		mov	r0, #1
 1024 0088 FFF7FEFF 		bl	CapSense_CheckIsWidgetActive
 1025 008c 0346     		mov	r3, r0
 1026 008e 002B     		cmp	r3, #0
 1027 0090 1DD0     		beq	.L53
 300:.\main.c      ****         //if ((player1_turn && CapSense_CheckIsWidgetActive(CapSense_BUTTON0__BTN))
 301:.\main.c      ****         //|| (!player1_turn && CapSense_CheckIsWidgetActive(CapSense_BUTTON1__BTN))) { //Helps avoi
 302:.\main.c      ****             if (player1[1][disc] || player2[1][disc]) LCD_UpdateMessage("Column Full");
 1028              		.loc 1 302 0
 1029 0092 FA79     		ldrb	r2, [r7, #7]	@ zero_extendqisi2
 1030 0094 40F20003 		movw	r3, #:lower16:player1
 1031 0098 C0F20003 		movt	r3, #:upper16:player1
 1032 009c 1344     		add	r3, r2, r3
 1033 009e 1B7A     		ldrb	r3, [r3, #8]	@ zero_extendqisi2
 1034 00a0 002B     		cmp	r3, #0
 1035 00a2 08D1     		bne	.L54
 1036 00a4 FA79     		ldrb	r2, [r7, #7]	@ zero_extendqisi2
 1037 00a6 40F20003 		movw	r3, #:lower16:player2
 1038 00aa C0F20003 		movt	r3, #:upper16:player2
 1039 00ae 1344     		add	r3, r2, r3
 1040 00b0 1B7A     		ldrb	r3, [r3, #8]	@ zero_extendqisi2
 1041 00b2 002B     		cmp	r3, #0
 1042 00b4 07D0     		beq	.L55
 1043              	.L54:
 1044 00b6 40F20000 		movw	r0, #:lower16:.LC26
 1045 00ba C0F20000 		movt	r0, #:upper16:.LC26
 1046 00be FFF7FEFF 		bl	LCD_UpdateMessage
 1047 00c2 00BF     		nop
 1048 00c4 7DE0     		b	.L57
 1049              	.L55:
 303:.\main.c      ****             else pushed = true;
 1050              		.loc 1 303 0
 1051 00c6 4FF00103 		mov	r3, #1
 1052 00ca 3B72     		strb	r3, [r7, #8]
 1053 00cc 79E0     		b	.L57
 1054              	.L53:
 304:.\main.c      ****         }
 305:.\main.c      ****         else {
 306:.\main.c      ****             if (pushed) dropped = true;
 1055              		.loc 1 306 0
 1056 00ce 3B7A     		ldrb	r3, [r7, #8]	@ zero_extendqisi2
 1057 00d0 002B     		cmp	r3, #0
 1058 00d2 03D0     		beq	.L58
 1059 00d4 4FF00103 		mov	r3, #1
 1060 00d8 7B72     		strb	r3, [r7, #9]
 1061 00da 72E0     		b	.L57
 1062              	.L58:
 1063              	.LBB4:
 307:.\main.c      ****             else {
 308:.\main.c      ****                 player1[0][disc] = player2[0][disc] = false;
 1064              		.loc 1 308 0
 1065 00dc F979     		ldrb	r1, [r7, #7]	@ zero_extendqisi2
 1066 00de FA79     		ldrb	r2, [r7, #7]	@ zero_extendqisi2
 1067 00e0 40F20003 		movw	r3, #:lower16:player2
 1068 00e4 C0F20003 		movt	r3, #:upper16:player2
 1069 00e8 4FF00000 		mov	r0, #0
 1070 00ec 9854     		strb	r0, [r3, r2]
ARM GAS  C:\DOCUME~1\david\LOCALS~1\Temp\ccWbOjJF.s 			page 26


 1071 00ee 40F20003 		movw	r3, #:lower16:player2
 1072 00f2 C0F20003 		movt	r3, #:upper16:player2
 1073 00f6 9A5C     		ldrb	r2, [r3, r2]	@ zero_extendqisi2
 1074 00f8 40F20003 		movw	r3, #:lower16:player1
 1075 00fc C0F20003 		movt	r3, #:upper16:player1
 1076 0100 5A54     		strb	r2, [r3, r1]
 309:.\main.c      ****                 uint16 reading = (CapSense_GetCentroidPos(CapSense_LINEARSLIDER0__LS)*(MATRIX_COLS-
 1077              		.loc 1 309 0
 1078 0102 4FF00000 		mov	r0, #0
 1079 0106 FFF7FEFF 		bl	CapSense_GetCentroidPos
 1080 010a 0346     		mov	r3, r0
 1081 010c 1A46     		mov	r2, r3
 1082 010e 1346     		mov	r3, r2
 1083 0110 4FEAC303 		lsl	r3, r3, #3
 1084 0114 C2EB0302 		rsb	r2, r2, r3
 1085 0118 40F2EB73 		movw	r3, #:lower16:354224107
 1086 011c C1F21D53 		movt	r3, #:upper16:354224107
 1087 0120 83FB0213 		smull	r1, r3, r3, r2
 1088 0124 4FEAE301 		asr	r1, r3, #3
 1089 0128 4FEAE273 		asr	r3, r2, #31
 1090 012c C3EB0103 		rsb	r3, r3, r1
 1091 0130 7B81     		strh	r3, [r7, #10]	@ movhi
 310:.\main.c      ****                 if (reading < 8) disc = reading;
 1092              		.loc 1 310 0
 1093 0132 7B89     		ldrh	r3, [r7, #10]
 1094 0134 072B     		cmp	r3, #7
 1095 0136 01D8     		bhi	.L59
 1096 0138 7B89     		ldrh	r3, [r7, #10]	@ movhi
 1097 013a FB71     		strb	r3, [r7, #7]
 1098              	.L59:
 311:.\main.c      ****                 
 312:.\main.c      ****                 //guide
 313:.\main.c      ****                 int dir = 1;
 1099              		.loc 1 313 0
 1100 013c 4FF00103 		mov	r3, #1
 1101 0140 FB60     		str	r3, [r7, #12]
 314:.\main.c      ****                 while (player1[1][disc] || player2[1][disc]) {
 1102              		.loc 1 314 0
 1103 0142 14E0     		b	.L60
 1104              	.L63:
 315:.\main.c      ****                     if (disc >= MATRIX_COLS-1)  dir = -1;
 1105              		.loc 1 315 0
 1106 0144 FB79     		ldrb	r3, [r7, #7]	@ zero_extendqisi2
 1107 0146 062B     		cmp	r3, #6
 1108 0148 02D9     		bls	.L61
 1109 014a 4FF0FF33 		mov	r3, #-1
 1110 014e FB60     		str	r3, [r7, #12]
 1111              	.L61:
 316:.\main.c      ****                     if (disc == 0 && dir == -1) dir =  1; // DEBUG redundant?
 1112              		.loc 1 316 0
 1113 0150 FB79     		ldrb	r3, [r7, #7]	@ zero_extendqisi2
 1114 0152 002B     		cmp	r3, #0
 1115 0154 06D1     		bne	.L62
 1116 0156 FB68     		ldr	r3, [r7, #12]
 1117 0158 B3F1FF3F 		cmp	r3, #-1
 1118 015c 02D1     		bne	.L62
 1119 015e 4FF00103 		mov	r3, #1
ARM GAS  C:\DOCUME~1\david\LOCALS~1\Temp\ccWbOjJF.s 			page 27


 1120 0162 FB60     		str	r3, [r7, #12]
 1121              	.L62:
 317:.\main.c      ****                     disc += dir;
 1122              		.loc 1 317 0
 1123 0164 FB68     		ldr	r3, [r7, #12]
 1124 0166 DAB2     		uxtb	r2, r3
 1125 0168 FB79     		ldrb	r3, [r7, #7]
 1126 016a 1344     		add	r3, r2, r3
 1127 016c FB71     		strb	r3, [r7, #7]
 1128              	.L60:
 1129              		.loc 1 314 0
 1130 016e FA79     		ldrb	r2, [r7, #7]	@ zero_extendqisi2
 1131 0170 40F20003 		movw	r3, #:lower16:player1
 1132 0174 C0F20003 		movt	r3, #:upper16:player1
 1133 0178 1344     		add	r3, r2, r3
 1134 017a 1B7A     		ldrb	r3, [r3, #8]	@ zero_extendqisi2
 1135 017c 002B     		cmp	r3, #0
 1136 017e E1D1     		bne	.L63
 1137 0180 FA79     		ldrb	r2, [r7, #7]	@ zero_extendqisi2
 1138 0182 40F20003 		movw	r3, #:lower16:player2
 1139 0186 C0F20003 		movt	r3, #:upper16:player2
 1140 018a 1344     		add	r3, r2, r3
 1141 018c 1B7A     		ldrb	r3, [r3, #8]	@ zero_extendqisi2
 1142 018e 002B     		cmp	r3, #0
 1143 0190 D8D1     		bne	.L63
 318:.\main.c      ****                 }
 319:.\main.c      ****                 if (player1_turn) player1[0][disc] = true;
 1144              		.loc 1 319 0
 1145 0192 40F20003 		movw	r3, #:lower16:player1_turn
 1146 0196 C0F20003 		movt	r3, #:upper16:player1_turn
 1147 019a 1B78     		ldrb	r3, [r3, #0]	@ zero_extendqisi2
 1148 019c 002B     		cmp	r3, #0
 1149 019e 08D0     		beq	.L64
 1150 01a0 FA79     		ldrb	r2, [r7, #7]	@ zero_extendqisi2
 1151 01a2 40F20003 		movw	r3, #:lower16:player1
 1152 01a6 C0F20003 		movt	r3, #:upper16:player1
 1153 01aa 4FF00101 		mov	r1, #1
 1154 01ae 9954     		strb	r1, [r3, r2]
 1155 01b0 07E0     		b	.L57
 1156              	.L64:
 320:.\main.c      ****                 else              player2[0][disc] = true;
 1157              		.loc 1 320 0
 1158 01b2 FA79     		ldrb	r2, [r7, #7]	@ zero_extendqisi2
 1159 01b4 40F20003 		movw	r3, #:lower16:player2
 1160 01b8 C0F20003 		movt	r3, #:upper16:player2
 1161 01bc 4FF00101 		mov	r1, #1
 1162 01c0 9954     		strb	r1, [r3, r2]
 1163              	.L57:
 1164              	.LBE4:
 321:.\main.c      ****             }
 322:.\main.c      ****         }
 323:.\main.c      ****     } while (!dropped);
 1165              		.loc 1 323 0
 1166 01c2 7B7A     		ldrb	r3, [r7, #9]
 1167 01c4 83F00103 		eor	r3, r3, #1
 1168 01c8 DBB2     		uxtb	r3, r3
 1169 01ca 002B     		cmp	r3, #0
ARM GAS  C:\DOCUME~1\david\LOCALS~1\Temp\ccWbOjJF.s 			page 28


 1170 01cc 7FF451AF 		bne	.L65
 324:.\main.c      ****     player1[0][disc] = player2[0][disc] = false;
 1171              		.loc 1 324 0
 1172 01d0 F979     		ldrb	r1, [r7, #7]	@ zero_extendqisi2
 1173 01d2 FA79     		ldrb	r2, [r7, #7]	@ zero_extendqisi2
 1174 01d4 40F20003 		movw	r3, #:lower16:player2
 1175 01d8 C0F20003 		movt	r3, #:upper16:player2
 1176 01dc 4FF00000 		mov	r0, #0
 1177 01e0 9854     		strb	r0, [r3, r2]
 1178 01e2 40F20003 		movw	r3, #:lower16:player2
 1179 01e6 C0F20003 		movt	r3, #:upper16:player2
 1180 01ea 9A5C     		ldrb	r2, [r3, r2]	@ zero_extendqisi2
 1181 01ec 40F20003 		movw	r3, #:lower16:player1
 1182 01f0 C0F20003 		movt	r3, #:upper16:player1
 1183 01f4 5A54     		strb	r2, [r3, r1]
 325:.\main.c      ****     return disc;
 1184              		.loc 1 325 0
 1185 01f6 FB79     		ldrb	r3, [r7, #7]	@ zero_extendqisi2
 326:.\main.c      **** }
 1186              		.loc 1 326 0
 1187 01f8 1846     		mov	r0, r3
 1188 01fa 07F11007 		add	r7, r7, #16
 1189 01fe BD46     		mov	sp, r7
 1190 0200 80BD     		pop	{r7, pc}
 1191              		.cfi_endproc
 1192              	.LFE35:
 1193              		.size	get_move, .-get_move
 1194 0202 00BF     		.section	.text.receive_move,"ax",%progbits
 1195              		.align	2
 1196              		.global	receive_move
 1197              		.thumb
 1198              		.thumb_func
 1199              		.type	receive_move, %function
 1200              	receive_move:
 1201              	.LFB36:
 327:.\main.c      **** 
 328:.\main.c      **** 
 329:.\main.c      **** 
 330:.\main.c      **** 
 331:.\main.c      **** uint8 receive_move () {
 1202              		.loc 1 331 0
 1203              		.cfi_startproc
 1204              		@ args = 0, pretend = 0, frame = 8
 1205              		@ frame_needed = 1, uses_anonymous_args = 0
 1206 0000 80B5     		push	{r7, lr}
 1207              	.LCFI19:
 1208              		.cfi_def_cfa_offset 8
 1209 0002 82B0     		sub	sp, sp, #8
 1210              	.LCFI20:
 1211              		.cfi_def_cfa_offset 16
 1212 0004 00AF     		add	r7, sp, #0
 1213              		.cfi_offset 14, -4
 1214              		.cfi_offset 7, -8
 1215              	.LCFI21:
 1216              		.cfi_def_cfa_register 7
 1217              	.L69:
 332:.\main.c      ****     play_t move;
ARM GAS  C:\DOCUME~1\david\LOCALS~1\Temp\ccWbOjJF.s 			page 29


 333:.\main.c      ****     while (true) {
 334:.\main.c      ****         receive_packet(&move);
 1218              		.loc 1 334 0
 1219 0006 07F10403 		add	r3, r7, #4
 1220 000a 1846     		mov	r0, r3
 1221 000c FFF7FEFF 		bl	receive_packet
 335:.\main.c      ****         move.row = MATRIX_ROWS-move.row;
 1222              		.loc 1 335 0
 1223 0010 3B79     		ldrb	r3, [r7, #4]	@ zero_extendqisi2
 1224 0012 C3F10803 		rsb	r3, r3, #8
 1225 0016 DBB2     		uxtb	r3, r3
 1226 0018 3B71     		strb	r3, [r7, #4]
 336:.\main.c      ****         --move.col;
 1227              		.loc 1 336 0
 1228 001a 7B79     		ldrb	r3, [r7, #5]	@ zero_extendqisi2
 1229 001c 03F1FF33 		add	r3, r3, #-1
 1230 0020 DBB2     		uxtb	r3, r3
 1231 0022 7B71     		strb	r3, [r7, #5]
 337:.\main.c      ****         if (player2[move.row][move.col]) send_packet(&last_move);
 1232              		.loc 1 337 0
 1233 0024 3B79     		ldrb	r3, [r7, #4]	@ zero_extendqisi2
 1234 0026 1946     		mov	r1, r3
 1235 0028 7B79     		ldrb	r3, [r7, #5]	@ zero_extendqisi2
 1236 002a 1A46     		mov	r2, r3
 1237 002c 40F20003 		movw	r3, #:lower16:player2
 1238 0030 C0F20003 		movt	r3, #:upper16:player2
 1239 0034 4FEAC101 		lsl	r1, r1, #3
 1240 0038 0A44     		add	r2, r1, r2
 1241 003a 1344     		add	r3, r2, r3
 1242 003c 1B78     		ldrb	r3, [r3, #0]	@ zero_extendqisi2
 1243 003e 002B     		cmp	r3, #0
 1244 0040 06D0     		beq	.L68
 1245 0042 40F20000 		movw	r0, #:lower16:last_move
 1246 0046 C0F20000 		movt	r0, #:upper16:last_move
 1247 004a FFF7FEFF 		bl	send_packet
 338:.\main.c      ****         else break;
 339:.\main.c      ****     }
 1248              		.loc 1 339 0
 1249 004e DAE7     		b	.L69
 1250              	.L68:
 340:.\main.c      ****     UART_ClearRxBuffer();
 1251              		.loc 1 340 0
 1252 0050 FFF7FEFF 		bl	UART_ClearRxBuffer
 341:.\main.c      ****     return move.col; 
 1253              		.loc 1 341 0
 1254 0054 7B79     		ldrb	r3, [r7, #5]	@ zero_extendqisi2
 342:.\main.c      **** }
 1255              		.loc 1 342 0
 1256 0056 1846     		mov	r0, r3
 1257 0058 07F10807 		add	r7, r7, #8
 1258 005c BD46     		mov	sp, r7
 1259 005e 80BD     		pop	{r7, pc}
 1260              		.cfi_endproc
 1261              	.LFE36:
 1262              		.size	receive_move, .-receive_move
 1263              		.section	.rodata
 1264              		.align	2
ARM GAS  C:\DOCUME~1\david\LOCALS~1\Temp\ccWbOjJF.s 			page 30


 1265              	.LC27:
 1266 0118 77616974 		.ascii	"waiting\000"
 1266      696E6700 
 1267              		.align	2
 1268              	.LC28:
 1269 0120 20202020 		.ascii	"         \000"
 1269      20202020 
 1269      2000
 1270              		.section	.text.receive_packet,"ax",%progbits
 1271              		.align	2
 1272              		.global	receive_packet
 1273              		.thumb
 1274              		.thumb_func
 1275              		.type	receive_packet, %function
 1276              	receive_packet:
 1277              	.LFB37:
 343:.\main.c      **** 
 344:.\main.c      **** 
 345:.\main.c      **** 
 346:.\main.c      **** 
 347:.\main.c      **** void receive_packet ( play_t * move ) {
 1278              		.loc 1 347 0
 1279              		.cfi_startproc
 1280              		@ args = 0, pretend = 0, frame = 16
 1281              		@ frame_needed = 1, uses_anonymous_args = 0
 1282 0000 80B5     		push	{r7, lr}
 1283              	.LCFI22:
 1284              		.cfi_def_cfa_offset 8
 1285 0002 84B0     		sub	sp, sp, #16
 1286              	.LCFI23:
 1287              		.cfi_def_cfa_offset 24
 1288 0004 00AF     		add	r7, sp, #0
 1289              		.cfi_offset 14, -4
 1290              		.cfi_offset 7, -8
 1291              	.LCFI24:
 1292              		.cfi_def_cfa_register 7
 1293 0006 7860     		str	r0, [r7, #4]
 348:.\main.c      ****     UART_ClearRxBuffer();
 1294              		.loc 1 348 0
 1295 0008 FFF7FEFF 		bl	UART_ClearRxBuffer
 1296              	.L83:
 1297              	.LBB5:
 349:.\main.c      ****     while (true) {
 350:.\main.c      ****         LCD_UpdateMessage("waiting");
 1298              		.loc 1 350 0
 1299 000c 40F20000 		movw	r0, #:lower16:.LC27
 1300 0010 C0F20000 		movt	r0, #:upper16:.LC27
 1301 0014 FFF7FEFF 		bl	LCD_UpdateMessage
 351:.\main.c      ****         LCD_Position(1,7);
 1302              		.loc 1 351 0
 1303 0018 4FF00100 		mov	r0, #1
 1304 001c 4FF00701 		mov	r1, #7
 1305 0020 FFF7FEFF 		bl	LCD_Position
 352:.\main.c      ****         LCD_PrintString("         ");
 1306              		.loc 1 352 0
 1307 0024 40F20000 		movw	r0, #:lower16:.LC28
 1308 0028 C0F20000 		movt	r0, #:upper16:.LC28
ARM GAS  C:\DOCUME~1\david\LOCALS~1\Temp\ccWbOjJF.s 			page 31


 1309 002c FFF7FEFF 		bl	LCD_PrintString
 353:.\main.c      ****         LCD_Position(1,7);
 1310              		.loc 1 353 0
 1311 0030 4FF00100 		mov	r0, #1
 1312 0034 4FF00701 		mov	r1, #7
 1313 0038 FFF7FEFF 		bl	LCD_Position
 354:.\main.c      ****         uint8 vol;
 355:.\main.c      ****         for (vol=(UART_GetRxBufferSize()*8)/128; vol > 0 ;--vol) LCD_PutChar('.');
 1314              		.loc 1 355 0
 1315 003c FFF7FEFF 		bl	UART_GetRxBufferSize
 1316 0040 0346     		mov	r3, r0
 1317 0042 4FEAC303 		lsl	r3, r3, #3
 1318 0046 03F17F02 		add	r2, r3, #127
 1319 004a 002B     		cmp	r3, #0
 1320 004c B8BF     		it	lt
 1321 004e 1346     		movlt	r3, r2
 1322 0050 4FEAE313 		asr	r3, r3, #7
 1323 0054 FB73     		strb	r3, [r7, #15]
 1324 0056 07E0     		b	.L72
 1325              	.L73:
 1326 0058 4FF02E00 		mov	r0, #46
 1327 005c FFF7FEFF 		bl	LCD_PutChar
 1328 0060 FB7B     		ldrb	r3, [r7, #15]
 1329 0062 03F1FF33 		add	r3, r3, #-1
 1330 0066 FB73     		strb	r3, [r7, #15]
 1331              	.L72:
 1332 0068 FB7B     		ldrb	r3, [r7, #15]	@ zero_extendqisi2
 1333 006a 002B     		cmp	r3, #0
 1334 006c F4D1     		bne	.L73
 1335              	.L75:
 356:.\main.c      ****         
 357:.\main.c      ****         do if (UART_GetTxBufferSize() == 0) {
 1336              		.loc 1 357 0
 1337 006e FFF7FEFF 		bl	UART_GetTxBufferSize
 1338 0072 0346     		mov	r3, r0
 1339 0074 002B     		cmp	r3, #0
 1340 0076 09D1     		bne	.L74
 358:.\main.c      ****             send_packet(&last_move);
 1341              		.loc 1 358 0
 1342 0078 40F20000 		movw	r0, #:lower16:last_move
 1343 007c C0F20000 		movt	r0, #:upper16:last_move
 1344 0080 FFF7FEFF 		bl	send_packet
 359:.\main.c      ****             CyDelay(50);
 1345              		.loc 1 359 0
 1346 0084 4FF03200 		mov	r0, #50
 1347 0088 FFF7FEFF 		bl	CyDelay
 1348              	.L74:
 360:.\main.c      ****         }
 361:.\main.c      ****         while (UART_GetRxBufferSize() < 4);
 1349              		.loc 1 361 0
 1350 008c FFF7FEFF 		bl	UART_GetRxBufferSize
 1351 0090 0346     		mov	r3, r0
 1352 0092 032B     		cmp	r3, #3
 1353 0094 EBD9     		bls	.L75
 362:.\main.c      ****         if (UART_ReadRxData() != PLAYER2_ID) continue;
 1354              		.loc 1 362 0
 1355 0096 FFF7FEFF 		bl	UART_ReadRxData
ARM GAS  C:\DOCUME~1\david\LOCALS~1\Temp\ccWbOjJF.s 			page 32


 1356 009a 0346     		mov	r3, r0
 1357 009c 852B     		cmp	r3, #133
 1358 009e 00D0     		beq	.L76
 1359 00a0 2EE0     		b	.L77
 1360              	.L76:
 363:.\main.c      ****         
 364:.\main.c      ****         while (UART_GetRxBufferSize() == 0);
 1361              		.loc 1 364 0
 1362 00a2 FFF7FEFF 		bl	UART_GetRxBufferSize
 1363 00a6 0346     		mov	r3, r0
 1364 00a8 002B     		cmp	r3, #0
 1365 00aa FAD0     		beq	.L76
 365:.\main.c      ****         if (UART_ReadRxData() != PACKET_TYPE); // DEBUG newer?
 1366              		.loc 1 365 0
 1367 00ac FFF7FEFF 		bl	UART_ReadRxData
 1368              	.L78:
 366:.\main.c      ****         
 367:.\main.c      ****         while (UART_GetRxBufferSize() == 0);
 1369              		.loc 1 367 0
 1370 00b0 FFF7FEFF 		bl	UART_GetRxBufferSize
 1371 00b4 0346     		mov	r3, r0
 1372 00b6 002B     		cmp	r3, #0
 1373 00b8 FAD0     		beq	.L78
 368:.\main.c      ****         move->row = UART_ReadRxData();
 1374              		.loc 1 368 0
 1375 00ba FFF7FEFF 		bl	UART_ReadRxData
 1376 00be 0346     		mov	r3, r0
 1377 00c0 1A46     		mov	r2, r3
 1378 00c2 7B68     		ldr	r3, [r7, #4]
 1379 00c4 1A70     		strb	r2, [r3, #0]
 369:.\main.c      ****         if (move->row < 1 || move->row > MATRIX_ROWS-1) continue;
 1380              		.loc 1 369 0
 1381 00c6 7B68     		ldr	r3, [r7, #4]
 1382 00c8 1B78     		ldrb	r3, [r3, #0]	@ zero_extendqisi2
 1383 00ca 002B     		cmp	r3, #0
 1384 00cc 03D0     		beq	.L79
 1385 00ce 7B68     		ldr	r3, [r7, #4]
 1386 00d0 1B78     		ldrb	r3, [r3, #0]	@ zero_extendqisi2
 1387 00d2 072B     		cmp	r3, #7
 1388 00d4 00D9     		bls	.L80
 1389              	.L79:
 1390 00d6 13E0     		b	.L77
 1391              	.L80:
 370:.\main.c      ****         
 371:.\main.c      ****         while (UART_GetRxBufferSize() == 0);
 1392              		.loc 1 371 0
 1393 00d8 FFF7FEFF 		bl	UART_GetRxBufferSize
 1394 00dc 0346     		mov	r3, r0
 1395 00de 002B     		cmp	r3, #0
 1396 00e0 FAD0     		beq	.L80
 372:.\main.c      ****         move->col = UART_ReadRxData();
 1397              		.loc 1 372 0
 1398 00e2 FFF7FEFF 		bl	UART_ReadRxData
 1399 00e6 0346     		mov	r3, r0
 1400 00e8 1A46     		mov	r2, r3
 1401 00ea 7B68     		ldr	r3, [r7, #4]
 1402 00ec 5A70     		strb	r2, [r3, #1]
ARM GAS  C:\DOCUME~1\david\LOCALS~1\Temp\ccWbOjJF.s 			page 33


 373:.\main.c      ****         if (move->col < 1 || move->row > MATRIX_COLS) continue;
 1403              		.loc 1 373 0
 1404 00ee 7B68     		ldr	r3, [r7, #4]
 1405 00f0 5B78     		ldrb	r3, [r3, #1]	@ zero_extendqisi2
 1406 00f2 002B     		cmp	r3, #0
 1407 00f4 03D0     		beq	.L81
 1408 00f6 7B68     		ldr	r3, [r7, #4]
 1409 00f8 1B78     		ldrb	r3, [r3, #0]	@ zero_extendqisi2
 1410 00fa 082B     		cmp	r3, #8
 1411 00fc 01D9     		bls	.L85
 1412              	.L81:
 1413 00fe 00BF     		nop
 1414              	.L77:
 1415              	.LBE5:
 374:.\main.c      ****         
 375:.\main.c      ****         break;
 376:.\main.c      ****     }
 1416              		.loc 1 376 0
 1417 0100 84E7     		b	.L83
 1418              	.L85:
 377:.\main.c      **** }
 1419              		.loc 1 377 0
 1420 0102 00BF     		nop
 1421              	.L84:
 1422 0104 07F11007 		add	r7, r7, #16
 1423 0108 BD46     		mov	sp, r7
 1424 010a 80BD     		pop	{r7, pc}
 1425              		.cfi_endproc
 1426              	.LFE37:
 1427              		.size	receive_packet, .-receive_packet
 1428              		.section	.text.send_packet,"ax",%progbits
 1429              		.align	2
 1430              		.global	send_packet
 1431              		.thumb
 1432              		.thumb_func
 1433              		.type	send_packet, %function
 1434              	send_packet:
 1435              	.LFB38:
 378:.\main.c      **** 
 379:.\main.c      **** 
 380:.\main.c      **** 
 381:.\main.c      **** 
 382:.\main.c      **** void send_packet ( play_t * move ) {
 1436              		.loc 1 382 0
 1437              		.cfi_startproc
 1438              		@ args = 0, pretend = 0, frame = 24
 1439              		@ frame_needed = 1, uses_anonymous_args = 0
 1440 0000 80B5     		push	{r7, lr}
 1441              	.LCFI25:
 1442              		.cfi_def_cfa_offset 8
 1443 0002 86B0     		sub	sp, sp, #24
 1444              	.LCFI26:
 1445              		.cfi_def_cfa_offset 32
 1446 0004 00AF     		add	r7, sp, #0
 1447              		.cfi_offset 14, -4
 1448              		.cfi_offset 7, -8
 1449              	.LCFI27:
ARM GAS  C:\DOCUME~1\david\LOCALS~1\Temp\ccWbOjJF.s 			page 34


 1450              		.cfi_def_cfa_register 7
 1451 0006 7860     		str	r0, [r7, #4]
 383:.\main.c      **** 
 384:.\main.c      ****     /**************************/
 385:.\main.c      ****     char   delimiter   = '~';
 1452              		.loc 1 385 0
 1453 0008 4FF07E03 		mov	r3, #126
 1454 000c 7B73     		strb	r3, [r7, #13]
 386:.\main.c      ****     uint8  api_id      = 0x01;
 1455              		.loc 1 386 0
 1456 000e 4FF00103 		mov	r3, #1
 1457 0012 BB73     		strb	r3, [r7, #14]
 387:.\main.c      ****     uint8  frame_id    = 0x00;
 1458              		.loc 1 387 0
 1459 0014 4FF00003 		mov	r3, #0
 1460 0018 FB73     		strb	r3, [r7, #15]
 388:.\main.c      ****     uint16 destination = 0xFFFF; //broadcast
 1461              		.loc 1 388 0
 1462 001a 4FF6FF73 		movw	r3, #65535
 1463 001e 3B82     		strh	r3, [r7, #16]	@ movhi
 389:.\main.c      ****     uint8  disable_ack = 0x01;
 1464              		.loc 1 389 0
 1465 0020 4FF00103 		mov	r3, #1
 1466 0024 FB74     		strb	r3, [r7, #19]
 390:.\main.c      ****     /**************************/
 391:.\main.c      ****     
 392:.\main.c      ****     uint16 length = sizeof(destination) +
 393:.\main.c      ****                     sizeof(api_id) +
 394:.\main.c      ****                     sizeof(frame_id) +
 395:.\main.c      ****                     sizeof(disable_ack) +
 396:.\main.c      ****                     4; //Payload: Player ID, Packet Type, Row, Column
 1467              		.loc 1 396 0
 1468 0026 4FF00903 		mov	r3, #9
 1469 002a BB82     		strh	r3, [r7, #20]	@ movhi
 397:.\main.c      ****     
 398:.\main.c      ****     uint8 checksum = 0xFF - (uint8) (api_id +
 399:.\main.c      ****                                      frame_id +
 400:.\main.c      ****                                     ((uint8) (destination >> 8)) +
 401:.\main.c      ****                                     ((uint8)  destination) +
 402:.\main.c      ****                                      disable_ack +
 403:.\main.c      ****                                      PLAYER1_ID +
 404:.\main.c      ****                                      PACKET_TYPE +
 405:.\main.c      ****                                      move->row +
 406:.\main.c      ****                                      move->col);
 1470              		.loc 1 406 0
 1471 002c BA7B     		ldrb	r2, [r7, #14]
 1472 002e FB7B     		ldrb	r3, [r7, #15]
 1473 0030 1344     		add	r3, r2, r3
 1474 0032 DAB2     		uxtb	r2, r3
 1475              		.loc 1 400 0
 1476 0034 3B8A     		ldrh	r3, [r7, #16]
 1477 0036 4FEA1323 		lsr	r3, r3, #8
 1478 003a 9BB2     		uxth	r3, r3
 1479 003c DBB2     		uxtb	r3, r3
 1480              		.loc 1 406 0
 1481 003e 1344     		add	r3, r2, r3
 1482 0040 DAB2     		uxtb	r2, r3
ARM GAS  C:\DOCUME~1\david\LOCALS~1\Temp\ccWbOjJF.s 			page 35


 1483              		.loc 1 401 0
 1484 0042 3B8A     		ldrh	r3, [r7, #16]	@ movhi
 1485 0044 DBB2     		uxtb	r3, r3
 1486              		.loc 1 406 0
 1487 0046 1344     		add	r3, r2, r3
 1488 0048 DAB2     		uxtb	r2, r3
 1489 004a FB7C     		ldrb	r3, [r7, #19]
 1490 004c 1344     		add	r3, r2, r3
 1491 004e DAB2     		uxtb	r2, r3
 1492 0050 7B68     		ldr	r3, [r7, #4]
 1493 0052 1B78     		ldrb	r3, [r3, #0]	@ zero_extendqisi2
 1494 0054 1344     		add	r3, r2, r3
 1495 0056 DAB2     		uxtb	r2, r3
 1496 0058 7B68     		ldr	r3, [r7, #4]
 1497 005a 5B78     		ldrb	r3, [r3, #1]	@ zero_extendqisi2
 1498 005c 1344     		add	r3, r2, r3
 1499 005e DBB2     		uxtb	r3, r3
 1500 0060 A3F12603 		sub	r3, r3, #38
 1501 0064 DBB2     		uxtb	r3, r3
 1502 0066 6FEA0303 		mvn	r3, r3
 1503 006a FB75     		strb	r3, [r7, #23]
 407:.\main.c      ****     
 408:.\main.c      ****     
 409:.\main.c      ****     /* DEBUG *
 410:.\main.c      ****     uint16 delay = 100;
 411:.\main.c      ****     
 412:.\main.c      ****     LCD_UpdateStatus("Delimiter");
 413:.\main.c      ****     LCD_ClearLine(1);
 414:.\main.c      ****     LCD_PutChar(delimiter);
 415:.\main.c      ****     LCD_Position(1,2);
 416:.\main.c      ****     LCD_PrintNumber(delimiter);
 417:.\main.c      ****     CyDelay(delay);
 418:.\main.c      ****     
 419:.\main.c      ****     LCD_UpdateStatus("Length");
 420:.\main.c      ****     LCD_ClearLine(1);
 421:.\main.c      ****     LCD_PrintNumber(length);
 422:.\main.c      ****     CyDelay(delay);
 423:.\main.c      ****     
 424:.\main.c      ****     LCD_UpdateStatus("API ID");
 425:.\main.c      ****     LCD_ClearLine(1);
 426:.\main.c      ****     LCD_PrintString("0x");
 427:.\main.c      ****     LCD_PrintInt8(api_id);
 428:.\main.c      ****     CyDelay(delay);
 429:.\main.c      ****     
 430:.\main.c      ****     LCD_UpdateStatus("Frame ID");
 431:.\main.c      ****     LCD_ClearLine(1);
 432:.\main.c      ****     LCD_PrintString("0x");
 433:.\main.c      ****     LCD_PrintInt8(frame_id);
 434:.\main.c      ****     CyDelay(delay);
 435:.\main.c      ****     
 436:.\main.c      ****     LCD_UpdateStatus("Destination");
 437:.\main.c      ****     LCD_ClearLine(1);
 438:.\main.c      ****     LCD_PrintString("0x");
 439:.\main.c      ****     LCD_PrintInt16(destination);
 440:.\main.c      ****     CyDelay(delay);
 441:.\main.c      ****     
 442:.\main.c      ****     LCD_UpdateStatus("Disable ACK");
ARM GAS  C:\DOCUME~1\david\LOCALS~1\Temp\ccWbOjJF.s 			page 36


 443:.\main.c      ****     LCD_ClearLine(1);
 444:.\main.c      ****     LCD_PrintString("0x");
 445:.\main.c      ****     LCD_PrintInt8(disable_ack);
 446:.\main.c      ****     CyDelay(delay);
 447:.\main.c      ****     
 448:.\main.c      ****     LCD_UpdateStatus("Player ID");
 449:.\main.c      ****     LCD_ClearLine(1);
 450:.\main.c      ****     LCD_PrintString("0x");
 451:.\main.c      ****     LCD_PrintInt8(PLAYER1_ID);
 452:.\main.c      ****     CyDelay(delay);
 453:.\main.c      ****     
 454:.\main.c      ****     LCD_UpdateStatus("Packet Type");
 455:.\main.c      ****     LCD_ClearLine(1);
 456:.\main.c      ****     LCD_PrintString("0x");
 457:.\main.c      ****     LCD_PrintInt8(PACKET_TYPE);
 458:.\main.c      ****     CyDelay(delay);
 459:.\main.c      ****     
 460:.\main.c      ****     LCD_UpdateStatus("Row");
 461:.\main.c      ****     LCD_ClearLine(1);
 462:.\main.c      ****     LCD_PrintNumber(move->row);
 463:.\main.c      ****     CyDelay(delay);
 464:.\main.c      ****     
 465:.\main.c      ****     LCD_UpdateStatus("Column");
 466:.\main.c      ****     LCD_ClearLine(1);
 467:.\main.c      ****     LCD_PrintNumber(move->col);
 468:.\main.c      ****     CyDelay(delay);
 469:.\main.c      ****     
 470:.\main.c      ****     LCD_UpdateStatus("Checksum");
 471:.\main.c      ****     LCD_ClearLine(1);
 472:.\main.c      ****     LCD_PrintString("0x");
 473:.\main.c      ****     LCD_PrintInt8(checksum);
 474:.\main.c      ****     CyDelay(delay);
 475:.\main.c      ****     /**/
 476:.\main.c      ****     
 477:.\main.c      ****     
 478:.\main.c      ****     UART_ClearTxBuffer();
 1504              		.loc 1 478 0
 1505 006c FFF7FEFF 		bl	UART_ClearTxBuffer
 479:.\main.c      ****     UART_WriteTxData(delimiter);
 1506              		.loc 1 479 0
 1507 0070 7B7B     		ldrb	r3, [r7, #13]	@ zero_extendqisi2
 1508 0072 1846     		mov	r0, r3
 1509 0074 FFF7FEFF 		bl	UART_WriteTxData
 480:.\main.c      ****     UART_WriteTxData((uint8) (length >> 8));
 1510              		.loc 1 480 0
 1511 0078 BB8A     		ldrh	r3, [r7, #20]
 1512 007a 4FEA1323 		lsr	r3, r3, #8
 1513 007e 9BB2     		uxth	r3, r3
 1514 0080 DBB2     		uxtb	r3, r3
 1515 0082 1846     		mov	r0, r3
 1516 0084 FFF7FEFF 		bl	UART_WriteTxData
 481:.\main.c      ****     UART_WriteTxData((uint8)  length);
 1517              		.loc 1 481 0
 1518 0088 BB8A     		ldrh	r3, [r7, #20]	@ movhi
 1519 008a DBB2     		uxtb	r3, r3
 1520 008c 1846     		mov	r0, r3
 1521 008e FFF7FEFF 		bl	UART_WriteTxData
ARM GAS  C:\DOCUME~1\david\LOCALS~1\Temp\ccWbOjJF.s 			page 37


 482:.\main.c      ****     UART_WriteTxData(api_id);
 1522              		.loc 1 482 0
 1523 0092 BB7B     		ldrb	r3, [r7, #14]	@ zero_extendqisi2
 1524 0094 1846     		mov	r0, r3
 1525 0096 FFF7FEFF 		bl	UART_WriteTxData
 483:.\main.c      ****     UART_WriteTxData(frame_id);
 1526              		.loc 1 483 0
 1527 009a FB7B     		ldrb	r3, [r7, #15]	@ zero_extendqisi2
 1528 009c 1846     		mov	r0, r3
 1529 009e FFF7FEFF 		bl	UART_WriteTxData
 484:.\main.c      ****     UART_WriteTxData((uint8) (destination >> 8));
 1530              		.loc 1 484 0
 1531 00a2 3B8A     		ldrh	r3, [r7, #16]
 1532 00a4 4FEA1323 		lsr	r3, r3, #8
 1533 00a8 9BB2     		uxth	r3, r3
 1534 00aa DBB2     		uxtb	r3, r3
 1535 00ac 1846     		mov	r0, r3
 1536 00ae FFF7FEFF 		bl	UART_WriteTxData
 485:.\main.c      ****     UART_WriteTxData((uint8)  destination);
 1537              		.loc 1 485 0
 1538 00b2 3B8A     		ldrh	r3, [r7, #16]	@ movhi
 1539 00b4 DBB2     		uxtb	r3, r3
 1540 00b6 1846     		mov	r0, r3
 1541 00b8 FFF7FEFF 		bl	UART_WriteTxData
 486:.\main.c      ****     UART_WriteTxData(disable_ack);
 1542              		.loc 1 486 0
 1543 00bc FB7C     		ldrb	r3, [r7, #19]	@ zero_extendqisi2
 1544 00be 1846     		mov	r0, r3
 1545 00c0 FFF7FEFF 		bl	UART_WriteTxData
 487:.\main.c      ****     UART_WriteTxData(PLAYER1_ID);
 1546              		.loc 1 487 0
 1547 00c4 4FF0DA00 		mov	r0, #218
 1548 00c8 FFF7FEFF 		bl	UART_WriteTxData
 488:.\main.c      ****     UART_WriteTxData(PACKET_TYPE);
 1549              		.loc 1 488 0
 1550 00cc 4FF00000 		mov	r0, #0
 1551 00d0 FFF7FEFF 		bl	UART_WriteTxData
 489:.\main.c      ****     UART_WriteTxData(move->row);
 1552              		.loc 1 489 0
 1553 00d4 7B68     		ldr	r3, [r7, #4]
 1554 00d6 1B78     		ldrb	r3, [r3, #0]	@ zero_extendqisi2
 1555 00d8 1846     		mov	r0, r3
 1556 00da FFF7FEFF 		bl	UART_WriteTxData
 490:.\main.c      ****     UART_WriteTxData(move->col);
 1557              		.loc 1 490 0
 1558 00de 7B68     		ldr	r3, [r7, #4]
 1559 00e0 5B78     		ldrb	r3, [r3, #1]	@ zero_extendqisi2
 1560 00e2 1846     		mov	r0, r3
 1561 00e4 FFF7FEFF 		bl	UART_WriteTxData
 491:.\main.c      ****     UART_WriteTxData(checksum);
 1562              		.loc 1 491 0
 1563 00e8 FB7D     		ldrb	r3, [r7, #23]	@ zero_extendqisi2
 1564 00ea 1846     		mov	r0, r3
 1565 00ec FFF7FEFF 		bl	UART_WriteTxData
 492:.\main.c      **** }
 1566              		.loc 1 492 0
 1567 00f0 07F11807 		add	r7, r7, #24
ARM GAS  C:\DOCUME~1\david\LOCALS~1\Temp\ccWbOjJF.s 			page 38


 1568 00f4 BD46     		mov	sp, r7
 1569 00f6 80BD     		pop	{r7, pc}
 1570              		.cfi_endproc
 1571              	.LFE38:
 1572              		.size	send_packet, .-send_packet
 1573              		.section	.text.send_move,"ax",%progbits
 1574              		.align	2
 1575              		.global	send_move
 1576              		.thumb
 1577              		.thumb_func
 1578              		.type	send_move, %function
 1579              	send_move:
 1580              	.LFB39:
 493:.\main.c      **** 
 494:.\main.c      **** 
 495:.\main.c      **** 
 496:.\main.c      **** 
 497:.\main.c      **** void send_move ( uint8 row , uint8 col )  {
 1581              		.loc 1 497 0
 1582              		.cfi_startproc
 1583              		@ args = 0, pretend = 0, frame = 8
 1584              		@ frame_needed = 1, uses_anonymous_args = 0
 1585 0000 80B5     		push	{r7, lr}
 1586              	.LCFI28:
 1587              		.cfi_def_cfa_offset 8
 1588 0002 82B0     		sub	sp, sp, #8
 1589              	.LCFI29:
 1590              		.cfi_def_cfa_offset 16
 1591 0004 00AF     		add	r7, sp, #0
 1592              		.cfi_offset 14, -4
 1593              		.cfi_offset 7, -8
 1594              	.LCFI30:
 1595              		.cfi_def_cfa_register 7
 1596 0006 0246     		mov	r2, r0
 1597 0008 0B46     		mov	r3, r1
 1598 000a FA71     		strb	r2, [r7, #7]
 1599 000c BB71     		strb	r3, [r7, #6]
 498:.\main.c      ****     last_move.row = row;
 1600              		.loc 1 498 0
 1601 000e 40F20003 		movw	r3, #:lower16:last_move
 1602 0012 C0F20003 		movt	r3, #:upper16:last_move
 1603 0016 FA79     		ldrb	r2, [r7, #7]
 1604 0018 1A70     		strb	r2, [r3, #0]
 499:.\main.c      ****     last_move.col = col;
 1605              		.loc 1 499 0
 1606 001a 40F20003 		movw	r3, #:lower16:last_move
 1607 001e C0F20003 		movt	r3, #:upper16:last_move
 1608 0022 BA79     		ldrb	r2, [r7, #6]
 1609 0024 5A70     		strb	r2, [r3, #1]
 500:.\main.c      ****     send_packet(&last_move);
 1610              		.loc 1 500 0
 1611 0026 40F20000 		movw	r0, #:lower16:last_move
 1612 002a C0F20000 		movt	r0, #:upper16:last_move
 1613 002e FFF7FEFF 		bl	send_packet
 501:.\main.c      **** }
 1614              		.loc 1 501 0
 1615 0032 07F10807 		add	r7, r7, #8
ARM GAS  C:\DOCUME~1\david\LOCALS~1\Temp\ccWbOjJF.s 			page 39


 1616 0036 BD46     		mov	sp, r7
 1617 0038 80BD     		pop	{r7, pc}
 1618              		.cfi_endproc
 1619              	.LFE39:
 1620              		.size	send_move, .-send_move
 1621              		.section	.text.animate,"ax",%progbits
 1622              		.align	2
 1623              		.global	animate
 1624              		.thumb
 1625              		.thumb_func
 1626              		.type	animate, %function
 1627              	animate:
 1628              	.LFB40:
 502:.\main.c      **** 
 503:.\main.c      **** 
 504:.\main.c      **** 
 505:.\main.c      **** 
 506:.\main.c      **** uint8 animate ( uint8 col ) {
 1629              		.loc 1 506 0
 1630              		.cfi_startproc
 1631              		@ args = 0, pretend = 0, frame = 16
 1632              		@ frame_needed = 1, uses_anonymous_args = 0
 1633 0000 80B5     		push	{r7, lr}
 1634              	.LCFI31:
 1635              		.cfi_def_cfa_offset 8
 1636 0002 84B0     		sub	sp, sp, #16
 1637              	.LCFI32:
 1638              		.cfi_def_cfa_offset 24
 1639 0004 00AF     		add	r7, sp, #0
 1640              		.cfi_offset 14, -4
 1641              		.cfi_offset 7, -8
 1642              	.LCFI33:
 1643              		.cfi_def_cfa_register 7
 1644 0006 0346     		mov	r3, r0
 1645 0008 FB71     		strb	r3, [r7, #7]
 507:.\main.c      ****     uint8 row;
 508:.\main.c      ****     for (row=1; row < MATRIX_ROWS ;++row) {
 1646              		.loc 1 508 0
 1647 000a 4FF00103 		mov	r3, #1
 1648 000e FB73     		strb	r3, [r7, #15]
 1649 0010 6CE0     		b	.L91
 1650              	.L97:
 509:.\main.c      ****         if (player1_turn) player1[row][col] = true;
 1651              		.loc 1 509 0
 1652 0012 40F20003 		movw	r3, #:lower16:player1_turn
 1653 0016 C0F20003 		movt	r3, #:upper16:player1_turn
 1654 001a 1B78     		ldrb	r3, [r3, #0]	@ zero_extendqisi2
 1655 001c 002B     		cmp	r3, #0
 1656 001e 0DD0     		beq	.L92
 1657 0020 F97B     		ldrb	r1, [r7, #15]	@ zero_extendqisi2
 1658 0022 FA79     		ldrb	r2, [r7, #7]	@ zero_extendqisi2
 1659 0024 40F20003 		movw	r3, #:lower16:player1
 1660 0028 C0F20003 		movt	r3, #:upper16:player1
 1661 002c 4FEAC101 		lsl	r1, r1, #3
 1662 0030 0A44     		add	r2, r1, r2
 1663 0032 1344     		add	r3, r2, r3
 1664 0034 4FF00102 		mov	r2, #1
ARM GAS  C:\DOCUME~1\david\LOCALS~1\Temp\ccWbOjJF.s 			page 40


 1665 0038 1A70     		strb	r2, [r3, #0]
 1666 003a 0CE0     		b	.L93
 1667              	.L92:
 510:.\main.c      ****         else              player2[row][col] = true;
 1668              		.loc 1 510 0
 1669 003c F97B     		ldrb	r1, [r7, #15]	@ zero_extendqisi2
 1670 003e FA79     		ldrb	r2, [r7, #7]	@ zero_extendqisi2
 1671 0040 40F20003 		movw	r3, #:lower16:player2
 1672 0044 C0F20003 		movt	r3, #:upper16:player2
 1673 0048 4FEAC101 		lsl	r1, r1, #3
 1674 004c 0A44     		add	r2, r1, r2
 1675 004e 1344     		add	r3, r2, r3
 1676 0050 4FF00102 		mov	r2, #1
 1677 0054 1A70     		strb	r2, [r3, #0]
 1678              	.L93:
 511:.\main.c      ****         if (player1[row+1][col] || player2[row+1][col] || row+1 == MATRIX_ROWS) break;
 1679              		.loc 1 511 0
 1680 0056 FB7B     		ldrb	r3, [r7, #15]	@ zero_extendqisi2
 1681 0058 03F10101 		add	r1, r3, #1
 1682 005c FA79     		ldrb	r2, [r7, #7]	@ zero_extendqisi2
 1683 005e 40F20003 		movw	r3, #:lower16:player1
 1684 0062 C0F20003 		movt	r3, #:upper16:player1
 1685 0066 4FEAC101 		lsl	r1, r1, #3
 1686 006a 0A44     		add	r2, r1, r2
 1687 006c 1344     		add	r3, r2, r3
 1688 006e 1B78     		ldrb	r3, [r3, #0]	@ zero_extendqisi2
 1689 0070 002B     		cmp	r3, #0
 1690 0072 3ED1     		bne	.L94
 1691 0074 FB7B     		ldrb	r3, [r7, #15]	@ zero_extendqisi2
 1692 0076 03F10101 		add	r1, r3, #1
 1693 007a FA79     		ldrb	r2, [r7, #7]	@ zero_extendqisi2
 1694 007c 40F20003 		movw	r3, #:lower16:player2
 1695 0080 C0F20003 		movt	r3, #:upper16:player2
 1696 0084 4FEAC101 		lsl	r1, r1, #3
 1697 0088 0A44     		add	r2, r1, r2
 1698 008a 1344     		add	r3, r2, r3
 1699 008c 1B78     		ldrb	r3, [r3, #0]	@ zero_extendqisi2
 1700 008e 002B     		cmp	r3, #0
 1701 0090 2FD1     		bne	.L94
 1702 0092 FB7B     		ldrb	r3, [r7, #15]	@ zero_extendqisi2
 1703 0094 072B     		cmp	r3, #7
 1704 0096 2CD0     		beq	.L94
 512:.\main.c      ****         else CyDelay(20);
 1705              		.loc 1 512 0
 1706 0098 4FF01400 		mov	r0, #20
 1707 009c FFF7FEFF 		bl	CyDelay
 513:.\main.c      ****         if (player1_turn) player1[row][col] = false;
 1708              		.loc 1 513 0
 1709 00a0 40F20003 		movw	r3, #:lower16:player1_turn
 1710 00a4 C0F20003 		movt	r3, #:upper16:player1_turn
 1711 00a8 1B78     		ldrb	r3, [r3, #0]	@ zero_extendqisi2
 1712 00aa 002B     		cmp	r3, #0
 1713 00ac 0DD0     		beq	.L95
 1714 00ae F97B     		ldrb	r1, [r7, #15]	@ zero_extendqisi2
 1715 00b0 FA79     		ldrb	r2, [r7, #7]	@ zero_extendqisi2
 1716 00b2 40F20003 		movw	r3, #:lower16:player1
 1717 00b6 C0F20003 		movt	r3, #:upper16:player1
ARM GAS  C:\DOCUME~1\david\LOCALS~1\Temp\ccWbOjJF.s 			page 41


 1718 00ba 4FEAC101 		lsl	r1, r1, #3
 1719 00be 0A44     		add	r2, r1, r2
 1720 00c0 1344     		add	r3, r2, r3
 1721 00c2 4FF00002 		mov	r2, #0
 1722 00c6 1A70     		strb	r2, [r3, #0]
 1723 00c8 0CE0     		b	.L96
 1724              	.L95:
 514:.\main.c      ****         else              player2[row][col] = false;
 1725              		.loc 1 514 0
 1726 00ca F97B     		ldrb	r1, [r7, #15]	@ zero_extendqisi2
 1727 00cc FA79     		ldrb	r2, [r7, #7]	@ zero_extendqisi2
 1728 00ce 40F20003 		movw	r3, #:lower16:player2
 1729 00d2 C0F20003 		movt	r3, #:upper16:player2
 1730 00d6 4FEAC101 		lsl	r1, r1, #3
 1731 00da 0A44     		add	r2, r1, r2
 1732 00dc 1344     		add	r3, r2, r3
 1733 00de 4FF00002 		mov	r2, #0
 1734 00e2 1A70     		strb	r2, [r3, #0]
 1735              	.L96:
 1736              		.loc 1 508 0
 1737 00e4 FB7B     		ldrb	r3, [r7, #15]
 1738 00e6 03F10103 		add	r3, r3, #1
 1739 00ea FB73     		strb	r3, [r7, #15]
 1740              	.L91:
 1741 00ec FB7B     		ldrb	r3, [r7, #15]	@ zero_extendqisi2
 1742 00ee 072B     		cmp	r3, #7
 1743 00f0 8FD9     		bls	.L97
 1744              	.L94:
 515:.\main.c      ****     }
 516:.\main.c      ****     return row;
 1745              		.loc 1 516 0
 1746 00f2 FB7B     		ldrb	r3, [r7, #15]	@ zero_extendqisi2
 517:.\main.c      **** }
 1747              		.loc 1 517 0
 1748 00f4 1846     		mov	r0, r3
 1749 00f6 07F11007 		add	r7, r7, #16
 1750 00fa BD46     		mov	sp, r7
 1751 00fc 80BD     		pop	{r7, pc}
 1752              		.cfi_endproc
 1753              	.LFE40:
 1754              		.size	animate, .-animate
 1755 00fe 00BF     		.section	.rodata
 1756 012a 0000     		.align	2
 1757              	.LC29:
 1758 012c 596F7520 		.ascii	"You win!\000"
 1758      77696E21 
 1758      00
 1759              		.section	.text.winner_check,"ax",%progbits
 1760              		.align	2
 1761              		.global	winner_check
 1762              		.thumb
 1763              		.thumb_func
 1764              		.type	winner_check, %function
 1765              	winner_check:
 1766              	.LFB41:
 518:.\main.c      **** 
 519:.\main.c      **** 
ARM GAS  C:\DOCUME~1\david\LOCALS~1\Temp\ccWbOjJF.s 			page 42


 520:.\main.c      **** 
 521:.\main.c      **** 
 522:.\main.c      **** void winner_check () {
 1767              		.loc 1 522 0
 1768              		.cfi_startproc
 1769              		@ args = 0, pretend = 0, frame = 16
 1770              		@ frame_needed = 1, uses_anonymous_args = 0
 1771 0000 80B5     		push	{r7, lr}
 1772              	.LCFI34:
 1773              		.cfi_def_cfa_offset 8
 1774 0002 84B0     		sub	sp, sp, #16
 1775              	.LCFI35:
 1776              		.cfi_def_cfa_offset 24
 1777 0004 00AF     		add	r7, sp, #0
 1778              		.cfi_offset 14, -4
 1779              		.cfi_offset 7, -8
 1780              	.LCFI36:
 1781              		.cfi_def_cfa_register 7
 523:.\main.c      ****     uint8 row, col;
 524:.\main.c      ****     uint16 strobe = 100;
 1782              		.loc 1 524 0
 1783 0006 4FF06403 		mov	r3, #100
 1784 000a 7B80     		strh	r3, [r7, #2]	@ movhi
 525:.\main.c      ****     for (row=1; row < MATRIX_ROWS ;++row) {
 1785              		.loc 1 525 0
 1786 000c 4FF00103 		mov	r3, #1
 1787 0010 3B70     		strb	r3, [r7, #0]
 1788 0012 77E2     		b	.L100
 1789              	.L155:
 526:.\main.c      ****         for (col=0; col < MATRIX_COLS ;++col) {
 1790              		.loc 1 526 0
 1791 0014 4FF00003 		mov	r3, #0
 1792 0018 7B70     		strb	r3, [r7, #1]
 1793 001a 6BE2     		b	.L101
 1794              	.L154:
 1795              	.LBB6:
 527:.\main.c      ****             int offset;
 528:.\main.c      ****             
 529:.\main.c      ****             //vertical
 530:.\main.c      ****             if (row < MATRIX_ROWS-3) {
 1796              		.loc 1 530 0
 1797 001c 3B78     		ldrb	r3, [r7, #0]	@ zero_extendqisi2
 1798 001e 042B     		cmp	r3, #4
 1799 0020 00F29180 		bhi	.L102
 1800              	.LBB7:
 531:.\main.c      ****                 bool win = true;
 1801              		.loc 1 531 0
 1802 0024 4FF00103 		mov	r3, #1
 1803 0028 3B72     		strb	r3, [r7, #8]
 532:.\main.c      ****                 for (offset=0; win && offset < 4 ;++offset) {
 1804              		.loc 1 532 0
 1805 002a 4FF00003 		mov	r3, #0
 1806 002e 7B60     		str	r3, [r7, #4]
 1807 0030 39E0     		b	.L103
 1808              	.L108:
 533:.\main.c      ****                     if (player1_turn) { if (!player1[row+offset][col]) win = false; }
 1809              		.loc 1 533 0
ARM GAS  C:\DOCUME~1\david\LOCALS~1\Temp\ccWbOjJF.s 			page 43


 1810 0032 40F20003 		movw	r3, #:lower16:player1_turn
 1811 0036 C0F20003 		movt	r3, #:upper16:player1_turn
 1812 003a 1B78     		ldrb	r3, [r3, #0]	@ zero_extendqisi2
 1813 003c 002B     		cmp	r3, #0
 1814 003e 16D0     		beq	.L104
 1815 0040 3A78     		ldrb	r2, [r7, #0]	@ zero_extendqisi2
 1816 0042 7B68     		ldr	r3, [r7, #4]
 1817 0044 02EB0301 		add	r1, r2, r3
 1818 0048 7A78     		ldrb	r2, [r7, #1]	@ zero_extendqisi2
 1819 004a 40F20003 		movw	r3, #:lower16:player1
 1820 004e C0F20003 		movt	r3, #:upper16:player1
 1821 0052 4FEAC101 		lsl	r1, r1, #3
 1822 0056 0A44     		add	r2, r1, r2
 1823 0058 1344     		add	r3, r2, r3
 1824 005a 1B78     		ldrb	r3, [r3, #0]	@ zero_extendqisi2
 1825 005c 83F00103 		eor	r3, r3, #1
 1826 0060 DBB2     		uxtb	r3, r3
 1827 0062 002B     		cmp	r3, #0
 1828 0064 1AD0     		beq	.L157
 1829 0066 4FF00003 		mov	r3, #0
 1830 006a 3B72     		strb	r3, [r7, #8]
 1831 006c 17E0     		b	.L106
 1832              	.L104:
 534:.\main.c      ****                     else              { if (!player2[row+offset][col]) win = false; }
 1833              		.loc 1 534 0
 1834 006e 3A78     		ldrb	r2, [r7, #0]	@ zero_extendqisi2
 1835 0070 7B68     		ldr	r3, [r7, #4]
 1836 0072 02EB0301 		add	r1, r2, r3
 1837 0076 7A78     		ldrb	r2, [r7, #1]	@ zero_extendqisi2
 1838 0078 40F20003 		movw	r3, #:lower16:player2
 1839 007c C0F20003 		movt	r3, #:upper16:player2
 1840 0080 4FEAC101 		lsl	r1, r1, #3
 1841 0084 0A44     		add	r2, r1, r2
 1842 0086 1344     		add	r3, r2, r3
 1843 0088 1B78     		ldrb	r3, [r3, #0]	@ zero_extendqisi2
 1844 008a 83F00103 		eor	r3, r3, #1
 1845 008e DBB2     		uxtb	r3, r3
 1846 0090 002B     		cmp	r3, #0
 1847 0092 04D0     		beq	.L106
 1848 0094 4FF00003 		mov	r3, #0
 1849 0098 3B72     		strb	r3, [r7, #8]
 1850 009a 00E0     		b	.L106
 1851              	.L157:
 1852              		.loc 1 533 0
 1853 009c 00BF     		nop
 1854              	.L106:
 1855              		.loc 1 532 0
 1856 009e 7B68     		ldr	r3, [r7, #4]
 1857 00a0 03F10103 		add	r3, r3, #1
 1858 00a4 7B60     		str	r3, [r7, #4]
 1859              	.L103:
 1860 00a6 3B7A     		ldrb	r3, [r7, #8]	@ zero_extendqisi2
 1861 00a8 002B     		cmp	r3, #0
 1862 00aa 02D0     		beq	.L107
 1863 00ac 7B68     		ldr	r3, [r7, #4]
 1864 00ae 032B     		cmp	r3, #3
 1865 00b0 BFDD     		ble	.L108
ARM GAS  C:\DOCUME~1\david\LOCALS~1\Temp\ccWbOjJF.s 			page 44


 1866              	.L107:
 535:.\main.c      ****                 }
 536:.\main.c      ****                 if (win) {
 1867              		.loc 1 536 0
 1868 00b2 3B7A     		ldrb	r3, [r7, #8]	@ zero_extendqisi2
 1869 00b4 002B     		cmp	r3, #0
 1870 00b6 46D0     		beq	.L102
 1871              	.LBB8:
 537:.\main.c      ****                     LCD_UpdateMessage("You win!");
 1872              		.loc 1 537 0
 1873 00b8 40F20000 		movw	r0, #:lower16:.LC29
 1874 00bc C0F20000 		movt	r0, #:upper16:.LC29
 1875 00c0 FFF7FEFF 		bl	LCD_UpdateMessage
 538:.\main.c      ****                     bool blink = false;
 1876              		.loc 1 538 0
 1877 00c4 4FF00003 		mov	r3, #0
 1878 00c8 7B72     		strb	r3, [r7, #9]
 1879              	.L114:
 539:.\main.c      ****                     while (true) {
 540:.\main.c      ****                         for (offset=0; win && offset < 4 ;++offset) {
 1880              		.loc 1 540 0
 1881 00ca 4FF00003 		mov	r3, #0
 1882 00ce 7B60     		str	r3, [r7, #4]
 1883 00d0 29E0     		b	.L109
 1884              	.L113:
 541:.\main.c      ****                             if (player1_turn) player1[row+offset][col] = blink;
 1885              		.loc 1 541 0
 1886 00d2 40F20003 		movw	r3, #:lower16:player1_turn
 1887 00d6 C0F20003 		movt	r3, #:upper16:player1_turn
 1888 00da 1B78     		ldrb	r3, [r3, #0]	@ zero_extendqisi2
 1889 00dc 002B     		cmp	r3, #0
 1890 00de 0FD0     		beq	.L110
 1891 00e0 3A78     		ldrb	r2, [r7, #0]	@ zero_extendqisi2
 1892 00e2 7B68     		ldr	r3, [r7, #4]
 1893 00e4 02EB0301 		add	r1, r2, r3
 1894 00e8 7A78     		ldrb	r2, [r7, #1]	@ zero_extendqisi2
 1895 00ea 40F20003 		movw	r3, #:lower16:player1
 1896 00ee C0F20003 		movt	r3, #:upper16:player1
 1897 00f2 4FEAC101 		lsl	r1, r1, #3
 1898 00f6 0A44     		add	r2, r1, r2
 1899 00f8 1344     		add	r3, r2, r3
 1900 00fa 7A7A     		ldrb	r2, [r7, #9]
 1901 00fc 1A70     		strb	r2, [r3, #0]
 1902 00fe 0EE0     		b	.L111
 1903              	.L110:
 542:.\main.c      ****                             else              player2[row+offset][col] = blink;
 1904              		.loc 1 542 0
 1905 0100 3A78     		ldrb	r2, [r7, #0]	@ zero_extendqisi2
 1906 0102 7B68     		ldr	r3, [r7, #4]
 1907 0104 02EB0301 		add	r1, r2, r3
 1908 0108 7A78     		ldrb	r2, [r7, #1]	@ zero_extendqisi2
 1909 010a 40F20003 		movw	r3, #:lower16:player2
 1910 010e C0F20003 		movt	r3, #:upper16:player2
 1911 0112 4FEAC101 		lsl	r1, r1, #3
 1912 0116 0A44     		add	r2, r1, r2
 1913 0118 1344     		add	r3, r2, r3
 1914 011a 7A7A     		ldrb	r2, [r7, #9]
ARM GAS  C:\DOCUME~1\david\LOCALS~1\Temp\ccWbOjJF.s 			page 45


 1915 011c 1A70     		strb	r2, [r3, #0]
 1916              	.L111:
 1917              		.loc 1 540 0
 1918 011e 7B68     		ldr	r3, [r7, #4]
 1919 0120 03F10103 		add	r3, r3, #1
 1920 0124 7B60     		str	r3, [r7, #4]
 1921              	.L109:
 1922 0126 3B7A     		ldrb	r3, [r7, #8]	@ zero_extendqisi2
 1923 0128 002B     		cmp	r3, #0
 1924 012a 02D0     		beq	.L112
 1925 012c 7B68     		ldr	r3, [r7, #4]
 1926 012e 032B     		cmp	r3, #3
 1927 0130 CFDD     		ble	.L113
 1928              	.L112:
 543:.\main.c      ****                         }
 544:.\main.c      ****                         CyDelay(strobe);
 1929              		.loc 1 544 0
 1930 0132 7B88     		ldrh	r3, [r7, #2]
 1931 0134 1846     		mov	r0, r3
 1932 0136 FFF7FEFF 		bl	CyDelay
 545:.\main.c      ****                         blink = !blink;
 1933              		.loc 1 545 0
 1934 013a 7B7A     		ldrb	r3, [r7, #9]
 1935 013c 83F00103 		eor	r3, r3, #1
 1936 0140 DBB2     		uxtb	r3, r3
 1937 0142 7B72     		strb	r3, [r7, #9]
 546:.\main.c      ****                     }
 1938              		.loc 1 546 0
 1939 0144 C1E7     		b	.L114
 1940              	.L102:
 1941              	.LBE8:
 1942              	.LBE7:
 547:.\main.c      ****                 }
 548:.\main.c      ****             }
 549:.\main.c      ****             
 550:.\main.c      ****             //lateral
 551:.\main.c      ****             if (col < MATRIX_COLS-3) {
 1943              		.loc 1 551 0
 1944 0146 7B78     		ldrb	r3, [r7, #1]	@ zero_extendqisi2
 1945 0148 042B     		cmp	r3, #4
 1946 014a 00F28D80 		bhi	.L115
 1947              	.LBB9:
 552:.\main.c      ****                 bool win = true;
 1948              		.loc 1 552 0
 1949 014e 4FF00103 		mov	r3, #1
 1950 0152 BB72     		strb	r3, [r7, #10]
 553:.\main.c      ****                 for (offset=0; win && offset < 4 ;++offset) {
 1951              		.loc 1 553 0
 1952 0154 4FF00003 		mov	r3, #0
 1953 0158 7B60     		str	r3, [r7, #4]
 1954 015a 37E0     		b	.L116
 1955              	.L121:
 554:.\main.c      ****                     if (player1_turn) { if (!player1[row][col+offset]) win = false; }
 1956              		.loc 1 554 0
 1957 015c 40F20003 		movw	r3, #:lower16:player1_turn
 1958 0160 C0F20003 		movt	r3, #:upper16:player1_turn
 1959 0164 1B78     		ldrb	r3, [r3, #0]	@ zero_extendqisi2
ARM GAS  C:\DOCUME~1\david\LOCALS~1\Temp\ccWbOjJF.s 			page 46


 1960 0166 002B     		cmp	r3, #0
 1961 0168 15D0     		beq	.L117
 1962 016a 3978     		ldrb	r1, [r7, #0]	@ zero_extendqisi2
 1963 016c 7A78     		ldrb	r2, [r7, #1]	@ zero_extendqisi2
 1964 016e 7B68     		ldr	r3, [r7, #4]
 1965 0170 1A44     		add	r2, r2, r3
 1966 0172 40F20003 		movw	r3, #:lower16:player1
 1967 0176 C0F20003 		movt	r3, #:upper16:player1
 1968 017a 4FEAC101 		lsl	r1, r1, #3
 1969 017e 0A44     		add	r2, r1, r2
 1970 0180 1344     		add	r3, r2, r3
 1971 0182 1B78     		ldrb	r3, [r3, #0]	@ zero_extendqisi2
 1972 0184 83F00103 		eor	r3, r3, #1
 1973 0188 DBB2     		uxtb	r3, r3
 1974 018a 002B     		cmp	r3, #0
 1975 018c 19D0     		beq	.L158
 1976 018e 4FF00003 		mov	r3, #0
 1977 0192 BB72     		strb	r3, [r7, #10]
 1978 0194 16E0     		b	.L119
 1979              	.L117:
 555:.\main.c      ****                     else              { if (!player2[row][col+offset]) win = false; }
 1980              		.loc 1 555 0
 1981 0196 3978     		ldrb	r1, [r7, #0]	@ zero_extendqisi2
 1982 0198 7A78     		ldrb	r2, [r7, #1]	@ zero_extendqisi2
 1983 019a 7B68     		ldr	r3, [r7, #4]
 1984 019c 1A44     		add	r2, r2, r3
 1985 019e 40F20003 		movw	r3, #:lower16:player2
 1986 01a2 C0F20003 		movt	r3, #:upper16:player2
 1987 01a6 4FEAC101 		lsl	r1, r1, #3
 1988 01aa 0A44     		add	r2, r1, r2
 1989 01ac 1344     		add	r3, r2, r3
 1990 01ae 1B78     		ldrb	r3, [r3, #0]	@ zero_extendqisi2
 1991 01b0 83F00103 		eor	r3, r3, #1
 1992 01b4 DBB2     		uxtb	r3, r3
 1993 01b6 002B     		cmp	r3, #0
 1994 01b8 04D0     		beq	.L119
 1995 01ba 4FF00003 		mov	r3, #0
 1996 01be BB72     		strb	r3, [r7, #10]
 1997 01c0 00E0     		b	.L119
 1998              	.L158:
 1999              		.loc 1 554 0
 2000 01c2 00BF     		nop
 2001              	.L119:
 2002              		.loc 1 553 0
 2003 01c4 7B68     		ldr	r3, [r7, #4]
 2004 01c6 03F10103 		add	r3, r3, #1
 2005 01ca 7B60     		str	r3, [r7, #4]
 2006              	.L116:
 2007 01cc BB7A     		ldrb	r3, [r7, #10]	@ zero_extendqisi2
 2008 01ce 002B     		cmp	r3, #0
 2009 01d0 02D0     		beq	.L120
 2010 01d2 7B68     		ldr	r3, [r7, #4]
 2011 01d4 032B     		cmp	r3, #3
 2012 01d6 C1DD     		ble	.L121
 2013              	.L120:
 556:.\main.c      ****                 }
 557:.\main.c      ****                 if (win) {
ARM GAS  C:\DOCUME~1\david\LOCALS~1\Temp\ccWbOjJF.s 			page 47


 2014              		.loc 1 557 0
 2015 01d8 BB7A     		ldrb	r3, [r7, #10]	@ zero_extendqisi2
 2016 01da 002B     		cmp	r3, #0
 2017 01dc 44D0     		beq	.L115
 2018              	.LBB10:
 558:.\main.c      ****                     LCD_UpdateMessage("You win!");
 2019              		.loc 1 558 0
 2020 01de 40F20000 		movw	r0, #:lower16:.LC29
 2021 01e2 C0F20000 		movt	r0, #:upper16:.LC29
 2022 01e6 FFF7FEFF 		bl	LCD_UpdateMessage
 559:.\main.c      ****                     bool blink = false;
 2023              		.loc 1 559 0
 2024 01ea 4FF00003 		mov	r3, #0
 2025 01ee FB72     		strb	r3, [r7, #11]
 2026              	.L127:
 560:.\main.c      ****                     while (true) {
 561:.\main.c      ****                         for (offset=0; win && offset < 4 ;++offset) {
 2027              		.loc 1 561 0
 2028 01f0 4FF00003 		mov	r3, #0
 2029 01f4 7B60     		str	r3, [r7, #4]
 2030 01f6 27E0     		b	.L122
 2031              	.L126:
 562:.\main.c      ****                             if (player1_turn) player1[row][col+offset] = blink;
 2032              		.loc 1 562 0
 2033 01f8 40F20003 		movw	r3, #:lower16:player1_turn
 2034 01fc C0F20003 		movt	r3, #:upper16:player1_turn
 2035 0200 1B78     		ldrb	r3, [r3, #0]	@ zero_extendqisi2
 2036 0202 002B     		cmp	r3, #0
 2037 0204 0ED0     		beq	.L123
 2038 0206 3978     		ldrb	r1, [r7, #0]	@ zero_extendqisi2
 2039 0208 7A78     		ldrb	r2, [r7, #1]	@ zero_extendqisi2
 2040 020a 7B68     		ldr	r3, [r7, #4]
 2041 020c 1A44     		add	r2, r2, r3
 2042 020e 40F20003 		movw	r3, #:lower16:player1
 2043 0212 C0F20003 		movt	r3, #:upper16:player1
 2044 0216 4FEAC101 		lsl	r1, r1, #3
 2045 021a 0A44     		add	r2, r1, r2
 2046 021c 1344     		add	r3, r2, r3
 2047 021e FA7A     		ldrb	r2, [r7, #11]
 2048 0220 1A70     		strb	r2, [r3, #0]
 2049 0222 0DE0     		b	.L124
 2050              	.L123:
 563:.\main.c      ****                             else              player2[row][col+offset] = blink;
 2051              		.loc 1 563 0
 2052 0224 3978     		ldrb	r1, [r7, #0]	@ zero_extendqisi2
 2053 0226 7A78     		ldrb	r2, [r7, #1]	@ zero_extendqisi2
 2054 0228 7B68     		ldr	r3, [r7, #4]
 2055 022a 1A44     		add	r2, r2, r3
 2056 022c 40F20003 		movw	r3, #:lower16:player2
 2057 0230 C0F20003 		movt	r3, #:upper16:player2
 2058 0234 4FEAC101 		lsl	r1, r1, #3
 2059 0238 0A44     		add	r2, r1, r2
 2060 023a 1344     		add	r3, r2, r3
 2061 023c FA7A     		ldrb	r2, [r7, #11]
 2062 023e 1A70     		strb	r2, [r3, #0]
 2063              	.L124:
 2064              		.loc 1 561 0
ARM GAS  C:\DOCUME~1\david\LOCALS~1\Temp\ccWbOjJF.s 			page 48


 2065 0240 7B68     		ldr	r3, [r7, #4]
 2066 0242 03F10103 		add	r3, r3, #1
 2067 0246 7B60     		str	r3, [r7, #4]
 2068              	.L122:
 2069 0248 BB7A     		ldrb	r3, [r7, #10]	@ zero_extendqisi2
 2070 024a 002B     		cmp	r3, #0
 2071 024c 02D0     		beq	.L125
 2072 024e 7B68     		ldr	r3, [r7, #4]
 2073 0250 032B     		cmp	r3, #3
 2074 0252 D1DD     		ble	.L126
 2075              	.L125:
 564:.\main.c      ****                         }
 565:.\main.c      ****                         CyDelay(strobe);
 2076              		.loc 1 565 0
 2077 0254 7B88     		ldrh	r3, [r7, #2]
 2078 0256 1846     		mov	r0, r3
 2079 0258 FFF7FEFF 		bl	CyDelay
 566:.\main.c      ****                         blink = !blink;
 2080              		.loc 1 566 0
 2081 025c FB7A     		ldrb	r3, [r7, #11]
 2082 025e 83F00103 		eor	r3, r3, #1
 2083 0262 DBB2     		uxtb	r3, r3
 2084 0264 FB72     		strb	r3, [r7, #11]
 567:.\main.c      ****                     }
 2085              		.loc 1 567 0
 2086 0266 C3E7     		b	.L127
 2087              	.L115:
 2088              	.LBE10:
 2089              	.LBE9:
 568:.\main.c      ****                 }
 569:.\main.c      ****             }
 570:.\main.c      ****             
 571:.\main.c      ****             //down-diagonal
 572:.\main.c      ****             if (row < MATRIX_ROWS-3 && col < MATRIX_COLS-3) {
 2090              		.loc 1 572 0
 2091 0268 3B78     		ldrb	r3, [r7, #0]	@ zero_extendqisi2
 2092 026a 042B     		cmp	r3, #4
 2093 026c 00F29D80 		bhi	.L128
 2094 0270 7B78     		ldrb	r3, [r7, #1]	@ zero_extendqisi2
 2095 0272 042B     		cmp	r3, #4
 2096 0274 00F29980 		bhi	.L128
 2097              	.LBB11:
 573:.\main.c      ****                 bool win = true;
 2098              		.loc 1 573 0
 2099 0278 4FF00103 		mov	r3, #1
 2100 027c 3B73     		strb	r3, [r7, #12]
 574:.\main.c      ****                 for (offset=0; win && offset < 4 ;++offset) {
 2101              		.loc 1 574 0
 2102 027e 4FF00003 		mov	r3, #0
 2103 0282 7B60     		str	r3, [r7, #4]
 2104 0284 3DE0     		b	.L129
 2105              	.L134:
 575:.\main.c      ****                     if (player1_turn) { if (!player1[row+offset][col+offset]) win = false; }
 2106              		.loc 1 575 0
 2107 0286 40F20003 		movw	r3, #:lower16:player1_turn
 2108 028a C0F20003 		movt	r3, #:upper16:player1_turn
 2109 028e 1B78     		ldrb	r3, [r3, #0]	@ zero_extendqisi2
ARM GAS  C:\DOCUME~1\david\LOCALS~1\Temp\ccWbOjJF.s 			page 49


 2110 0290 002B     		cmp	r3, #0
 2111 0292 18D0     		beq	.L130
 2112 0294 3A78     		ldrb	r2, [r7, #0]	@ zero_extendqisi2
 2113 0296 7B68     		ldr	r3, [r7, #4]
 2114 0298 02EB0301 		add	r1, r2, r3
 2115 029c 7A78     		ldrb	r2, [r7, #1]	@ zero_extendqisi2
 2116 029e 7B68     		ldr	r3, [r7, #4]
 2117 02a0 1A44     		add	r2, r2, r3
 2118 02a2 40F20003 		movw	r3, #:lower16:player1
 2119 02a6 C0F20003 		movt	r3, #:upper16:player1
 2120 02aa 4FEAC101 		lsl	r1, r1, #3
 2121 02ae 0A44     		add	r2, r1, r2
 2122 02b0 1344     		add	r3, r2, r3
 2123 02b2 1B78     		ldrb	r3, [r3, #0]	@ zero_extendqisi2
 2124 02b4 83F00103 		eor	r3, r3, #1
 2125 02b8 DBB2     		uxtb	r3, r3
 2126 02ba 002B     		cmp	r3, #0
 2127 02bc 1CD0     		beq	.L159
 2128 02be 4FF00003 		mov	r3, #0
 2129 02c2 3B73     		strb	r3, [r7, #12]
 2130 02c4 19E0     		b	.L132
 2131              	.L130:
 576:.\main.c      ****                     else              { if (!player2[row+offset][col+offset]) win = false; }
 2132              		.loc 1 576 0
 2133 02c6 3A78     		ldrb	r2, [r7, #0]	@ zero_extendqisi2
 2134 02c8 7B68     		ldr	r3, [r7, #4]
 2135 02ca 02EB0301 		add	r1, r2, r3
 2136 02ce 7A78     		ldrb	r2, [r7, #1]	@ zero_extendqisi2
 2137 02d0 7B68     		ldr	r3, [r7, #4]
 2138 02d2 1A44     		add	r2, r2, r3
 2139 02d4 40F20003 		movw	r3, #:lower16:player2
 2140 02d8 C0F20003 		movt	r3, #:upper16:player2
 2141 02dc 4FEAC101 		lsl	r1, r1, #3
 2142 02e0 0A44     		add	r2, r1, r2
 2143 02e2 1344     		add	r3, r2, r3
 2144 02e4 1B78     		ldrb	r3, [r3, #0]	@ zero_extendqisi2
 2145 02e6 83F00103 		eor	r3, r3, #1
 2146 02ea DBB2     		uxtb	r3, r3
 2147 02ec 002B     		cmp	r3, #0
 2148 02ee 04D0     		beq	.L132
 2149 02f0 4FF00003 		mov	r3, #0
 2150 02f4 3B73     		strb	r3, [r7, #12]
 2151 02f6 00E0     		b	.L132
 2152              	.L159:
 2153              		.loc 1 575 0
 2154 02f8 00BF     		nop
 2155              	.L132:
 2156              		.loc 1 574 0
 2157 02fa 7B68     		ldr	r3, [r7, #4]
 2158 02fc 03F10103 		add	r3, r3, #1
 2159 0300 7B60     		str	r3, [r7, #4]
 2160              	.L129:
 2161 0302 3B7B     		ldrb	r3, [r7, #12]	@ zero_extendqisi2
 2162 0304 002B     		cmp	r3, #0
 2163 0306 02D0     		beq	.L133
 2164 0308 7B68     		ldr	r3, [r7, #4]
 2165 030a 032B     		cmp	r3, #3
ARM GAS  C:\DOCUME~1\david\LOCALS~1\Temp\ccWbOjJF.s 			page 50


 2166 030c BBDD     		ble	.L134
 2167              	.L133:
 577:.\main.c      ****                 }
 578:.\main.c      ****                 if (win) {
 2168              		.loc 1 578 0
 2169 030e 3B7B     		ldrb	r3, [r7, #12]	@ zero_extendqisi2
 2170 0310 002B     		cmp	r3, #0
 2171 0312 4AD0     		beq	.L128
 2172              	.LBB12:
 579:.\main.c      ****                     LCD_UpdateMessage("You win!");
 2173              		.loc 1 579 0
 2174 0314 40F20000 		movw	r0, #:lower16:.LC29
 2175 0318 C0F20000 		movt	r0, #:upper16:.LC29
 2176 031c FFF7FEFF 		bl	LCD_UpdateMessage
 580:.\main.c      ****                     bool blink = false;
 2177              		.loc 1 580 0
 2178 0320 4FF00003 		mov	r3, #0
 2179 0324 7B73     		strb	r3, [r7, #13]
 2180              	.L140:
 581:.\main.c      ****                     while (true) {
 582:.\main.c      ****                         for (offset=0; win && offset < 4 ;++offset) {
 2181              		.loc 1 582 0
 2182 0326 4FF00003 		mov	r3, #0
 2183 032a 7B60     		str	r3, [r7, #4]
 2184 032c 2DE0     		b	.L135
 2185              	.L139:
 583:.\main.c      ****                             if (player1_turn) player1[row+offset][col+offset] = blink;
 2186              		.loc 1 583 0
 2187 032e 40F20003 		movw	r3, #:lower16:player1_turn
 2188 0332 C0F20003 		movt	r3, #:upper16:player1_turn
 2189 0336 1B78     		ldrb	r3, [r3, #0]	@ zero_extendqisi2
 2190 0338 002B     		cmp	r3, #0
 2191 033a 11D0     		beq	.L136
 2192 033c 3A78     		ldrb	r2, [r7, #0]	@ zero_extendqisi2
 2193 033e 7B68     		ldr	r3, [r7, #4]
 2194 0340 02EB0301 		add	r1, r2, r3
 2195 0344 7A78     		ldrb	r2, [r7, #1]	@ zero_extendqisi2
 2196 0346 7B68     		ldr	r3, [r7, #4]
 2197 0348 1A44     		add	r2, r2, r3
 2198 034a 40F20003 		movw	r3, #:lower16:player1
 2199 034e C0F20003 		movt	r3, #:upper16:player1
 2200 0352 4FEAC101 		lsl	r1, r1, #3
 2201 0356 0A44     		add	r2, r1, r2
 2202 0358 1344     		add	r3, r2, r3
 2203 035a 7A7B     		ldrb	r2, [r7, #13]
 2204 035c 1A70     		strb	r2, [r3, #0]
 2205 035e 10E0     		b	.L137
 2206              	.L136:
 584:.\main.c      ****                             else              player2[row+offset][col+offset] = blink;
 2207              		.loc 1 584 0
 2208 0360 3A78     		ldrb	r2, [r7, #0]	@ zero_extendqisi2
 2209 0362 7B68     		ldr	r3, [r7, #4]
 2210 0364 02EB0301 		add	r1, r2, r3
 2211 0368 7A78     		ldrb	r2, [r7, #1]	@ zero_extendqisi2
 2212 036a 7B68     		ldr	r3, [r7, #4]
 2213 036c 1A44     		add	r2, r2, r3
 2214 036e 40F20003 		movw	r3, #:lower16:player2
ARM GAS  C:\DOCUME~1\david\LOCALS~1\Temp\ccWbOjJF.s 			page 51


 2215 0372 C0F20003 		movt	r3, #:upper16:player2
 2216 0376 4FEAC101 		lsl	r1, r1, #3
 2217 037a 0A44     		add	r2, r1, r2
 2218 037c 1344     		add	r3, r2, r3
 2219 037e 7A7B     		ldrb	r2, [r7, #13]
 2220 0380 1A70     		strb	r2, [r3, #0]
 2221              	.L137:
 2222              		.loc 1 582 0
 2223 0382 7B68     		ldr	r3, [r7, #4]
 2224 0384 03F10103 		add	r3, r3, #1
 2225 0388 7B60     		str	r3, [r7, #4]
 2226              	.L135:
 2227 038a 3B7B     		ldrb	r3, [r7, #12]	@ zero_extendqisi2
 2228 038c 002B     		cmp	r3, #0
 2229 038e 02D0     		beq	.L138
 2230 0390 7B68     		ldr	r3, [r7, #4]
 2231 0392 032B     		cmp	r3, #3
 2232 0394 CBDD     		ble	.L139
 2233              	.L138:
 585:.\main.c      ****                         }
 586:.\main.c      ****                         CyDelay(strobe);
 2234              		.loc 1 586 0
 2235 0396 7B88     		ldrh	r3, [r7, #2]
 2236 0398 1846     		mov	r0, r3
 2237 039a FFF7FEFF 		bl	CyDelay
 587:.\main.c      ****                         blink = !blink;
 2238              		.loc 1 587 0
 2239 039e 7B7B     		ldrb	r3, [r7, #13]
 2240 03a0 83F00103 		eor	r3, r3, #1
 2241 03a4 DBB2     		uxtb	r3, r3
 2242 03a6 7B73     		strb	r3, [r7, #13]
 588:.\main.c      ****                     }
 2243              		.loc 1 588 0
 2244 03a8 BDE7     		b	.L140
 2245              	.L128:
 2246              	.LBE12:
 2247              	.LBE11:
 589:.\main.c      ****                 }
 590:.\main.c      ****             }
 591:.\main.c      ****             
 592:.\main.c      ****             //up-diagonal
 593:.\main.c      ****             if (row > 3 && col < MATRIX_COLS-3) {
 2248              		.loc 1 593 0
 2249 03aa 3B78     		ldrb	r3, [r7, #0]	@ zero_extendqisi2
 2250 03ac 032B     		cmp	r3, #3
 2251 03ae 40F29D80 		bls	.L141
 2252 03b2 7B78     		ldrb	r3, [r7, #1]	@ zero_extendqisi2
 2253 03b4 042B     		cmp	r3, #4
 2254 03b6 00F29980 		bhi	.L141
 2255              	.LBB13:
 594:.\main.c      ****                 bool win = true;
 2256              		.loc 1 594 0
 2257 03ba 4FF00103 		mov	r3, #1
 2258 03be BB73     		strb	r3, [r7, #14]
 595:.\main.c      ****                 for (offset=0; win && offset < 4 ;++offset) {
 2259              		.loc 1 595 0
 2260 03c0 4FF00003 		mov	r3, #0
ARM GAS  C:\DOCUME~1\david\LOCALS~1\Temp\ccWbOjJF.s 			page 52


 2261 03c4 7B60     		str	r3, [r7, #4]
 2262 03c6 3DE0     		b	.L142
 2263              	.L147:
 596:.\main.c      ****                     if (player1_turn) { if (!player1[row-offset][col+offset]) win = false; }
 2264              		.loc 1 596 0
 2265 03c8 40F20003 		movw	r3, #:lower16:player1_turn
 2266 03cc C0F20003 		movt	r3, #:upper16:player1_turn
 2267 03d0 1B78     		ldrb	r3, [r3, #0]	@ zero_extendqisi2
 2268 03d2 002B     		cmp	r3, #0
 2269 03d4 18D0     		beq	.L143
 2270 03d6 3A78     		ldrb	r2, [r7, #0]	@ zero_extendqisi2
 2271 03d8 7B68     		ldr	r3, [r7, #4]
 2272 03da C3EB0201 		rsb	r1, r3, r2
 2273 03de 7A78     		ldrb	r2, [r7, #1]	@ zero_extendqisi2
 2274 03e0 7B68     		ldr	r3, [r7, #4]
 2275 03e2 1A44     		add	r2, r2, r3
 2276 03e4 40F20003 		movw	r3, #:lower16:player1
 2277 03e8 C0F20003 		movt	r3, #:upper16:player1
 2278 03ec 4FEAC101 		lsl	r1, r1, #3
 2279 03f0 0A44     		add	r2, r1, r2
 2280 03f2 1344     		add	r3, r2, r3
 2281 03f4 1B78     		ldrb	r3, [r3, #0]	@ zero_extendqisi2
 2282 03f6 83F00103 		eor	r3, r3, #1
 2283 03fa DBB2     		uxtb	r3, r3
 2284 03fc 002B     		cmp	r3, #0
 2285 03fe 1CD0     		beq	.L160
 2286 0400 4FF00003 		mov	r3, #0
 2287 0404 BB73     		strb	r3, [r7, #14]
 2288 0406 19E0     		b	.L145
 2289              	.L143:
 597:.\main.c      ****                     else              { if (!player2[row-offset][col+offset]) win = false; }
 2290              		.loc 1 597 0
 2291 0408 3A78     		ldrb	r2, [r7, #0]	@ zero_extendqisi2
 2292 040a 7B68     		ldr	r3, [r7, #4]
 2293 040c C3EB0201 		rsb	r1, r3, r2
 2294 0410 7A78     		ldrb	r2, [r7, #1]	@ zero_extendqisi2
 2295 0412 7B68     		ldr	r3, [r7, #4]
 2296 0414 1A44     		add	r2, r2, r3
 2297 0416 40F20003 		movw	r3, #:lower16:player2
 2298 041a C0F20003 		movt	r3, #:upper16:player2
 2299 041e 4FEAC101 		lsl	r1, r1, #3
 2300 0422 0A44     		add	r2, r1, r2
 2301 0424 1344     		add	r3, r2, r3
 2302 0426 1B78     		ldrb	r3, [r3, #0]	@ zero_extendqisi2
 2303 0428 83F00103 		eor	r3, r3, #1
 2304 042c DBB2     		uxtb	r3, r3
 2305 042e 002B     		cmp	r3, #0
 2306 0430 04D0     		beq	.L145
 2307 0432 4FF00003 		mov	r3, #0
 2308 0436 BB73     		strb	r3, [r7, #14]
 2309 0438 00E0     		b	.L145
 2310              	.L160:
 2311              		.loc 1 596 0
 2312 043a 00BF     		nop
 2313              	.L145:
 2314              		.loc 1 595 0
 2315 043c 7B68     		ldr	r3, [r7, #4]
ARM GAS  C:\DOCUME~1\david\LOCALS~1\Temp\ccWbOjJF.s 			page 53


 2316 043e 03F10103 		add	r3, r3, #1
 2317 0442 7B60     		str	r3, [r7, #4]
 2318              	.L142:
 2319 0444 BB7B     		ldrb	r3, [r7, #14]	@ zero_extendqisi2
 2320 0446 002B     		cmp	r3, #0
 2321 0448 02D0     		beq	.L146
 2322 044a 7B68     		ldr	r3, [r7, #4]
 2323 044c 032B     		cmp	r3, #3
 2324 044e BBDD     		ble	.L147
 2325              	.L146:
 598:.\main.c      ****                 }
 599:.\main.c      ****                 if (win) {
 2326              		.loc 1 599 0
 2327 0450 BB7B     		ldrb	r3, [r7, #14]	@ zero_extendqisi2
 2328 0452 002B     		cmp	r3, #0
 2329 0454 4AD0     		beq	.L141
 2330              	.LBB14:
 600:.\main.c      ****                     LCD_UpdateMessage("You win!");
 2331              		.loc 1 600 0
 2332 0456 40F20000 		movw	r0, #:lower16:.LC29
 2333 045a C0F20000 		movt	r0, #:upper16:.LC29
 2334 045e FFF7FEFF 		bl	LCD_UpdateMessage
 601:.\main.c      ****                     bool blink = false;
 2335              		.loc 1 601 0
 2336 0462 4FF00003 		mov	r3, #0
 2337 0466 FB73     		strb	r3, [r7, #15]
 2338              	.L153:
 602:.\main.c      ****                     while (true) {
 603:.\main.c      ****                         for (offset=0; win && offset < 4 ;++offset) {
 2339              		.loc 1 603 0
 2340 0468 4FF00003 		mov	r3, #0
 2341 046c 7B60     		str	r3, [r7, #4]
 2342 046e 2DE0     		b	.L148
 2343              	.L152:
 604:.\main.c      ****                             if (player1_turn) player1[row-offset][col+offset] = blink;
 2344              		.loc 1 604 0
 2345 0470 40F20003 		movw	r3, #:lower16:player1_turn
 2346 0474 C0F20003 		movt	r3, #:upper16:player1_turn
 2347 0478 1B78     		ldrb	r3, [r3, #0]	@ zero_extendqisi2
 2348 047a 002B     		cmp	r3, #0
 2349 047c 11D0     		beq	.L149
 2350 047e 3A78     		ldrb	r2, [r7, #0]	@ zero_extendqisi2
 2351 0480 7B68     		ldr	r3, [r7, #4]
 2352 0482 C3EB0201 		rsb	r1, r3, r2
 2353 0486 7A78     		ldrb	r2, [r7, #1]	@ zero_extendqisi2
 2354 0488 7B68     		ldr	r3, [r7, #4]
 2355 048a 1A44     		add	r2, r2, r3
 2356 048c 40F20003 		movw	r3, #:lower16:player1
 2357 0490 C0F20003 		movt	r3, #:upper16:player1
 2358 0494 4FEAC101 		lsl	r1, r1, #3
 2359 0498 0A44     		add	r2, r1, r2
 2360 049a 1344     		add	r3, r2, r3
 2361 049c FA7B     		ldrb	r2, [r7, #15]
 2362 049e 1A70     		strb	r2, [r3, #0]
 2363 04a0 10E0     		b	.L150
 2364              	.L149:
 605:.\main.c      ****                             else              player2[row-offset][col+offset] = blink;
ARM GAS  C:\DOCUME~1\david\LOCALS~1\Temp\ccWbOjJF.s 			page 54


 2365              		.loc 1 605 0
 2366 04a2 3A78     		ldrb	r2, [r7, #0]	@ zero_extendqisi2
 2367 04a4 7B68     		ldr	r3, [r7, #4]
 2368 04a6 C3EB0201 		rsb	r1, r3, r2
 2369 04aa 7A78     		ldrb	r2, [r7, #1]	@ zero_extendqisi2
 2370 04ac 7B68     		ldr	r3, [r7, #4]
 2371 04ae 1A44     		add	r2, r2, r3
 2372 04b0 40F20003 		movw	r3, #:lower16:player2
 2373 04b4 C0F20003 		movt	r3, #:upper16:player2
 2374 04b8 4FEAC101 		lsl	r1, r1, #3
 2375 04bc 0A44     		add	r2, r1, r2
 2376 04be 1344     		add	r3, r2, r3
 2377 04c0 FA7B     		ldrb	r2, [r7, #15]
 2378 04c2 1A70     		strb	r2, [r3, #0]
 2379              	.L150:
 2380              		.loc 1 603 0
 2381 04c4 7B68     		ldr	r3, [r7, #4]
 2382 04c6 03F10103 		add	r3, r3, #1
 2383 04ca 7B60     		str	r3, [r7, #4]
 2384              	.L148:
 2385 04cc BB7B     		ldrb	r3, [r7, #14]	@ zero_extendqisi2
 2386 04ce 002B     		cmp	r3, #0
 2387 04d0 02D0     		beq	.L151
 2388 04d2 7B68     		ldr	r3, [r7, #4]
 2389 04d4 032B     		cmp	r3, #3
 2390 04d6 CBDD     		ble	.L152
 2391              	.L151:
 606:.\main.c      ****                         }
 607:.\main.c      ****                         CyDelay(strobe);
 2392              		.loc 1 607 0
 2393 04d8 7B88     		ldrh	r3, [r7, #2]
 2394 04da 1846     		mov	r0, r3
 2395 04dc FFF7FEFF 		bl	CyDelay
 608:.\main.c      ****                         blink = !blink;
 2396              		.loc 1 608 0
 2397 04e0 FB7B     		ldrb	r3, [r7, #15]
 2398 04e2 83F00103 		eor	r3, r3, #1
 2399 04e6 DBB2     		uxtb	r3, r3
 2400 04e8 FB73     		strb	r3, [r7, #15]
 609:.\main.c      ****                     }
 2401              		.loc 1 609 0
 2402 04ea BDE7     		b	.L153
 2403              	.L141:
 2404              	.LBE14:
 2405              	.LBE13:
 2406              	.LBE6:
 2407              		.loc 1 526 0
 2408 04ec 7B78     		ldrb	r3, [r7, #1]
 2409 04ee 03F10103 		add	r3, r3, #1
 2410 04f2 7B70     		strb	r3, [r7, #1]
 2411              	.L101:
 2412 04f4 7B78     		ldrb	r3, [r7, #1]	@ zero_extendqisi2
 2413 04f6 072B     		cmp	r3, #7
 2414 04f8 7FF690AD 		bls	.L154
 2415              		.loc 1 525 0
 2416 04fc 3B78     		ldrb	r3, [r7, #0]
 2417 04fe 03F10103 		add	r3, r3, #1
ARM GAS  C:\DOCUME~1\david\LOCALS~1\Temp\ccWbOjJF.s 			page 55


 2418 0502 3B70     		strb	r3, [r7, #0]
 2419              	.L100:
 2420 0504 3B78     		ldrb	r3, [r7, #0]	@ zero_extendqisi2
 2421 0506 072B     		cmp	r3, #7
 2422 0508 7FF684AD 		bls	.L155
 610:.\main.c      ****                 }
 611:.\main.c      ****             }  
 612:.\main.c      ****         }
 613:.\main.c      ****     }
 614:.\main.c      **** }
 2423              		.loc 1 614 0
 2424 050c 07F11007 		add	r7, r7, #16
 2425 0510 BD46     		mov	sp, r7
 2426 0512 80BD     		pop	{r7, pc}
 2427              		.cfi_endproc
 2428              	.LFE41:
 2429              		.size	winner_check, .-winner_check
 2430              		.section	.rodata
 2431 0135 000000   		.align	2
 2432              	.LC30:
 2433 0138 636C6561 		.ascii	"cleaning...\000"
 2433      6E696E67 
 2433      2E2E2E00 
 2434              		.section	.text.cleanup,"ax",%progbits
 2435              		.align	2
 2436              		.global	cleanup
 2437              		.thumb
 2438              		.thumb_func
 2439              		.type	cleanup, %function
 2440              	cleanup:
 2441              	.LFB42:
 615:.\main.c      **** 
 616:.\main.c      **** 
 617:.\main.c      **** 
 618:.\main.c      **** 
 619:.\main.c      **** void cleanup () {
 2442              		.loc 1 619 0
 2443              		.cfi_startproc
 2444              		@ args = 0, pretend = 0, frame = 0
 2445              		@ frame_needed = 1, uses_anonymous_args = 0
 2446 0000 80B5     		push	{r7, lr}
 2447              	.LCFI37:
 2448              		.cfi_def_cfa_offset 8
 2449 0002 00AF     		add	r7, sp, #0
 2450              		.cfi_offset 14, -4
 2451              		.cfi_offset 7, -8
 2452              	.LCFI38:
 2453              		.cfi_def_cfa_register 7
 620:.\main.c      ****     LCD_UpdateStatus("cleaning...");
 2454              		.loc 1 620 0
 2455 0004 40F20000 		movw	r0, #:lower16:.LC30
 2456 0008 C0F20000 		movt	r0, #:upper16:.LC30
 2457 000c FFF7FEFF 		bl	LCD_UpdateStatus
 621:.\main.c      ****     
 622:.\main.c      ****     LCD_UpdateMessage("display");
 2458              		.loc 1 622 0
 2459 0010 40F20000 		movw	r0, #:lower16:.LC14
ARM GAS  C:\DOCUME~1\david\LOCALS~1\Temp\ccWbOjJF.s 			page 56


 2460 0014 C0F20000 		movt	r0, #:upper16:.LC14
 2461 0018 FFF7FEFF 		bl	LCD_UpdateMessage
 623:.\main.c      ****     Beam_Stop();
 2462              		.loc 1 623 0
 2463 001c FFF7FEFF 		bl	Beam_Stop
 624:.\main.c      ****     
 625:.\main.c      ****     if (!player2_local) {
 2464              		.loc 1 625 0
 2465 0020 40F20003 		movw	r3, #:lower16:player2_local
 2466 0024 C0F20003 		movt	r3, #:upper16:player2_local
 2467 0028 1B78     		ldrb	r3, [r3, #0]	@ zero_extendqisi2
 2468 002a 83F00103 		eor	r3, r3, #1
 2469 002e DBB2     		uxtb	r3, r3
 2470 0030 002B     		cmp	r3, #0
 2471 0032 07D0     		beq	.L162
 626:.\main.c      ****         LCD_UpdateMessage("UART");
 2472              		.loc 1 626 0
 2473 0034 40F20000 		movw	r0, #:lower16:.LC12
 2474 0038 C0F20000 		movt	r0, #:upper16:.LC12
 2475 003c FFF7FEFF 		bl	LCD_UpdateMessage
 627:.\main.c      ****         UART_Stop();
 2476              		.loc 1 627 0
 2477 0040 FFF7FEFF 		bl	UART_Stop
 2478              	.L162:
 628:.\main.c      ****     }
 629:.\main.c      ****     
 630:.\main.c      ****     LCD_UpdateMessage("CapSense");
 2479              		.loc 1 630 0
 2480 0044 40F20000 		movw	r0, #:lower16:.LC8
 2481 0048 C0F20000 		movt	r0, #:upper16:.LC8
 2482 004c FFF7FEFF 		bl	LCD_UpdateMessage
 631:.\main.c      ****     CapSense_Stop();
 2483              		.loc 1 631 0
 2484 0050 FFF7FEFF 		bl	CapSense_Stop
 632:.\main.c      ****     
 633:.\main.c      ****     LCD_UpdateMessage("timer");
 2485              		.loc 1 633 0
 2486 0054 40F20000 		movw	r0, #:lower16:.LC7
 2487 0058 C0F20000 		movt	r0, #:upper16:.LC7
 2488 005c FFF7FEFF 		bl	LCD_UpdateMessage
 634:.\main.c      ****     Timer_Stop();
 2489              		.loc 1 634 0
 2490 0060 FFF7FEFF 		bl	Timer_Stop
 635:.\main.c      ****     
 636:.\main.c      ****     LCD_UpdateMessage("matrix");
 2491              		.loc 1 636 0
 2492 0064 40F20000 		movw	r0, #:lower16:.LC5
 2493 0068 C0F20000 		movt	r0, #:upper16:.LC5
 2494 006c FFF7FEFF 		bl	LCD_UpdateMessage
 637:.\main.c      ****     matrix_deluminate();
 2495              		.loc 1 637 0
 2496 0070 FFF7FEFF 		bl	matrix_deluminate
 638:.\main.c      ****     
 639:.\main.c      ****     LCD_UpdateMessage("board");
 2497              		.loc 1 639 0
 2498 0074 40F20000 		movw	r0, #:lower16:.LC4
 2499 0078 C0F20000 		movt	r0, #:upper16:.LC4
ARM GAS  C:\DOCUME~1\david\LOCALS~1\Temp\ccWbOjJF.s 			page 57


 2500 007c FFF7FEFF 		bl	LCD_UpdateMessage
 640:.\main.c      ****     clear_board();
 2501              		.loc 1 640 0
 2502 0080 FFF7FEFF 		bl	clear_board
 641:.\main.c      ****     
 642:.\main.c      ****     LCD_Stop();
 2503              		.loc 1 642 0
 2504 0084 FFF7FEFF 		bl	LCD_Stop
 643:.\main.c      **** }
 2505              		.loc 1 643 0
 2506 0088 80BD     		pop	{r7, pc}
 2507              		.cfi_endproc
 2508              	.LFE42:
 2509              		.size	cleanup, .-cleanup
 2510 008a 00BF     		.text
 2511              	.Letext0: