ARM GAS  C:\DOCUME~1\david\LOCALS~1\Temp\ccWbOjJF.s 			page 1


   1              		.syntax unified
   2              		.cpu cortex-m3
   3              		.fpu softvfp
   4              		.eabi_attribute 20, 1
   5              		.eabi_attribute 21, 1
   6              		.eabi_attribute 23, 3
   7              		.eabi_attribute 24, 1
   8              		.eabi_attribute 25, 1
   9              		.eabi_attribute 26, 1
  10              		.eabi_attribute 30, 6
  11              		.eabi_attribute 18, 4
  12              		.thumb
  13              		.file	"main.c"
  14              		.section	.debug_abbrev,"",%progbits
  15              	.Ldebug_abbrev0:
  16              		.section	.debug_info,"",%progbits
  17              	.Ldebug_info0:
  18              		.section	.debug_line,"",%progbits
  19              	.Ldebug_line0:
  20 0000 B2020000 		.text
  20      02005300 
  20      00000201 
  20      FB0E0D00 
  20      01010101 
  21              	.Ltext0:
  22              		.cfi_sections	.debug_frame
  23              		.global	player1_turn
  24              		.data
  25              		.type	player1_turn, %object
  26              		.size	player1_turn, 1
  27              	player1_turn:
  28 0000 01       		.byte	1
  29              		.global	player2_local
  30              		.type	player2_local, %object
  31              		.size	player2_local, 1
  32              	player2_local:
  33 0001 01       		.byte	1
  34              		.global	player1_color
  35              		.type	player1_color, %object
  36              		.size	player1_color, 1
  37              	player1_color:
  38 0002 01       		.byte	1
  39              		.global	player2_color
  40              		.type	player2_color, %object
  41              		.size	player2_color, 1
  42              	player2_color:
  43 0003 04       		.byte	4
  44              		.comm	player1,64,4
  45              		.comm	player2,64,4
  46              		.comm	last_move,2,4
  47              		.global	locating
  48              		.bss
  49              		.type	locating, %object
  50              		.size	locating, 1
  51              	locating:
  52 0000 00       		.space	1
  53              		.section	.text.toggle,"ax",%progbits
ARM GAS  C:\DOCUME~1\david\LOCALS~1\Temp\ccWbOjJF.s 			page 2


  54              		.align	2
  55              		.global	toggle
  56              		.thumb
  57              		.thumb_func
  58              		.type	toggle, %function
  59              	toggle:
  60              	.LFB29:
  61              		.file 1 ".\\main.c"
   1:.\main.c      **** #include <device.h>
   2:.\main.c      **** #include <stdbool.h>
   3:.\main.c      **** #include <display.h>
   4:.\main.c      **** #include <matrix.h>
   5:.\main.c      **** 
   6:.\main.c      **** #define BUS_CLK_FREQ    24000000 // Hz
   7:.\main.c      **** #define REFRESH_RATE    3000     // [370,BUS_CLK_FREQ] Hz
   8:.\main.c      **** #define XBEE_CONFIGURED false
   9:.\main.c      **** #define XBEE_VERIFY     true
  10:.\main.c      **** #define XBEE_GUARD_TIME 1000     // ms
  11:.\main.c      **** #define XBEE_CHANNEL    0x0C     // [0x0B,0x1A]
  12:.\main.c      **** #define XBEE_REMEMBER   false
  13:.\main.c      **** #define PLAYER1_ID      0xDA     // [0x00,0xFF]
  14:.\main.c      **** #define PLAYER2_ID      0x85     // ID > max(MATRIX_ROWS,MATRIX_COLS) recommended
  15:.\main.c      **** #define PACKET_TYPE     0x00     // version
  16:.\main.c      **** 
  17:.\main.c      **** typedef struct play {
  18:.\main.c      ****     uint8  row;
  19:.\main.c      ****     uint8  col;
  20:.\main.c      **** } play_t;
  21:.\main.c      **** 
  22:.\main.c      **** bool  player1_turn  = true;
  23:.\main.c      **** bool  player2_local = true;
  24:.\main.c      **** uint8 player1_color = RED;
  25:.\main.c      **** uint8 player2_color = BLUE;
  26:.\main.c      **** //uint8 XBee_channel  = XBEE_CHANNEL;
  27:.\main.c      **** 
  28:.\main.c      **** bool  player1[MATRIX_ROWS][MATRIX_COLS];
  29:.\main.c      **** bool  player2[MATRIX_ROWS][MATRIX_COLS];
  30:.\main.c      **** play_t last_move;
  31:.\main.c      **** 
  32:.\main.c      **** void  initialize     ( );
  33:.\main.c      **** void  clear_board    ( );
  34:.\main.c      **** void  configure_XBee ( );//uint8 channel );
  35:.\main.c      **** uint8 get_move       ( );
  36:.\main.c      **** uint8 receive_move   ( ); 
  37:.\main.c      **** void  receive_packet ( play_t * move );
  38:.\main.c      **** void  send_packet    ( play_t * move );
  39:.\main.c      **** void  send_move      ( uint8 row , uint8 col );
  40:.\main.c      **** uint8 animate        ( uint8 c );
  41:.\main.c      **** void  winner_check   ( );
  42:.\main.c      **** void  cleanup        ( );
  43:.\main.c      **** 
  44:.\main.c      **** //void  receive_packet ( packet_t * move );
  45:.\main.c      **** //void  show_packet    ( packet_t * move );
  46:.\main.c      **** //void  send_packet    ( packet_t * move );
  47:.\main.c      **** //void  send_move      ( uint8 r , uint8 c ); 
  48:.\main.c      **** 
  49:.\main.c      **** 
ARM GAS  C:\DOCUME~1\david\LOCALS~1\Temp\ccWbOjJF.s 			page 3


  50:.\main.c      **** 
  51:.\main.c      **** 
  52:.\main.c      **** bool locating = false;//, channel_change = false;
  53:.\main.c      **** CY_ISR (toggle) {
  62              		.loc 1 53 0
  63              		.cfi_startproc
  64              		@ args = 0, pretend = 0, frame = 0
  65              		@ frame_needed = 1, uses_anonymous_args = 0
  66              		@ link register save eliminated.
  67 0000 80B4     		push	{r7}
  68              	.LCFI0:
  69              		.cfi_def_cfa_offset 4
  70 0002 00AF     		add	r7, sp, #0
  71              		.cfi_offset 7, -4
  72              	.LCFI1:
  73              		.cfi_def_cfa_register 7
  54:.\main.c      ****     if (locating) player2_local = !player2_local;
  74              		.loc 1 54 0
  75 0004 40F20003 		movw	r3, #:lower16:locating
  76 0008 C0F20003 		movt	r3, #:upper16:locating
  77 000c 1B78     		ldrb	r3, [r3, #0]	@ zero_extendqisi2
  78 000e 002B     		cmp	r3, #0
  79 0010 0DD0     		beq	.L3
  80 0012 40F20003 		movw	r3, #:lower16:player2_local
  81 0016 C0F20003 		movt	r3, #:upper16:player2_local
  82 001a 1B78     		ldrb	r3, [r3, #0]	@ zero_extendqisi2
  83 001c 83F00103 		eor	r3, r3, #1
  84 0020 DBB2     		uxtb	r3, r3
  85 0022 DAB2     		uxtb	r2, r3
  86 0024 40F20003 		movw	r3, #:lower16:player2_local
  87 0028 C0F20003 		movt	r3, #:upper16:player2_local
  88 002c 1A70     		strb	r2, [r3, #0]
  89              	.L3:
  55:.\main.c      ****     //else channel_change = true;
  56:.\main.c      **** }
  90              		.loc 1 56 0
  91 002e BD46     		mov	sp, r7
  92 0030 80BC     		pop	{r7}
  93 0032 7047     		bx	lr
  94              		.cfi_endproc
  95              	.LFE29:
  96              		.size	toggle, .-toggle
  97              		.global	rPos
  98              		.data
  99              		.type	rPos, %object
 100              		.size	rPos, 1
 101              	rPos:
 102 0004 FF       		.byte	-1
 103              		.global	cPos
 104              		.type	cPos, %object
 105              		.size	cPos, 1
 106              	cPos:
 107 0005 FF       		.byte	-1
 108              		.section	.text.refresh,"ax",%progbits
 109              		.align	2
 110              		.global	refresh
 111              		.thumb
ARM GAS  C:\DOCUME~1\david\LOCALS~1\Temp\ccWbOjJF.s 			page 4


 112              		.thumb_func
 113              		.type	refresh, %function
 114              	refresh:
 115              	.LFB30:
  57:.\main.c      **** 
  58:.\main.c      **** 
  59:.\main.c      **** 
  60:.\main.c      **** 
  61:.\main.c      **** uint8 rPos = -1, cPos = -1;
  62:.\main.c      **** CY_ISR (refresh) {
 116              		.loc 1 62 0
 117              		.cfi_startproc
 118              		@ args = 0, pretend = 0, frame = 8
 119              		@ frame_needed = 1, uses_anonymous_args = 0
 120 0000 80B5     		push	{r7, lr}
 121              	.LCFI2:
 122              		.cfi_def_cfa_offset 8
 123 0002 82B0     		sub	sp, sp, #8
 124              	.LCFI3:
 125              		.cfi_def_cfa_offset 16
 126 0004 00AF     		add	r7, sp, #0
 127              		.cfi_offset 14, -4
 128              		.cfi_offset 7, -8
 129              	.LCFI4:
 130              		.cfi_def_cfa_register 7
 131              	.LBB2:
  63:.\main.c      ****     if (false) {
  64:.\main.c      ****     //if (SERIAL) {
  65:.\main.c      ****         /**/
  66:.\main.c      ****         matrix_deluminate();
  67:.\main.c      ****         if (++cPos > MATRIX_COLS) cPos = 0;
  68:.\main.c      ****         for (rPos=0; rPos < MATRIX_ROWS ;++rPos) {
  69:.\main.c      ****             if (player1[rPos][cPos]) matrix_illuminate(rPos,cPos,player1_color);
  70:.\main.c      ****             if (player2[rPos][cPos]) matrix_illuminate(rPos,cPos,player2_color);
  71:.\main.c      ****         }
  72:.\main.c      ****         /**
  73:.\main.c      ****         matrix_deluminate();
  74:.\main.c      ****         if (++rPos > MATRIX_ROWS) rPos = 0;
  75:.\main.c      ****         for (cPos=0; cPos < MATRIX_COLS ;++cPos) {
  76:.\main.c      ****             if (player1[rPos][cPos]) matrix_illuminate(rPos,cPos,player1_color);
  77:.\main.c      ****             if (player2[rPos][cPos]) matrix_illuminate(rPos,cPos,player2_color);
  78:.\main.c      ****         }
  79:.\main.c      ****         /**/
  80:.\main.c      ****     }
  81:.\main.c      ****     else {
  82:.\main.c      ****         uint16 cells = MATRIX_ROWS*MATRIX_COLS;
 132              		.loc 1 82 0
 133 0006 4FF04003 		mov	r3, #64
 134 000a FB80     		strh	r3, [r7, #6]	@ movhi
  83:.\main.c      ****         while (cells-- > 0) {
 135              		.loc 1 83 0
 136 000c 93E0     		b	.L5
 137              	.L9:
  84:.\main.c      ****             if (++cPos > MATRIX_COLS) {
 138              		.loc 1 84 0
 139 000e 40F20003 		movw	r3, #:lower16:cPos
 140 0012 C0F20003 		movt	r3, #:upper16:cPos
ARM GAS  C:\DOCUME~1\david\LOCALS~1\Temp\ccWbOjJF.s 			page 5


 141 0016 1B78     		ldrb	r3, [r3, #0]	@ zero_extendqisi2
 142 0018 03F10103 		add	r3, r3, #1
 143 001c DAB2     		uxtb	r2, r3
 144 001e 40F20003 		movw	r3, #:lower16:cPos
 145 0022 C0F20003 		movt	r3, #:upper16:cPos
 146 0026 1A70     		strb	r2, [r3, #0]
 147 0028 40F20003 		movw	r3, #:lower16:cPos
 148 002c C0F20003 		movt	r3, #:upper16:cPos
 149 0030 1B78     		ldrb	r3, [r3, #0]	@ zero_extendqisi2
 150 0032 082B     		cmp	r3, #8
 151 0034 21D9     		bls	.L6
  85:.\main.c      ****                 cPos = 0;
 152              		.loc 1 85 0
 153 0036 40F20003 		movw	r3, #:lower16:cPos
 154 003a C0F20003 		movt	r3, #:upper16:cPos
 155 003e 4FF00002 		mov	r2, #0
 156 0042 1A70     		strb	r2, [r3, #0]
  86:.\main.c      ****                 if (++rPos > MATRIX_ROWS) rPos = 0;
 157              		.loc 1 86 0
 158 0044 40F20003 		movw	r3, #:lower16:rPos
 159 0048 C0F20003 		movt	r3, #:upper16:rPos
 160 004c 1B78     		ldrb	r3, [r3, #0]	@ zero_extendqisi2
 161 004e 03F10103 		add	r3, r3, #1
 162 0052 DAB2     		uxtb	r2, r3
 163 0054 40F20003 		movw	r3, #:lower16:rPos
 164 0058 C0F20003 		movt	r3, #:upper16:rPos
 165 005c 1A70     		strb	r2, [r3, #0]
 166 005e 40F20003 		movw	r3, #:lower16:rPos
 167 0062 C0F20003 		movt	r3, #:upper16:rPos
 168 0066 1B78     		ldrb	r3, [r3, #0]	@ zero_extendqisi2
 169 0068 082B     		cmp	r3, #8
 170 006a 06D9     		bls	.L6
 171 006c 40F20003 		movw	r3, #:lower16:rPos
 172 0070 C0F20003 		movt	r3, #:upper16:rPos
 173 0074 4FF00002 		mov	r2, #0
 174 0078 1A70     		strb	r2, [r3, #0]
 175              	.L6:
  87:.\main.c      ****             }
  88:.\main.c      ****             if (player1[rPos][cPos]) {
 176              		.loc 1 88 0
 177 007a 40F20003 		movw	r3, #:lower16:rPos
 178 007e C0F20003 		movt	r3, #:upper16:rPos
 179 0082 1B78     		ldrb	r3, [r3, #0]	@ zero_extendqisi2
 180 0084 1946     		mov	r1, r3
 181 0086 40F20003 		movw	r3, #:lower16:cPos
 182 008a C0F20003 		movt	r3, #:upper16:cPos
 183 008e 1B78     		ldrb	r3, [r3, #0]	@ zero_extendqisi2
 184 0090 1A46     		mov	r2, r3
 185 0092 40F20003 		movw	r3, #:lower16:player1
 186 0096 C0F20003 		movt	r3, #:upper16:player1
 187 009a 4FEAC101 		lsl	r1, r1, #3
 188 009e 0A44     		add	r2, r1, r2
 189 00a0 1344     		add	r3, r2, r3
 190 00a2 1B78     		ldrb	r3, [r3, #0]	@ zero_extendqisi2
 191 00a4 002B     		cmp	r3, #0
 192 00a6 16D0     		beq	.L7
  89:.\main.c      ****                 //matrix_deluminate();
ARM GAS  C:\DOCUME~1\david\LOCALS~1\Temp\ccWbOjJF.s 			page 6


  90:.\main.c      ****                 matrix_illuminate(rPos,cPos,player1_color);
 193              		.loc 1 90 0
 194 00a8 40F20003 		movw	r3, #:lower16:rPos
 195 00ac C0F20003 		movt	r3, #:upper16:rPos
 196 00b0 1B78     		ldrb	r3, [r3, #0]	@ zero_extendqisi2
 197 00b2 1946     		mov	r1, r3
 198 00b4 40F20003 		movw	r3, #:lower16:cPos
 199 00b8 C0F20003 		movt	r3, #:upper16:cPos
 200 00bc 1B78     		ldrb	r3, [r3, #0]	@ zero_extendqisi2
 201 00be 1A46     		mov	r2, r3
 202 00c0 40F20003 		movw	r3, #:lower16:player1_color
 203 00c4 C0F20003 		movt	r3, #:upper16:player1_color
 204 00c8 1B78     		ldrb	r3, [r3, #0]	@ zero_extendqisi2
 205 00ca 0846     		mov	r0, r1
 206 00cc 1146     		mov	r1, r2
 207 00ce 1A46     		mov	r2, r3
 208 00d0 FFF7FEFF 		bl	matrix_illuminate
  91:.\main.c      ****                 break;
 209              		.loc 1 91 0
 210 00d4 3CE0     		b	.L10
 211              	.L7:
  92:.\main.c      ****             }
  93:.\main.c      ****             if (player2[rPos][cPos]) {
 212              		.loc 1 93 0
 213 00d6 40F20003 		movw	r3, #:lower16:rPos
 214 00da C0F20003 		movt	r3, #:upper16:rPos
 215 00de 1B78     		ldrb	r3, [r3, #0]	@ zero_extendqisi2
 216 00e0 1946     		mov	r1, r3
 217 00e2 40F20003 		movw	r3, #:lower16:cPos
 218 00e6 C0F20003 		movt	r3, #:upper16:cPos
 219 00ea 1B78     		ldrb	r3, [r3, #0]	@ zero_extendqisi2
 220 00ec 1A46     		mov	r2, r3
 221 00ee 40F20003 		movw	r3, #:lower16:player2
 222 00f2 C0F20003 		movt	r3, #:upper16:player2
 223 00f6 4FEAC101 		lsl	r1, r1, #3
 224 00fa 0A44     		add	r2, r1, r2
 225 00fc 1344     		add	r3, r2, r3
 226 00fe 1B78     		ldrb	r3, [r3, #0]	@ zero_extendqisi2
 227 0100 002B     		cmp	r3, #0
 228 0102 18D0     		beq	.L5
  94:.\main.c      ****                 matrix_deluminate();
 229              		.loc 1 94 0
 230 0104 FFF7FEFF 		bl	matrix_deluminate
  95:.\main.c      ****                 matrix_illuminate(rPos,cPos,player2_color);
 231              		.loc 1 95 0
 232 0108 40F20003 		movw	r3, #:lower16:rPos
 233 010c C0F20003 		movt	r3, #:upper16:rPos
 234 0110 1B78     		ldrb	r3, [r3, #0]	@ zero_extendqisi2
 235 0112 1946     		mov	r1, r3
 236 0114 40F20003 		movw	r3, #:lower16:cPos
 237 0118 C0F20003 		movt	r3, #:upper16:cPos
 238 011c 1B78     		ldrb	r3, [r3, #0]	@ zero_extendqisi2
 239 011e 1A46     		mov	r2, r3
 240 0120 40F20003 		movw	r3, #:lower16:player2_color
 241 0124 C0F20003 		movt	r3, #:upper16:player2_color
 242 0128 1B78     		ldrb	r3, [r3, #0]	@ zero_extendqisi2
 243 012a 0846     		mov	r0, r1
ARM GAS  C:\DOCUME~1\david\LOCALS~1\Temp\ccWbOjJF.s 			page 7


 244 012c 1146     		mov	r1, r2
 245 012e 1A46     		mov	r2, r3
 246 0130 FFF7FEFF 		bl	matrix_illuminate
  96:.\main.c      ****                 break;
 247              		.loc 1 96 0
 248 0134 0CE0     		b	.L10
 249              	.L5:
 250              		.loc 1 83 0
 251 0136 FB88     		ldrh	r3, [r7, #6]
 252 0138 002B     		cmp	r3, #0
 253 013a 0CBF     		ite	eq
 254 013c 0023     		moveq	r3, #0
 255 013e 0123     		movne	r3, #1
 256 0140 DBB2     		uxtb	r3, r3
 257 0142 FA88     		ldrh	r2, [r7, #6]	@ movhi
 258 0144 02F1FF32 		add	r2, r2, #-1
 259 0148 FA80     		strh	r2, [r7, #6]	@ movhi
 260 014a 002B     		cmp	r3, #0
 261 014c 7FF45FAF 		bne	.L9
 262              	.L10:
 263              	.LBE2:
  97:.\main.c      ****             }
  98:.\main.c      ****         }
  99:.\main.c      ****     }
 100:.\main.c      **** }
 264              		.loc 1 100 0
 265 0150 07F10807 		add	r7, r7, #8
 266 0154 BD46     		mov	sp, r7
 267 0156 80BD     		pop	{r7, pc}
 268              		.cfi_endproc
 269              	.LFE30:
 270              		.size	refresh, .-refresh
 271              		.section	.rodata
 272              		.align	2
 273              	.LC0:
 274 0000 436F6E6E 		.ascii	"Connect 4\000"
 274      65637420 
 274      3400
 275 000a 0000     		.align	2
 276              	.LC1:
 277 000c 506C6179 		.ascii	"Player 1\000"
 277      65722031 
 277      00
 278 0015 000000   		.align	2
 279              	.LC2:
 280 0018 506C6179 		.ascii	"Player 2\000"
 280      65722032 
 280      00
 281              		.section	.text.main,"ax",%progbits
 282              		.align	2
 283              		.global	main
 284              		.thumb
 285              		.thumb_func
 286              		.type	main, %function
 287              	main:
 288              	.LFB31:
 101:.\main.c      **** 
ARM GAS  C:\DOCUME~1\david\LOCALS~1\Temp\ccWbOjJF.s 			page 8


 102:.\main.c      **** 
 103:.\main.c      **** 
 104:.\main.c      **** 
 105:.\main.c      **** void main () {
 289              		.loc 1 105 0
 290              		.cfi_startproc
 291              		@ args = 0, pretend = 0, frame = 8
 292              		@ frame_needed = 1, uses_anonymous_args = 0
 293 0000 80B5     		push	{r7, lr}
 294              	.LCFI5:
 295              		.cfi_def_cfa_offset 8
 296 0002 82B0     		sub	sp, sp, #8
 297              	.LCFI6:
 298              		.cfi_def_cfa_offset 16
 299 0004 00AF     		add	r7, sp, #0
 300              		.cfi_offset 14, -4
 301              		.cfi_offset 7, -8
 302              	.LCFI7:
 303              		.cfi_def_cfa_register 7
 106:.\main.c      ****     initialize();
 304              		.loc 1 106 0
 305 0006 FFF7FEFF 		bl	initialize
 107:.\main.c      ****     LCD_UpdateStatus("Connect 4");
 306              		.loc 1 107 0
 307 000a 40F20000 		movw	r0, #:lower16:.LC0
 308 000e C0F20000 		movt	r0, #:upper16:.LC0
 309 0012 FFF7FEFF 		bl	LCD_UpdateStatus
 310              	.L18:
 311              	.LBB3:
 108:.\main.c      ****     while (true) {
 109:.\main.c      ****         uint8 row, col;
 110:.\main.c      ****         if (player1_turn || player2_local) {
 312              		.loc 1 110 0
 313 0016 40F20003 		movw	r3, #:lower16:player1_turn
 314 001a C0F20003 		movt	r3, #:upper16:player1_turn
 315 001e 1B78     		ldrb	r3, [r3, #0]	@ zero_extendqisi2
 316 0020 002B     		cmp	r3, #0
 317 0022 06D1     		bne	.L12
 318 0024 40F20003 		movw	r3, #:lower16:player2_local
 319 0028 C0F20003 		movt	r3, #:upper16:player2_local
 320 002c 1B78     		ldrb	r3, [r3, #0]	@ zero_extendqisi2
 321 002e 002B     		cmp	r3, #0
 322 0030 33D0     		beq	.L13
 323              	.L12:
 111:.\main.c      ****             LCD_UpdateStatus((player1_turn) ? "Player 1" : "Player 2");
 324              		.loc 1 111 0
 325 0032 40F20003 		movw	r3, #:lower16:player1_turn
 326 0036 C0F20003 		movt	r3, #:upper16:player1_turn
 327 003a 1B78     		ldrb	r3, [r3, #0]	@ zero_extendqisi2
 328 003c 002B     		cmp	r3, #0
 329 003e 04D0     		beq	.L14
 330 0040 40F20003 		movw	r3, #:lower16:.LC1
 331 0044 C0F20003 		movt	r3, #:upper16:.LC1
 332 0048 03E0     		b	.L15
 333              	.L14:
 334 004a 40F20003 		movw	r3, #:lower16:.LC2
 335 004e C0F20003 		movt	r3, #:upper16:.LC2
ARM GAS  C:\DOCUME~1\david\LOCALS~1\Temp\ccWbOjJF.s 			page 9


 336              	.L15:
 337 0052 1846     		mov	r0, r3
 338 0054 FFF7FEFF 		bl	LCD_UpdateStatus
 112:.\main.c      ****             col = get_move();
 339              		.loc 1 112 0
 340 0058 FFF7FEFF 		bl	get_move
 341 005c 0346     		mov	r3, r0
 342 005e FB71     		strb	r3, [r7, #7]
 113:.\main.c      ****             row = animate(col);
 343              		.loc 1 113 0
 344 0060 FB79     		ldrb	r3, [r7, #7]	@ zero_extendqisi2
 345 0062 1846     		mov	r0, r3
 346 0064 FFF7FEFF 		bl	animate
 347 0068 0346     		mov	r3, r0
 348 006a BB71     		strb	r3, [r7, #6]
 114:.\main.c      ****             if (!player2_local) send_move(MATRIX_ROWS-row,col+1);
 349              		.loc 1 114 0
 350 006c 40F20003 		movw	r3, #:lower16:player2_local
 351 0070 C0F20003 		movt	r3, #:upper16:player2_local
 352 0074 1B78     		ldrb	r3, [r3, #0]	@ zero_extendqisi2
 353 0076 83F00103 		eor	r3, r3, #1
 354 007a DBB2     		uxtb	r3, r3
 355 007c 002B     		cmp	r3, #0
 356 007e 1DD0     		beq	.L20
 357 0080 BB79     		ldrb	r3, [r7, #6]
 358 0082 C3F10803 		rsb	r3, r3, #8
 359 0086 DAB2     		uxtb	r2, r3
 360 0088 FB79     		ldrb	r3, [r7, #7]
 361 008a 03F10103 		add	r3, r3, #1
 362 008e DBB2     		uxtb	r3, r3
 363 0090 1046     		mov	r0, r2
 364 0092 1946     		mov	r1, r3
 365 0094 FFF7FEFF 		bl	send_move
 366              		.loc 1 110 0
 367 0098 11E0     		b	.L17
 368              	.L13:
 115:.\main.c      ****         }
 116:.\main.c      ****         else {
 117:.\main.c      ****             LCD_UpdateStatus("Player 2");
 369              		.loc 1 117 0
 370 009a 40F20000 		movw	r0, #:lower16:.LC2
 371 009e C0F20000 		movt	r0, #:upper16:.LC2
 372 00a2 FFF7FEFF 		bl	LCD_UpdateStatus
 118:.\main.c      ****             col = receive_move();
 373              		.loc 1 118 0
 374 00a6 FFF7FEFF 		bl	receive_move
 375 00aa 0346     		mov	r3, r0
 376 00ac FB71     		strb	r3, [r7, #7]
 119:.\main.c      ****             row = animate(col);
 377              		.loc 1 119 0
 378 00ae FB79     		ldrb	r3, [r7, #7]	@ zero_extendqisi2
 379 00b0 1846     		mov	r0, r3
 380 00b2 FFF7FEFF 		bl	animate
 381 00b6 0346     		mov	r3, r0
 382 00b8 BB71     		strb	r3, [r7, #6]
 383 00ba 00E0     		b	.L17
 384              	.L20:
ARM GAS  C:\DOCUME~1\david\LOCALS~1\Temp\ccWbOjJF.s 			page 10


 385              		.loc 1 110 0
 386 00bc 00BF     		nop
 387              	.L17:
 120:.\main.c      ****         }
 121:.\main.c      ****         winner_check();
 388              		.loc 1 121 0
 389 00be FFF7FEFF 		bl	winner_check
 122:.\main.c      ****         player1_turn = !player1_turn;
 390              		.loc 1 122 0
 391 00c2 40F20003 		movw	r3, #:lower16:player1_turn
 392 00c6 C0F20003 		movt	r3, #:upper16:player1_turn
 393 00ca 1B78     		ldrb	r3, [r3, #0]	@ zero_extendqisi2
 394 00cc 83F00103 		eor	r3, r3, #1
 395 00d0 DBB2     		uxtb	r3, r3
 396 00d2 DAB2     		uxtb	r2, r3
 397 00d4 40F20003 		movw	r3, #:lower16:player1_turn
 398 00d8 C0F20003 		movt	r3, #:upper16:player1_turn
 399 00dc 1A70     		strb	r2, [r3, #0]
 400              	.LBE3:
 123:.\main.c      ****         
 124:.\main.c      ****         /*
 125:.\main.c      ****         if (channel_change) {
 126:.\main.c      ****             if (++XBee_channel > 0x1A) XBee_channel = 0x0B;
 127:.\main.c      ****             configure_XBee(XBee_channel);
 128:.\main.c      ****             channel_change = false;
 129:.\main.c      ****             LCD_UpdateStatus("Change Channel");
 130:.\main.c      ****             LCD_ClearLine(1);
 131:.\main.c      ****             LCD_PrintString("0x");
 132:.\main.c      ****             LCD_PrintInt8(XBee_channel);
 133:.\main.c      ****             CyDelay(500);
 134:.\main.c      ****         }
 135:.\main.c      ****         */
 136:.\main.c      ****     }
 401              		.loc 1 136 0
 402 00de 9AE7     		b	.L18
 403              		.cfi_endproc
 404              	.LFE31:
 405              		.size	main, .-main
 406              		.section	.rodata
 407 0021 000000   		.align	2
 408              	.LC3:
 409 0024 696E6974 		.ascii	"initializing...\000"
 409      69616C69 
 409      7A696E67 
 409      2E2E2E00 
 410              		.align	2
 411              	.LC4:
 412 0034 626F6172 		.ascii	"board\000"
 412      6400
 413 003a 0000     		.align	2
 414              	.LC5:
 415 003c 6D617472 		.ascii	"matrix\000"
 415      697800
 416 0043 00       		.align	2
 417              	.LC6:
 418 0044 696E7465 		.ascii	"interrupts\000"
 418      72727570 
ARM GAS  C:\DOCUME~1\david\LOCALS~1\Temp\ccWbOjJF.s 			page 11


 418      747300
 419 004f 00       		.align	2
 420              	.LC7:
 421 0050 74696D65 		.ascii	"timer\000"
 421      7200
 422 0056 0000     		.align	2
 423              	.LC8:
 424 0058 43617053 		.ascii	"CapSense\000"
 424      656E7365 
 424      00
 425 0061 000000   		.align	2
 426              	.LC9:
 427 0064 6C6F6361 		.ascii	"locate opponent\000"
 427      7465206F 
 427      70706F6E 
 427      656E7400 
 428              		.align	2
 429              	.LC10:
 430 0074 6C6F6361 		.ascii	"local\000"
 430      6C00
 431 007a 0000     		.align	2
 432              	.LC11:
 433 007c 72656D6F 		.ascii	"remote\000"
 433      746500
 434 0083 00       		.align	2
 435              	.LC12:
 436 0084 55415254 		.ascii	"UART\000"
 436      00
 437 0089 000000   		.align	2
 438              	.LC13:
 439 008c 58426565 		.ascii	"XBee\000"
 439      00
 440 0091 000000   		.align	2
 441              	.LC14:
 442 0094 64697370 		.ascii	"display\000"
 442      6C617900 
 443              		.section	.text.initialize,"ax",%progbits
 444              		.align	2
 445              		.global	initialize
 446              		.thumb
 447              		.thumb_func
 448              		.type	initialize, %function
 449              	initialize:
 450              	.LFB32:
 137:.\main.c      ****     cleanup();
 138:.\main.c      **** }
 139:.\main.c      **** 
 140:.\main.c      **** 
 141:.\main.c      **** 
 142:.\main.c      **** 
 143:.\main.c      **** void initialize () {
 451              		.loc 1 143 0
 452              		.cfi_startproc
 453              		@ args = 0, pretend = 0, frame = 8
 454              		@ frame_needed = 1, uses_anonymous_args = 0
 455 0000 80B5     		push	{r7, lr}
 456              	.LCFI8:
ARM GAS  C:\DOCUME~1\david\LOCALS~1\Temp\ccWbOjJF.s 			page 12


 457              		.cfi_def_cfa_offset 8
 458 0002 82B0     		sub	sp, sp, #8
 459              	.LCFI9:
 460              		.cfi_def_cfa_offset 16
 461 0004 00AF     		add	r7, sp, #0
 462              		.cfi_offset 14, -4
 463              		.cfi_offset 7, -8
 464              	.LCFI10:
 465              		.cfi_def_cfa_register 7
 144:.\main.c      ****     LCD_Start();
 466              		.loc 1 144 0
 467 0006 FFF7FEFF 		bl	LCD_Start
 145:.\main.c      ****     LCD_UpdateStatus("initializing...");
 468              		.loc 1 145 0
 469 000a 40F20000 		movw	r0, #:lower16:.LC3
 470 000e C0F20000 		movt	r0, #:upper16:.LC3
 471 0012 FFF7FEFF 		bl	LCD_UpdateStatus
 146:.\main.c      ****     
 147:.\main.c      ****     LCD_UpdateMessage("board");
 472              		.loc 1 147 0
 473 0016 40F20000 		movw	r0, #:lower16:.LC4
 474 001a C0F20000 		movt	r0, #:upper16:.LC4
 475 001e FFF7FEFF 		bl	LCD_UpdateMessage
 148:.\main.c      ****     clear_board();
 476              		.loc 1 148 0
 477 0022 FFF7FEFF 		bl	clear_board
 149:.\main.c      ****     
 150:.\main.c      ****     LCD_UpdateMessage("matrix");
 478              		.loc 1 150 0
 479 0026 40F20000 		movw	r0, #:lower16:.LC5
 480 002a C0F20000 		movt	r0, #:upper16:.LC5
 481 002e FFF7FEFF 		bl	LCD_UpdateMessage
 151:.\main.c      ****     matrix_test(true,false);
 482              		.loc 1 151 0
 483 0032 4FF00100 		mov	r0, #1
 484 0036 4FF00001 		mov	r1, #0
 485 003a FFF7FEFF 		bl	matrix_test
 152:.\main.c      ****     matrix_deluminate();
 486              		.loc 1 152 0
 487 003e FFF7FEFF 		bl	matrix_deluminate
 153:.\main.c      ****     
 154:.\main.c      ****     LCD_UpdateMessage("interrupts");
 488              		.loc 1 154 0
 489 0042 40F20000 		movw	r0, #:lower16:.LC6
 490 0046 C0F20000 		movt	r0, #:upper16:.LC6
 491 004a FFF7FEFF 		bl	LCD_UpdateMessage
 155:.\main.c      ****     CyGlobalIntEnable;
 492              		.loc 1 155 0
 493              	@ 155 ".\main.c" 1
 494 004e 62B6     		CPSIE   i
 495              	@ 0 "" 2
 156:.\main.c      ****     
 157:.\main.c      ****     LCD_UpdateMessage("timer");
 496              		.loc 1 157 0
 497              		.thumb
 498 0050 40F20000 		movw	r0, #:lower16:.LC7
 499 0054 C0F20000 		movt	r0, #:upper16:.LC7
ARM GAS  C:\DOCUME~1\david\LOCALS~1\Temp\ccWbOjJF.s 			page 13


 500 0058 FFF7FEFF 		bl	LCD_UpdateMessage
 158:.\main.c      ****     Timer_Start();
 501              		.loc 1 158 0
 502 005c FFF7FEFF 		bl	Timer_Start
 159:.\main.c      ****     Timer_WritePeriod(BUS_CLK_FREQ/REFRESH_RATE);
 503              		.loc 1 159 0
 504 0060 4FF4FA50 		mov	r0, #8000
 505 0064 FFF7FEFF 		bl	Timer_WritePeriod
 160:.\main.c      ****     
 161:.\main.c      ****     LCD_UpdateMessage("CapSense");
 506              		.loc 1 161 0
 507 0068 40F20000 		movw	r0, #:lower16:.LC8
 508 006c C0F20000 		movt	r0, #:upper16:.LC8
 509 0070 FFF7FEFF 		bl	LCD_UpdateMessage
 162:.\main.c      ****     CapSense_Start();
 510              		.loc 1 162 0
 511 0074 FFF7FEFF 		bl	CapSense_Start
 163:.\main.c      ****     CapSense_InitializeAllBaselines();
 512              		.loc 1 163 0
 513 0078 FFF7FEFF 		bl	CapSense_InitializeAllBaselines
 164:.\main.c      ****     
 165:.\main.c      ****     LCD_UpdateStatus("locate opponent");
 514              		.loc 1 165 0
 515 007c 40F20000 		movw	r0, #:lower16:.LC9
 516 0080 C0F20000 		movt	r0, #:upper16:.LC9
 517 0084 FFF7FEFF 		bl	LCD_UpdateStatus
 166:.\main.c      ****     ISR_StartEx(toggle);
 518              		.loc 1 166 0
 519 0088 40F20000 		movw	r0, #:lower16:toggle
 520 008c C0F20000 		movt	r0, #:upper16:toggle
 521 0090 FFF7FEFF 		bl	ISR_StartEx
 167:.\main.c      ****     locating = true;
 522              		.loc 1 167 0
 523 0094 40F20003 		movw	r3, #:lower16:locating
 524 0098 C0F20003 		movt	r3, #:upper16:locating
 525 009c 4FF00102 		mov	r2, #1
 526 00a0 1A70     		strb	r2, [r3, #0]
 168:.\main.c      ****     uint8 t;
 169:.\main.c      ****     for (t=5; t > 0 ;--t) {
 527              		.loc 1 169 0
 528 00a2 4FF00503 		mov	r3, #5
 529 00a6 FB71     		strb	r3, [r7, #7]
 530 00a8 28E0     		b	.L22
 531              	.L25:
 170:.\main.c      ****         LCD_UpdateMessage((player2_local) ? "local" : "remote");
 532              		.loc 1 170 0
 533 00aa 40F20003 		movw	r3, #:lower16:player2_local
 534 00ae C0F20003 		movt	r3, #:upper16:player2_local
 535 00b2 1B78     		ldrb	r3, [r3, #0]	@ zero_extendqisi2
 536 00b4 002B     		cmp	r3, #0
 537 00b6 04D0     		beq	.L23
 538 00b8 40F20003 		movw	r3, #:lower16:.LC10
 539 00bc C0F20003 		movt	r3, #:upper16:.LC10
 540 00c0 03E0     		b	.L24
 541              	.L23:
 542 00c2 40F20003 		movw	r3, #:lower16:.LC11
 543 00c6 C0F20003 		movt	r3, #:upper16:.LC11
ARM GAS  C:\DOCUME~1\david\LOCALS~1\Temp\ccWbOjJF.s 			page 14


 544              	.L24:
 545 00ca 1846     		mov	r0, r3
 546 00cc FFF7FEFF 		bl	LCD_UpdateMessage
 171:.\main.c      ****         CyDelay(500);
 547              		.loc 1 171 0
 548 00d0 4FF4FA70 		mov	r0, #500
 549 00d4 FFF7FEFF 		bl	CyDelay
 172:.\main.c      ****         LCD_Position(1,15);
 550              		.loc 1 172 0
 551 00d8 4FF00100 		mov	r0, #1
 552 00dc 4FF00F01 		mov	r1, #15
 553 00e0 FFF7FEFF 		bl	LCD_Position
 173:.\main.c      ****         LCD_PrintNumber(t);
 554              		.loc 1 173 0
 555 00e4 FB79     		ldrb	r3, [r7, #7]	@ zero_extendqisi2
 556 00e6 1846     		mov	r0, r3
 557 00e8 FFF7FEFF 		bl	LCD_PrintNumber
 174:.\main.c      ****         CyDelay(500);
 558              		.loc 1 174 0
 559 00ec 4FF4FA70 		mov	r0, #500
 560 00f0 FFF7FEFF 		bl	CyDelay
 561              		.loc 1 169 0
 562 00f4 FB79     		ldrb	r3, [r7, #7]
 563 00f6 03F1FF33 		add	r3, r3, #-1
 564 00fa FB71     		strb	r3, [r7, #7]
 565              	.L22:
 566 00fc FB79     		ldrb	r3, [r7, #7]	@ zero_extendqisi2
 567 00fe 002B     		cmp	r3, #0
 568 0100 D3D1     		bne	.L25
 175:.\main.c      ****     }
 176:.\main.c      ****     locating = false;
 569              		.loc 1 176 0
 570 0102 40F20003 		movw	r3, #:lower16:locating
 571 0106 C0F20003 		movt	r3, #:upper16:locating
 572 010a 4FF00002 		mov	r2, #0
 573 010e 1A70     		strb	r2, [r3, #0]
 177:.\main.c      ****     ISR_Stop();
 574              		.loc 1 177 0
 575 0110 FFF7FEFF 		bl	ISR_Stop
 178:.\main.c      ****     if (!player2_local) {
 576              		.loc 1 178 0
 577 0114 40F20003 		movw	r3, #:lower16:player2_local
 578 0118 C0F20003 		movt	r3, #:upper16:player2_local
 579 011c 1B78     		ldrb	r3, [r3, #0]	@ zero_extendqisi2
 580 011e 83F00103 		eor	r3, r3, #1
 581 0122 DBB2     		uxtb	r3, r3
 582 0124 002B     		cmp	r3, #0
 583 0126 19D0     		beq	.L26
 179:.\main.c      ****         LCD_UpdateStatus("initializing...");
 584              		.loc 1 179 0
 585 0128 40F20000 		movw	r0, #:lower16:.LC3
 586 012c C0F20000 		movt	r0, #:upper16:.LC3
 587 0130 FFF7FEFF 		bl	LCD_UpdateStatus
 180:.\main.c      ****         LCD_UpdateMessage("UART");
 588              		.loc 1 180 0
 589 0134 40F20000 		movw	r0, #:lower16:.LC12
 590 0138 C0F20000 		movt	r0, #:upper16:.LC12
ARM GAS  C:\DOCUME~1\david\LOCALS~1\Temp\ccWbOjJF.s 			page 15


 591 013c FFF7FEFF 		bl	LCD_UpdateMessage
 181:.\main.c      ****         UART_Start();
 592              		.loc 1 181 0
 593 0140 FFF7FEFF 		bl	UART_Start
 182:.\main.c      ****         UART_ClearTxBuffer();
 594              		.loc 1 182 0
 595 0144 FFF7FEFF 		bl	UART_ClearTxBuffer
 183:.\main.c      ****         UART_ClearRxBuffer();
 596              		.loc 1 183 0
 597 0148 FFF7FEFF 		bl	UART_ClearRxBuffer
 184:.\main.c      ****         LCD_UpdateMessage("XBee");
 598              		.loc 1 184 0
 599 014c 40F20000 		movw	r0, #:lower16:.LC13
 600 0150 C0F20000 		movt	r0, #:upper16:.LC13
 601 0154 FFF7FEFF 		bl	LCD_UpdateMessage
 185:.\main.c      ****         if (!XBEE_CONFIGURED) configure_XBee();//XBee_channel);
 602              		.loc 1 185 0
 603 0158 FFF7FEFF 		bl	configure_XBee
 604              	.L26:
 186:.\main.c      ****     }
 187:.\main.c      ****     
 188:.\main.c      ****     LCD_UpdateMessage("display");
 605              		.loc 1 188 0
 606 015c 40F20000 		movw	r0, #:lower16:.LC14
 607 0160 C0F20000 		movt	r0, #:upper16:.LC14
 608 0164 FFF7FEFF 		bl	LCD_UpdateMessage
 189:.\main.c      ****     Beam_StartEx(refresh);
 609              		.loc 1 189 0
 610 0168 40F20000 		movw	r0, #:lower16:refresh
 611 016c C0F20000 		movt	r0, #:upper16:refresh
 612 0170 FFF7FEFF 		bl	Beam_StartEx
 190:.\main.c      **** }
 613              		.loc 1 190 0
 614 0174 07F10807 		add	r7, r7, #8
 615 0178 BD46     		mov	sp, r7
 616 017a 80BD     		pop	{r7, pc}
 617              		.cfi_endproc
 618              	.LFE32:
 619              		.size	initialize, .-initialize
 620              		.section	.text.clear_board,"ax",%progbits
 621              		.align	2
 622              		.global	clear_board
 623              		.thumb
 624              		.thumb_func
 625              		.type	clear_board, %function
 626              	clear_board:
 627              	.LFB33:
 191:.\main.c      **** 
 192:.\main.c      **** 
 193:.\main.c      **** 
 194:.\main.c      **** 
 195:.\main.c      **** void clear_board () {
 628              		.loc 1 195 0
 629              		.cfi_startproc
 630              		@ args = 0, pretend = 0, frame = 8
 631              		@ frame_needed = 1, uses_anonymous_args = 0
 632              		@ link register save eliminated.
ARM GAS  C:\DOCUME~1\david\LOCALS~1\Temp\ccWbOjJF.s 			page 16


 633 0000 80B4     		push	{r7}
 634              	.LCFI11:
 635              		.cfi_def_cfa_offset 4
 636 0002 83B0     		sub	sp, sp, #12
 637              	.LCFI12:
 638              		.cfi_def_cfa_offset 16
 639 0004 00AF     		add	r7, sp, #0
 640              		.cfi_offset 7, -4
 641              	.LCFI13:
 642              		.cfi_def_cfa_register 7
 196:.\main.c      ****     uint8 row, col;
 197:.\main.c      ****     for (row=0; row < MATRIX_ROWS ;++row) {
 643              		.loc 1 197 0
 644 0006 4FF00003 		mov	r3, #0
 645 000a BB71     		strb	r3, [r7, #6]
 646 000c 28E0     		b	.L29
 647              	.L32:
 198:.\main.c      ****         for (col=0; col < MATRIX_COLS ;++col) {
 648              		.loc 1 198 0
 649 000e 4FF00003 		mov	r3, #0
 650 0012 FB71     		strb	r3, [r7, #7]
 651 0014 1DE0     		b	.L30
 652              	.L31:
 199:.\main.c      ****             player1[row][col] = false;
 653              		.loc 1 199 0
 654 0016 B979     		ldrb	r1, [r7, #6]	@ zero_extendqisi2
 655 0018 FA79     		ldrb	r2, [r7, #7]	@ zero_extendqisi2
 656 001a 40F20003 		movw	r3, #:lower16:player1
 657 001e C0F20003 		movt	r3, #:upper16:player1
 658 0022 4FEAC101 		lsl	r1, r1, #3
 659 0026 0A44     		add	r2, r1, r2
 660 0028 1344     		add	r3, r2, r3
 661 002a 4FF00002 		mov	r2, #0
 662 002e 1A70     		strb	r2, [r3, #0]
 200:.\main.c      ****             player2[row][col] = false;
 663              		.loc 1 200 0
 664 0030 B979     		ldrb	r1, [r7, #6]	@ zero_extendqisi2
 665 0032 FA79     		ldrb	r2, [r7, #7]	@ zero_extendqisi2
 666 0034 40F20003 		movw	r3, #:lower16:player2
 667 0038 C0F20003 		movt	r3, #:upper16:player2
 668 003c 4FEAC101 		lsl	r1, r1, #3
 669 0040 0A44     		add	r2, r1, r2
 670 0042 1344     		add	r3, r2, r3
 671 0044 4FF00002 		mov	r2, #0
 672 0048 1A70     		strb	r2, [r3, #0]
 673              		.loc 1 198 0
 674 004a FB79     		ldrb	r3, [r7, #7]
 675 004c 03F10103 		add	r3, r3, #1
 676 0050 FB71     		strb	r3, [r7, #7]
 677              	.L30:
 678 0052 FB79     		ldrb	r3, [r7, #7]	@ zero_extendqisi2
 679 0054 072B     		cmp	r3, #7
 680 0056 DED9     		bls	.L31
 681              		.loc 1 197 0
 682 0058 BB79     		ldrb	r3, [r7, #6]
 683 005a 03F10103 		add	r3, r3, #1
 684 005e BB71     		strb	r3, [r7, #6]
ARM GAS  C:\DOCUME~1\david\LOCALS~1\Temp\ccWbOjJF.s 			page 17


 685              	.L29:
 686 0060 BB79     		ldrb	r3, [r7, #6]	@ zero_extendqisi2
 687 0062 072B     		cmp	r3, #7
 688 0064 D3D9     		bls	.L32
 201:.\main.c      ****         }
 202:.\main.c      ****     }
 203:.\main.c      **** }
 689              		.loc 1 203 0
 690 0066 07F10C07 		add	r7, r7, #12
 691 006a BD46     		mov	sp, r7
 692 006c 80BC     		pop	{r7}
 693 006e 7047     		bx	lr
 694              		.cfi_endproc
 695              	.LFE33:
 696              		.size	clear_board, .-clear_board
 697              		.section	.rodata
 698              		.align	2
 699              	.LC15:
 700 009c 436F6E66 		.ascii	"Config\000"
 700      696700
 701 00a3 00       		.align	2
 702              	.LC16:
 703 00a4 2B2B2B00 		.ascii	"+++\000"
 704              		.align	2
 705              	.LC17:
 706 00a8 41504920 		.ascii	"API Mode\000"
 706      4D6F6465 
 706      00
 707 00b1 000000   		.align	2
 708              	.LC18:
 709 00b4 41544150 		.ascii	"ATAP1\015\000"
 709      310D00
 710 00bb 00       		.align	2
 711              	.LC19:
 712 00bc 4368616E 		.ascii	"Channel \000"
 712      6E656C20 
 712      00
 713 00c5 000000   		.align	2
 714              	.LC20:
 715 00c8 41544348 		.ascii	"ATCH\000"
 715      00
 716 00cd 000000   		.align	2
 717              	.LC21:
 718 00d0 52656164 		.ascii	"Ready   \000"
 718      79202020 
 718      00
 719 00d9 000000   		.align	2
 720              	.LC22:
 721 00dc 4154434E 		.ascii	"ATCN\015\000"
 721      0D00
 722              		.section	.text.configure_XBee,"ax",%progbits
 723              		.align	2
 724              		.global	configure_XBee
 725              		.thumb
 726              		.thumb_func
 727              		.type	configure_XBee, %function
 728              	configure_XBee:
ARM GAS  C:\DOCUME~1\david\LOCALS~1\Temp\ccWbOjJF.s 			page 18


 729              	.LFB34:
 204:.\main.c      **** 
 205:.\main.c      **** 
 206:.\main.c      **** 
 207:.\main.c      **** 
 208:.\main.c      **** void configure_XBee () {//uint8 channel ) {
 730              		.loc 1 208 0
 731              		.cfi_startproc
 732              		@ args = 0, pretend = 0, frame = 0
 733              		@ frame_needed = 1, uses_anonymous_args = 0
 734 0000 80B5     		push	{r7, lr}
 735              	.LCFI14:
 736              		.cfi_def_cfa_offset 8
 737 0002 00AF     		add	r7, sp, #0
 738              		.cfi_offset 14, -4
 739              		.cfi_offset 7, -8
 740              	.LCFI15:
 741              		.cfi_def_cfa_register 7
 209:.\main.c      ****     //if (!channel_change) {
 210:.\main.c      ****         LCD_Position(1,5);
 742              		.loc 1 210 0
 743 0004 4FF00100 		mov	r0, #1
 744 0008 4FF00501 		mov	r1, #5
 745 000c FFF7FEFF 		bl	LCD_Position
 211:.\main.c      ****         LCD_PrintString("Config");
 746              		.loc 1 211 0
 747 0010 40F20000 		movw	r0, #:lower16:.LC15
 748 0014 C0F20000 		movt	r0, #:upper16:.LC15
 749 0018 FFF7FEFF 		bl	LCD_PrintString
 212:.\main.c      ****     //}
 213:.\main.c      ****     CyDelay(XBEE_GUARD_TIME);
 750              		.loc 1 213 0
 751 001c 4FF47A70 		mov	r0, #1000
 752 0020 FFF7FEFF 		bl	CyDelay
 214:.\main.c      ****     UART_PutString("+++");
 753              		.loc 1 214 0
 754 0024 40F20000 		movw	r0, #:lower16:.LC16
 755 0028 C0F20000 		movt	r0, #:upper16:.LC16
 756 002c FFF7FEFF 		bl	UART_PutString
 215:.\main.c      ****     CyDelay(XBEE_GUARD_TIME*3);
 757              		.loc 1 215 0
 758 0030 40F6B830 		movw	r0, #3000
 759 0034 FFF7FEFF 		bl	CyDelay
 760              	.L35:
 216:.\main.c      ****     if (XBEE_VERIFY) {
 217:.\main.c      ****         while (UART_GetRxBufferSize() < 3);
 761              		.loc 1 217 0
 762 0038 FFF7FEFF 		bl	UART_GetRxBufferSize
 763 003c 0346     		mov	r3, r0
 764 003e 022B     		cmp	r3, #2
 765 0040 FAD9     		bls	.L35
 218:.\main.c      ****         if (UART_ReadRxData() != 'O'
 219:.\main.c      ****         ||  UART_ReadRxData() != 'K'
 766              		.loc 1 219 0
 767 0042 FFF7FEFF 		bl	UART_ReadRxData
 768 0046 0346     		mov	r3, r0
 769              		.loc 1 218 0
ARM GAS  C:\DOCUME~1\david\LOCALS~1\Temp\ccWbOjJF.s 			page 19


 770 0048 4F2B     		cmp	r3, #79
 771 004a 09D1     		bne	.L36
 220:.\main.c      ****         ||  UART_ReadRxData() != '\r') Error_Write(0x01);
 772              		.loc 1 220 0
 773 004c FFF7FEFF 		bl	UART_ReadRxData
 774 0050 0346     		mov	r3, r0
 775              		.loc 1 218 0
 776 0052 4B2B     		cmp	r3, #75
 777 0054 04D1     		bne	.L36
 778              		.loc 1 220 0
 779 0056 FFF7FEFF 		bl	UART_ReadRxData
 780 005a 0346     		mov	r3, r0
 781              		.loc 1 218 0
 782 005c 0D2B     		cmp	r3, #13
 783 005e 03D0     		beq	.L37
 784              	.L36:
 785              		.loc 1 220 0
 786 0060 4FF00100 		mov	r0, #1
 787 0064 FFF7FEFF 		bl	Error_Write
 788              	.L37:
 221:.\main.c      ****     }
 222:.\main.c      ****     
 223:.\main.c      ****     //if (!channel_change) {
 224:.\main.c      ****         LCD_Position(1,5);
 789              		.loc 1 224 0
 790 0068 4FF00100 		mov	r0, #1
 791 006c 4FF00501 		mov	r1, #5
 792 0070 FFF7FEFF 		bl	LCD_Position
 225:.\main.c      ****         LCD_PrintString("API Mode");
 793              		.loc 1 225 0
 794 0074 40F20000 		movw	r0, #:lower16:.LC17
 795 0078 C0F20000 		movt	r0, #:upper16:.LC17
 796 007c FFF7FEFF 		bl	LCD_PrintString
 226:.\main.c      ****     //}
 227:.\main.c      ****     UART_PutString("ATAP1\r");
 797              		.loc 1 227 0
 798 0080 40F20000 		movw	r0, #:lower16:.LC18
 799 0084 C0F20000 		movt	r0, #:upper16:.LC18
 800 0088 FFF7FEFF 		bl	UART_PutString
 801              	.L38:
 228:.\main.c      ****     if (XBEE_VERIFY) {
 229:.\main.c      ****         while (UART_GetRxBufferSize() < 3);
 802              		.loc 1 229 0
 803 008c FFF7FEFF 		bl	UART_GetRxBufferSize
 804 0090 0346     		mov	r3, r0
 805 0092 022B     		cmp	r3, #2
 806 0094 FAD9     		bls	.L38
 230:.\main.c      ****         if (UART_ReadRxData() != 'O'
 231:.\main.c      ****         ||  UART_ReadRxData() != 'K'
 807              		.loc 1 231 0
 808 0096 FFF7FEFF 		bl	UART_ReadRxData
 809 009a 0346     		mov	r3, r0
 810              		.loc 1 230 0
 811 009c 4F2B     		cmp	r3, #79
 812 009e 09D1     		bne	.L39
 232:.\main.c      ****         ||  UART_ReadRxData() != '\r') Error_Write(0x01);
 813              		.loc 1 232 0
ARM GAS  C:\DOCUME~1\david\LOCALS~1\Temp\ccWbOjJF.s 			page 20


 814 00a0 FFF7FEFF 		bl	UART_ReadRxData
 815 00a4 0346     		mov	r3, r0
 816              		.loc 1 230 0
 817 00a6 4B2B     		cmp	r3, #75
 818 00a8 04D1     		bne	.L39
 819              		.loc 1 232 0
 820 00aa FFF7FEFF 		bl	UART_ReadRxData
 821 00ae 0346     		mov	r3, r0
 822              		.loc 1 230 0
 823 00b0 0D2B     		cmp	r3, #13
 824 00b2 03D0     		beq	.L40
 825              	.L39:
 826              		.loc 1 232 0
 827 00b4 4FF00100 		mov	r0, #1
 828 00b8 FFF7FEFF 		bl	Error_Write
 829              	.L40:
 233:.\main.c      ****     }
 234:.\main.c      ****     
 235:.\main.c      ****     //if (!channel_change) {
 236:.\main.c      ****         LCD_Position(1,5);
 830              		.loc 1 236 0
 831 00bc 4FF00100 		mov	r0, #1
 832 00c0 4FF00501 		mov	r1, #5
 833 00c4 FFF7FEFF 		bl	LCD_Position
 237:.\main.c      ****         LCD_PrintString("Channel ");
 834              		.loc 1 237 0
 835 00c8 40F20000 		movw	r0, #:lower16:.LC19
 836 00cc C0F20000 		movt	r0, #:upper16:.LC19
 837 00d0 FFF7FEFF 		bl	LCD_PrintString
 238:.\main.c      ****     //}
 239:.\main.c      ****     UART_PutString("ATCH");
 838              		.loc 1 239 0
 839 00d4 40F20000 		movw	r0, #:lower16:.LC20
 840 00d8 C0F20000 		movt	r0, #:upper16:.LC20
 841 00dc FFF7FEFF 		bl	UART_PutString
 240:.\main.c      ****     UART_WriteTxData(XBEE_CHANNEL);//channel);
 842              		.loc 1 240 0
 843 00e0 4FF00C00 		mov	r0, #12
 844 00e4 FFF7FEFF 		bl	UART_WriteTxData
 241:.\main.c      ****     UART_PutChar('\r');
 845              		.loc 1 241 0
 846 00e8 4FF00D00 		mov	r0, #13
 847 00ec FFF7FEFF 		bl	UART_PutChar
 848              	.L41:
 242:.\main.c      ****     if (XBEE_VERIFY) {
 243:.\main.c      ****         while (UART_GetRxBufferSize() < 3);
 849              		.loc 1 243 0
 850 00f0 FFF7FEFF 		bl	UART_GetRxBufferSize
 851 00f4 0346     		mov	r3, r0
 852 00f6 022B     		cmp	r3, #2
 853 00f8 FAD9     		bls	.L41
 244:.\main.c      ****         if (UART_ReadRxData() != 'O'
 245:.\main.c      ****         ||  UART_ReadRxData() != 'K'
 854              		.loc 1 245 0
 855 00fa FFF7FEFF 		bl	UART_ReadRxData
 856 00fe 0346     		mov	r3, r0
 857              		.loc 1 244 0
ARM GAS  C:\DOCUME~1\david\LOCALS~1\Temp\ccWbOjJF.s 			page 21


 858 0100 4F2B     		cmp	r3, #79
 859 0102 09D1     		bne	.L42
 246:.\main.c      ****         ||  UART_ReadRxData() != '\r') Error_Write(0x01);
 860              		.loc 1 246 0
 861 0104 FFF7FEFF 		bl	UART_ReadRxData
 862 0108 0346     		mov	r3, r0
 863              		.loc 1 244 0
 864 010a 4B2B     		cmp	r3, #75
 865 010c 04D1     		bne	.L42
 866              		.loc 1 246 0
 867 010e FFF7FEFF 		bl	UART_ReadRxData
 868 0112 0346     		mov	r3, r0
 869              		.loc 1 244 0
 870 0114 0D2B     		cmp	r3, #13
 871 0116 03D0     		beq	.L43
 872              	.L42:
 873              		.loc 1 246 0
 874 0118 4FF00100 		mov	r0, #1
 875 011c FFF7FEFF 		bl	Error_Write
 876              	.L43:
 247:.\main.c      ****     }
 248:.\main.c      ****     
 249:.\main.c      ****     if (XBEE_REMEMBER) {
 250:.\main.c      ****         //if (!channel_change) {
 251:.\main.c      ****             LCD_Position(1,5);
 252:.\main.c      ****             LCD_PrintString("Write   ");
 253:.\main.c      ****         //}
 254:.\main.c      ****         UART_PutString("ATWR\r");
 255:.\main.c      ****         if (XBEE_VERIFY) {
 256:.\main.c      ****             while (UART_GetRxBufferSize() < 3);
 257:.\main.c      ****         if (UART_ReadRxData() != 'O'
 258:.\main.c      ****         ||  UART_ReadRxData() != 'K'
 259:.\main.c      ****         ||  UART_ReadRxData() != '\r') Error_Write(0x01);
 260:.\main.c      ****         }
 261:.\main.c      ****     }
 262:.\main.c      ****     
 263:.\main.c      ****     //if (!channel_change) {
 264:.\main.c      ****         LCD_Position(1,5);
 877              		.loc 1 264 0
 878 0120 4FF00100 		mov	r0, #1
 879 0124 4FF00501 		mov	r1, #5
 880 0128 FFF7FEFF 		bl	LCD_Position
 265:.\main.c      ****         LCD_PrintString("Ready   ");
 881              		.loc 1 265 0
 882 012c 40F20000 		movw	r0, #:lower16:.LC21
 883 0130 C0F20000 		movt	r0, #:upper16:.LC21
 884 0134 FFF7FEFF 		bl	LCD_PrintString
 266:.\main.c      ****     //}
 267:.\main.c      ****     UART_PutString("ATCN\r");
 885              		.loc 1 267 0
 886 0138 40F20000 		movw	r0, #:lower16:.LC22
 887 013c C0F20000 		movt	r0, #:upper16:.LC22
 888 0140 FFF7FEFF 		bl	UART_PutString
 889              	.L44:
 268:.\main.c      ****     if (XBEE_VERIFY) {
 269:.\main.c      ****         while (UART_GetRxBufferSize() < 3);
 890              		.loc 1 269 0
ARM GAS  C:\DOCUME~1\david\LOCALS~1\Temp\ccWbOjJF.s 			page 22


 891 0144 FFF7FEFF 		bl	UART_GetRxBufferSize
 892 0148 0346     		mov	r3, r0
 893 014a 022B     		cmp	r3, #2
 894 014c FAD9     		bls	.L44
 270:.\main.c      ****         if (UART_ReadRxData() != 'O'
 271:.\main.c      ****         ||  UART_ReadRxData() != 'K'
 895              		.loc 1 271 0
 896 014e FFF7FEFF 		bl	UART_ReadRxData
 897 0152 0346     		mov	r3, r0
 898              		.loc 1 270 0
 899 0154 4F2B     		cmp	r3, #79
 900 0156 09D1     		bne	.L45
 272:.\main.c      ****         ||  UART_ReadRxData() != '\r') Error_Write(0x01);
 901              		.loc 1 272 0
 902 0158 FFF7FEFF 		bl	UART_ReadRxData
 903 015c 0346     		mov	r3, r0
 904              		.loc 1 270 0
 905 015e 4B2B     		cmp	r3, #75
 906 0160 04D1     		bne	.L45
 907              		.loc 1 272 0
 908 0162 FFF7FEFF 		bl	UART_ReadRxData
 909 0166 0346     		mov	r3, r0
 910              		.loc 1 270 0
 911 0168 0D2B     		cmp	r3, #13
 912 016a 03D0     		beq	.L46
 913              	.L45:
 914              		.loc 1 272 0
 915 016c 4FF00100 		mov	r0, #1
 916 0170 FFF7FEFF 		bl	Error_Write
 917              	.L46:
 273:.\main.c      ****     }
 274:.\main.c      ****     
 275:.\main.c      ****     Remote_Write(0x01);
 918              		.loc 1 275 0
 919 0174 4FF00100 		mov	r0, #1
 920 0178 FFF7FEFF 		bl	Remote_Write
 276:.\main.c      **** }
 921              		.loc 1 276 0
 922 017c 80BD     		pop	{r7, pc}
 923              		.cfi_endproc
 924              	.LFE34:
 925              		.size	configure_XBee, .-configure_XBee
 926 017e 00BF     		.section	.rodata
 927 00e2 0000     		.align	2
 928              	.LC23:
 929 00e4 506C6163 		.ascii	"Place a disc!\000"
 929      65206120 
 929      64697363 
 929      2100
 930 00f2 0000     		.align	2
 931              	.LC24:
 932 00f4 47616D65 		.ascii	"Game Over\000"
 932      204F7665 
 932      7200
 933 00fe 0000     		.align	2
 934              	.LC25:
 935 0100 426F6172 		.ascii	"Board Full\000"
ARM GAS  C:\DOCUME~1\david\LOCALS~1\Temp\ccWbOjJF.s 			page 23


 935      64204675 
 935      6C6C00
 936 010b 00       		.align	2
 937              	.LC26:
 938 010c 436F6C75 		.ascii	"Column Full\000"
 938      6D6E2046 
 938      756C6C00 
 939              		.section	.text.get_move,"ax",%progbits
 940              		.align	2
 941              		.global	get_move
 942              		.thumb
 943              		.thumb_func
 944              		.type	get_move, %function
 945              	get_move:
 946              	.LFB35:
 277:.\main.c      **** 
 278:.\main.c      **** 
 279:.\main.c      **** 
 280:.\main.c      **** 
 281:.\main.c      **** uint8 get_move () {
 947              		.loc 1 281 0
 948              		.cfi_startproc
 949              		@ args = 0, pretend = 0, frame = 16
 950              		@ frame_needed = 1, uses_anonymous_args = 0
 951 0000 80B5     		push	{r7, lr}
 952              	.LCFI16:
 953              		.cfi_def_cfa_offset 8
 954 0002 84B0     		sub	sp, sp, #16
 955              	.LCFI17:
 956              		.cfi_def_cfa_offset 24
 957 0004 00AF     		add	r7, sp, #0
 958              		.cfi_offset 14, -4
 959              		.cfi_offset 7, -8
 960              	.LCFI18:
 961              		.cfi_def_cfa_register 7
 282:.\main.c      ****     LCD_UpdateMessage("Place a disc!");
 962              		.loc 1 282 0
 963 0006 40F20000 		movw	r0, #:lower16:.LC23
 964 000a C0F20000 		movt	r0, #:upper16:.LC23
 965 000e FFF7FEFF 		bl	LCD_UpdateMessage
 283:.\main.c      ****     
 284:.\main.c      ****     //guide
 285:.\main.c      ****     uint8 disc = 0;
 966              		.loc 1 285 0
 967 0012 4FF00003 		mov	r3, #0
 968 0016 FB71     		strb	r3, [r7, #7]
 286:.\main.c      ****     while (player1[1][disc] || player2[1][disc]) {
 969              		.loc 1 286 0
 970 0018 13E0     		b	.L49
 971              	.L51:
 287:.\main.c      ****         if (++disc >= MATRIX_COLS) {
 972              		.loc 1 287 0
 973 001a FB79     		ldrb	r3, [r7, #7]
 974 001c 03F10103 		add	r3, r3, #1
 975 0020 FB71     		strb	r3, [r7, #7]
 976 0022 FB79     		ldrb	r3, [r7, #7]	@ zero_extendqisi2
 977 0024 072B     		cmp	r3, #7
ARM GAS  C:\DOCUME~1\david\LOCALS~1\Temp\ccWbOjJF.s 			page 24


 978 0026 0CD9     		bls	.L49
 288:.\main.c      ****             LCD_UpdateStatus("Game Over");
 979              		.loc 1 288 0
 980 0028 40F20000 		movw	r0, #:lower16:.LC24
 981 002c C0F20000 		movt	r0, #:upper16:.LC24
 982 0030 FFF7FEFF 		bl	LCD_UpdateStatus
 289:.\main.c      ****             LCD_UpdateMessage("Board Full");
 983              		.loc 1 289 0
 984 0034 40F20000 		movw	r0, #:lower16:.LC25
 985 0038 C0F20000 		movt	r0, #:upper16:.LC25
 986 003c FFF7FEFF 		bl	LCD_UpdateMessage
 987              	.L50:
 290:.\main.c      ****             while (true);
 988              		.loc 1 290 0
 989 0040 FEE7     		b	.L50
 990              	.L49:
 991              		.loc 1 286 0
 992 0042 FA79     		ldrb	r2, [r7, #7]	@ zero_extendqisi2
 993 0044 40F20003 		movw	r3, #:lower16:player1
 994 0048 C0F20003 		movt	r3, #:upper16:player1
 995 004c 1344     		add	r3, r2, r3
 996 004e 1B7A     		ldrb	r3, [r3, #8]	@ zero_extendqisi2
 997 0050 002B     		cmp	r3, #0
 998 0052 E2D1     		bne	.L51
 999 0054 FA79     		ldrb	r2, [r7, #7]	@ zero_extendqisi2
 1000 0056 40F20003 		movw	r3, #:lower16:player2
 1001 005a C0F20003 		movt	r3, #:upper16:player2
 1002 005e 1344     		add	r3, r2, r3
 1003 0060 1B7A     		ldrb	r3, [r3, #8]	@ zero_extendqisi2
 1004 0062 002B     		cmp	r3, #0
 1005 0064 D9D1     		bne	.L51
 291:.\main.c      ****         }
 292:.\main.c      ****     }
 293:.\main.c      ****     
 294:.\main.c      ****     bool pushed = false, dropped = false;
 1006              		.loc 1 294 0
 1007 0066 4FF00003 		mov	r3, #0
 1008 006a 3B72     		strb	r3, [r7, #8]
 1009 006c 4FF00003 		mov	r3, #0
 1010 0070 7B72     		strb	r3, [r7, #9]
 1011              	.L65:
 295:.\main.c      ****     do {
 296:.\main.c      ****         CapSense_UpdateEnabledBaselines();
 1012              		.loc 1 296 0
 1013 0072 FFF7FEFF 		bl	CapSense_UpdateEnabledBaselines
 297:.\main.c      ****         CapSense_ScanEnabledWidgets();
 1014              		.loc 1 297 0
 1015 0076 FFF7FEFF 		bl	CapSense_ScanEnabledWidgets
 1016              	.L52:
 298:.\main.c      ****         while (CapSense_IsBusy());
 1017              		.loc 1 298 0
 1018 007a FFF7FEFF 		bl	CapSense_IsBusy
 1019 007e 0346     		mov	r3, r0
 1020 0080 002B     		cmp	r3, #0
 1021 0082 FAD1     		bne	.L52
 299:.\main.c      ****         if (CapSense_CheckIsWidgetActive(CapSense_BUTTON0__BTN)) {
 1022              		.loc 1 299 0
ARM GAS  C:\DOCUME~1\david\LOCALS~1\Temp\ccWbOjJF.s 			page 25


 1023 0084 4FF00100 		mov	r0, #1
 1024 0088 FFF7FEFF 		bl	CapSense_CheckIsWidgetActive
 1025 008c 0346     		mov	r3, r0
 1026 008e 002B     		cmp	r3, #0
 1027 0090 1DD0     		beq	.L53
 300:.\main.c      ****         //if ((player1_turn && CapSense_CheckIsWidgetActive(CapSense_BUTTON0__BTN))
 301:.\main.c      ****         //|| (!player1_turn && CapSense_CheckIsWidgetActive(CapSense_BUTTON1__BTN))) { //Helps avoi
 302:.\main.c      ****             if (player1[1][disc] || player2[1][disc]) LCD_UpdateMessage("Column Full");
 1028              		.loc 1 302 0
 1029 0092 FA79     		ldrb	r2, [r7, #7]	@ zero_extendqisi2
 1030 0094 40F20003 		movw	r3, #:lower16:player1
 1031 0098 C0F20003 		movt	r3, #:upper16:player1
 1032 009c 1344     		add	r3, r2, r3
 1033 009e 1B7A     		ldrb	r3, [r3, #8]	@ zero_extendqisi2
 1034 00a0 002B     		cmp	r3, #0
 1035 00a2 08D1     		bne	.L54
 1036 00a4 FA79     		ldrb	r2, [r7, #7]	@ zero_extendqisi2
 1037 00a6 40F20003 		movw	r3, #:lower16:player2
 1038 00aa C0F20003 		movt	r3, #:upper16:player2
 1039 00ae 1344     		add	r3, r2, r3
 1040 00b0 1B7A     		ldrb	r3, [r3, #8]	@ zero_extendqisi2
 1041 00b2 002B     		cmp	r3, #0
 1042 00b4 07D0     		beq	.L55
 1043              	.L54:
 1044 00b6 40F20000 		movw	r0, #:lower16:.LC26
 1045 00ba C0F20000 		movt	r0, #:upper16:.LC26
 1046 00be FFF7FEFF 		bl	LCD_UpdateMessage
 1047 00c2 00BF     		nop
 1048 00c4 7DE0     		b	.L57
 1049              	.L55:
 303:.\main.c      ****             else pushed = true;
 1050              		.loc 1 303 0
 1051 00c6 4FF00103 		mov	r3, #1
 1052 00ca 3B72     		strb	r3, [r7, #8]
 1053 00cc 79E0     		b	.L57
 1054              	.L53:
 304:.\main.c      ****         }
 305:.\main.c      ****         else {
 306:.\main.c      ****             if (pushed) dropped = true;
 1055              		.loc 1 306 0
 1056 00ce 3B7A     		ldrb	r3, [r7, #8]	@ zero_extendqisi2
 1057 00d0 002B     		cmp	r3, #0
 1058 00d2 03D0     		beq	.L58
 1059 00d4 4FF00103 		mov	r3, #1
 1060 00d8 7B72     		strb	r3, [r7, #9]
 1061 00da 72E0     		b	.L57
 1062              	.L58:
 1063              	.LBB4:
 307:.\main.c      ****             else {
 308:.\main.c      ****                 player1[0][disc] = player2[0][disc] = false;
 1064              		.loc 1 308 0
 1065 00dc F979     		ldrb	r1, [r7, #7]	@ zero_extendqisi2
 1066 00de FA79     		ldrb	r2, [r7, #7]	@ zero_extendqisi2
 1067 00e0 40F20003 		movw	r3, #:lower16:player2
 1068 00e4 C0F20003 		movt	r3, #:upper16:player2
 1069 00e8 4FF00000 		mov	r0, #0
 1070 00ec 9854     		strb	r0, [r3, r2]
ARM GAS  C:\DOCUME~1\david\LOCALS~1\Temp\ccWbOjJF.s 			page 26


 1071 00ee 40F20003 		movw	r3, #:lower16:player2
 1072 00f2 C0F20003 		movt	r3, #:upper16:player2
 1073 00f6 9A5C     		ldrb	r2, [r3, r2]	@ zero_extendqisi2
 1074 00f8 40F20003 		movw	r3, #:lower16:player1
 1075 00fc C0F20003 		movt	r3, #:upper16:player1
 1076 0100 5A54     		strb	r2, [r3, r1]
 309:.\main.c      ****                 uint16 reading = (CapSense_GetCentroidPos(CapSense_LINEARSLIDER0__LS)*(MATRIX_COLS-
 1077              		.loc 1 309 0
 1078 0102 4FF00000 		mov	r0, #0
 1079 0106 FFF7FEFF 		bl	CapSense_GetCentroidPos
 1080 010a 0346     		mov	r3, r0
 1081 010c 1A46     		mov	r2, r3
 1082 010e 1346     		mov	r3, r2
 1083 0110 4FEAC303 		lsl	r3, r3, #3
 1084 0114 C2EB0302 		rsb	r2, r2, r3
 1085 0118 40F2EB73 		movw	r3, #:lower16:354224107
 1086 011c C1F21D53 		movt	r3, #:upper16:354224107
 1087 0120 83FB0213 		smull	r1, r3, r3, r2
 1088 0124 4FEAE301 		asr	r1, r3, #3
 1089 0128 4FEAE273 		asr	r3, r2, #31
 1090 012c C3EB0103 		rsb	r3, r3, r1
 1091 0130 7B81     		strh	r3, [r7, #10]	@ movhi
 310:.\main.c      ****                 if (reading < 8) disc = reading;
 1092              		.loc 1 310 0
 1093 0132 7B89     		ldrh	r3, [r7, #10]
 1094 0134 072B     		cmp	r3, #7
 1095 0136 01D8     		bhi	.L59
 1096 0138 7B89     		ldrh	r3, [r7, #10]	@ movhi
 1097 013a FB71     		strb	r3, [r7, #7]
 1098              	.L59:
 311:.\main.c      ****                 
 312:.\main.c      ****                 //guide
 313:.\main.c      ****                 int dir = 1;
 1099              		.loc 1 313 0
 1100 013c 4FF00103 		mov	r3, #1
 1101 0140 FB60     		str	r3, [r7, #12]
 314:.\main.c      ****                 while (player1[1][disc] || player2[1][disc]) {
 1102              		.loc 1 314 0
 1103 0142 14E0     		b	.L60
 1104              	.L63:
 315:.\main.c      ****                     if (disc >= MATRIX_COLS-1)  dir = -1;
 1105              		.loc 1 315 0
 1106 0144 FB79     		ldrb	r3, [r7, #7]	@ zero_extendqisi2
 1107 0146 062B     		cmp	r3, #6
 1108 0148 02D9     		bls	.L61
 1109 014a 4FF0FF33 		mov	r3, #-1
 1110 014e FB60     		str	r3, [r7, #12]
 1111              	.L61:
 316:.\main.c      ****                     if (disc == 0 && dir == -1) dir =  1; // DEBUG redundant?
 1112              		.loc 1 316 0
 1113 0150 FB79     		ldrb	r3, [r7, #7]	@ zero_extendqisi2
 1114 0152 002B     		cmp	r3, #0
 1115 0154 06D1     		bne	.L62
 1116 0156 FB68     		ldr	r3, [r7, #12]
 1117 0158 B3F1FF3F 		cmp	r3, #-1
 1118 015c 02D1     		bne	.L62
 1119 015e 4FF00103 		mov	r3, #1
ARM GAS  C:\DOCUME~1\david\LOCALS~1\Temp\ccWbOjJF.s 			page 27


 1120 0162 FB60     		str	r3, [r7, #12]
 1121              	.L62:
 317:.\main.c      ****                     disc += dir;
 1122              		.loc 1 317 0
 1123 0164 FB68     		ldr	r3, [r7, #12]
 1124 0166 DAB2     		uxtb	r2, r3
 1125 0168 FB79     		ldrb	r3, [r7, #7]
 1126 016a 1344     		add	r3, r2, r3
 1127 016c FB71     		strb	r3, [r7, #7]
 1128              	.L60:
 1129              		.loc 1 314 0
 1130 016e FA79     		ldrb	r2, [r7, #7]	@ zero_extendqisi2
 1131 0170 40F20003 		movw	r3, #:lower16:player1
 1132 0174 C0F20003 		movt	r3, #:upper16:player1
 1133 0178 1344     		add	r3, r2, r3
 1134 017a 1B7A     		ldrb	r3, [r3, #8]	@ zero_extendqisi2
 1135 017c 002B     		cmp	r3, #0
 1136 017e E1D1     		bne	.L63
 1137 0180 FA79     		ldrb	r2, [r7, #7]	@ zero_extendqisi2
 1138 0182 40F20003 		movw	r3, #:lower16:player2
 1139 0186 C0F20003 		movt	r3, #:upper16:player2
 1140 018a 1344     		add	r3, r2, r3
 1141 018c 1B7A     		ldrb	r3, [r3, #8]	@ zero_extendqisi2
 1142 018e 002B     		cmp	r3, #0
 1143 0190 D8D1     		bne	.L63
 318:.\main.c      ****                 }
 319:.\main.c      ****                 if (player1_turn) player1[0][disc] = true;
 1144              		.loc 1 319 0
 1145 0192 40F20003 		movw	r3, #:lower16:player1_turn
 1146 0196 C0F20003 		movt	r3, #:upper16:player1_turn
 1147 019a 1B78     		ldrb	r3, [r3, #0]	@ zero_extendqisi2
 1148 019c 002B     		cmp	r3, #0
 1149 019e 08D0     		beq	.L64
 1150 01a0 FA79     		ldrb	r2, [r7, #7]	@ zero_extendqisi2
 1151 01a2 40F20003 		movw	r3, #:lower16:player1
 1152 01a6 C0F20003 		movt	r3, #:upper16:player1
 1153 01aa 4FF00101 		mov	r1, #1
 1154 01ae 9954     		strb	r1, [r3, r2]
 1155 01b0 07E0     		b	.L57
 1156              	.L64:
 320:.\main.c      ****                 else              player2[0][disc] = true;
 1157              		.loc 1 320 0
 1158 01b2 FA79     		ldrb	r2, [r7, #7]	@ zero_extendqisi2
 1159 01b4 40F20003 		movw	r3, #:lower16:player2
 1160 01b8 C0F20003 		movt	r3, #:upper16:player2
 1161 01bc 4FF00101 		mov	r1, #1
 1162 01c0 9954     		strb	r1, [r3, r2]
 1163              	.L57:
 1164              	.LBE4:
 321:.\main.c      ****             }
 322:.\main.c      ****         }
 323:.\main.c      ****     } while (!dropped);
 1165              		.loc 1 323 0
 1166 01c2 7B7A     		ldrb	r3, [r7, #9]
 1167 01c4 83F00103 		eor	r3, r3, #1
 1168 01c8 DBB2     		uxtb	r3, r3
 1169 01ca 002B     		cmp	r3, #0
ARM GAS  C:\DOCUME~1\david\LOCALS~1\Temp\ccWbOjJF.s 			page 28


 1170 01cc 7FF451AF 		bne	.L65
 324:.\main.c      ****     player1[0][disc] = player2[0][disc] = false;
 1171              		.loc 1 324 0
 1172 01d0 F979     		ldrb	r1, [r7, #7]	@ zero_extendqisi2
 1173 01d2 FA79     		ldrb	r2, [r7, #7]	@ zero_extendqisi2
 1174 01d4 40F20003 		movw	r3, #:lower16:player2
 1175 01d8 C0F20003 		movt	r3, #:upper16:player2
 1176 01dc 4FF00000 		mov	r0, #0
 1177 01e0 9854     		strb	r0, [r3, r2]
 1178 01e2 40F20003 		movw	r3, #:lower16:player2
 1179 01e6 C0F20003 		movt	r3, #:upper16:player2
 1180 01ea 9A5C     		ldrb	r2, [r3, r2]	@ zero_extendqisi2
 1181 01ec 40F20003 		movw	r3, #:lower16:player1
 1182 01f0 C0F20003 		movt	r3, #:upper16:player1
 1183 01f4 5A54     		strb	r2, [r3, r1]
 325:.\main.c      ****     return disc;
 1184              		.loc 1 325 0
 1185 01f6 FB79     		ldrb	r3, [r7, #7]	@ zero_extendqisi2
 326:.\main.c      **** }
 1186              		.loc 1 326 0
 1187 01f8 1846     		mov	r0, r3
 1188 01fa 07F11007 		add	r7, r7, #16
 1189 01fe BD46     		mov	sp, r7
 1190 0200 80BD     		pop	{r7, pc}
 1191              		.cfi_endproc
 1192              	.LFE35:
 1193              		.size	get_move, .-get_move
 1194 0202 00BF     		.section	.text.receive_move,"ax",%progbits
 1195              		.align	2
 1196              		.global	receive_move
 1197              		.thumb
 1198              		.thumb_func
 1199              		.type	receive_move, %function
 1200              	receive_move:
 1201              	.LFB36:
 327:.\main.c      **** 
 328:.\main.c      **** 
 329:.\main.c      **** 
 330:.\main.c      **** 
 331:.\main.c      **** uint8 receive_move () {
 1202              		.loc 1 331 0
 1203              		.cfi_startproc
 1204              		@ args = 0, pretend = 0, frame = 8
 1205              		@ frame_needed = 1, uses_anonymous_args = 0
 1206 0000 80B5     		push	{r7, lr}
 1207              	.LCFI19:
 1208              		.cfi_def_cfa_offset 8
 1209 0002 82B0     		sub	sp, sp, #8
 1210              	.LCFI20:
 1211              		.cfi_def_cfa_offset 16
 1212 0004 00AF     		add	r7, sp, #0
 1213              		.cfi_offset 14, -4
 1214              		.cfi_offset 7, -8
 1215              	.LCFI21:
 1216              		.cfi_def_cfa_register 7
 1217              	.L69:
 332:.\main.c      ****     play_t move;
ARM GAS  C:\DOCUME~1\david\LOCALS~1\Temp\ccWbOjJF.s 			page 29


 333:.\main.c      ****     while (true) {
 334:.\main.c      ****         receive_packet(&move);
 1218              		.loc 1 334 0
 1219 0006 07F10403 		add	r3, r7, #4
 1220 000a 1846     		mov	r0, r3
 1221 000c FFF7FEFF 		bl	receive_packet
 335:.\main.c      ****         move.row = MATRIX_ROWS-move.row;
 1222              		.loc 1 335 0
 1223 0010 3B79     		ldrb	r3, [r7, #4]	@ zero_extendqisi2
 1224 0012 C3F10803 		rsb	r3, r3, #8
 1225 0016 DBB2     		uxtb	r3, r3
 1226 0018 3B71     		strb	r3, [r7, #4]
 336:.\main.c      ****         --move.col;
 1227              		.loc 1 336 0
 1228 001a 7B79     		ldrb	r3, [r7, #5]	@ zero_extendqisi2
 1229 001c 03F1FF33 		add	r3, r3, #-1
 1230 0020 DBB2     		uxtb	r3, r3
 1231 0022 7B71     		strb	r3, [r7, #5]
 337:.\main.c      ****         if (player2[move.row][move.col]) send_packet(&last_move);
 1232              		.loc 1 337 0
 1233 0024 3B79     		ldrb	r3, [r7, #4]	@ zero_extendqisi2
 1234 0026 1946     		mov	r1, r3
 1235 0028 7B79     		ldrb	r3, [r7, #5]	@ zero_extendqisi2
 1236 002a 1A46     		mov	r2, r3
 1237 002c 40F20003 		movw	r3, #:lower16:player2
 1238 0030 C0F20003 		movt	r3, #:upper16:player2
 1239 0034 4FEAC101 		lsl	r1, r1, #3
 1240 0038 0A44     		add	r2, r1, r2
 1241 003a 1344     		add	r3, r2, r3
 1242 003c 1B78     		ldrb	r3, [r3, #0]	@ zero_extendqisi2
 1243 003e 002B     		cmp	r3, #0
 1244 0040 06D0     		beq	.L68
 1245 0042 40F20000 		movw	r0, #:lower16:last_move
 1246 0046 C0F20000 		movt	r0, #:upper16:last_move
 1247 004a FFF7FEFF 		bl	send_packet
 338:.\main.c      ****         else break;
 339:.\main.c      ****     }
 1248              		.loc 1 339 0
 1249 004e DAE7     		b	.L69
 1250              	.L68:
 340:.\main.c      ****     UART_ClearRxBuffer();
 1251              		.loc 1 340 0
 1252 0050 FFF7FEFF 		bl	UART_ClearRxBuffer
 341:.\main.c      ****     return move.col; 
 1253              		.loc 1 341 0
 1254 0054 7B79     		ldrb	r3, [r7, #5]	@ zero_extendqisi2
 342:.\main.c      **** }
 1255              		.loc 1 342 0
 1256 0056 1846     		mov	r0, r3
 1257 0058 07F10807 		add	r7, r7, #8
 1258 005c BD46     		mov	sp, r7
 1259 005e 80BD     		pop	{r7, pc}
 1260              		.cfi_endproc
 1261              	.LFE36:
 1262              		.size	receive_move, .-receive_move
 1263              		.section	.rodata
 1264              		.align	2
ARM GAS  C:\DOCUME~1\david\LOCALS~1\Temp\ccWbOjJF.s 			page 30


 1265              	.LC27:
 1266 0118 77616974 		.ascii	"waiting\000"
 1266      696E6700 
 1267              		.align	2
 1268              	.LC28:
 1269 0120 20202020 		.ascii	"         \000"
 1269      20202020 
 1269      2000
 1270              		.section	.text.receive_packet,"ax",%progbits
 1271              		.align	2
 1272              		.global	receive_packet
 1273              		.thumb
 1274              		.thumb_func
 1275              		.type	receive_packet, %function
 1276              	receive_packet:
 1277              	.LFB37:
 343:.\main.c      **** 
 344:.\main.c      **** 
 345:.\main.c      **** 
 346:.\main.c      **** 
 347:.\main.c      **** void receive_packet ( play_t * move ) {
 1278              		.loc 1 347 0
 1279              		.cfi_startproc
 1280              		@ args = 0, pretend = 0, frame = 16
 1281              		@ frame_needed = 1, uses_anonymous_args = 0
 1282 0000 80B5     		push	{r7, lr}
 1283              	.LCFI22:
 1284              		.cfi_def_cfa_offset 8
 1285 0002 84B0     		sub	sp, sp, #16
 1286              	.LCFI23:
 1287              		.cfi_def_cfa_offset 24
 1288 0004 00AF     		add	r7, sp, #0
 1289              		.cfi_offset 14, -4
 1290              		.cfi_offset 7, -8
 1291              	.LCFI24:
 1292              		.cfi_def_cfa_register 7
 1293 0006 7860     		str	r0, [r7, #4]
 348:.\main.c      ****     UART_ClearRxBuffer();
 1294              		.loc 1 348 0
 1295 0008 FFF7FEFF 		bl	UART_ClearRxBuffer
 1296              	.L83:
 1297              	.LBB5:
 349:.\main.c      ****     while (true) {
 350:.\main.c      ****         LCD_UpdateMessage("waiting");
 1298              		.loc 1 350 0
 1299 000c 40F20000 		movw	r0, #:lower16:.LC27
 1300 0010 C0F20000 		movt	r0, #:upper16:.LC27
 1301 0014 FFF7FEFF 		bl	LCD_UpdateMessage
 351:.\main.c      ****         LCD_Position(1,7);
 1302              		.loc 1 351 0
 1303 0018 4FF00100 		mov	r0, #1
 1304 001c 4FF00701 		mov	r1, #7
 1305 0020 FFF7FEFF 		bl	LCD_Position
 352:.\main.c      ****         LCD_PrintString("         ");
 1306              		.loc 1 352 0
 1307 0024 40F20000 		movw	r0, #:lower16:.LC28
 1308 0028 C0F20000 		movt	r0, #:upper16:.LC28
ARM GAS  C:\DOCUME~1\david\LOCALS~1\Temp\ccWbOjJF.s 			page 31


 1309 002c FFF7FEFF 		bl	LCD_PrintString
 353:.\main.c      ****         LCD_Position(1,7);
 1310              		.loc 1 353 0
 1311 0030 4FF00100 		mov	r0, #1
 1312 0034 4FF00701 		mov	r1, #7
 1313 0038 FFF7FEFF 		bl	LCD_Position
 354:.\main.c      ****         uint8 vol;
 355:.\main.c      ****         for (vol=(UART_GetRxBufferSize()*8)/128; vol > 0 ;--vol) LCD_PutChar('.');
 1314              		.loc 1 355 0
 1315 003c FFF7FEFF 		bl	UART_GetRxBufferSize
 1316 0040 0346     		mov	r3, r0
 1317 0042 4FEAC303 		lsl	r3, r3, #3
 1318 0046 03F17F02 		add	r2, r3, #127
 1319 004a 002B     		cmp	r3, #0
 1320 004c B8BF     		it	lt
 1321 004e 1346     		movlt	r3, r2
 1322 0050 4FEAE313 		asr	r3, r3, #7
 1323 0054 FB73     		strb	r3, [r7, #15]
 1324 0056 07E0     		b	.L72
 1325              	.L73:
 1326 0058 4FF02E00 		mov	r0, #46
 1327 005c FFF7FEFF 		bl	LCD_PutChar
 1328 0060 FB7B     		ldrb	r3, [r7, #15]
 1329 0062 03F1FF33 		add	r3, r3, #-1
 1330 0066 FB73     		strb	r3, [r7, #15]
 1331              	.L72:
 1332 0068 FB7B     		ldrb	r3, [r7, #15]	@ zero_extendqisi2
 1333 006a 002B     		cmp	r3, #0
 1334 006c F4D1     		bne	.L73
 1335              	.L75:
 356:.\main.c      ****         
 357:.\main.c      ****         do if (UART_GetTxBufferSize() == 0) {
 1336              		.loc 1 357 0
 1337 006e FFF7FEFF 		bl	UART_GetTxBufferSize
 1338 0072 0346     		mov	r3, r0
 1339 0074 002B     		cmp	r3, #0
 1340 0076 09D1     		bne	.L74
 358:.\main.c      ****             send_packet(&last_move);
 1341              		.loc 1 358 0
 1342 0078 40F20000 		movw	r0, #:lower16:last_move
 1343 007c C0F20000 		movt	r0, #:upper16:last_move
 1344 0080 FFF7FEFF 		bl	send_packet
 359:.\main.c      ****             CyDelay(50);
 1345              		.loc 1 359 0
 1346 0084 4FF03200 		mov	r0, #50
 1347 0088 FFF7FEFF 		bl	CyDelay
 1348              	.L74:
 360:.\main.c      ****         }
 361:.\main.c      ****         while (UART_GetRxBufferSize() < 4);
 1349              		.loc 1 361 0
 1350 008c FFF7FEFF 		bl	UART_GetRxBufferSize
 1351 0090 0346     		mov	r3, r0
 1352 0092 032B     		cmp	r3, #3
 1353 0094 EBD9     		bls	.L75
 362:.\main.c      ****         if (UART_ReadRxData() != PLAYER2_ID) continue;
 1354              		.loc 1 362 0
 1355 0096 FFF7FEFF 		bl	UART_ReadRxData
ARM GAS  C:\DOCUME~1\david\LOCALS~1\Temp\ccWbOjJF.s 			page 32


 1356 009a 0346     		mov	r3, r0
 1357 009c 852B     		cmp	r3, #133
 1358 009e 00D0     		beq	.L76
 1359 00a0 2EE0     		b	.L77
 1360              	.L76:
 363:.\main.c      ****         
 364:.\main.c      ****         while (UART_GetRxBufferSize() == 0);
 1361              		.loc 1 364 0
 1362 00a2 FFF7FEFF 		bl	UART_GetRxBufferSize
 1363 00a6 0346     		mov	r3, r0
 1364 00a8 002B     		cmp	r3, #0
 1365 00aa FAD0     		beq	.L76
 365:.\main.c      ****         if (UART_ReadRxData() != PACKET_TYPE); // DEBUG newer?
 1366              		.loc 1 365 0
 1367 00ac FFF7FEFF 		bl	UART_ReadRxData
 1368              	.L78:
 366:.\main.c      ****         
 367:.\main.c      ****         while (UART_GetRxBufferSize() == 0);
 1369              		.loc 1 367 0
 1370 00b0 FFF7FEFF 		bl	UART_GetRxBufferSize
 1371 00b4 0346     		mov	r3, r0
 1372 00b6 002B     		cmp	r3, #0
 1373 00b8 FAD0     		beq	.L78
 368:.\main.c      ****         move->row = UART_ReadRxData();
 1374              		.loc 1 368 0
 1375 00ba FFF7FEFF 		bl	UART_ReadRxData
 1376 00be 0346     		mov	r3, r0
 1377 00c0 1A46     		mov	r2, r3
 1378 00c2 7B68     		ldr	r3, [r7, #4]
 1379 00c4 1A70     		strb	r2, [r3, #0]
 369:.\main.c      ****         if (move->row < 1 || move->row > MATRIX_ROWS-1) continue;
 1380              		.loc 1 369 0
 1381 00c6 7B68     		ldr	r3, [r7, #4]
 1382 00c8 1B78     		ldrb	r3, [r3, #0]	@ zero_extendqisi2
 1383 00ca 002B     		cmp	r3, #0
 1384 00cc 03D0     		beq	.L79
 1385 00ce 7B68     		ldr	r3, [r7, #4]
 1386 00d0 1B78     		ldrb	r3, [r3, #0]	@ zero_extendqisi2
 1387 00d2 072B     		cmp	r3, #7
 1388 00d4 00D9     		bls	.L80
 1389              	.L79:
 1390 00d6 13E0     		b	.L77
 1391              	.L80:
 370:.\main.c      ****         
 371:.\main.c      ****         while (UART_GetRxBufferSize() == 0);
 1392              		.loc 1 371 0
 1393 00d8 FFF7FEFF 		bl	UART_GetRxBufferSize
 1394 00dc 0346     		mov	r3, r0
 1395 00de 002B     		cmp	r3, #0
 1396 00e0 FAD0     		beq	.L80
 372:.\main.c      ****         move->col = UART_ReadRxData();
 1397              		.loc 1 372 0
 1398 00e2 FFF7FEFF 		bl	UART_ReadRxData
 1399 00e6 0346     		mov	r3, r0
 1400 00e8 1A46     		mov	r2, r3
 1401 00ea 7B68     		ldr	r3, [r7, #4]
 1402 00ec 5A70     		strb	r2, [r3, #1]
ARM GAS  C:\DOCUME~1\david\LOCALS~1\Temp\ccWbOjJF.s 			page 33


 373:.\main.c      ****         if (move->col < 1 || move->row > MATRIX_COLS) continue;
 1403              		.loc 1 373 0
 1404 00ee 7B68     		ldr	r3, [r7, #4]
 1405 00f0 5B78     		ldrb	r3, [r3, #1]	@ zero_extendqisi2
 1406 00f2 002B     		cmp	r3, #0
 1407 00f4 03D0     		beq	.L81
 1408 00f6 7B68     		ldr	r3, [r7, #4]
 1409 00f8 1B78     		ldrb	r3, [r3, #0]	@ zero_extendqisi2
 1410 00fa 082B     		cmp	r3, #8
 1411 00fc 01D9     		bls	.L85
 1412              	.L81:
 1413 00fe 00BF     		nop
 1414              	.L77:
 1415              	.LBE5:
 374:.\main.c      ****         
 375:.\main.c      ****         break;
 376:.\main.c      ****     }
 1416              		.loc 1 376 0
 1417 0100 84E7     		b	.L83
 1418              	.L85:
 377:.\main.c      **** }
 1419              		.loc 1 377 0
 1420 0102 00BF     		nop
 1421              	.L84:
 1422 0104 07F11007 		add	r7, r7, #16
 1423 0108 BD46     		mov	sp, r7
 1424 010a 80BD     		pop	{r7, pc}
 1425              		.cfi_endproc
 1426              	.LFE37:
 1427              		.size	receive_packet, .-receive_packet
 1428              		.section	.text.send_packet,"ax",%progbits
 1429              		.align	2
 1430              		.global	send_packet
 1431              		.thumb
 1432              		.thumb_func
 1433              		.type	send_packet, %function
 1434              	send_packet:
 1435              	.LFB38:
 378:.\main.c      **** 
 379:.\main.c      **** 
 380:.\main.c      **** 
 381:.\main.c      **** 
 382:.\main.c      **** void send_packet ( play_t * move ) {
 1436              		.loc 1 382 0
 1437              		.cfi_startproc
 1438              		@ args = 0, pretend = 0, frame = 24
 1439              		@ frame_needed = 1, uses_anonymous_args = 0
 1440 0000 80B5     		push	{r7, lr}
 1441              	.LCFI25:
 1442              		.cfi_def_cfa_offset 8
 1443 0002 86B0     		sub	sp, sp, #24
 1444              	.LCFI26:
 1445              		.cfi_def_cfa_offset 32
 1446 0004 00AF     		add	r7, sp, #0
 1447              		.cfi_offset 14, -4
 1448              		.cfi_offset 7, -8
 1449              	.LCFI27:
ARM GAS  C:\DOCUME~1\david\LOCALS~1\Temp\ccWbOjJF.s 			page 34


 1450              		.cfi_def_cfa_register 7
 1451 0006 7860     		str	r0, [r7, #4]
 383:.\main.c      **** 
 384:.\main.c      ****     /**************************/
 385:.\main.c      ****     char   delimiter   = '~';
 1452              		.loc 1 385 0
 1453 0008 4FF07E03 		mov	r3, #126
 1454 000c 7B73     		strb	r3, [r7, #13]
 386:.\main.c      ****     uint8  api_id      = 0x01;
 1455              		.loc 1 386 0
 1456 000e 4FF00103 		mov	r3, #1
 1457 0012 BB73     		strb	r3, [r7, #14]
 387:.\main.c      ****     uint8  frame_id    = 0x00;
 1458              		.loc 1 387 0
 1459 0014 4FF00003 		mov	r3, #0
 1460 0018 FB73     		strb	r3, [r7, #15]
 388:.\main.c      ****     uint16 destination = 0xFFFF; //broadcast
 1461              		.loc 1 388 0
 1462 001a 4FF6FF73 		movw	r3, #65535
 1463 001e 3B82     		strh	r3, [r7, #16]	@ movhi
 389:.\main.c      ****     uint8  disable_ack = 0x01;
 1464              		.loc 1 389 0
 1465 0020 4FF00103 		mov	r3, #1
 1466 0024 FB74     		strb	r3, [r7, #19]
 390:.\main.c      ****     /**************************/
 391:.\main.c      ****     
 392:.\main.c      ****     uint16 length = sizeof(destination) +
 393:.\main.c      ****                     sizeof(api_id) +
 394:.\main.c      ****                     sizeof(frame_id) +
 395:.\main.c      ****                     sizeof(disable_ack) +
 396:.\main.c      ****                     4; //Payload: Player ID, Packet Type, Row, Column
 1467              		.loc 1 396 0
 1468 0026 4FF00903 		mov	r3, #9
 1469 002a BB82     		strh	r3, [r7, #20]	@ movhi
 397:.\main.c      ****     
 398:.\main.c      ****     uint8 checksum = 0xFF - (uint8) (api_id +
 399:.\main.c      ****                                      frame_id +
 400:.\main.c      ****                                     ((uint8) (destination >> 8)) +
 401:.\main.c      ****                                     ((uint8)  destination) +
 402:.\main.c      ****                                      disable_ack +
 403:.\main.c      ****                                      PLAYER1_ID +
 404:.\main.c      ****                                      PACKET_TYPE +
 405:.\main.c      ****                                      move->row +
 406:.\main.c      ****                                      move->col);
 1470              		.loc 1 406 0
 1471 002c BA7B     		ldrb	r2, [r7, #14]
 1472 002e FB7B     		ldrb	r3, [r7, #15]
 1473 0030 1344     		add	r3, r2, r3
 1474 0032 DAB2     		uxtb	r2, r3
 1475              		.loc 1 400 0
 1476 0034 3B8A     		ldrh	r3, [r7, #16]
 1477 0036 4FEA1323 		lsr	r3, r3, #8
 1478 003a 9BB2     		uxth	r3, r3
 1479 003c DBB2     		uxtb	r3, r3
 1480              		.loc 1 406 0
 1481 003e 1344     		add	r3, r2, r3
 1482 0040 DAB2     		uxtb	r2, r3
ARM GAS  C:\DOCUME~1\david\LOCALS~1\Temp\ccWbOjJF.s 			page 35


 1483              		.loc 1 401 0
 1484 0042 3B8A     		ldrh	r3, [r7, #16]	@ movhi
 1485 0044 DBB2     		uxtb	r3, r3
 1486              		.loc 1 406 0
 1487 0046 1344     		add	r3, r2, r3
 1488 0048 DAB2     		uxtb	r2, r3
 1489 004a FB7C     		ldrb	r3, [r7, #19]
 1490 004c 1344     		add	r3, r2, r3
 1491 004e DAB2     		uxtb	r2, r3
 1492 0050 7B68     		ldr	r3, [r7, #4]
 1493 0052 1B78     		ldrb	r3, [r3, #0]	@ zero_extendqisi2
 1494 0054 1344     		add	r3, r2, r3
 1495 0056 DAB2     		uxtb	r2, r3
 1496 0058 7B68     		ldr	r3, [r7, #4]
 1497 005a 5B78     		ldrb	r3, [r3, #1]	@ zero_extendqisi2
 1498 005c 1344     		add	r3, r2, r3
 1499 005e DBB2     		uxtb	r3, r3
 1500 0060 A3F12603 		sub	r3, r3, #38
 1501 0064 DBB2     		uxtb	r3, r3
 1502 0066 6FEA0303 		mvn	r3, r3
 1503 006a FB75     		strb	r3, [r7, #23]
 407:.\main.c      ****     
 408:.\main.c      ****     
 409:.\main.c      ****     /* DEBUG *
 410:.\main.c      ****     uint16 delay = 100;
 411:.\main.c      ****     
 412:.\main.c      ****     LCD_UpdateStatus("Delimiter");
 413:.\main.c      ****     LCD_ClearLine(1);
 414:.\main.c      ****     LCD_PutChar(delimiter);
 415:.\main.c      ****     LCD_Position(1,2);
 416:.\main.c      ****     LCD_PrintNumber(delimiter);
 417:.\main.c      ****     CyDelay(delay);
 418:.\main.c      ****     
 419:.\main.c      ****     LCD_UpdateStatus("Length");
 420:.\main.c      ****     LCD_ClearLine(1);
 421:.\main.c      ****     LCD_PrintNumber(length);
 422:.\main.c      ****     CyDelay(delay);
 423:.\main.c      ****     
 424:.\main.c      ****     LCD_UpdateStatus("API ID");
 425:.\main.c      ****     LCD_ClearLine(1);
 426:.\main.c      ****     LCD_PrintString("0x");
 427:.\main.c      ****     LCD_PrintInt8(api_id);
 428:.\main.c      ****     CyDelay(delay);
 429:.\main.c      ****     
 430:.\main.c      ****     LCD_UpdateStatus("Frame ID");
 431:.\main.c      ****     LCD_ClearLine(1);
 432:.\main.c      ****     LCD_PrintString("0x");
 433:.\main.c      ****     LCD_PrintInt8(frame_id);
 434:.\main.c      ****     CyDelay(delay);
 435:.\main.c      ****     
 436:.\main.c      ****     LCD_UpdateStatus("Destination");
 437:.\main.c      ****     LCD_ClearLine(1);
 438:.\main.c      ****     LCD_PrintString("0x");
 439:.\main.c      ****     LCD_PrintInt16(destination);
 440:.\main.c      ****     CyDelay(delay);
 441:.\main.c      ****     
 442:.\main.c      ****     LCD_UpdateStatus("Disable ACK");
ARM GAS  C:\DOCUME~1\david\LOCALS~1\Temp\ccWbOjJF.s 			page 36


 443:.\main.c      ****     LCD_ClearLine(1);
 444:.\main.c      ****     LCD_PrintString("0x");
 445:.\main.c      ****     LCD_PrintInt8(disable_ack);
 446:.\main.c      ****     CyDelay(delay);
 447:.\main.c      ****     
 448:.\main.c      ****     LCD_UpdateStatus("Player ID");
 449:.\main.c      ****     LCD_ClearLine(1);
 450:.\main.c      ****     LCD_PrintString("0x");
 451:.\main.c      ****     LCD_PrintInt8(PLAYER1_ID);
 452:.\main.c      ****     CyDelay(delay);
 453:.\main.c      ****     
 454:.\main.c      ****     LCD_UpdateStatus("Packet Type");
 455:.\main.c      ****     LCD_ClearLine(1);
 456:.\main.c      ****     LCD_PrintString("0x");
 457:.\main.c      ****     LCD_PrintInt8(PACKET_TYPE);
 458:.\main.c      ****     CyDelay(delay);
 459:.\main.c      ****     
 460:.\main.c      ****     LCD_UpdateStatus("Row");
 461:.\main.c      ****     LCD_ClearLine(1);
 462:.\main.c      ****     LCD_PrintNumber(move->row);
 463:.\main.c      ****     CyDelay(delay);
 464:.\main.c      ****     
 465:.\main.c      ****     LCD_UpdateStatus("Column");
 466:.\main.c      ****     LCD_ClearLine(1);
 467:.\main.c      ****     LCD_PrintNumber(move->col);
 468:.\main.c      ****     CyDelay(delay);
 469:.\main.c      ****     
 470:.\main.c      ****     LCD_UpdateStatus("Checksum");
 471:.\main.c      ****     LCD_ClearLine(1);
 472:.\main.c      ****     LCD_PrintString("0x");
 473:.\main.c      ****     LCD_PrintInt8(checksum);
 474:.\main.c      ****     CyDelay(delay);
 475:.\main.c      ****     /**/
 476:.\main.c      ****     
 477:.\main.c      ****     
 478:.\main.c      ****     UART_ClearTxBuffer();
 1504              		.loc 1 478 0
 1505 006c FFF7FEFF 		bl	UART_ClearTxBuffer
 479:.\main.c      ****     UART_WriteTxData(delimiter);
 1506              		.loc 1 479 0
 1507 0070 7B7B     		ldrb	r3, [r7, #13]	@ zero_extendqisi2
 1508 0072 1846     		mov	r0, r3
 1509 0074 FFF7FEFF 		bl	UART_WriteTxData
 480:.\main.c      ****     UART_WriteTxData((uint8) (length >> 8));
 1510              		.loc 1 480 0
 1511 0078 BB8A     		ldrh	r3, [r7, #20]
 1512 007a 4FEA1323 		lsr	r3, r3, #8
 1513 007e 9BB2     		uxth	r3, r3
 1514 0080 DBB2     		uxtb	r3, r3
 1515 0082 1846     		mov	r0, r3
 1516 0084 FFF7FEFF 		bl	UART_WriteTxData
 481:.\main.c      ****     UART_WriteTxData((uint8)  length);
 1517              		.loc 1 481 0
 1518 0088 BB8A     		ldrh	r3, [r7, #20]	@ movhi
 1519 008a DBB2     		uxtb	r3, r3
 1520 008c 1846     		mov	r0, r3
 1521 008e FFF7FEFF 		bl	UART_WriteTxData
ARM GAS  C:\DOCUME~1\david\LOCALS~1\Temp\ccWbOjJF.s 			page 37


 482:.\main.c      ****     UART_WriteTxData(api_id);
 1522              		.loc 1 482 0
 1523 0092 BB7B     		ldrb	r3, [r7, #14]	@ zero_extendqisi2
 1524 0094 1846     		mov	r0, r3
 1525 0096 FFF7FEFF 		bl	UART_WriteTxData
 483:.\main.c      ****     UART_WriteTxData(frame_id);
 1526              		.loc 1 483 0
 1527 009a FB7B     		ldrb	r3, [r7, #15]	@ zero_extendqisi2
 1528 009c 1846     		mov	r0, r3
 1529 009e FFF7FEFF 		bl	UART_WriteTxData
 484:.\main.c      ****     UART_WriteTxData((uint8) (destination >> 8));
 1530              		.loc 1 484 0
 1531 00a2 3B8A     		ldrh	r3, [r7, #16]
 1532 00a4 4FEA1323 		lsr	r3, r3, #8
 1533 00a8 9BB2     		uxth	r3, r3
 1534 00aa DBB2     		uxtb	r3, r3
 1535 00ac 1846     		mov	r0, r3
 1536 00ae FFF7FEFF 		bl	UART_WriteTxData
 485:.\main.c      ****     UART_WriteTxData((uint8)  destination);
 1537              		.loc 1 485 0
 1538 00b2 3B8A     		ldrh	r3, [r7, #16]	@ movhi
 1539 00b4 DBB2     		uxtb	r3, r3
 1540 00b6 1846     		mov	r0, r3
 1541 00b8 FFF7FEFF 		bl	UART_WriteTxData
 486:.\main.c      ****     UART_WriteTxData(disable_ack);
 1542              		.loc 1 486 0
 1543 00bc FB7C     		ldrb	r3, [r7, #19]	@ zero_extendqisi2
 1544 00be 1846     		mov	r0, r3
 1545 00c0 FFF7FEFF 		bl	UART_WriteTxData
 487:.\main.c      ****     UART_WriteTxData(PLAYER1_ID);
 1546              		.loc 1 487 0
 1547 00c4 4FF0DA00 		mov	r0, #218
 1548 00c8 FFF7FEFF 		bl	UART_WriteTxData
 488:.\main.c      ****     UART_WriteTxData(PACKET_TYPE);
 1549              		.loc 1 488 0
 1550 00cc 4FF00000 		mov	r0, #0
 1551 00d0 FFF7FEFF 		bl	UART_WriteTxData
 489:.\main.c      ****     UART_WriteTxData(move->row);
 1552              		.loc 1 489 0
 1553 00d4 7B68     		ldr	r3, [r7, #4]
 1554 00d6 1B78     		ldrb	r3, [r3, #0]	@ zero_extendqisi2
 1555 00d8 1846     		mov	r0, r3
 1556 00da FFF7FEFF 		bl	UART_WriteTxData
 490:.\main.c      ****     UART_WriteTxData(move->col);
 1557              		.loc 1 490 0
 1558 00de 7B68     		ldr	r3, [r7, #4]
 1559 00e0 5B78     		ldrb	r3, [r3, #1]	@ zero_extendqisi2
 1560 00e2 1846     		mov	r0, r3
 1561 00e4 FFF7FEFF 		bl	UART_WriteTxData
 491:.\main.c      ****     UART_WriteTxData(checksum);
 1562              		.loc 1 491 0
 1563 00e8 FB7D     		ldrb	r3, [r7, #23]	@ zero_extendqisi2
 1564 00ea 1846     		mov	r0, r3
 1565 00ec FFF7FEFF 		bl	UART_WriteTxData
 492:.\main.c      **** }
 1566              		.loc 1 492 0
 1567 00f0 07F11807 		add	r7, r7, #24
ARM GAS  C:\DOCUME~1\david\LOCALS~1\Temp\ccWbOjJF.s 			page 38


 1568 00f4 BD46     		mov	sp, r7
 1569 00f6 80BD     		pop	{r7, pc}
 1570              		.cfi_endproc
 1571              	.LFE38:
 1572              		.size	send_packet, .-send_packet
 1573              		.section	.text.send_move,"ax",%progbits
 1574              		.align	2
 1575              		.global	send_move
 1576              		.thumb
 1577              		.thumb_func
 1578              		.type	send_move, %function
 1579              	send_move:
 1580              	.LFB39:
 493:.\main.c      **** 
 494:.\main.c      **** 
 495:.\main.c      **** 
 496:.\main.c      **** 
 497:.\main.c      **** void send_move ( uint8 row , uint8 col )  {
 1581              		.loc 1 497 0
 1582              		.cfi_startproc
 1583              		@ args = 0, pretend = 0, frame = 8
 1584              		@ frame_needed = 1, uses_anonymous_args = 0
 1585 0000 80B5     		push	{r7, lr}
 1586              	.LCFI28:
 1587              		.cfi_def_cfa_offset 8
 1588 0002 82B0     		sub	sp, sp, #8
 1589              	.LCFI29:
 1590              		.cfi_def_cfa_offset 16
 1591 0004 00AF     		add	r7, sp, #0
 1592              		.cfi_offset 14, -4
 1593              		.cfi_offset 7, -8
 1594              	.LCFI30:
 1595              		.cfi_def_cfa_register 7
 1596 0006 0246     		mov	r2, r0
 1597 0008 0B46     		mov	r3, r1
 1598 000a FA71     		strb	r2, [r7, #7]
 1599 000c BB71     		strb	r3, [r7, #6]
 498:.\main.c      ****     last_move.row = row;
 1600              		.loc 1 498 0
 1601 000e 40F20003 		movw	r3, #:lower16:last_move
 1602 0012 C0F20003 		movt	r3, #:upper16:last_move
 1603 0016 FA79     		ldrb	r2, [r7, #7]
 1604 0018 1A70     		strb	r2, [r3, #0]
 499:.\main.c      ****     last_move.col = col;
 1605              		.loc 1 499 0
 1606 001a 40F20003 		movw	r3, #:lower16:last_move
 1607 001e C0F20003 		movt	r3, #:upper16:last_move
 1608 0022 BA79     		ldrb	r2, [r7, #6]
 1609 0024 5A70     		strb	r2, [r3, #1]
 500:.\main.c      ****     send_packet(&last_move);
 1610              		.loc 1 500 0
 1611 0026 40F20000 		movw	r0, #:lower16:last_move
 1612 002a C0F20000 		movt	r0, #:upper16:last_move
 1613 002e FFF7FEFF 		bl	send_packet
 501:.\main.c      **** }
 1614              		.loc 1 501 0
 1615 0032 07F10807 		add	r7, r7, #8
ARM GAS  C:\DOCUME~1\david\LOCALS~1\Temp\ccWbOjJF.s 			page 39


 1616 0036 BD46     		mov	sp, r7
 1617 0038 80BD     		pop	{r7, pc}
 1618              		.cfi_endproc
 1619              	.LFE39:
 1620              		.size	send_move, .-send_move
 1621              		.section	.text.animate,"ax",%progbits
 1622              		.align	2
 1623              		.global	animate
 1624              		.thumb
 1625              		.thumb_func
 1626              		.type	animate, %function
 1627              	animate:
 1628              	.LFB40:
 502:.\main.c      **** 
 503:.\main.c      **** 
 504:.\main.c      **** 
 505:.\main.c      **** 
 506:.\main.c      **** uint8 animate ( uint8 col ) {
 1629              		.loc 1 506 0
 1630              		.cfi_startproc
 1631              		@ args = 0, pretend = 0, frame = 16
 1632              		@ frame_needed = 1, uses_anonymous_args = 0
 1633 0000 80B5     		push	{r7, lr}
 1634              	.LCFI31:
 1635              		.cfi_def_cfa_offset 8
 1636 0002 84B0     		sub	sp, sp, #16
 1637              	.LCFI32:
 1638              		.cfi_def_cfa_offset 24
 1639 0004 00AF     		add	r7, sp, #0
 1640              		.cfi_offset 14, -4
 1641              		.cfi_offset 7, -8
 1642              	.LCFI33:
 1643              		.cfi_def_cfa_register 7
 1644 0006 0346     		mov	r3, r0
 1645 0008 FB71     		strb	r3, [r7, #7]
 507:.\main.c      ****     uint8 row;
 508:.\main.c      ****     for (row=1; row < MATRIX_ROWS ;++row) {
 1646              		.loc 1 508 0
 1647 000a 4FF00103 		mov	r3, #1
 1648 000e FB73     		strb	r3, [r7, #15]
 1649 0010 6CE0     		b	.L91
 1650              	.L97:
 509:.\main.c      ****         if (player1_turn) player1[row][col] = true;
 1651              		.loc 1 509 0
 1652 0012 40F20003 		movw	r3, #:lower16:player1_turn
 1653 0016 C0F20003 		movt	r3, #:upper16:player1_turn
 1654 001a 1B78     		ldrb	r3, [r3, #0]	@ zero_extendqisi2
 1655 001c 002B     		cmp	r3, #0
 1656 001e 0DD0     		beq	.L92
 1657 0020 F97B     		ldrb	r1, [r7, #15]	@ zero_extendqisi2
 1658 0022 FA79     		ldrb	r2, [r7, #7]	@ zero_extendqisi2
 1659 0024 40F20003 		movw	r3, #:lower16:player1
 1660 0028 C0F20003 		movt	r3, #:upper16:player1
 1661 002c 4FEAC101 		lsl	r1, r1, #3
 1662 0030 0A44     		add	r2, r1, r2
 1663 0032 1344     		add	r3, r2, r3
 1664 0034 4FF00102 		mov	r2, #1
ARM GAS  C:\DOCUME~1\david\LOCALS~1\Temp\ccWbOjJF.s 			page 40


 1665 0038 1A70     		strb	r2, [r3, #0]
 1666 003a 0CE0     		b	.L93
 1667              	.L92:
 510:.\main.c      ****         else              player2[row][col] = true;
 1668              		.loc 1 510 0
 1669 003c F97B     		ldrb	r1, [r7, #15]	@ zero_extendqisi2
 1670 003e FA79     		ldrb	r2, [r7, #7]	@ zero_extendqisi2
 1671 0040 40F20003 		movw	r3, #:lower16:player2
 1672 0044 C0F20003 		movt	r3, #:upper16:player2
 1673 0048 4FEAC101 		lsl	r1, r1, #3
 1674 004c 0A44     		add	r2, r1, r2
 1675 004e 1344     		add	r3, r2, r3
 1676 0050 4FF00102 		mov	r2, #1
 1677 0054 1A70     		strb	r2, [r3, #0]
 1678              	.L93:
 511:.\main.c      ****         if (player1[row+1][col] || player2[row+1][col] || row+1 == MATRIX_ROWS) break;
 1679              		.loc 1 511 0
 1680 0056 FB7B     		ldrb	r3, [r7, #15]	@ zero_extendqisi2
 1681 0058 03F10101 		add	r1, r3, #1
 1682 005c FA79     		ldrb	r2, [r7, #7]	@ zero_extendqisi2
 1683 005e 40F20003 		movw	r3, #:lower16:player1
 1684 0062 C0F20003 		movt	r3, #:upper16:player1
 1685 0066 4FEAC101 		lsl	r1, r1, #3
 1686 006a 0A44     		add	r2, r1, r2
 1687 006c 1344     		add	r3, r2, r3
 1688 006e 1B78     		ldrb	r3, [r3, #0]	@ zero_extendqisi2
 1689 0070 002B     		cmp	r3, #0
 1690 0072 3ED1     		bne	.L94
 1691 0074 FB7B     		ldrb	r3, [r7, #15]	@ zero_extendqisi2
 1692 0076 03F10101 		add	r1, r3, #1
 1693 007a FA79     		ldrb	r2, [r7, #7]	@ zero_extendqisi2
 1694 007c 40F20003 		movw	r3, #:lower16:player2
 1695 0080 C0F20003 		movt	r3, #:upper16:player2
 1696 0084 4FEAC101 		lsl	r1, r1, #3
 1697 0088 0A44     		add	r2, r1, r2
 1698 008a 1344     		add	r3, r2, r3
 1699 008c 1B78     		ldrb	r3, [r3, #0]	@ zero_extendqisi2
 1700 008e 002B     		cmp	r3, #0
 1701 0090 2FD1     		bne	.L94
 1702 0092 FB7B     		ldrb	r3, [r7, #15]	@ zero_extendqisi2
 1703 0094 072B     		cmp	r3, #7
 1704 0096 2CD0     		beq	.L94
 512:.\main.c      ****         else CyDelay(20);
 1705              		.loc 1 512 0
 1706 0098 4FF01400 		mov	r0, #20
 1707 009c FFF7FEFF 		bl	CyDelay
 513:.\main.c      ****         if (player1_turn) player1[row][col] = false;
 1708              		.loc 1 513 0
 1709 00a0 40F20003 		movw	r3, #:lower16:player1_turn
 1710 00a4 C0F20003 		movt	r3, #:upper16:player1_turn
 1711 00a8 1B78     		ldrb	r3, [r3, #0]	@ zero_extendqisi2
 1712 00aa 002B     		cmp	r3, #0
 1713 00ac 0DD0     		beq	.L95
 1714 00ae F97B     		ldrb	r1, [r7, #15]	@ zero_extendqisi2
 1715 00b0 FA79     		ldrb	r2, [r7, #7]	@ zero_extendqisi2
 1716 00b2 40F20003 		movw	r3, #:lower16:player1
 1717 00b6 C0F20003 		movt	r3, #:upper16:player1
ARM GAS  C:\DOCUME~1\david\LOCALS~1\Temp\ccWbOjJF.s 			page 41


 1718 00ba 4FEAC101 		lsl	r1, r1, #3
 1719 00be 0A44     		add	r2, r1, r2
 1720 00c0 1344     		add	r3, r2, r3
 1721 00c2 4FF00002 		mov	r2, #0
 1722 00c6 1A70     		strb	r2, [r3, #0]
 1723 00c8 0CE0     		b	.L96
 1724              	.L95:
 514:.\main.c      ****         else              player2[row][col] = false;
 1725              		.loc 1 514 0
 1726 00ca F97B     		ldrb	r1, [r7, #15]	@ zero_extendqisi2
 1727 00cc FA79     		ldrb	r2, [r7, #7]	@ zero_extendqisi2
 1728 00ce 40F20003 		movw	r3, #:lower16:player2
 1729 00d2 C0F20003 		movt	r3, #:upper16:player2
 1730 00d6 4FEAC101 		lsl	r1, r1, #3
 1731 00da 0A44     		add	r2, r1, r2
 1732 00dc 1344     		add	r3, r2, r3
 1733 00de 4FF00002 		mov	r2, #0
 1734 00e2 1A70     		strb	r2, [r3, #0]
 1735              	.L96:
 1736              		.loc 1 508 0
 1737 00e4 FB7B     		ldrb	r3, [r7, #15]
 1738 00e6 03F10103 		add	r3, r3, #1
 1739 00ea FB73     		strb	r3, [r7, #15]
 1740              	.L91:
 1741 00ec FB7B     		ldrb	r3, [r7, #15]	@ zero_extendqisi2
 1742 00ee 072B     		cmp	r3, #7
 1743 00f0 8FD9     		bls	.L97
 1744              	.L94:
 515:.\main.c      ****     }
 516:.\main.c      ****     return row;
 1745              		.loc 1 516 0
 1746 00f2 FB7B     		ldrb	r3, [r7, #15]	@ zero_extendqisi2
 517:.\main.c      **** }
 1747              		.loc 1 517 0
 1748 00f4 1846     		mov	r0, r3
 1749 00f6 07F11007 		add	r7, r7, #16
 1750 00fa BD46     		mov	sp, r7
 1751 00fc 80BD     		pop	{r7, pc}
 1752              		.cfi_endproc
 1753              	.LFE40:
 1754              		.size	animate, .-animate
 1755 00fe 00BF     		.section	.rodata
 1756 012a 0000     		.align	2
 1757              	.LC29:
 1758 012c 596F7520 		.ascii	"You win!\000"
 1758      77696E21 
 1758      00
 1759              		.section	.text.winner_check,"ax",%progbits
 1760              		.align	2
 1761              		.global	winner_check
 1762              		.thumb
 1763              		.thumb_func
 1764              		.type	winner_check, %function
 1765              	winner_check:
 1766              	.LFB41:
 518:.\main.c      **** 
 519:.\main.c      **** 
ARM GAS  C:\DOCUME~1\david\LOCALS~1\Temp\ccWbOjJF.s 			page 42


 520:.\main.c      **** 
 521:.\main.c      **** 
 522:.\main.c      **** void winner_check () {
 1767              		.loc 1 522 0
 1768              		.cfi_startproc
 1769              		@ args = 0, pretend = 0, frame = 16
 1770              		@ frame_needed = 1, uses_anonymous_args = 0
 1771 0000 80B5     		push	{r7, lr}
 1772              	.LCFI34:
 1773              		.cfi_def_cfa_offset 8
 1774 0002 84B0     		sub	sp, sp, #16
 1775              	.LCFI35:
 1776              		.cfi_def_cfa_offset 24
 1777 0004 00AF     		add	r7, sp, #0
 1778              		.cfi_offset 14, -4
 1779              		.cfi_offset 7, -8
 1780              	.LCFI36:
 1781              		.cfi_def_cfa_register 7
 523:.\main.c      ****     uint8 row, col;
 524:.\main.c      ****     uint16 strobe = 100;
 1782              		.loc 1 524 0
 1783 0006 4FF06403 		mov	r3, #100
 1784 000a 7B80     		strh	r3, [r7, #2]	@ movhi
 525:.\main.c      ****     for (row=1; row < MATRIX_ROWS ;++row) {
 1785              		.loc 1 525 0
 1786 000c 4FF00103 		mov	r3, #1
 1787 0010 3B70     		strb	r3, [r7, #0]
 1788 0012 77E2     		b	.L100
 1789              	.L155:
 526:.\main.c      ****         for (col=0; col < MATRIX_COLS ;++col) {
 1790              		.loc 1 526 0
 1791 0014 4FF00003 		mov	r3, #0
 1792 0018 7B70     		strb	r3, [r7, #1]
 1793 001a 6BE2     		b	.L101
 1794              	.L154:
 1795              	.LBB6:
 527:.\main.c      ****             int offset;
 528:.\main.c      ****             
 529:.\main.c      ****             //vertical
 530:.\main.c      ****             if (row < MATRIX_ROWS-3) {
 1796              		.loc 1 530 0
 1797 001c 3B78     		ldrb	r3, [r7, #0]	@ zero_extendqisi2
 1798 001e 042B     		cmp	r3, #4
 1799 0020 00F29180 		bhi	.L102
 1800              	.LBB7:
 531:.\main.c      ****                 bool win = true;
 1801              		.loc 1 531 0
 1802 0024 4FF00103 		mov	r3, #1
 1803 0028 3B72     		strb	r3, [r7, #8]
 532:.\main.c      ****                 for (offset=0; win && offset < 4 ;++offset) {
 1804              		.loc 1 532 0
 1805 002a 4FF00003 		mov	r3, #0
 1806 002e 7B60     		str	r3, [r7, #4]
 1807 0030 39E0     		b	.L103
 1808              	.L108:
 533:.\main.c      ****                     if (player1_turn) { if (!player1[row+offset][col]) win = false; }
 1809              		.loc 1 533 0
ARM GAS  C:\DOCUME~1\david\LOCALS~1\Temp\ccWbOjJF.s 			page 43


 1810 0032 40F20003 		movw	r3, #:lower16:player1_turn
 1811 0036 C0F20003 		movt	r3, #:upper16:player1_turn
 1812 003a 1B78     		ldrb	r3, [r3, #0]	@ zero_extendqisi2
 1813 003c 002B     		cmp	r3, #0
 1814 003e 16D0     		beq	.L104
 1815 0040 3A78     		ldrb	r2, [r7, #0]	@ zero_extendqisi2
 1816 0042 7B68     		ldr	r3, [r7, #4]
 1817 0044 02EB0301 		add	r1, r2, r3
 1818 0048 7A78     		ldrb	r2, [r7, #1]	@ zero_extendqisi2
 1819 004a 40F20003 		movw	r3, #:lower16:player1
 1820 004e C0F20003 		movt	r3, #:upper16:player1
 1821 0052 4FEAC101 		lsl	r1, r1, #3
 1822 0056 0A44     		add	r2, r1, r2
 1823 0058 1344     		add	r3, r2, r3
 1824 005a 1B78     		ldrb	r3, [r3, #0]	@ zero_extendqisi2
 1825 005c 83F00103 		eor	r3, r3, #1
 1826 0060 DBB2     		uxtb	r3, r3
 1827 0062 002B     		cmp	r3, #0
 1828 0064 1AD0     		beq	.L157
 1829 0066 4FF00003 		mov	r3, #0
 1830 006a 3B72     		strb	r3, [r7, #8]
 1831 006c 17E0     		b	.L106
 1832              	.L104:
 534:.\main.c      ****                     else              { if (!player2[row+offset][col]) win = false; }
 1833              		.loc 1 534 0
 1834 006e 3A78     		ldrb	r2, [r7, #0]	@ zero_extendqisi2
 1835 0070 7B68     		ldr	r3, [r7, #4]
 1836 0072 02EB0301 		add	r1, r2, r3
 1837 0076 7A78     		ldrb	r2, [r7, #1]	@ zero_extendqisi2
 1838 0078 40F20003 		movw	r3, #:lower16:player2
 1839 007c C0F20003 		movt	r3, #:upper16:player2
 1840 0080 4FEAC101 		lsl	r1, r1, #3
 1841 0084 0A44     		add	r2, r1, r2
 1842 0086 1344     		add	r3, r2, r3
 1843 0088 1B78     		ldrb	r3, [r3, #0]	@ zero_extendqisi2
 1844 008a 83F00103 		eor	r3, r3, #1
 1845 008e DBB2     		uxtb	r3, r3
 1846 0090 002B     		cmp	r3, #0
 1847 0092 04D0     		beq	.L106
 1848 0094 4FF00003 		mov	r3, #0
 1849 0098 3B72     		strb	r3, [r7, #8]
 1850 009a 00E0     		b	.L106
 1851              	.L157:
 1852              		.loc 1 533 0
 1853 009c 00BF     		nop
 1854              	.L106:
 1855              		.loc 1 532 0
 1856 009e 7B68     		ldr	r3, [r7, #4]
 1857 00a0 03F10103 		add	r3, r3, #1
 1858 00a4 7B60     		str	r3, [r7, #4]
 1859              	.L103:
 1860 00a6 3B7A     		ldrb	r3, [r7, #8]	@ zero_extendqisi2
 1861 00a8 002B     		cmp	r3, #0
 1862 00aa 02D0     		beq	.L107
 1863 00ac 7B68     		ldr	r3, [r7, #4]
 1864 00ae 032B     		cmp	r3, #3
 1865 00b0 BFDD     		ble	.L108
ARM GAS  C:\DOCUME~1\david\LOCALS~1\Temp\ccWbOjJF.s 			page 44


 1866              	.L107:
 535:.\main.c      ****                 }
 536:.\main.c      ****                 if (win) {
 1867              		.loc 1 536 0
 1868 00b2 3B7A     		ldrb	r3, [r7, #8]	@ zero_extendqisi2
 1869 00b4 002B     		cmp	r3, #0
 1870 00b6 46D0     		beq	.L102
 1871              	.LBB8:
 537:.\main.c      ****                     LCD_UpdateMessage("You win!");
 1872              		.loc 1 537 0
 1873 00b8 40F20000 		movw	r0, #:lower16:.LC29
 1874 00bc C0F20000 		movt	r0, #:upper16:.LC29
 1875 00c0 FFF7FEFF 		bl	LCD_UpdateMessage
 538:.\main.c      ****                     bool blink = false;
 1876              		.loc 1 538 0
 1877 00c4 4FF00003 		mov	r3, #0
 1878 00c8 7B72     		strb	r3, [r7, #9]
 1879              	.L114:
 539:.\main.c      ****                     while (true) {
 540:.\main.c      ****                         for (offset=0; win && offset < 4 ;++offset) {
 1880              		.loc 1 540 0
 1881 00ca 4FF00003 		mov	r3, #0
 1882 00ce 7B60     		str	r3, [r7, #4]
 1883 00d0 29E0     		b	.L109
 1884              	.L113:
 541:.\main.c      ****                             if (player1_turn) player1[row+offset][col] = blink;
 1885              		.loc 1 541 0
 1886 00d2 40F20003 		movw	r3, #:lower16:player1_turn
 1887 00d6 C0F20003 		movt	r3, #:upper16:player1_turn
 1888 00da 1B78     		ldrb	r3, [r3, #0]	@ zero_extendqisi2
 1889 00dc 002B     		cmp	r3, #0
 1890 00de 0FD0     		beq	.L110
 1891 00e0 3A78     		ldrb	r2, [r7, #0]	@ zero_extendqisi2
 1892 00e2 7B68     		ldr	r3, [r7, #4]
 1893 00e4 02EB0301 		add	r1, r2, r3
 1894 00e8 7A78     		ldrb	r2, [r7, #1]	@ zero_extendqisi2
 1895 00ea 40F20003 		movw	r3, #:lower16:player1
 1896 00ee C0F20003 		movt	r3, #:upper16:player1
 1897 00f2 4FEAC101 		lsl	r1, r1, #3
 1898 00f6 0A44     		add	r2, r1, r2
 1899 00f8 1344     		add	r3, r2, r3
 1900 00fa 7A7A     		ldrb	r2, [r7, #9]
 1901 00fc 1A70     		strb	r2, [r3, #0]
 1902 00fe 0EE0     		b	.L111
 1903              	.L110:
 542:.\main.c      ****                             else              player2[row+offset][col] = blink;
 1904              		.loc 1 542 0
 1905 0100 3A78     		ldrb	r2, [r7, #0]	@ zero_extendqisi2
 1906 0102 7B68     		ldr	r3, [r7, #4]
 1907 0104 02EB0301 		add	r1, r2, r3
 1908 0108 7A78     		ldrb	r2, [r7, #1]	@ zero_extendqisi2
 1909 010a 40F20003 		movw	r3, #:lower16:player2
 1910 010e C0F20003 		movt	r3, #:upper16:player2
 1911 0112 4FEAC101 		lsl	r1, r1, #3
 1912 0116 0A44     		add	r2, r1, r2
 1913 0118 1344     		add	r3, r2, r3
 1914 011a 7A7A     		ldrb	r2, [r7, #9]
ARM GAS  C:\DOCUME~1\david\LOCALS~1\Temp\ccWbOjJF.s 			page 45


 1915 011c 1A70     		strb	r2, [r3, #0]
 1916              	.L111:
 1917              		.loc 1 540 0
 1918 011e 7B68     		ldr	r3, [r7, #4]
 1919 0120 03F10103 		add	r3, r3, #1
 1920 0124 7B60     		str	r3, [r7, #4]
 1921              	.L109:
 1922 0126 3B7A     		ldrb	r3, [r7, #8]	@ zero_extendqisi2
 1923 0128 002B     		cmp	r3, #0
 1924 012a 02D0     		beq	.L112
 1925 012c 7B68     		ldr	r3, [r7, #4]
 1926 012e 032B     		cmp	r3, #3
 1927 0130 CFDD     		ble	.L113
 1928              	.L112:
 543:.\main.c      ****                         }
 544:.\main.c      ****                         CyDelay(strobe);
 1929              		.loc 1 544 0
 1930 0132 7B88     		ldrh	r3, [r7, #2]
 1931 0134 1846     		mov	r0, r3
 1932 0136 FFF7FEFF 		bl	CyDelay
 545:.\main.c      ****                         blink = !blink;
 1933              		.loc 1 545 0
 1934 013a 7B7A     		ldrb	r3, [r7, #9]
 1935 013c 83F00103 		eor	r3, r3, #1
 1936 0140 DBB2     		uxtb	r3, r3
 1937 0142 7B72     		strb	r3, [r7, #9]
 546:.\main.c      ****                     }
 1938              		.loc 1 546 0
 1939 0144 C1E7     		b	.L114
 1940              	.L102:
 1941              	.LBE8:
 1942              	.LBE7:
 547:.\main.c      ****                 }
 548:.\main.c      ****             }
 549:.\main.c      ****             
 550:.\main.c      ****             //lateral
 551:.\main.c      ****             if (col < MATRIX_COLS-3) {
 1943              		.loc 1 551 0
 1944 0146 7B78     		ldrb	r3, [r7, #1]	@ zero_extendqisi2
 1945 0148 042B     		cmp	r3, #4
 1946 014a 00F28D80 		bhi	.L115
 1947              	.LBB9:
 552:.\main.c      ****                 bool win = true;
 1948              		.loc 1 552 0
 1949 014e 4FF00103 		mov	r3, #1
 1950 0152 BB72     		strb	r3, [r7, #10]
 553:.\main.c      ****                 for (offset=0; win && offset < 4 ;++offset) {
 1951              		.loc 1 553 0
 1952 0154 4FF00003 		mov	r3, #0
 1953 0158 7B60     		str	r3, [r7, #4]
 1954 015a 37E0     		b	.L116
 1955              	.L121:
 554:.\main.c      ****                     if (player1_turn) { if (!player1[row][col+offset]) win = false; }
 1956              		.loc 1 554 0
 1957 015c 40F20003 		movw	r3, #:lower16:player1_turn
 1958 0160 C0F20003 		movt	r3, #:upper16:player1_turn
 1959 0164 1B78     		ldrb	r3, [r3, #0]	@ zero_extendqisi2
ARM GAS  C:\DOCUME~1\david\LOCALS~1\Temp\ccWbOjJF.s 			page 46


 1960 0166 002B     		cmp	r3, #0
 1961 0168 15D0     		beq	.L117
 1962 016a 3978     		ldrb	r1, [r7, #0]	@ zero_extendqisi2
 1963 016c 7A78     		ldrb	r2, [r7, #1]	@ zero_extendqisi2
 1964 016e 7B68     		ldr	r3, [r7, #4]
 1965 0170 1A44     		add	r2, r2, r3
 1966 0172 40F20003 		movw	r3, #:lower16:player1
 1967 0176 C0F20003 		movt	r3, #:upper16:player1
 1968 017a 4FEAC101 		lsl	r1, r1, #3
 1969 017e 0A44     		add	r2, r1, r2
 1970 0180 1344     		add	r3, r2, r3
 1971 0182 1B78     		ldrb	r3, [r3, #0]	@ zero_extendqisi2
 1972 0184 83F00103 		eor	r3, r3, #1
 1973 0188 DBB2     		uxtb	r3, r3
 1974 018a 002B     		cmp	r3, #0
 1975 018c 19D0     		beq	.L158
 1976 018e 4FF00003 		mov	r3, #0
 1977 0192 BB72     		strb	r3, [r7, #10]
 1978 0194 16E0     		b	.L119
 1979              	.L117:
 555:.\main.c      ****                     else              { if (!player2[row][col+offset]) win = false; }
 1980              		.loc 1 555 0
 1981 0196 3978     		ldrb	r1, [r7, #0]	@ zero_extendqisi2
 1982 0198 7A78     		ldrb	r2, [r7, #1]	@ zero_extendqisi2
 1983 019a 7B68     		ldr	r3, [r7, #4]
 1984 019c 1A44     		add	r2, r2, r3
 1985 019e 40F20003 		movw	r3, #:lower16:player2
 1986 01a2 C0F20003 		movt	r3, #:upper16:player2
 1987 01a6 4FEAC101 		lsl	r1, r1, #3
 1988 01aa 0A44     		add	r2, r1, r2
 1989 01ac 1344     		add	r3, r2, r3
 1990 01ae 1B78     		ldrb	r3, [r3, #0]	@ zero_extendqisi2
 1991 01b0 83F00103 		eor	r3, r3, #1
 1992 01b4 DBB2     		uxtb	r3, r3
 1993 01b6 002B     		cmp	r3, #0
 1994 01b8 04D0     		beq	.L119
 1995 01ba 4FF00003 		mov	r3, #0
 1996 01be BB72     		strb	r3, [r7, #10]
 1997 01c0 00E0     		b	.L119
 1998              	.L158:
 1999              		.loc 1 554 0
 2000 01c2 00BF     		nop
 2001              	.L119:
 2002              		.loc 1 553 0
 2003 01c4 7B68     		ldr	r3, [r7, #4]
 2004 01c6 03F10103 		add	r3, r3, #1
 2005 01ca 7B60     		str	r3, [r7, #4]
 2006              	.L116:
 2007 01cc BB7A     		ldrb	r3, [r7, #10]	@ zero_extendqisi2
 2008 01ce 002B     		cmp	r3, #0
 2009 01d0 02D0     		beq	.L120
 2010 01d2 7B68     		ldr	r3, [r7, #4]
 2011 01d4 032B     		cmp	r3, #3
 2012 01d6 C1DD     		ble	.L121
 2013              	.L120:
 556:.\main.c      ****                 }
 557:.\main.c      ****                 if (win) {
ARM GAS  C:\DOCUME~1\david\LOCALS~1\Temp\ccWbOjJF.s 			page 47


 2014              		.loc 1 557 0
 2015 01d8 BB7A     		ldrb	r3, [r7, #10]	@ zero_extendqisi2
 2016 01da 002B     		cmp	r3, #0
 2017 01dc 44D0     		beq	.L115
 2018              	.LBB10:
 558:.\main.c      ****                     LCD_UpdateMessage("You win!");
 2019              		.loc 1 558 0
 2020 01de 40F20000 		movw	r0, #:lower16:.LC29
 2021 01e2 C0F20000 		movt	r0, #:upper16:.LC29
 2022 01e6 FFF7FEFF 		bl	LCD_UpdateMessage
 559:.\main.c      ****                     bool blink = false;
 2023              		.loc 1 559 0
 2024 01ea 4FF00003 		mov	r3, #0
 2025 01ee FB72     		strb	r3, [r7, #11]
 2026              	.L127:
 560:.\main.c      ****                     while (true) {
 561:.\main.c      ****                         for (offset=0; win && offset < 4 ;++offset) {
 2027              		.loc 1 561 0
 2028 01f0 4FF00003 		mov	r3, #0
 2029 01f4 7B60     		str	r3, [r7, #4]
 2030 01f6 27E0     		b	.L122
 2031              	.L126:
 562:.\main.c      ****                             if (player1_turn) player1[row][col+offset] = blink;
 2032              		.loc 1 562 0
 2033 01f8 40F20003 		movw	r3, #:lower16:player1_turn
 2034 01fc C0F20003 		movt	r3, #:upper16:player1_turn
 2035 0200 1B78     		ldrb	r3, [r3, #0]	@ zero_extendqisi2
 2036 0202 002B     		cmp	r3, #0
 2037 0204 0ED0     		beq	.L123
 2038 0206 3978     		ldrb	r1, [r7, #0]	@ zero_extendqisi2
 2039 0208 7A78     		ldrb	r2, [r7, #1]	@ zero_extendqisi2
 2040 020a 7B68     		ldr	r3, [r7, #4]
 2041 020c 1A44     		add	r2, r2, r3
 2042 020e 40F20003 		movw	r3, #:lower16:player1
 2043 0212 C0F20003 		movt	r3, #:upper16:player1
 2044 0216 4FEAC101 		lsl	r1, r1, #3
 2045 021a 0A44     		add	r2, r1, r2
 2046 021c 1344     		add	r3, r2, r3
 2047 021e FA7A     		ldrb	r2, [r7, #11]
 2048 0220 1A70     		strb	r2, [r3, #0]
 2049 0222 0DE0     		b	.L124
 2050              	.L123:
 563:.\main.c      ****                             else              player2[row][col+offset] = blink;
 2051              		.loc 1 563 0
 2052 0224 3978     		ldrb	r1, [r7, #0]	@ zero_extendqisi2
 2053 0226 7A78     		ldrb	r2, [r7, #1]	@ zero_extendqisi2
 2054 0228 7B68     		ldr	r3, [r7, #4]
 2055 022a 1A44     		add	r2, r2, r3
 2056 022c 40F20003 		movw	r3, #:lower16:player2
 2057 0230 C0F20003 		movt	r3, #:upper16:player2
 2058 0234 4FEAC101 		lsl	r1, r1, #3
 2059 0238 0A44     		add	r2, r1, r2
 2060 023a 1344     		add	r3, r2, r3
 2061 023c FA7A     		ldrb	r2, [r7, #11]
 2062 023e 1A70     		strb	r2, [r3, #0]
 2063              	.L124:
 2064              		.loc 1 561 0
ARM GAS  C:\DOCUME~1\david\LOCALS~1\Temp\ccWbOjJF.s 			page 48


 2065 0240 7B68     		ldr	r3, [r7, #4]
 2066 0242 03F10103 		add	r3, r3, #1
 2067 0246 7B60     		str	r3, [r7, #4]
 2068              	.L122:
 2069 0248 BB7A     		ldrb	r3, [r7, #10]	@ zero_extendqisi2
 2070 024a 002B     		cmp	r3, #0
 2071 024c 02D0     		beq	.L125
 2072 024e 7B68     		ldr	r3, [r7, #4]
 2073 0250 032B     		cmp	r3, #3
 2074 0252 D1DD     		ble	.L126
 2075              	.L125:
 564:.\main.c      ****                         }
 565:.\main.c      ****                         CyDelay(strobe);
 2076              		.loc 1 565 0
 2077 0254 7B88     		ldrh	r3, [r7, #2]
 2078 0256 1846     		mov	r0, r3
 2079 0258 FFF7FEFF 		bl	CyDelay
 566:.\main.c      ****                         blink = !blink;
 2080              		.loc 1 566 0
 2081 025c FB7A     		ldrb	r3, [r7, #11]
 2082 025e 83F00103 		eor	r3, r3, #1
 2083 0262 DBB2     		uxtb	r3, r3
 2084 0264 FB72     		strb	r3, [r7, #11]
 567:.\main.c      ****                     }
 2085              		.loc 1 567 0
 2086 0266 C3E7     		b	.L127
 2087              	.L115:
 2088              	.LBE10:
 2089              	.LBE9:
 568:.\main.c      ****                 }
 569:.\main.c      ****             }
 570:.\main.c      ****             
 571:.\main.c      ****             //down-diagonal
 572:.\main.c      ****             if (row < MATRIX_ROWS-3 && col < MATRIX_COLS-3) {
 2090              		.loc 1 572 0
 2091 0268 3B78     		ldrb	r3, [r7, #0]	@ zero_extendqisi2
 2092 026a 042B     		cmp	r3, #4
 2093 026c 00F29D80 		bhi	.L128
 2094 0270 7B78     		ldrb	r3, [r7, #1]	@ zero_extendqisi2
 2095 0272 042B     		cmp	r3, #4
 2096 0274 00F29980 		bhi	.L128
 2097              	.LBB11:
 573:.\main.c      ****                 bool win = true;
 2098              		.loc 1 573 0
 2099 0278 4FF00103 		mov	r3, #1
 2100 027c 3B73     		strb	r3, [r7, #12]
 574:.\main.c      ****                 for (offset=0; win && offset < 4 ;++offset) {
 2101              		.loc 1 574 0
 2102 027e 4FF00003 		mov	r3, #0
 2103 0282 7B60     		str	r3, [r7, #4]
 2104 0284 3DE0     		b	.L129
 2105              	.L134:
 575:.\main.c      ****                     if (player1_turn) { if (!player1[row+offset][col+offset]) win = false; }
 2106              		.loc 1 575 0
 2107 0286 40F20003 		movw	r3, #:lower16:player1_turn
 2108 028a C0F20003 		movt	r3, #:upper16:player1_turn
 2109 028e 1B78     		ldrb	r3, [r3, #0]	@ zero_extendqisi2
ARM GAS  C:\DOCUME~1\david\LOCALS~1\Temp\ccWbOjJF.s 			page 49


 2110 0290 002B     		cmp	r3, #0
 2111 0292 18D0     		beq	.L130
 2112 0294 3A78     		ldrb	r2, [r7, #0]	@ zero_extendqisi2
 2113 0296 7B68     		ldr	r3, [r7, #4]
 2114 0298 02EB0301 		add	r1, r2, r3
 2115 029c 7A78     		ldrb	r2, [r7, #1]	@ zero_extendqisi2
 2116 029e 7B68     		ldr	r3, [r7, #4]
 2117 02a0 1A44     		add	r2, r2, r3
 2118 02a2 40F20003 		movw	r3, #:lower16:player1
 2119 02a6 C0F20003 		movt	r3, #:upper16:player1
 2120 02aa 4FEAC101 		lsl	r1, r1, #3
 2121 02ae 0A44     		add	r2, r1, r2
 2122 02b0 1344     		add	r3, r2, r3
 2123 02b2 1B78     		ldrb	r3, [r3, #0]	@ zero_extendqisi2
 2124 02b4 83F00103 		eor	r3, r3, #1
 2125 02b8 DBB2     		uxtb	r3, r3
 2126 02ba 002B     		cmp	r3, #0
 2127 02bc 1CD0     		beq	.L159
 2128 02be 4FF00003 		mov	r3, #0
 2129 02c2 3B73     		strb	r3, [r7, #12]
 2130 02c4 19E0     		b	.L132
 2131              	.L130:
 576:.\main.c      ****                     else              { if (!player2[row+offset][col+offset]) win = false; }
 2132              		.loc 1 576 0
 2133 02c6 3A78     		ldrb	r2, [r7, #0]	@ zero_extendqisi2
 2134 02c8 7B68     		ldr	r3, [r7, #4]
 2135 02ca 02EB0301 		add	r1, r2, r3
 2136 02ce 7A78     		ldrb	r2, [r7, #1]	@ zero_extendqisi2
 2137 02d0 7B68     		ldr	r3, [r7, #4]
 2138 02d2 1A44     		add	r2, r2, r3
 2139 02d4 40F20003 		movw	r3, #:lower16:player2
 2140 02d8 C0F20003 		movt	r3, #:upper16:player2
 2141 02dc 4FEAC101 		lsl	r1, r1, #3
 2142 02e0 0A44     		add	r2, r1, r2
 2143 02e2 1344     		add	r3, r2, r3
 2144 02e4 1B78     		ldrb	r3, [r3, #0]	@ zero_extendqisi2
 2145 02e6 83F00103 		eor	r3, r3, #1
 2146 02ea DBB2     		uxtb	r3, r3
 2147 02ec 002B     		cmp	r3, #0
 2148 02ee 04D0     		beq	.L132
 2149 02f0 4FF00003 		mov	r3, #0
 2150 02f4 3B73     		strb	r3, [r7, #12]
 2151 02f6 00E0     		b	.L132
 2152              	.L159:
 2153              		.loc 1 575 0
 2154 02f8 00BF     		nop
 2155              	.L132:
 2156              		.loc 1 574 0
 2157 02fa 7B68     		ldr	r3, [r7, #4]
 2158 02fc 03F10103 		add	r3, r3, #1
 2159 0300 7B60     		str	r3, [r7, #4]
 2160              	.L129:
 2161 0302 3B7B     		ldrb	r3, [r7, #12]	@ zero_extendqisi2
 2162 0304 002B     		cmp	r3, #0
 2163 0306 02D0     		beq	.L133
 2164 0308 7B68     		ldr	r3, [r7, #4]
 2165 030a 032B     		cmp	r3, #3
ARM GAS  C:\DOCUME~1\david\LOCALS~1\Temp\ccWbOjJF.s 			page 50


 2166 030c BBDD     		ble	.L134
 2167              	.L133:
 577:.\main.c      ****                 }
 578:.\main.c      ****                 if (win) {
 2168              		.loc 1 578 0
 2169 030e 3B7B     		ldrb	r3, [r7, #12]	@ zero_extendqisi2
 2170 0310 002B     		cmp	r3, #0
 2171 0312 4AD0     		beq	.L128
 2172              	.LBB12:
 579:.\main.c      ****                     LCD_UpdateMessage("You win!");
 2173              		.loc 1 579 0
 2174 0314 40F20000 		movw	r0, #:lower16:.LC29
 2175 0318 C0F20000 		movt	r0, #:upper16:.LC29
 2176 031c FFF7FEFF 		bl	LCD_UpdateMessage
 580:.\main.c      ****                     bool blink = false;
 2177              		.loc 1 580 0
 2178 0320 4FF00003 		mov	r3, #0
 2179 0324 7B73     		strb	r3, [r7, #13]
 2180              	.L140:
 581:.\main.c      ****                     while (true) {
 582:.\main.c      ****                         for (offset=0; win && offset < 4 ;++offset) {
 2181              		.loc 1 582 0
 2182 0326 4FF00003 		mov	r3, #0
 2183 032a 7B60     		str	r3, [r7, #4]
 2184 032c 2DE0     		b	.L135
 2185              	.L139:
 583:.\main.c      ****                             if (player1_turn) player1[row+offset][col+offset] = blink;
 2186              		.loc 1 583 0
 2187 032e 40F20003 		movw	r3, #:lower16:player1_turn
 2188 0332 C0F20003 		movt	r3, #:upper16:player1_turn
 2189 0336 1B78     		ldrb	r3, [r3, #0]	@ zero_extendqisi2
 2190 0338 002B     		cmp	r3, #0
 2191 033a 11D0     		beq	.L136
 2192 033c 3A78     		ldrb	r2, [r7, #0]	@ zero_extendqisi2
 2193 033e 7B68     		ldr	r3, [r7, #4]
 2194 0340 02EB0301 		add	r1, r2, r3
 2195 0344 7A78     		ldrb	r2, [r7, #1]	@ zero_extendqisi2
 2196 0346 7B68     		ldr	r3, [r7, #4]
 2197 0348 1A44     		add	r2, r2, r3
 2198 034a 40F20003 		movw	r3, #:lower16:player1
 2199 034e C0F20003 		movt	r3, #:upper16:player1
 2200 0352 4FEAC101 		lsl	r1, r1, #3
 2201 0356 0A44     		add	r2, r1, r2
 2202 0358 1344     		add	r3, r2, r3
 2203 035a 7A7B     		ldrb	r2, [r7, #13]
 2204 035c 1A70     		strb	r2, [r3, #0]
 2205 035e 10E0     		b	.L137
 2206              	.L136:
 584:.\main.c      ****                             else              player2[row+offset][col+offset] = blink;
 2207              		.loc 1 584 0
 2208 0360 3A78     		ldrb	r2, [r7, #0]	@ zero_extendqisi2
 2209 0362 7B68     		ldr	r3, [r7, #4]
 2210 0364 02EB0301 		add	r1, r2, r3
 2211 0368 7A78     		ldrb	r2, [r7, #1]	@ zero_extendqisi2
 2212 036a 7B68     		ldr	r3, [r7, #4]
 2213 036c 1A44     		add	r2, r2, r3
 2214 036e 40F20003 		movw	r3, #:lower16:player2
ARM GAS  C:\DOCUME~1\david\LOCALS~1\Temp\ccWbOjJF.s 			page 51


 2215 0372 C0F20003 		movt	r3, #:upper16:player2
 2216 0376 4FEAC101 		lsl	r1, r1, #3
 2217 037a 0A44     		add	r2, r1, r2
 2218 037c 1344     		add	r3, r2, r3
 2219 037e 7A7B     		ldrb	r2, [r7, #13]
 2220 0380 1A70     		strb	r2, [r3, #0]
 2221              	.L137:
 2222              		.loc 1 582 0
 2223 0382 7B68     		ldr	r3, [r7, #4]
 2224 0384 03F10103 		add	r3, r3, #1
 2225 0388 7B60     		str	r3, [r7, #4]
 2226              	.L135:
 2227 038a 3B7B     		ldrb	r3, [r7, #12]	@ zero_extendqisi2
 2228 038c 002B     		cmp	r3, #0
 2229 038e 02D0     		beq	.L138
 2230 0390 7B68     		ldr	r3, [r7, #4]
 2231 0392 032B     		cmp	r3, #3
 2232 0394 CBDD     		ble	.L139
 2233              	.L138:
 585:.\main.c      ****                         }
 586:.\main.c      ****                         CyDelay(strobe);
 2234              		.loc 1 586 0
 2235 0396 7B88     		ldrh	r3, [r7, #2]
 2236 0398 1846     		mov	r0, r3
 2237 039a FFF7FEFF 		bl	CyDelay
 587:.\main.c      ****                         blink = !blink;
 2238              		.loc 1 587 0
 2239 039e 7B7B     		ldrb	r3, [r7, #13]
 2240 03a0 83F00103 		eor	r3, r3, #1
 2241 03a4 DBB2     		uxtb	r3, r3
 2242 03a6 7B73     		strb	r3, [r7, #13]
 588:.\main.c      ****                     }
 2243              		.loc 1 588 0
 2244 03a8 BDE7     		b	.L140
 2245              	.L128:
 2246              	.LBE12:
 2247              	.LBE11:
 589:.\main.c      ****                 }
 590:.\main.c      ****             }
 591:.\main.c      ****             
 592:.\main.c      ****             //up-diagonal
 593:.\main.c      ****             if (row > 3 && col < MATRIX_COLS-3) {
 2248              		.loc 1 593 0
 2249 03aa 3B78     		ldrb	r3, [r7, #0]	@ zero_extendqisi2
 2250 03ac 032B     		cmp	r3, #3
 2251 03ae 40F29D80 		bls	.L141
 2252 03b2 7B78     		ldrb	r3, [r7, #1]	@ zero_extendqisi2
 2253 03b4 042B     		cmp	r3, #4
 2254 03b6 00F29980 		bhi	.L141
 2255              	.LBB13:
 594:.\main.c      ****                 bool win = true;
 2256              		.loc 1 594 0
 2257 03ba 4FF00103 		mov	r3, #1
 2258 03be BB73     		strb	r3, [r7, #14]
 595:.\main.c      ****                 for (offset=0; win && offset < 4 ;++offset) {
 2259              		.loc 1 595 0
 2260 03c0 4FF00003 		mov	r3, #0
ARM GAS  C:\DOCUME~1\david\LOCALS~1\Temp\ccWbOjJF.s 			page 52


 2261 03c4 7B60     		str	r3, [r7, #4]
 2262 03c6 3DE0     		b	.L142
 2263              	.L147:
 596:.\main.c      ****                     if (player1_turn) { if (!player1[row-offset][col+offset]) win = false; }
 2264              		.loc 1 596 0
 2265 03c8 40F20003 		movw	r3, #:lower16:player1_turn
 2266 03cc C0F20003 		movt	r3, #:upper16:player1_turn
 2267 03d0 1B78     		ldrb	r3, [r3, #0]	@ zero_extendqisi2
 2268 03d2 002B     		cmp	r3, #0
 2269 03d4 18D0     		beq	.L143
 2270 03d6 3A78     		ldrb	r2, [r7, #0]	@ zero_extendqisi2
 2271 03d8 7B68     		ldr	r3, [r7, #4]
 2272 03da C3EB0201 		rsb	r1, r3, r2
 2273 03de 7A78     		ldrb	r2, [r7, #1]	@ zero_extendqisi2
 2274 03e0 7B68     		ldr	r3, [r7, #4]
 2275 03e2 1A44     		add	r2, r2, r3
 2276 03e4 40F20003 		movw	r3, #:lower16:player1
 2277 03e8 C0F20003 		movt	r3, #:upper16:player1
 2278 03ec 4FEAC101 		lsl	r1, r1, #3
 2279 03f0 0A44     		add	r2, r1, r2
 2280 03f2 1344     		add	r3, r2, r3
 2281 03f4 1B78     		ldrb	r3, [r3, #0]	@ zero_extendqisi2
 2282 03f6 83F00103 		eor	r3, r3, #1
 2283 03fa DBB2     		uxtb	r3, r3
 2284 03fc 002B     		cmp	r3, #0
 2285 03fe 1CD0     		beq	.L160
 2286 0400 4FF00003 		mov	r3, #0
 2287 0404 BB73     		strb	r3, [r7, #14]
 2288 0406 19E0     		b	.L145
 2289              	.L143:
 597:.\main.c      ****                     else              { if (!player2[row-offset][col+offset]) win = false; }
 2290              		.loc 1 597 0
 2291 0408 3A78     		ldrb	r2, [r7, #0]	@ zero_extendqisi2
 2292 040a 7B68     		ldr	r3, [r7, #4]
 2293 040c C3EB0201 		rsb	r1, r3, r2
 2294 0410 7A78     		ldrb	r2, [r7, #1]	@ zero_extendqisi2
 2295 0412 7B68     		ldr	r3, [r7, #4]
 2296 0414 1A44     		add	r2, r2, r3
 2297 0416 40F20003 		movw	r3, #:lower16:player2
 2298 041a C0F20003 		movt	r3, #:upper16:player2
 2299 041e 4FEAC101 		lsl	r1, r1, #3
 2300 0422 0A44     		add	r2, r1, r2
 2301 0424 1344     		add	r3, r2, r3
 2302 0426 1B78     		ldrb	r3, [r3, #0]	@ zero_extendqisi2
 2303 0428 83F00103 		eor	r3, r3, #1
 2304 042c DBB2     		uxtb	r3, r3
 2305 042e 002B     		cmp	r3, #0
 2306 0430 04D0     		beq	.L145
 2307 0432 4FF00003 		mov	r3, #0
 2308 0436 BB73     		strb	r3, [r7, #14]
 2309 0438 00E0     		b	.L145
 2310              	.L160:
 2311              		.loc 1 596 0
 2312 043a 00BF     		nop
 2313              	.L145:
 2314              		.loc 1 595 0
 2315 043c 7B68     		ldr	r3, [r7, #4]
ARM GAS  C:\DOCUME~1\david\LOCALS~1\Temp\ccWbOjJF.s 			page 53


 2316 043e 03F10103 		add	r3, r3, #1
 2317 0442 7B60     		str	r3, [r7, #4]
 2318              	.L142:
 2319 0444 BB7B     		ldrb	r3, [r7, #14]	@ zero_extendqisi2
 2320 0446 002B     		cmp	r3, #0
 2321 0448 02D0     		beq	.L146
 2322 044a 7B68     		ldr	r3, [r7, #4]
 2323 044c 032B     		cmp	r3, #3
 2324 044e BBDD     		ble	.L147
 2325              	.L146:
 598:.\main.c      ****                 }
 599:.\main.c      ****                 if (win) {
 2326              		.loc 1 599 0
 2327 0450 BB7B     		ldrb	r3, [r7, #14]	@ zero_extendqisi2
 2328 0452 002B     		cmp	r3, #0
 2329 0454 4AD0     		beq	.L141
 2330              	.LBB14:
 600:.\main.c      ****                     LCD_UpdateMessage("You win!");
 2331              		.loc 1 600 0
 2332 0456 40F20000 		movw	r0, #:lower16:.LC29
 2333 045a C0F20000 		movt	r0, #:upper16:.LC29
 2334 045e FFF7FEFF 		bl	LCD_UpdateMessage
 601:.\main.c      ****                     bool blink = false;
 2335              		.loc 1 601 0
 2336 0462 4FF00003 		mov	r3, #0
 2337 0466 FB73     		strb	r3, [r7, #15]
 2338              	.L153:
 602:.\main.c      ****                     while (true) {
 603:.\main.c      ****                         for (offset=0; win && offset < 4 ;++offset) {
 2339              		.loc 1 603 0
 2340 0468 4FF00003 		mov	r3, #0
 2341 046c 7B60     		str	r3, [r7, #4]
 2342 046e 2DE0     		b	.L148
 2343              	.L152:
 604:.\main.c      ****                             if (player1_turn) player1[row-offset][col+offset] = blink;
 2344              		.loc 1 604 0
 2345 0470 40F20003 		movw	r3, #:lower16:player1_turn
 2346 0474 C0F20003 		movt	r3, #:upper16:player1_turn
 2347 0478 1B78     		ldrb	r3, [r3, #0]	@ zero_extendqisi2
 2348 047a 002B     		cmp	r3, #0
 2349 047c 11D0     		beq	.L149
 2350 047e 3A78     		ldrb	r2, [r7, #0]	@ zero_extendqisi2
 2351 0480 7B68     		ldr	r3, [r7, #4]
 2352 0482 C3EB0201 		rsb	r1, r3, r2
 2353 0486 7A78     		ldrb	r2, [r7, #1]	@ zero_extendqisi2
 2354 0488 7B68     		ldr	r3, [r7, #4]
 2355 048a 1A44     		add	r2, r2, r3
 2356 048c 40F20003 		movw	r3, #:lower16:player1
 2357 0490 C0F20003 		movt	r3, #:upper16:player1
 2358 0494 4FEAC101 		lsl	r1, r1, #3
 2359 0498 0A44     		add	r2, r1, r2
 2360 049a 1344     		add	r3, r2, r3
 2361 049c FA7B     		ldrb	r2, [r7, #15]
 2362 049e 1A70     		strb	r2, [r3, #0]
 2363 04a0 10E0     		b	.L150
 2364              	.L149:
 605:.\main.c      ****                             else              player2[row-offset][col+offset] = blink;
ARM GAS  C:\DOCUME~1\david\LOCALS~1\Temp\ccWbOjJF.s 			page 54


 2365              		.loc 1 605 0
 2366 04a2 3A78     		ldrb	r2, [r7, #0]	@ zero_extendqisi2
 2367 04a4 7B68     		ldr	r3, [r7, #4]
 2368 04a6 C3EB0201 		rsb	r1, r3, r2
 2369 04aa 7A78     		ldrb	r2, [r7, #1]	@ zero_extendqisi2
 2370 04ac 7B68     		ldr	r3, [r7, #4]
 2371 04ae 1A44     		add	r2, r2, r3
 2372 04b0 40F20003 		movw	r3, #:lower16:player2
 2373 04b4 C0F20003 		movt	r3, #:upper16:player2
 2374 04b8 4FEAC101 		lsl	r1, r1, #3
 2375 04bc 0A44     		add	r2, r1, r2
 2376 04be 1344     		add	r3, r2, r3
 2377 04c0 FA7B     		ldrb	r2, [r7, #15]
 2378 04c2 1A70     		strb	r2, [r3, #0]
 2379              	.L150:
 2380              		.loc 1 603 0
 2381 04c4 7B68     		ldr	r3, [r7, #4]
 2382 04c6 03F10103 		add	r3, r3, #1
 2383 04ca 7B60     		str	r3, [r7, #4]
 2384              	.L148:
 2385 04cc BB7B     		ldrb	r3, [r7, #14]	@ zero_extendqisi2
 2386 04ce 002B     		cmp	r3, #0
 2387 04d0 02D0     		beq	.L151
 2388 04d2 7B68     		ldr	r3, [r7, #4]
 2389 04d4 032B     		cmp	r3, #3
 2390 04d6 CBDD     		ble	.L152
 2391              	.L151:
 606:.\main.c      ****                         }
 607:.\main.c      ****                         CyDelay(strobe);
 2392              		.loc 1 607 0
 2393 04d8 7B88     		ldrh	r3, [r7, #2]
 2394 04da 1846     		mov	r0, r3
 2395 04dc FFF7FEFF 		bl	CyDelay
 608:.\main.c      ****                         blink = !blink;
 2396              		.loc 1 608 0
 2397 04e0 FB7B     		ldrb	r3, [r7, #15]
 2398 04e2 83F00103 		eor	r3, r3, #1
 2399 04e6 DBB2     		uxtb	r3, r3
 2400 04e8 FB73     		strb	r3, [r7, #15]
 609:.\main.c      ****                     }
 2401              		.loc 1 609 0
 2402 04ea BDE7     		b	.L153
 2403              	.L141:
 2404              	.LBE14:
 2405              	.LBE13:
 2406              	.LBE6:
 2407              		.loc 1 526 0
 2408 04ec 7B78     		ldrb	r3, [r7, #1]
 2409 04ee 03F10103 		add	r3, r3, #1
 2410 04f2 7B70     		strb	r3, [r7, #1]
 2411              	.L101:
 2412 04f4 7B78     		ldrb	r3, [r7, #1]	@ zero_extendqisi2
 2413 04f6 072B     		cmp	r3, #7
 2414 04f8 7FF690AD 		bls	.L154
 2415              		.loc 1 525 0
 2416 04fc 3B78     		ldrb	r3, [r7, #0]
 2417 04fe 03F10103 		add	r3, r3, #1
ARM GAS  C:\DOCUME~1\david\LOCALS~1\Temp\ccWbOjJF.s 			page 55


 2418 0502 3B70     		strb	r3, [r7, #0]
 2419              	.L100:
 2420 0504 3B78     		ldrb	r3, [r7, #0]	@ zero_extendqisi2
 2421 0506 072B     		cmp	r3, #7
 2422 0508 7FF684AD 		bls	.L155
 610:.\main.c      ****                 }
 611:.\main.c      ****             }  
 612:.\main.c      ****         }
 613:.\main.c      ****     }
 614:.\main.c      **** }
 2423              		.loc 1 614 0
 2424 050c 07F11007 		add	r7, r7, #16
 2425 0510 BD46     		mov	sp, r7
 2426 0512 80BD     		pop	{r7, pc}
 2427              		.cfi_endproc
 2428              	.LFE41:
 2429              		.size	winner_check, .-winner_check
 2430              		.section	.rodata
 2431 0135 000000   		.align	2
 2432              	.LC30:
 2433 0138 636C6561 		.ascii	"cleaning...\000"
 2433      6E696E67 
 2433      2E2E2E00 
 2434              		.section	.text.cleanup,"ax",%progbits
 2435              		.align	2
 2436              		.global	cleanup
 2437              		.thumb
 2438              		.thumb_func
 2439              		.type	cleanup, %function
 2440              	cleanup:
 2441              	.LFB42:
 615:.\main.c      **** 
 616:.\main.c      **** 
 617:.\main.c      **** 
 618:.\main.c      **** 
 619:.\main.c      **** void cleanup () {
 2442              		.loc 1 619 0
 2443              		.cfi_startproc
 2444              		@ args = 0, pretend = 0, frame = 0
 2445              		@ frame_needed = 1, uses_anonymous_args = 0
 2446 0000 80B5     		push	{r7, lr}
 2447              	.LCFI37:
 2448              		.cfi_def_cfa_offset 8
 2449 0002 00AF     		add	r7, sp, #0
 2450              		.cfi_offset 14, -4
 2451              		.cfi_offset 7, -8
 2452              	.LCFI38:
 2453              		.cfi_def_cfa_register 7
 620:.\main.c      ****     LCD_UpdateStatus("cleaning...");
 2454              		.loc 1 620 0
 2455 0004 40F20000 		movw	r0, #:lower16:.LC30
 2456 0008 C0F20000 		movt	r0, #:upper16:.LC30
 2457 000c FFF7FEFF 		bl	LCD_UpdateStatus
 621:.\main.c      ****     
 622:.\main.c      ****     LCD_UpdateMessage("display");
 2458              		.loc 1 622 0
 2459 0010 40F20000 		movw	r0, #:lower16:.LC14
ARM GAS  C:\DOCUME~1\david\LOCALS~1\Temp\ccWbOjJF.s 			page 56


 2460 0014 C0F20000 		movt	r0, #:upper16:.LC14
 2461 0018 FFF7FEFF 		bl	LCD_UpdateMessage
 623:.\main.c      ****     Beam_Stop();
 2462              		.loc 1 623 0
 2463 001c FFF7FEFF 		bl	Beam_Stop
 624:.\main.c      ****     
 625:.\main.c      ****     if (!player2_local) {
 2464              		.loc 1 625 0
 2465 0020 40F20003 		movw	r3, #:lower16:player2_local
 2466 0024 C0F20003 		movt	r3, #:upper16:player2_local
 2467 0028 1B78     		ldrb	r3, [r3, #0]	@ zero_extendqisi2
 2468 002a 83F00103 		eor	r3, r3, #1
 2469 002e DBB2     		uxtb	r3, r3
 2470 0030 002B     		cmp	r3, #0
 2471 0032 07D0     		beq	.L162
 626:.\main.c      ****         LCD_UpdateMessage("UART");
 2472              		.loc 1 626 0
 2473 0034 40F20000 		movw	r0, #:lower16:.LC12
 2474 0038 C0F20000 		movt	r0, #:upper16:.LC12
 2475 003c FFF7FEFF 		bl	LCD_UpdateMessage
 627:.\main.c      ****         UART_Stop();
 2476              		.loc 1 627 0
 2477 0040 FFF7FEFF 		bl	UART_Stop
 2478              	.L162:
 628:.\main.c      ****     }
 629:.\main.c      ****     
 630:.\main.c      ****     LCD_UpdateMessage("CapSense");
 2479              		.loc 1 630 0
 2480 0044 40F20000 		movw	r0, #:lower16:.LC8
 2481 0048 C0F20000 		movt	r0, #:upper16:.LC8
 2482 004c FFF7FEFF 		bl	LCD_UpdateMessage
 631:.\main.c      ****     CapSense_Stop();
 2483              		.loc 1 631 0
 2484 0050 FFF7FEFF 		bl	CapSense_Stop
 632:.\main.c      ****     
 633:.\main.c      ****     LCD_UpdateMessage("timer");
 2485              		.loc 1 633 0
 2486 0054 40F20000 		movw	r0, #:lower16:.LC7
 2487 0058 C0F20000 		movt	r0, #:upper16:.LC7
 2488 005c FFF7FEFF 		bl	LCD_UpdateMessage
 634:.\main.c      ****     Timer_Stop();
 2489              		.loc 1 634 0
 2490 0060 FFF7FEFF 		bl	Timer_Stop
 635:.\main.c      ****     
 636:.\main.c      ****     LCD_UpdateMessage("matrix");
 2491              		.loc 1 636 0
 2492 0064 40F20000 		movw	r0, #:lower16:.LC5
 2493 0068 C0F20000 		movt	r0, #:upper16:.LC5
 2494 006c FFF7FEFF 		bl	LCD_UpdateMessage
 637:.\main.c      ****     matrix_deluminate();
 2495              		.loc 1 637 0
 2496 0070 FFF7FEFF 		bl	matrix_deluminate
 638:.\main.c      ****     
 639:.\main.c      ****     LCD_UpdateMessage("board");
 2497              		.loc 1 639 0
 2498 0074 40F20000 		movw	r0, #:lower16:.LC4
 2499 0078 C0F20000 		movt	r0, #:upper16:.LC4
ARM GAS  C:\DOCUME~1\david\LOCALS~1\Temp\ccWbOjJF.s 			page 57


 2500 007c FFF7FEFF 		bl	LCD_UpdateMessage
 640:.\main.c      ****     clear_board();
 2501              		.loc 1 640 0
 2502 0080 FFF7FEFF 		bl	clear_board
 641:.\main.c      ****     
 642:.\main.c      ****     LCD_Stop();
 2503              		.loc 1 642 0
 2504 0084 FFF7FEFF 		bl	LCD_Stop
 643:.\main.c      **** }
 2505              		.loc 1 643 0
 2506 0088 80BD     		pop	{r7, pc}
 2507              		.cfi_endproc
 2508              	.LFE42:
 2509              		.size	cleanup, .-cleanup
 2510 008a 00BF     		.text
 2511              	.Letext0:
 2512              		.section	.debug_loc,"",%progbits
 2513              	.Ldebug_loc0:
 2514              	.LLST0:
 2515 0000 00000000 		.4byte	.LFB29
 2516 0004 02000000 		.4byte	.LCFI0
 2517 0008 0100     		.2byte	0x1
 2518 000a 5D       		.byte	0x5d
 2519 000b 02000000 		.4byte	.LCFI0
 2520 000f 04000000 		.4byte	.LCFI1
 2521 0013 0200     		.2byte	0x2
 2522 0015 7D       		.byte	0x7d
 2523 0016 04       		.sleb128 4
 2524 0017 04000000 		.4byte	.LCFI1
 2525 001b 34000000 		.4byte	.LFE29
 2526 001f 0200     		.2byte	0x2
 2527 0021 77       		.byte	0x77
 2528 0022 04       		.sleb128 4
 2529 0023 00000000 		.4byte	0x0
 2530 0027 00000000 		.4byte	0x0
 2531              	.LLST1:
 2532 002b 00000000 		.4byte	.LFB30
 2533 002f 02000000 		.4byte	.LCFI2
 2534 0033 0100     		.2byte	0x1
 2535 0035 5D       		.byte	0x5d
 2536 0036 02000000 		.4byte	.LCFI2
 2537 003a 04000000 		.4byte	.LCFI3
 2538 003e 0200     		.2byte	0x2
 2539 0040 7D       		.byte	0x7d
 2540 0041 08       		.sleb128 8
 2541 0042 04000000 		.4byte	.LCFI3
 2542 0046 06000000 		.4byte	.LCFI4
 2543 004a 0200     		.2byte	0x2
 2544 004c 7D       		.byte	0x7d
 2545 004d 10       		.sleb128 16
 2546 004e 06000000 		.4byte	.LCFI4
 2547 0052 58010000 		.4byte	.LFE30
 2548 0056 0200     		.2byte	0x2
 2549 0058 77       		.byte	0x77
 2550 0059 10       		.sleb128 16
 2551 005a 00000000 		.4byte	0x0
 2552 005e 00000000 		.4byte	0x0
ARM GAS  C:\DOCUME~1\david\LOCALS~1\Temp\ccWbOjJF.s 			page 58


 2553              	.LLST2:
 2554 0062 00000000 		.4byte	.LFB31
 2555 0066 02000000 		.4byte	.LCFI5
 2556 006a 0100     		.2byte	0x1
 2557 006c 5D       		.byte	0x5d
 2558 006d 02000000 		.4byte	.LCFI5
 2559 0071 04000000 		.4byte	.LCFI6
 2560 0075 0200     		.2byte	0x2
 2561 0077 7D       		.byte	0x7d
 2562 0078 08       		.sleb128 8
 2563 0079 04000000 		.4byte	.LCFI6
 2564 007d 06000000 		.4byte	.LCFI7
 2565 0081 0200     		.2byte	0x2
 2566 0083 7D       		.byte	0x7d
 2567 0084 10       		.sleb128 16
 2568 0085 06000000 		.4byte	.LCFI7
 2569 0089 E0000000 		.4byte	.LFE31
 2570 008d 0200     		.2byte	0x2
 2571 008f 77       		.byte	0x77
 2572 0090 10       		.sleb128 16
 2573 0091 00000000 		.4byte	0x0
 2574 0095 00000000 		.4byte	0x0
 2575              	.LLST3:
 2576 0099 00000000 		.4byte	.LFB32
 2577 009d 02000000 		.4byte	.LCFI8
 2578 00a1 0100     		.2byte	0x1
 2579 00a3 5D       		.byte	0x5d
 2580 00a4 02000000 		.4byte	.LCFI8
 2581 00a8 04000000 		.4byte	.LCFI9
 2582 00ac 0200     		.2byte	0x2
 2583 00ae 7D       		.byte	0x7d
 2584 00af 08       		.sleb128 8
 2585 00b0 04000000 		.4byte	.LCFI9
 2586 00b4 06000000 		.4byte	.LCFI10
 2587 00b8 0200     		.2byte	0x2
 2588 00ba 7D       		.byte	0x7d
 2589 00bb 10       		.sleb128 16
 2590 00bc 06000000 		.4byte	.LCFI10
 2591 00c0 7C010000 		.4byte	.LFE32
 2592 00c4 0200     		.2byte	0x2
 2593 00c6 77       		.byte	0x77
 2594 00c7 10       		.sleb128 16
 2595 00c8 00000000 		.4byte	0x0
 2596 00cc 00000000 		.4byte	0x0
 2597              	.LLST4:
 2598 00d0 00000000 		.4byte	.LFB33
 2599 00d4 02000000 		.4byte	.LCFI11
 2600 00d8 0100     		.2byte	0x1
 2601 00da 5D       		.byte	0x5d
 2602 00db 02000000 		.4byte	.LCFI11
 2603 00df 04000000 		.4byte	.LCFI12
 2604 00e3 0200     		.2byte	0x2
 2605 00e5 7D       		.byte	0x7d
 2606 00e6 04       		.sleb128 4
 2607 00e7 04000000 		.4byte	.LCFI12
 2608 00eb 06000000 		.4byte	.LCFI13
 2609 00ef 0200     		.2byte	0x2
ARM GAS  C:\DOCUME~1\david\LOCALS~1\Temp\ccWbOjJF.s 			page 59


 2610 00f1 7D       		.byte	0x7d
 2611 00f2 10       		.sleb128 16
 2612 00f3 06000000 		.4byte	.LCFI13
 2613 00f7 70000000 		.4byte	.LFE33
 2614 00fb 0200     		.2byte	0x2
 2615 00fd 77       		.byte	0x77
 2616 00fe 10       		.sleb128 16
 2617 00ff 00000000 		.4byte	0x0
 2618 0103 00000000 		.4byte	0x0
 2619              	.LLST5:
 2620 0107 00000000 		.4byte	.LFB34
 2621 010b 02000000 		.4byte	.LCFI14
 2622 010f 0100     		.2byte	0x1
 2623 0111 5D       		.byte	0x5d
 2624 0112 02000000 		.4byte	.LCFI14
 2625 0116 04000000 		.4byte	.LCFI15
 2626 011a 0200     		.2byte	0x2
 2627 011c 7D       		.byte	0x7d
 2628 011d 08       		.sleb128 8
 2629 011e 04000000 		.4byte	.LCFI15
 2630 0122 7E010000 		.4byte	.LFE34
 2631 0126 0200     		.2byte	0x2
 2632 0128 77       		.byte	0x77
 2633 0129 08       		.sleb128 8
 2634 012a 00000000 		.4byte	0x0
 2635 012e 00000000 		.4byte	0x0
 2636              	.LLST6:
 2637 0132 00000000 		.4byte	.LFB35
 2638 0136 02000000 		.4byte	.LCFI16
 2639 013a 0100     		.2byte	0x1
 2640 013c 5D       		.byte	0x5d
 2641 013d 02000000 		.4byte	.LCFI16
 2642 0141 04000000 		.4byte	.LCFI17
 2643 0145 0200     		.2byte	0x2
 2644 0147 7D       		.byte	0x7d
 2645 0148 08       		.sleb128 8
 2646 0149 04000000 		.4byte	.LCFI17
 2647 014d 06000000 		.4byte	.LCFI18
 2648 0151 0200     		.2byte	0x2
 2649 0153 7D       		.byte	0x7d
 2650 0154 18       		.sleb128 24
 2651 0155 06000000 		.4byte	.LCFI18
 2652 0159 02020000 		.4byte	.LFE35
 2653 015d 0200     		.2byte	0x2
 2654 015f 77       		.byte	0x77
 2655 0160 18       		.sleb128 24
 2656 0161 00000000 		.4byte	0x0
 2657 0165 00000000 		.4byte	0x0
 2658              	.LLST7:
 2659 0169 00000000 		.4byte	.LFB36
 2660 016d 02000000 		.4byte	.LCFI19
 2661 0171 0100     		.2byte	0x1
 2662 0173 5D       		.byte	0x5d
 2663 0174 02000000 		.4byte	.LCFI19
 2664 0178 04000000 		.4byte	.LCFI20
 2665 017c 0200     		.2byte	0x2
 2666 017e 7D       		.byte	0x7d
ARM GAS  C:\DOCUME~1\david\LOCALS~1\Temp\ccWbOjJF.s 			page 60


 2667 017f 08       		.sleb128 8
 2668 0180 04000000 		.4byte	.LCFI20
 2669 0184 06000000 		.4byte	.LCFI21
 2670 0188 0200     		.2byte	0x2
 2671 018a 7D       		.byte	0x7d
 2672 018b 10       		.sleb128 16
 2673 018c 06000000 		.4byte	.LCFI21
 2674 0190 60000000 		.4byte	.LFE36
 2675 0194 0200     		.2byte	0x2
 2676 0196 77       		.byte	0x77
 2677 0197 10       		.sleb128 16
 2678 0198 00000000 		.4byte	0x0
 2679 019c 00000000 		.4byte	0x0
 2680              	.LLST8:
 2681 01a0 00000000 		.4byte	.LFB37
 2682 01a4 02000000 		.4byte	.LCFI22
 2683 01a8 0100     		.2byte	0x1
 2684 01aa 5D       		.byte	0x5d
 2685 01ab 02000000 		.4byte	.LCFI22
 2686 01af 04000000 		.4byte	.LCFI23
 2687 01b3 0200     		.2byte	0x2
 2688 01b5 7D       		.byte	0x7d
 2689 01b6 08       		.sleb128 8
 2690 01b7 04000000 		.4byte	.LCFI23
 2691 01bb 06000000 		.4byte	.LCFI24
 2692 01bf 0200     		.2byte	0x2
 2693 01c1 7D       		.byte	0x7d
 2694 01c2 18       		.sleb128 24
 2695 01c3 06000000 		.4byte	.LCFI24
 2696 01c7 0C010000 		.4byte	.LFE37
 2697 01cb 0200     		.2byte	0x2
 2698 01cd 77       		.byte	0x77
 2699 01ce 18       		.sleb128 24
 2700 01cf 00000000 		.4byte	0x0
 2701 01d3 00000000 		.4byte	0x0
 2702              	.LLST9:
 2703 01d7 00000000 		.4byte	.LFB38
 2704 01db 02000000 		.4byte	.LCFI25
 2705 01df 0100     		.2byte	0x1
 2706 01e1 5D       		.byte	0x5d
 2707 01e2 02000000 		.4byte	.LCFI25
 2708 01e6 04000000 		.4byte	.LCFI26
 2709 01ea 0200     		.2byte	0x2
 2710 01ec 7D       		.byte	0x7d
 2711 01ed 08       		.sleb128 8
 2712 01ee 04000000 		.4byte	.LCFI26
 2713 01f2 06000000 		.4byte	.LCFI27
 2714 01f6 0200     		.2byte	0x2
 2715 01f8 7D       		.byte	0x7d
 2716 01f9 20       		.sleb128 32
 2717 01fa 06000000 		.4byte	.LCFI27
 2718 01fe F8000000 		.4byte	.LFE38
 2719 0202 0200     		.2byte	0x2
 2720 0204 77       		.byte	0x77
 2721 0205 20       		.sleb128 32
 2722 0206 00000000 		.4byte	0x0
 2723 020a 00000000 		.4byte	0x0
ARM GAS  C:\DOCUME~1\david\LOCALS~1\Temp\ccWbOjJF.s 			page 61


 2724              	.LLST10:
 2725 020e 00000000 		.4byte	.LFB39
 2726 0212 02000000 		.4byte	.LCFI28
 2727 0216 0100     		.2byte	0x1
 2728 0218 5D       		.byte	0x5d
 2729 0219 02000000 		.4byte	.LCFI28
 2730 021d 04000000 		.4byte	.LCFI29
 2731 0221 0200     		.2byte	0x2
 2732 0223 7D       		.byte	0x7d
 2733 0224 08       		.sleb128 8
 2734 0225 04000000 		.4byte	.LCFI29
 2735 0229 06000000 		.4byte	.LCFI30
 2736 022d 0200     		.2byte	0x2
 2737 022f 7D       		.byte	0x7d
 2738 0230 10       		.sleb128 16
 2739 0231 06000000 		.4byte	.LCFI30
 2740 0235 3A000000 		.4byte	.LFE39
 2741 0239 0200     		.2byte	0x2
 2742 023b 77       		.byte	0x77
 2743 023c 10       		.sleb128 16
 2744 023d 00000000 		.4byte	0x0
 2745 0241 00000000 		.4byte	0x0
 2746              	.LLST11:
 2747 0245 00000000 		.4byte	.LFB40
 2748 0249 02000000 		.4byte	.LCFI31
 2749 024d 0100     		.2byte	0x1
 2750 024f 5D       		.byte	0x5d
 2751 0250 02000000 		.4byte	.LCFI31
 2752 0254 04000000 		.4byte	.LCFI32
 2753 0258 0200     		.2byte	0x2
 2754 025a 7D       		.byte	0x7d
 2755 025b 08       		.sleb128 8
 2756 025c 04000000 		.4byte	.LCFI32
 2757 0260 06000000 		.4byte	.LCFI33
 2758 0264 0200     		.2byte	0x2
 2759 0266 7D       		.byte	0x7d
 2760 0267 18       		.sleb128 24
 2761 0268 06000000 		.4byte	.LCFI33
 2762 026c FE000000 		.4byte	.LFE40
 2763 0270 0200     		.2byte	0x2
 2764 0272 77       		.byte	0x77
 2765 0273 18       		.sleb128 24
 2766 0274 00000000 		.4byte	0x0
 2767 0278 00000000 		.4byte	0x0
 2768              	.LLST12:
 2769 027c 00000000 		.4byte	.LFB41
 2770 0280 02000000 		.4byte	.LCFI34
 2771 0284 0100     		.2byte	0x1
 2772 0286 5D       		.byte	0x5d
 2773 0287 02000000 		.4byte	.LCFI34
 2774 028b 04000000 		.4byte	.LCFI35
 2775 028f 0200     		.2byte	0x2
 2776 0291 7D       		.byte	0x7d
 2777 0292 08       		.sleb128 8
 2778 0293 04000000 		.4byte	.LCFI35
 2779 0297 06000000 		.4byte	.LCFI36
 2780 029b 0200     		.2byte	0x2
ARM GAS  C:\DOCUME~1\david\LOCALS~1\Temp\ccWbOjJF.s 			page 62


 2781 029d 7D       		.byte	0x7d
 2782 029e 18       		.sleb128 24
 2783 029f 06000000 		.4byte	.LCFI36
 2784 02a3 14050000 		.4byte	.LFE41
 2785 02a7 0200     		.2byte	0x2
 2786 02a9 77       		.byte	0x77
 2787 02aa 18       		.sleb128 24
 2788 02ab 00000000 		.4byte	0x0
 2789 02af 00000000 		.4byte	0x0
 2790              	.LLST13:
 2791 02b3 00000000 		.4byte	.LFB42
 2792 02b7 02000000 		.4byte	.LCFI37
 2793 02bb 0100     		.2byte	0x1
 2794 02bd 5D       		.byte	0x5d
 2795 02be 02000000 		.4byte	.LCFI37
 2796 02c2 04000000 		.4byte	.LCFI38
 2797 02c6 0200     		.2byte	0x2
 2798 02c8 7D       		.byte	0x7d
 2799 02c9 08       		.sleb128 8
 2800 02ca 04000000 		.4byte	.LCFI38
 2801 02ce 8A000000 		.4byte	.LFE42
 2802 02d2 0200     		.2byte	0x2
 2803 02d4 77       		.byte	0x77
 2804 02d5 08       		.sleb128 8
 2805 02d6 00000000 		.4byte	0x0
 2806 02da 00000000 		.4byte	0x0
 2807              		.file 2 "./Generated_Source/PSoC5/cytypes.h"
 2808              		.file 3 "./Generated_Source/PSoC5/core_cm3.h"
 2809              		.section	.debug_info
 2810 0000 E1050000 		.4byte	0x5e1
 2811 0004 0200     		.2byte	0x2
 2812 0006 00000000 		.4byte	.Ldebug_abbrev0
 2813 000a 04       		.byte	0x4
 2814 000b 01       		.uleb128 0x1
 2815 000c 48020000 		.4byte	.LASF55
 2816 0010 01       		.byte	0x1
 2817 0011 1B020000 		.4byte	.LASF56
 2818 0015 7C000000 		.4byte	.LASF57
 2819 0019 00000000 		.4byte	0x0
 2820 001d 00000000 		.4byte	0x0
 2821 0021 00000000 		.4byte	.Ldebug_ranges0+0x0
 2822 0025 00000000 		.4byte	.Ldebug_line0
 2823 0029 02       		.uleb128 0x2
 2824 002a 01       		.byte	0x1
 2825 002b 06       		.byte	0x6
 2826 002c 3E010000 		.4byte	.LASF0
 2827 0030 02       		.uleb128 0x2
 2828 0031 01       		.byte	0x1
 2829 0032 08       		.byte	0x8
 2830 0033 28010000 		.4byte	.LASF1
 2831 0037 02       		.uleb128 0x2
 2832 0038 02       		.byte	0x2
 2833 0039 05       		.byte	0x5
 2834 003a 25000000 		.4byte	.LASF2
 2835 003e 02       		.uleb128 0x2
 2836 003f 02       		.byte	0x2
 2837 0040 07       		.byte	0x7
ARM GAS  C:\DOCUME~1\david\LOCALS~1\Temp\ccWbOjJF.s 			page 63


 2838 0041 9A010000 		.4byte	.LASF3
 2839 0045 02       		.uleb128 0x2
 2840 0046 04       		.byte	0x4
 2841 0047 05       		.byte	0x5
 2842 0048 DF000000 		.4byte	.LASF4
 2843 004c 02       		.uleb128 0x2
 2844 004d 04       		.byte	0x4
 2845 004e 07       		.byte	0x7
 2846 004f F4010000 		.4byte	.LASF5
 2847 0053 02       		.uleb128 0x2
 2848 0054 08       		.byte	0x8
 2849 0055 05       		.byte	0x5
 2850 0056 B8000000 		.4byte	.LASF6
 2851 005a 02       		.uleb128 0x2
 2852 005b 08       		.byte	0x8
 2853 005c 07       		.byte	0x7
 2854 005d 4F010000 		.4byte	.LASF7
 2855 0061 03       		.uleb128 0x3
 2856 0062 04       		.byte	0x4
 2857 0063 05       		.byte	0x5
 2858 0064 696E7400 		.ascii	"int\000"
 2859 0068 02       		.uleb128 0x2
 2860 0069 04       		.byte	0x4
 2861 006a 07       		.byte	0x7
 2862 006b 74010000 		.4byte	.LASF8
 2863 006f 04       		.uleb128 0x4
 2864 0070 67000000 		.4byte	.LASF9
 2865 0074 02       		.byte	0x2
 2866 0075 4C       		.byte	0x4c
 2867 0076 30000000 		.4byte	0x30
 2868 007a 04       		.uleb128 0x4
 2869 007b C8010000 		.4byte	.LASF10
 2870 007f 02       		.byte	0x2
 2871 0080 4D       		.byte	0x4d
 2872 0081 3E000000 		.4byte	0x3e
 2873 0085 02       		.uleb128 0x2
 2874 0086 04       		.byte	0x4
 2875 0087 04       		.byte	0x4
 2876 0088 B2000000 		.4byte	.LASF11
 2877 008c 02       		.uleb128 0x2
 2878 008d 08       		.byte	0x8
 2879 008e 04       		.byte	0x4
 2880 008f 14020000 		.4byte	.LASF12
 2881 0093 02       		.uleb128 0x2
 2882 0094 01       		.byte	0x1
 2883 0095 08       		.byte	0x8
 2884 0096 AD010000 		.4byte	.LASF13
 2885 009a 05       		.uleb128 0x5
 2886 009b 04       		.byte	0x4
 2887 009c 07       		.byte	0x7
 2888 009d 06       		.uleb128 0x6
 2889 009e 54020000 		.4byte	.LASF58
 2890 00a2 02       		.byte	0x2
 2891 00a3 01       		.byte	0x1
 2892 00a4 11       		.byte	0x11
 2893 00a5 C6000000 		.4byte	0xc6
 2894 00a9 07       		.uleb128 0x7
ARM GAS  C:\DOCUME~1\david\LOCALS~1\Temp\ccWbOjJF.s 			page 64


 2895 00aa 726F7700 		.ascii	"row\000"
 2896 00ae 01       		.byte	0x1
 2897 00af 12       		.byte	0x12
 2898 00b0 6F000000 		.4byte	0x6f
 2899 00b4 02       		.byte	0x2
 2900 00b5 23       		.byte	0x23
 2901 00b6 00       		.uleb128 0x0
 2902 00b7 07       		.uleb128 0x7
 2903 00b8 636F6C00 		.ascii	"col\000"
 2904 00bc 01       		.byte	0x1
 2905 00bd 13       		.byte	0x13
 2906 00be 6F000000 		.4byte	0x6f
 2907 00c2 02       		.byte	0x2
 2908 00c3 23       		.byte	0x23
 2909 00c4 01       		.uleb128 0x1
 2910 00c5 00       		.byte	0x0
 2911 00c6 04       		.uleb128 0x4
 2912 00c7 EF000000 		.4byte	.LASF14
 2913 00cb 01       		.byte	0x1
 2914 00cc 14       		.byte	0x14
 2915 00cd 9D000000 		.4byte	0x9d
 2916 00d1 08       		.uleb128 0x8
 2917 00d2 01       		.byte	0x1
 2918 00d3 66020000 		.4byte	.LASF59
 2919 00d7 01       		.byte	0x1
 2920 00d8 35       		.byte	0x35
 2921 00d9 01       		.byte	0x1
 2922 00da 00000000 		.4byte	.LFB29
 2923 00de 34000000 		.4byte	.LFE29
 2924 00e2 00000000 		.4byte	.LLST0
 2925 00e6 09       		.uleb128 0x9
 2926 00e7 01       		.byte	0x1
 2927 00e8 00000000 		.4byte	.LASF19
 2928 00ec 01       		.byte	0x1
 2929 00ed 3E       		.byte	0x3e
 2930 00ee 01       		.byte	0x1
 2931 00ef 00000000 		.4byte	.LFB30
 2932 00f3 58010000 		.4byte	.LFE30
 2933 00f7 2B000000 		.4byte	.LLST1
 2934 00fb 18010000 		.4byte	0x118
 2935 00ff 0A       		.uleb128 0xa
 2936 0100 06000000 		.4byte	.LBB2
 2937 0104 50010000 		.4byte	.LBE2
 2938 0108 0B       		.uleb128 0xb
 2939 0109 CF010000 		.4byte	.LASF15
 2940 010d 01       		.byte	0x1
 2941 010e 52       		.byte	0x52
 2942 010f 7A000000 		.4byte	0x7a
 2943 0113 02       		.byte	0x2
 2944 0114 91       		.byte	0x91
 2945 0115 76       		.sleb128 -10
 2946 0116 00       		.byte	0x0
 2947 0117 00       		.byte	0x0
 2948 0118 0C       		.uleb128 0xc
 2949 0119 01       		.byte	0x1
 2950 011a 34000000 		.4byte	.LASF16
 2951 011e 01       		.byte	0x1
ARM GAS  C:\DOCUME~1\david\LOCALS~1\Temp\ccWbOjJF.s 			page 65


 2952 011f 69       		.byte	0x69
 2953 0120 00000000 		.4byte	.LFB31
 2954 0124 E0000000 		.4byte	.LFE31
 2955 0128 62000000 		.4byte	.LLST2
 2956 012c 57010000 		.4byte	0x157
 2957 0130 0A       		.uleb128 0xa
 2958 0131 16000000 		.4byte	.LBB3
 2959 0135 DE000000 		.4byte	.LBE3
 2960 0139 0D       		.uleb128 0xd
 2961 013a 726F7700 		.ascii	"row\000"
 2962 013e 01       		.byte	0x1
 2963 013f 6D       		.byte	0x6d
 2964 0140 6F000000 		.4byte	0x6f
 2965 0144 02       		.byte	0x2
 2966 0145 91       		.byte	0x91
 2967 0146 76       		.sleb128 -10
 2968 0147 0D       		.uleb128 0xd
 2969 0148 636F6C00 		.ascii	"col\000"
 2970 014c 01       		.byte	0x1
 2971 014d 6D       		.byte	0x6d
 2972 014e 6F000000 		.4byte	0x6f
 2973 0152 02       		.byte	0x2
 2974 0153 91       		.byte	0x91
 2975 0154 77       		.sleb128 -9
 2976 0155 00       		.byte	0x0
 2977 0156 00       		.byte	0x0
 2978 0157 0C       		.uleb128 0xc
 2979 0158 01       		.byte	0x1
 2980 0159 1D010000 		.4byte	.LASF17
 2981 015d 01       		.byte	0x1
 2982 015e 8F       		.byte	0x8f
 2983 015f 00000000 		.4byte	.LFB32
 2984 0163 7C010000 		.4byte	.LFE32
 2985 0167 99000000 		.4byte	.LLST3
 2986 016b 7C010000 		.4byte	0x17c
 2987 016f 0D       		.uleb128 0xd
 2988 0170 7400     		.ascii	"t\000"
 2989 0172 01       		.byte	0x1
 2990 0173 A8       		.byte	0xa8
 2991 0174 6F000000 		.4byte	0x6f
 2992 0178 02       		.byte	0x2
 2993 0179 91       		.byte	0x91
 2994 017a 77       		.sleb128 -9
 2995 017b 00       		.byte	0x0
 2996 017c 0C       		.uleb128 0xc
 2997 017d 01       		.byte	0x1
 2998 017e D3000000 		.4byte	.LASF18
 2999 0182 01       		.byte	0x1
 3000 0183 C3       		.byte	0xc3
 3001 0184 00000000 		.4byte	.LFB33
 3002 0188 70000000 		.4byte	.LFE33
 3003 018c D0000000 		.4byte	.LLST4
 3004 0190 B1010000 		.4byte	0x1b1
 3005 0194 0D       		.uleb128 0xd
 3006 0195 726F7700 		.ascii	"row\000"
 3007 0199 01       		.byte	0x1
 3008 019a C4       		.byte	0xc4
ARM GAS  C:\DOCUME~1\david\LOCALS~1\Temp\ccWbOjJF.s 			page 66


 3009 019b 6F000000 		.4byte	0x6f
 3010 019f 02       		.byte	0x2
 3011 01a0 91       		.byte	0x91
 3012 01a1 76       		.sleb128 -10
 3013 01a2 0D       		.uleb128 0xd
 3014 01a3 636F6C00 		.ascii	"col\000"
 3015 01a7 01       		.byte	0x1
 3016 01a8 C4       		.byte	0xc4
 3017 01a9 6F000000 		.4byte	0x6f
 3018 01ad 02       		.byte	0x2
 3019 01ae 91       		.byte	0x91
 3020 01af 77       		.sleb128 -9
 3021 01b0 00       		.byte	0x0
 3022 01b1 0E       		.uleb128 0xe
 3023 01b2 01       		.byte	0x1
 3024 01b3 6D000000 		.4byte	.LASF42
 3025 01b7 01       		.byte	0x1
 3026 01b8 D0       		.byte	0xd0
 3027 01b9 00000000 		.4byte	.LFB34
 3028 01bd 7E010000 		.4byte	.LFE34
 3029 01c1 07010000 		.4byte	.LLST5
 3030 01c5 0F       		.uleb128 0xf
 3031 01c6 01       		.byte	0x1
 3032 01c7 B8010000 		.4byte	.LASF20
 3033 01cb 01       		.byte	0x1
 3034 01cc 1901     		.2byte	0x119
 3035 01ce 6F000000 		.4byte	0x6f
 3036 01d2 00000000 		.4byte	.LFB35
 3037 01d6 02020000 		.4byte	.LFE35
 3038 01da 32010000 		.4byte	.LLST6
 3039 01de 38020000 		.4byte	0x238
 3040 01e2 10       		.uleb128 0x10
 3041 01e3 4A010000 		.4byte	.LASF21
 3042 01e7 01       		.byte	0x1
 3043 01e8 1D01     		.2byte	0x11d
 3044 01ea 6F000000 		.4byte	0x6f
 3045 01ee 02       		.byte	0x2
 3046 01ef 91       		.byte	0x91
 3047 01f0 6F       		.sleb128 -17
 3048 01f1 10       		.uleb128 0x10
 3049 01f2 C1010000 		.4byte	.LASF22
 3050 01f6 01       		.byte	0x1
 3051 01f7 2601     		.2byte	0x126
 3052 01f9 38020000 		.4byte	0x238
 3053 01fd 02       		.byte	0x2
 3054 01fe 91       		.byte	0x91
 3055 01ff 70       		.sleb128 -16
 3056 0200 10       		.uleb128 0x10
 3057 0201 24020000 		.4byte	.LASF23
 3058 0205 01       		.byte	0x1
 3059 0206 2601     		.2byte	0x126
 3060 0208 38020000 		.4byte	0x238
 3061 020c 02       		.byte	0x2
 3062 020d 91       		.byte	0x91
 3063 020e 71       		.sleb128 -15
 3064 020f 0A       		.uleb128 0xa
 3065 0210 DC000000 		.4byte	.LBB4
ARM GAS  C:\DOCUME~1\david\LOCALS~1\Temp\ccWbOjJF.s 			page 67


 3066 0214 C2010000 		.4byte	.LBE4
 3067 0218 10       		.uleb128 0x10
 3068 0219 D5010000 		.4byte	.LASF24
 3069 021d 01       		.byte	0x1
 3070 021e 3501     		.2byte	0x135
 3071 0220 7A000000 		.4byte	0x7a
 3072 0224 02       		.byte	0x2
 3073 0225 91       		.byte	0x91
 3074 0226 72       		.sleb128 -14
 3075 0227 11       		.uleb128 0x11
 3076 0228 64697200 		.ascii	"dir\000"
 3077 022c 01       		.byte	0x1
 3078 022d 3901     		.2byte	0x139
 3079 022f 61000000 		.4byte	0x61
 3080 0233 02       		.byte	0x2
 3081 0234 91       		.byte	0x91
 3082 0235 74       		.sleb128 -12
 3083 0236 00       		.byte	0x0
 3084 0237 00       		.byte	0x0
 3085 0238 02       		.uleb128 0x2
 3086 0239 01       		.byte	0x1
 3087 023a 02       		.byte	0x2
 3088 023b B2010000 		.4byte	.LASF25
 3089 023f 0F       		.uleb128 0xf
 3090 0240 01       		.byte	0x1
 3091 0241 C6000000 		.4byte	.LASF26
 3092 0245 01       		.byte	0x1
 3093 0246 4B01     		.2byte	0x14b
 3094 0248 6F000000 		.4byte	0x6f
 3095 024c 00000000 		.4byte	.LFB36
 3096 0250 60000000 		.4byte	.LFE36
 3097 0254 69010000 		.4byte	.LLST7
 3098 0258 6C020000 		.4byte	0x26c
 3099 025c 10       		.uleb128 0x10
 3100 025d 6D020000 		.4byte	.LASF27
 3101 0261 01       		.byte	0x1
 3102 0262 4C01     		.2byte	0x14c
 3103 0264 C6000000 		.4byte	0xc6
 3104 0268 02       		.byte	0x2
 3105 0269 91       		.byte	0x91
 3106 026a 74       		.sleb128 -12
 3107 026b 00       		.byte	0x0
 3108 026c 12       		.uleb128 0x12
 3109 026d 01       		.byte	0x1
 3110 026e 39000000 		.4byte	.LASF28
 3111 0272 01       		.byte	0x1
 3112 0273 5B01     		.2byte	0x15b
 3113 0275 01       		.byte	0x1
 3114 0276 00000000 		.4byte	.LFB37
 3115 027a 0C010000 		.4byte	.LFE37
 3116 027e A0010000 		.4byte	.LLST8
 3117 0282 AF020000 		.4byte	0x2af
 3118 0286 13       		.uleb128 0x13
 3119 0287 6D020000 		.4byte	.LASF27
 3120 028b 01       		.byte	0x1
 3121 028c 5B01     		.2byte	0x15b
 3122 028e AF020000 		.4byte	0x2af
ARM GAS  C:\DOCUME~1\david\LOCALS~1\Temp\ccWbOjJF.s 			page 68


 3123 0292 02       		.byte	0x2
 3124 0293 91       		.byte	0x91
 3125 0294 6C       		.sleb128 -20
 3126 0295 0A       		.uleb128 0xa
 3127 0296 0C000000 		.4byte	.LBB5
 3128 029a 00010000 		.4byte	.LBE5
 3129 029e 11       		.uleb128 0x11
 3130 029f 766F6C00 		.ascii	"vol\000"
 3131 02a3 01       		.byte	0x1
 3132 02a4 6201     		.2byte	0x162
 3133 02a6 6F000000 		.4byte	0x6f
 3134 02aa 02       		.byte	0x2
 3135 02ab 91       		.byte	0x91
 3136 02ac 77       		.sleb128 -9
 3137 02ad 00       		.byte	0x0
 3138 02ae 00       		.byte	0x0
 3139 02af 14       		.uleb128 0x14
 3140 02b0 04       		.byte	0x4
 3141 02b1 C6000000 		.4byte	0xc6
 3142 02b5 12       		.uleb128 0x12
 3143 02b6 01       		.byte	0x1
 3144 02b7 F6000000 		.4byte	.LASF29
 3145 02bb 01       		.byte	0x1
 3146 02bc 7E01     		.2byte	0x17e
 3147 02be 01       		.byte	0x1
 3148 02bf 00000000 		.4byte	.LFB38
 3149 02c3 F8000000 		.4byte	.LFE38
 3150 02c7 D7010000 		.4byte	.LLST9
 3151 02cb 48030000 		.4byte	0x348
 3152 02cf 13       		.uleb128 0x13
 3153 02d0 6D020000 		.4byte	.LASF27
 3154 02d4 01       		.byte	0x1
 3155 02d5 7E01     		.2byte	0x17e
 3156 02d7 AF020000 		.4byte	0x2af
 3157 02db 02       		.byte	0x2
 3158 02dc 91       		.byte	0x91
 3159 02dd 64       		.sleb128 -28
 3160 02de 10       		.uleb128 0x10
 3161 02df 48000000 		.4byte	.LASF30
 3162 02e3 01       		.byte	0x1
 3163 02e4 8101     		.2byte	0x181
 3164 02e6 93000000 		.4byte	0x93
 3165 02ea 02       		.byte	0x2
 3166 02eb 91       		.byte	0x91
 3167 02ec 6D       		.sleb128 -19
 3168 02ed 10       		.uleb128 0x10
 3169 02ee 8B010000 		.4byte	.LASF31
 3170 02f2 01       		.byte	0x1
 3171 02f3 8201     		.2byte	0x182
 3172 02f5 6F000000 		.4byte	0x6f
 3173 02f9 02       		.byte	0x2
 3174 02fa 91       		.byte	0x91
 3175 02fb 6E       		.sleb128 -18
 3176 02fc 10       		.uleb128 0x10
 3177 02fd EB010000 		.4byte	.LASF32
 3178 0301 01       		.byte	0x1
 3179 0302 8301     		.2byte	0x183
ARM GAS  C:\DOCUME~1\david\LOCALS~1\Temp\ccWbOjJF.s 			page 69


 3180 0304 6F000000 		.4byte	0x6f
 3181 0308 02       		.byte	0x2
 3182 0309 91       		.byte	0x91
 3183 030a 6F       		.sleb128 -17
 3184 030b 10       		.uleb128 0x10
 3185 030c 3C020000 		.4byte	.LASF33
 3186 0310 01       		.byte	0x1
 3187 0311 8401     		.2byte	0x184
 3188 0313 7A000000 		.4byte	0x7a
 3189 0317 02       		.byte	0x2
 3190 0318 91       		.byte	0x91
 3191 0319 70       		.sleb128 -16
 3192 031a 10       		.uleb128 0x10
 3193 031b 52000000 		.4byte	.LASF34
 3194 031f 01       		.byte	0x1
 3195 0320 8501     		.2byte	0x185
 3196 0322 6F000000 		.4byte	0x6f
 3197 0326 02       		.byte	0x2
 3198 0327 91       		.byte	0x91
 3199 0328 73       		.sleb128 -13
 3200 0329 10       		.uleb128 0x10
 3201 032a 0F010000 		.4byte	.LASF35
 3202 032e 01       		.byte	0x1
 3203 032f 8801     		.2byte	0x188
 3204 0331 7A000000 		.4byte	0x7a
 3205 0335 02       		.byte	0x2
 3206 0336 91       		.byte	0x91
 3207 0337 74       		.sleb128 -12
 3208 0338 10       		.uleb128 0x10
 3209 0339 5E000000 		.4byte	.LASF36
 3210 033d 01       		.byte	0x1
 3211 033e 8E01     		.2byte	0x18e
 3212 0340 6F000000 		.4byte	0x6f
 3213 0344 02       		.byte	0x2
 3214 0345 91       		.byte	0x91
 3215 0346 77       		.sleb128 -9
 3216 0347 00       		.byte	0x0
 3217 0348 12       		.uleb128 0x12
 3218 0349 01       		.byte	0x1
 3219 034a 0E000000 		.4byte	.LASF37
 3220 034e 01       		.byte	0x1
 3221 034f F101     		.2byte	0x1f1
 3222 0351 01       		.byte	0x1
 3223 0352 00000000 		.4byte	.LFB39
 3224 0356 3A000000 		.4byte	.LFE39
 3225 035a 0E020000 		.4byte	.LLST10
 3226 035e 81030000 		.4byte	0x381
 3227 0362 15       		.uleb128 0x15
 3228 0363 726F7700 		.ascii	"row\000"
 3229 0367 01       		.byte	0x1
 3230 0368 F101     		.2byte	0x1f1
 3231 036a 6F000000 		.4byte	0x6f
 3232 036e 02       		.byte	0x2
 3233 036f 91       		.byte	0x91
 3234 0370 77       		.sleb128 -9
 3235 0371 15       		.uleb128 0x15
 3236 0372 636F6C00 		.ascii	"col\000"
ARM GAS  C:\DOCUME~1\david\LOCALS~1\Temp\ccWbOjJF.s 			page 70


 3237 0376 01       		.byte	0x1
 3238 0377 F101     		.2byte	0x1f1
 3239 0379 6F000000 		.4byte	0x6f
 3240 037d 02       		.byte	0x2
 3241 037e 91       		.byte	0x91
 3242 037f 76       		.sleb128 -10
 3243 0380 00       		.byte	0x0
 3244 0381 16       		.uleb128 0x16
 3245 0382 01       		.byte	0x1
 3246 0383 92010000 		.4byte	.LASF60
 3247 0387 01       		.byte	0x1
 3248 0388 FA01     		.2byte	0x1fa
 3249 038a 01       		.byte	0x1
 3250 038b 6F000000 		.4byte	0x6f
 3251 038f 00000000 		.4byte	.LFB40
 3252 0393 FE000000 		.4byte	.LFE40
 3253 0397 45020000 		.4byte	.LLST11
 3254 039b BE030000 		.4byte	0x3be
 3255 039f 15       		.uleb128 0x15
 3256 03a0 636F6C00 		.ascii	"col\000"
 3257 03a4 01       		.byte	0x1
 3258 03a5 FA01     		.2byte	0x1fa
 3259 03a7 6F000000 		.4byte	0x6f
 3260 03ab 02       		.byte	0x2
 3261 03ac 91       		.byte	0x91
 3262 03ad 6F       		.sleb128 -17
 3263 03ae 11       		.uleb128 0x11
 3264 03af 726F7700 		.ascii	"row\000"
 3265 03b3 01       		.byte	0x1
 3266 03b4 FB01     		.2byte	0x1fb
 3267 03b6 6F000000 		.4byte	0x6f
 3268 03ba 02       		.byte	0x2
 3269 03bb 91       		.byte	0x91
 3270 03bc 77       		.sleb128 -9
 3271 03bd 00       		.byte	0x0
 3272 03be 17       		.uleb128 0x17
 3273 03bf 01       		.byte	0x1
 3274 03c0 18000000 		.4byte	.LASF38
 3275 03c4 01       		.byte	0x1
 3276 03c5 0A02     		.2byte	0x20a
 3277 03c7 00000000 		.4byte	.LFB41
 3278 03cb 14050000 		.4byte	.LFE41
 3279 03cf 7C020000 		.4byte	.LLST12
 3280 03d3 F2040000 		.4byte	0x4f2
 3281 03d7 11       		.uleb128 0x11
 3282 03d8 726F7700 		.ascii	"row\000"
 3283 03dc 01       		.byte	0x1
 3284 03dd 0B02     		.2byte	0x20b
 3285 03df 6F000000 		.4byte	0x6f
 3286 03e3 02       		.byte	0x2
 3287 03e4 91       		.byte	0x91
 3288 03e5 68       		.sleb128 -24
 3289 03e6 11       		.uleb128 0x11
 3290 03e7 636F6C00 		.ascii	"col\000"
 3291 03eb 01       		.byte	0x1
 3292 03ec 0B02     		.2byte	0x20b
 3293 03ee 6F000000 		.4byte	0x6f
ARM GAS  C:\DOCUME~1\david\LOCALS~1\Temp\ccWbOjJF.s 			page 71


 3294 03f2 02       		.byte	0x2
 3295 03f3 91       		.byte	0x91
 3296 03f4 69       		.sleb128 -23
 3297 03f5 10       		.uleb128 0x10
 3298 03f6 16010000 		.4byte	.LASF39
 3299 03fa 01       		.byte	0x1
 3300 03fb 0C02     		.2byte	0x20c
 3301 03fd 7A000000 		.4byte	0x7a
 3302 0401 02       		.byte	0x2
 3303 0402 91       		.byte	0x91
 3304 0403 6A       		.sleb128 -22
 3305 0404 0A       		.uleb128 0xa
 3306 0405 1C000000 		.4byte	.LBB6
 3307 0409 EC040000 		.4byte	.LBE6
 3308 040d 10       		.uleb128 0x10
 3309 040e E8000000 		.4byte	.LASF40
 3310 0412 01       		.byte	0x1
 3311 0413 0F02     		.2byte	0x20f
 3312 0415 61000000 		.4byte	0x61
 3313 0419 02       		.byte	0x2
 3314 041a 91       		.byte	0x91
 3315 041b 6C       		.sleb128 -20
 3316 041c 18       		.uleb128 0x18
 3317 041d 24000000 		.4byte	.LBB7
 3318 0421 46010000 		.4byte	.LBE7
 3319 0425 52040000 		.4byte	0x452
 3320 0429 11       		.uleb128 0x11
 3321 042a 77696E00 		.ascii	"win\000"
 3322 042e 01       		.byte	0x1
 3323 042f 1302     		.2byte	0x213
 3324 0431 38020000 		.4byte	0x238
 3325 0435 02       		.byte	0x2
 3326 0436 91       		.byte	0x91
 3327 0437 70       		.sleb128 -16
 3328 0438 0A       		.uleb128 0xa
 3329 0439 B8000000 		.4byte	.LBB8
 3330 043d 46010000 		.4byte	.LBE8
 3331 0441 10       		.uleb128 0x10
 3332 0442 08000000 		.4byte	.LASF41
 3333 0446 01       		.byte	0x1
 3334 0447 1A02     		.2byte	0x21a
 3335 0449 38020000 		.4byte	0x238
 3336 044d 02       		.byte	0x2
 3337 044e 91       		.byte	0x91
 3338 044f 71       		.sleb128 -15
 3339 0450 00       		.byte	0x0
 3340 0451 00       		.byte	0x0
 3341 0452 18       		.uleb128 0x18
 3342 0453 4E010000 		.4byte	.LBB9
 3343 0457 68020000 		.4byte	.LBE9
 3344 045b 88040000 		.4byte	0x488
 3345 045f 11       		.uleb128 0x11
 3346 0460 77696E00 		.ascii	"win\000"
 3347 0464 01       		.byte	0x1
 3348 0465 2802     		.2byte	0x228
 3349 0467 38020000 		.4byte	0x238
 3350 046b 02       		.byte	0x2
ARM GAS  C:\DOCUME~1\david\LOCALS~1\Temp\ccWbOjJF.s 			page 72


 3351 046c 91       		.byte	0x91
 3352 046d 72       		.sleb128 -14
 3353 046e 0A       		.uleb128 0xa
 3354 046f DE010000 		.4byte	.LBB10
 3355 0473 68020000 		.4byte	.LBE10
 3356 0477 10       		.uleb128 0x10
 3357 0478 08000000 		.4byte	.LASF41
 3358 047c 01       		.byte	0x1
 3359 047d 2F02     		.2byte	0x22f
 3360 047f 38020000 		.4byte	0x238
 3361 0483 02       		.byte	0x2
 3362 0484 91       		.byte	0x91
 3363 0485 73       		.sleb128 -13
 3364 0486 00       		.byte	0x0
 3365 0487 00       		.byte	0x0
 3366 0488 18       		.uleb128 0x18
 3367 0489 78020000 		.4byte	.LBB11
 3368 048d AA030000 		.4byte	.LBE11
 3369 0491 BE040000 		.4byte	0x4be
 3370 0495 11       		.uleb128 0x11
 3371 0496 77696E00 		.ascii	"win\000"
 3372 049a 01       		.byte	0x1
 3373 049b 3D02     		.2byte	0x23d
 3374 049d 38020000 		.4byte	0x238
 3375 04a1 02       		.byte	0x2
 3376 04a2 91       		.byte	0x91
 3377 04a3 74       		.sleb128 -12
 3378 04a4 0A       		.uleb128 0xa
 3379 04a5 14030000 		.4byte	.LBB12
 3380 04a9 AA030000 		.4byte	.LBE12
 3381 04ad 10       		.uleb128 0x10
 3382 04ae 08000000 		.4byte	.LASF41
 3383 04b2 01       		.byte	0x1
 3384 04b3 4402     		.2byte	0x244
 3385 04b5 38020000 		.4byte	0x238
 3386 04b9 02       		.byte	0x2
 3387 04ba 91       		.byte	0x91
 3388 04bb 75       		.sleb128 -11
 3389 04bc 00       		.byte	0x0
 3390 04bd 00       		.byte	0x0
 3391 04be 0A       		.uleb128 0xa
 3392 04bf BA030000 		.4byte	.LBB13
 3393 04c3 EC040000 		.4byte	.LBE13
 3394 04c7 11       		.uleb128 0x11
 3395 04c8 77696E00 		.ascii	"win\000"
 3396 04cc 01       		.byte	0x1
 3397 04cd 5202     		.2byte	0x252
 3398 04cf 38020000 		.4byte	0x238
 3399 04d3 02       		.byte	0x2
 3400 04d4 91       		.byte	0x91
 3401 04d5 76       		.sleb128 -10
 3402 04d6 0A       		.uleb128 0xa
 3403 04d7 56040000 		.4byte	.LBB14
 3404 04db EC040000 		.4byte	.LBE14
 3405 04df 10       		.uleb128 0x10
 3406 04e0 08000000 		.4byte	.LASF41
 3407 04e4 01       		.byte	0x1
ARM GAS  C:\DOCUME~1\david\LOCALS~1\Temp\ccWbOjJF.s 			page 73


 3408 04e5 5902     		.2byte	0x259
 3409 04e7 38020000 		.4byte	0x238
 3410 04eb 02       		.byte	0x2
 3411 04ec 91       		.byte	0x91
 3412 04ed 77       		.sleb128 -9
 3413 04ee 00       		.byte	0x0
 3414 04ef 00       		.byte	0x0
 3415 04f0 00       		.byte	0x0
 3416 04f1 00       		.byte	0x0
 3417 04f2 19       		.uleb128 0x19
 3418 04f3 01       		.byte	0x1
 3419 04f4 36010000 		.4byte	.LASF43
 3420 04f8 01       		.byte	0x1
 3421 04f9 6B02     		.2byte	0x26b
 3422 04fb 00000000 		.4byte	.LFB42
 3423 04ff 8A000000 		.4byte	.LFE42
 3424 0503 B3020000 		.4byte	.LLST13
 3425 0507 1A       		.uleb128 0x1a
 3426 0508 59020000 		.4byte	.LASF44
 3427 050c 03       		.byte	0x3
 3428 050d CE06     		.2byte	0x6ce
 3429 050f 15050000 		.4byte	0x515
 3430 0513 01       		.byte	0x1
 3431 0514 01       		.byte	0x1
 3432 0515 1B       		.uleb128 0x1b
 3433 0516 61000000 		.4byte	0x61
 3434 051a 1C       		.uleb128 0x1c
 3435 051b 02010000 		.4byte	.LASF45
 3436 051f 01       		.byte	0x1
 3437 0520 16       		.byte	0x16
 3438 0521 38020000 		.4byte	0x238
 3439 0525 01       		.byte	0x1
 3440 0526 05       		.byte	0x5
 3441 0527 03       		.byte	0x3
 3442 0528 00000000 		.4byte	player1_turn
 3443 052c 1C       		.uleb128 0x1c
 3444 052d DD010000 		.4byte	.LASF46
 3445 0531 01       		.byte	0x1
 3446 0532 17       		.byte	0x17
 3447 0533 38020000 		.4byte	0x238
 3448 0537 01       		.byte	0x1
 3449 0538 05       		.byte	0x5
 3450 0539 03       		.byte	0x3
 3451 053a 00000000 		.4byte	player2_local
 3452 053e 1C       		.uleb128 0x1c
 3453 053f 06020000 		.4byte	.LASF47
 3454 0543 01       		.byte	0x1
 3455 0544 18       		.byte	0x18
 3456 0545 6F000000 		.4byte	0x6f
 3457 0549 01       		.byte	0x1
 3458 054a 05       		.byte	0x5
 3459 054b 03       		.byte	0x3
 3460 054c 00000000 		.4byte	player1_color
 3461 0550 1C       		.uleb128 0x1c
 3462 0551 A4000000 		.4byte	.LASF48
 3463 0555 01       		.byte	0x1
 3464 0556 19       		.byte	0x19
ARM GAS  C:\DOCUME~1\david\LOCALS~1\Temp\ccWbOjJF.s 			page 74


 3465 0557 6F000000 		.4byte	0x6f
 3466 055b 01       		.byte	0x1
 3467 055c 05       		.byte	0x5
 3468 055d 03       		.byte	0x3
 3469 055e 00000000 		.4byte	player2_color
 3470 0562 1D       		.uleb128 0x1d
 3471 0563 38020000 		.4byte	0x238
 3472 0567 78050000 		.4byte	0x578
 3473 056b 1E       		.uleb128 0x1e
 3474 056c 9A000000 		.4byte	0x9a
 3475 0570 07       		.byte	0x7
 3476 0571 1E       		.uleb128 0x1e
 3477 0572 9A000000 		.4byte	0x9a
 3478 0576 07       		.byte	0x7
 3479 0577 00       		.byte	0x0
 3480 0578 1C       		.uleb128 0x1c
 3481 0579 2C020000 		.4byte	.LASF49
 3482 057d 01       		.byte	0x1
 3483 057e 1C       		.byte	0x1c
 3484 057f 62050000 		.4byte	0x562
 3485 0583 01       		.byte	0x1
 3486 0584 05       		.byte	0x5
 3487 0585 03       		.byte	0x3
 3488 0586 00000000 		.4byte	player1
 3489 058a 1C       		.uleb128 0x1c
 3490 058b 34020000 		.4byte	.LASF50
 3491 058f 01       		.byte	0x1
 3492 0590 1D       		.byte	0x1d
 3493 0591 62050000 		.4byte	0x562
 3494 0595 01       		.byte	0x1
 3495 0596 05       		.byte	0x5
 3496 0597 03       		.byte	0x3
 3497 0598 00000000 		.4byte	player2
 3498 059c 1C       		.uleb128 0x1c
 3499 059d 81010000 		.4byte	.LASF51
 3500 05a1 01       		.byte	0x1
 3501 05a2 1E       		.byte	0x1e
 3502 05a3 C6000000 		.4byte	0xc6
 3503 05a7 01       		.byte	0x1
 3504 05a8 05       		.byte	0x5
 3505 05a9 03       		.byte	0x3
 3506 05aa 00000000 		.4byte	last_move
 3507 05ae 1C       		.uleb128 0x1c
 3508 05af 66010000 		.4byte	.LASF52
 3509 05b3 01       		.byte	0x1
 3510 05b4 34       		.byte	0x34
 3511 05b5 38020000 		.4byte	0x238
 3512 05b9 01       		.byte	0x1
 3513 05ba 05       		.byte	0x5
 3514 05bb 03       		.byte	0x3
 3515 05bc 00000000 		.4byte	locating
 3516 05c0 1C       		.uleb128 0x1c
 3517 05c1 6F010000 		.4byte	.LASF53
 3518 05c5 01       		.byte	0x1
 3519 05c6 3D       		.byte	0x3d
 3520 05c7 6F000000 		.4byte	0x6f
 3521 05cb 01       		.byte	0x1
ARM GAS  C:\DOCUME~1\david\LOCALS~1\Temp\ccWbOjJF.s 			page 75


 3522 05cc 05       		.byte	0x5
 3523 05cd 03       		.byte	0x3
 3524 05ce 00000000 		.4byte	rPos
 3525 05d2 1C       		.uleb128 0x1c
 3526 05d3 2F000000 		.4byte	.LASF54
 3527 05d7 01       		.byte	0x1
 3528 05d8 3D       		.byte	0x3d
 3529 05d9 6F000000 		.4byte	0x6f
 3530 05dd 01       		.byte	0x1
 3531 05de 05       		.byte	0x5
 3532 05df 03       		.byte	0x3
 3533 05e0 00000000 		.4byte	cPos
 3534 05e4 00       		.byte	0x0
 3535              		.section	.debug_abbrev
 3536 0000 01       		.uleb128 0x1
 3537 0001 11       		.uleb128 0x11
 3538 0002 01       		.byte	0x1
 3539 0003 25       		.uleb128 0x25
 3540 0004 0E       		.uleb128 0xe
 3541 0005 13       		.uleb128 0x13
 3542 0006 0B       		.uleb128 0xb
 3543 0007 03       		.uleb128 0x3
 3544 0008 0E       		.uleb128 0xe
 3545 0009 1B       		.uleb128 0x1b
 3546 000a 0E       		.uleb128 0xe
 3547 000b 11       		.uleb128 0x11
 3548 000c 01       		.uleb128 0x1
 3549 000d 52       		.uleb128 0x52
 3550 000e 01       		.uleb128 0x1
 3551 000f 55       		.uleb128 0x55
 3552 0010 06       		.uleb128 0x6
 3553 0011 10       		.uleb128 0x10
 3554 0012 06       		.uleb128 0x6
 3555 0013 00       		.byte	0x0
 3556 0014 00       		.byte	0x0
 3557 0015 02       		.uleb128 0x2
 3558 0016 24       		.uleb128 0x24
 3559 0017 00       		.byte	0x0
 3560 0018 0B       		.uleb128 0xb
 3561 0019 0B       		.uleb128 0xb
 3562 001a 3E       		.uleb128 0x3e
 3563 001b 0B       		.uleb128 0xb
 3564 001c 03       		.uleb128 0x3
 3565 001d 0E       		.uleb128 0xe
 3566 001e 00       		.byte	0x0
 3567 001f 00       		.byte	0x0
 3568 0020 03       		.uleb128 0x3
 3569 0021 24       		.uleb128 0x24
 3570 0022 00       		.byte	0x0
 3571 0023 0B       		.uleb128 0xb
 3572 0024 0B       		.uleb128 0xb
 3573 0025 3E       		.uleb128 0x3e
 3574 0026 0B       		.uleb128 0xb
 3575 0027 03       		.uleb128 0x3
 3576 0028 08       		.uleb128 0x8
 3577 0029 00       		.byte	0x0
 3578 002a 00       		.byte	0x0
ARM GAS  C:\DOCUME~1\david\LOCALS~1\Temp\ccWbOjJF.s 			page 76


 3579 002b 04       		.uleb128 0x4
 3580 002c 16       		.uleb128 0x16
 3581 002d 00       		.byte	0x0
 3582 002e 03       		.uleb128 0x3
 3583 002f 0E       		.uleb128 0xe
 3584 0030 3A       		.uleb128 0x3a
 3585 0031 0B       		.uleb128 0xb
 3586 0032 3B       		.uleb128 0x3b
 3587 0033 0B       		.uleb128 0xb
 3588 0034 49       		.uleb128 0x49
 3589 0035 13       		.uleb128 0x13
 3590 0036 00       		.byte	0x0
 3591 0037 00       		.byte	0x0
 3592 0038 05       		.uleb128 0x5
 3593 0039 24       		.uleb128 0x24
 3594 003a 00       		.byte	0x0
 3595 003b 0B       		.uleb128 0xb
 3596 003c 0B       		.uleb128 0xb
 3597 003d 3E       		.uleb128 0x3e
 3598 003e 0B       		.uleb128 0xb
 3599 003f 00       		.byte	0x0
 3600 0040 00       		.byte	0x0
 3601 0041 06       		.uleb128 0x6
 3602 0042 13       		.uleb128 0x13
 3603 0043 01       		.byte	0x1
 3604 0044 03       		.uleb128 0x3
 3605 0045 0E       		.uleb128 0xe
 3606 0046 0B       		.uleb128 0xb
 3607 0047 0B       		.uleb128 0xb
 3608 0048 3A       		.uleb128 0x3a
 3609 0049 0B       		.uleb128 0xb
 3610 004a 3B       		.uleb128 0x3b
 3611 004b 0B       		.uleb128 0xb
 3612 004c 01       		.uleb128 0x1
 3613 004d 13       		.uleb128 0x13
 3614 004e 00       		.byte	0x0
 3615 004f 00       		.byte	0x0
 3616 0050 07       		.uleb128 0x7
 3617 0051 0D       		.uleb128 0xd
 3618 0052 00       		.byte	0x0
 3619 0053 03       		.uleb128 0x3
 3620 0054 08       		.uleb128 0x8
 3621 0055 3A       		.uleb128 0x3a
 3622 0056 0B       		.uleb128 0xb
 3623 0057 3B       		.uleb128 0x3b
 3624 0058 0B       		.uleb128 0xb
 3625 0059 49       		.uleb128 0x49
 3626 005a 13       		.uleb128 0x13
 3627 005b 38       		.uleb128 0x38
 3628 005c 0A       		.uleb128 0xa
 3629 005d 00       		.byte	0x0
 3630 005e 00       		.byte	0x0
 3631 005f 08       		.uleb128 0x8
 3632 0060 2E       		.uleb128 0x2e
 3633 0061 00       		.byte	0x0
 3634 0062 3F       		.uleb128 0x3f
 3635 0063 0C       		.uleb128 0xc
ARM GAS  C:\DOCUME~1\david\LOCALS~1\Temp\ccWbOjJF.s 			page 77


 3636 0064 03       		.uleb128 0x3
 3637 0065 0E       		.uleb128 0xe
 3638 0066 3A       		.uleb128 0x3a
 3639 0067 0B       		.uleb128 0xb
 3640 0068 3B       		.uleb128 0x3b
 3641 0069 0B       		.uleb128 0xb
 3642 006a 27       		.uleb128 0x27
 3643 006b 0C       		.uleb128 0xc
 3644 006c 11       		.uleb128 0x11
 3645 006d 01       		.uleb128 0x1
 3646 006e 12       		.uleb128 0x12
 3647 006f 01       		.uleb128 0x1
 3648 0070 40       		.uleb128 0x40
 3649 0071 06       		.uleb128 0x6
 3650 0072 00       		.byte	0x0
 3651 0073 00       		.byte	0x0
 3652 0074 09       		.uleb128 0x9
 3653 0075 2E       		.uleb128 0x2e
 3654 0076 01       		.byte	0x1
 3655 0077 3F       		.uleb128 0x3f
 3656 0078 0C       		.uleb128 0xc
 3657 0079 03       		.uleb128 0x3
 3658 007a 0E       		.uleb128 0xe
 3659 007b 3A       		.uleb128 0x3a
 3660 007c 0B       		.uleb128 0xb
 3661 007d 3B       		.uleb128 0x3b
 3662 007e 0B       		.uleb128 0xb
 3663 007f 27       		.uleb128 0x27
 3664 0080 0C       		.uleb128 0xc
 3665 0081 11       		.uleb128 0x11
 3666 0082 01       		.uleb128 0x1
 3667 0083 12       		.uleb128 0x12
 3668 0084 01       		.uleb128 0x1
 3669 0085 40       		.uleb128 0x40
 3670 0086 06       		.uleb128 0x6
 3671 0087 01       		.uleb128 0x1
 3672 0088 13       		.uleb128 0x13
 3673 0089 00       		.byte	0x0
 3674 008a 00       		.byte	0x0
 3675 008b 0A       		.uleb128 0xa
 3676 008c 0B       		.uleb128 0xb
 3677 008d 01       		.byte	0x1
 3678 008e 11       		.uleb128 0x11
 3679 008f 01       		.uleb128 0x1
 3680 0090 12       		.uleb128 0x12
 3681 0091 01       		.uleb128 0x1
 3682 0092 00       		.byte	0x0
 3683 0093 00       		.byte	0x0
 3684 0094 0B       		.uleb128 0xb
 3685 0095 34       		.uleb128 0x34
 3686 0096 00       		.byte	0x0
 3687 0097 03       		.uleb128 0x3
 3688 0098 0E       		.uleb128 0xe
 3689 0099 3A       		.uleb128 0x3a
 3690 009a 0B       		.uleb128 0xb
 3691 009b 3B       		.uleb128 0x3b
 3692 009c 0B       		.uleb128 0xb
ARM GAS  C:\DOCUME~1\david\LOCALS~1\Temp\ccWbOjJF.s 			page 78


 3693 009d 49       		.uleb128 0x49
 3694 009e 13       		.uleb128 0x13
 3695 009f 02       		.uleb128 0x2
 3696 00a0 0A       		.uleb128 0xa
 3697 00a1 00       		.byte	0x0
 3698 00a2 00       		.byte	0x0
 3699 00a3 0C       		.uleb128 0xc
 3700 00a4 2E       		.uleb128 0x2e
 3701 00a5 01       		.byte	0x1
 3702 00a6 3F       		.uleb128 0x3f
 3703 00a7 0C       		.uleb128 0xc
 3704 00a8 03       		.uleb128 0x3
 3705 00a9 0E       		.uleb128 0xe
 3706 00aa 3A       		.uleb128 0x3a
 3707 00ab 0B       		.uleb128 0xb
 3708 00ac 3B       		.uleb128 0x3b
 3709 00ad 0B       		.uleb128 0xb
 3710 00ae 11       		.uleb128 0x11
 3711 00af 01       		.uleb128 0x1
 3712 00b0 12       		.uleb128 0x12
 3713 00b1 01       		.uleb128 0x1
 3714 00b2 40       		.uleb128 0x40
 3715 00b3 06       		.uleb128 0x6
 3716 00b4 01       		.uleb128 0x1
 3717 00b5 13       		.uleb128 0x13
 3718 00b6 00       		.byte	0x0
 3719 00b7 00       		.byte	0x0
 3720 00b8 0D       		.uleb128 0xd
 3721 00b9 34       		.uleb128 0x34
 3722 00ba 00       		.byte	0x0
 3723 00bb 03       		.uleb128 0x3
 3724 00bc 08       		.uleb128 0x8
 3725 00bd 3A       		.uleb128 0x3a
 3726 00be 0B       		.uleb128 0xb
 3727 00bf 3B       		.uleb128 0x3b
 3728 00c0 0B       		.uleb128 0xb
 3729 00c1 49       		.uleb128 0x49
 3730 00c2 13       		.uleb128 0x13
 3731 00c3 02       		.uleb128 0x2
 3732 00c4 0A       		.uleb128 0xa
 3733 00c5 00       		.byte	0x0
 3734 00c6 00       		.byte	0x0
 3735 00c7 0E       		.uleb128 0xe
 3736 00c8 2E       		.uleb128 0x2e
 3737 00c9 00       		.byte	0x0
 3738 00ca 3F       		.uleb128 0x3f
 3739 00cb 0C       		.uleb128 0xc
 3740 00cc 03       		.uleb128 0x3
 3741 00cd 0E       		.uleb128 0xe
 3742 00ce 3A       		.uleb128 0x3a
 3743 00cf 0B       		.uleb128 0xb
 3744 00d0 3B       		.uleb128 0x3b
 3745 00d1 0B       		.uleb128 0xb
 3746 00d2 11       		.uleb128 0x11
 3747 00d3 01       		.uleb128 0x1
 3748 00d4 12       		.uleb128 0x12
 3749 00d5 01       		.uleb128 0x1
ARM GAS  C:\DOCUME~1\david\LOCALS~1\Temp\ccWbOjJF.s 			page 79


 3750 00d6 40       		.uleb128 0x40
 3751 00d7 06       		.uleb128 0x6
 3752 00d8 00       		.byte	0x0
 3753 00d9 00       		.byte	0x0
 3754 00da 0F       		.uleb128 0xf
 3755 00db 2E       		.uleb128 0x2e
 3756 00dc 01       		.byte	0x1
 3757 00dd 3F       		.uleb128 0x3f
 3758 00de 0C       		.uleb128 0xc
 3759 00df 03       		.uleb128 0x3
 3760 00e0 0E       		.uleb128 0xe
 3761 00e1 3A       		.uleb128 0x3a
 3762 00e2 0B       		.uleb128 0xb
 3763 00e3 3B       		.uleb128 0x3b
 3764 00e4 05       		.uleb128 0x5
 3765 00e5 49       		.uleb128 0x49
 3766 00e6 13       		.uleb128 0x13
 3767 00e7 11       		.uleb128 0x11
 3768 00e8 01       		.uleb128 0x1
 3769 00e9 12       		.uleb128 0x12
 3770 00ea 01       		.uleb128 0x1
 3771 00eb 40       		.uleb128 0x40
 3772 00ec 06       		.uleb128 0x6
 3773 00ed 01       		.uleb128 0x1
 3774 00ee 13       		.uleb128 0x13
 3775 00ef 00       		.byte	0x0
 3776 00f0 00       		.byte	0x0
 3777 00f1 10       		.uleb128 0x10
 3778 00f2 34       		.uleb128 0x34
 3779 00f3 00       		.byte	0x0
 3780 00f4 03       		.uleb128 0x3
 3781 00f5 0E       		.uleb128 0xe
 3782 00f6 3A       		.uleb128 0x3a
 3783 00f7 0B       		.uleb128 0xb
 3784 00f8 3B       		.uleb128 0x3b
 3785 00f9 05       		.uleb128 0x5
 3786 00fa 49       		.uleb128 0x49
 3787 00fb 13       		.uleb128 0x13
 3788 00fc 02       		.uleb128 0x2
 3789 00fd 0A       		.uleb128 0xa
 3790 00fe 00       		.byte	0x0
 3791 00ff 00       		.byte	0x0
 3792 0100 11       		.uleb128 0x11
 3793 0101 34       		.uleb128 0x34
 3794 0102 00       		.byte	0x0
 3795 0103 03       		.uleb128 0x3
 3796 0104 08       		.uleb128 0x8
 3797 0105 3A       		.uleb128 0x3a
 3798 0106 0B       		.uleb128 0xb
 3799 0107 3B       		.uleb128 0x3b
 3800 0108 05       		.uleb128 0x5
 3801 0109 49       		.uleb128 0x49
 3802 010a 13       		.uleb128 0x13
 3803 010b 02       		.uleb128 0x2
 3804 010c 0A       		.uleb128 0xa
 3805 010d 00       		.byte	0x0
 3806 010e 00       		.byte	0x0
ARM GAS  C:\DOCUME~1\david\LOCALS~1\Temp\ccWbOjJF.s 			page 80


 3807 010f 12       		.uleb128 0x12
 3808 0110 2E       		.uleb128 0x2e
 3809 0111 01       		.byte	0x1
 3810 0112 3F       		.uleb128 0x3f
 3811 0113 0C       		.uleb128 0xc
 3812 0114 03       		.uleb128 0x3
 3813 0115 0E       		.uleb128 0xe
 3814 0116 3A       		.uleb128 0x3a
 3815 0117 0B       		.uleb128 0xb
 3816 0118 3B       		.uleb128 0x3b
 3817 0119 05       		.uleb128 0x5
 3818 011a 27       		.uleb128 0x27
 3819 011b 0C       		.uleb128 0xc
 3820 011c 11       		.uleb128 0x11
 3821 011d 01       		.uleb128 0x1
 3822 011e 12       		.uleb128 0x12
 3823 011f 01       		.uleb128 0x1
 3824 0120 40       		.uleb128 0x40
 3825 0121 06       		.uleb128 0x6
 3826 0122 01       		.uleb128 0x1
 3827 0123 13       		.uleb128 0x13
 3828 0124 00       		.byte	0x0
 3829 0125 00       		.byte	0x0
 3830 0126 13       		.uleb128 0x13
 3831 0127 05       		.uleb128 0x5
 3832 0128 00       		.byte	0x0
 3833 0129 03       		.uleb128 0x3
 3834 012a 0E       		.uleb128 0xe
 3835 012b 3A       		.uleb128 0x3a
 3836 012c 0B       		.uleb128 0xb
 3837 012d 3B       		.uleb128 0x3b
 3838 012e 05       		.uleb128 0x5
 3839 012f 49       		.uleb128 0x49
 3840 0130 13       		.uleb128 0x13
 3841 0131 02       		.uleb128 0x2
 3842 0132 0A       		.uleb128 0xa
 3843 0133 00       		.byte	0x0
 3844 0134 00       		.byte	0x0
 3845 0135 14       		.uleb128 0x14
 3846 0136 0F       		.uleb128 0xf
 3847 0137 00       		.byte	0x0
 3848 0138 0B       		.uleb128 0xb
 3849 0139 0B       		.uleb128 0xb
 3850 013a 49       		.uleb128 0x49
 3851 013b 13       		.uleb128 0x13
 3852 013c 00       		.byte	0x0
 3853 013d 00       		.byte	0x0
 3854 013e 15       		.uleb128 0x15
 3855 013f 05       		.uleb128 0x5
 3856 0140 00       		.byte	0x0
 3857 0141 03       		.uleb128 0x3
 3858 0142 08       		.uleb128 0x8
 3859 0143 3A       		.uleb128 0x3a
 3860 0144 0B       		.uleb128 0xb
 3861 0145 3B       		.uleb128 0x3b
 3862 0146 05       		.uleb128 0x5
 3863 0147 49       		.uleb128 0x49
ARM GAS  C:\DOCUME~1\david\LOCALS~1\Temp\ccWbOjJF.s 			page 81


 3864 0148 13       		.uleb128 0x13
 3865 0149 02       		.uleb128 0x2
 3866 014a 0A       		.uleb128 0xa
 3867 014b 00       		.byte	0x0
 3868 014c 00       		.byte	0x0
 3869 014d 16       		.uleb128 0x16
 3870 014e 2E       		.uleb128 0x2e
 3871 014f 01       		.byte	0x1
 3872 0150 3F       		.uleb128 0x3f
 3873 0151 0C       		.uleb128 0xc
 3874 0152 03       		.uleb128 0x3
 3875 0153 0E       		.uleb128 0xe
 3876 0154 3A       		.uleb128 0x3a
 3877 0155 0B       		.uleb128 0xb
 3878 0156 3B       		.uleb128 0x3b
 3879 0157 05       		.uleb128 0x5
 3880 0158 27       		.uleb128 0x27
 3881 0159 0C       		.uleb128 0xc
 3882 015a 49       		.uleb128 0x49
 3883 015b 13       		.uleb128 0x13
 3884 015c 11       		.uleb128 0x11
 3885 015d 01       		.uleb128 0x1
 3886 015e 12       		.uleb128 0x12
 3887 015f 01       		.uleb128 0x1
 3888 0160 40       		.uleb128 0x40
 3889 0161 06       		.uleb128 0x6
 3890 0162 01       		.uleb128 0x1
 3891 0163 13       		.uleb128 0x13
 3892 0164 00       		.byte	0x0
 3893 0165 00       		.byte	0x0
 3894 0166 17       		.uleb128 0x17
 3895 0167 2E       		.uleb128 0x2e
 3896 0168 01       		.byte	0x1
 3897 0169 3F       		.uleb128 0x3f
 3898 016a 0C       		.uleb128 0xc
 3899 016b 03       		.uleb128 0x3
 3900 016c 0E       		.uleb128 0xe
 3901 016d 3A       		.uleb128 0x3a
 3902 016e 0B       		.uleb128 0xb
 3903 016f 3B       		.uleb128 0x3b
 3904 0170 05       		.uleb128 0x5
 3905 0171 11       		.uleb128 0x11
 3906 0172 01       		.uleb128 0x1
 3907 0173 12       		.uleb128 0x12
 3908 0174 01       		.uleb128 0x1
 3909 0175 40       		.uleb128 0x40
 3910 0176 06       		.uleb128 0x6
 3911 0177 01       		.uleb128 0x1
 3912 0178 13       		.uleb128 0x13
 3913 0179 00       		.byte	0x0
 3914 017a 00       		.byte	0x0
 3915 017b 18       		.uleb128 0x18
 3916 017c 0B       		.uleb128 0xb
 3917 017d 01       		.byte	0x1
 3918 017e 11       		.uleb128 0x11
 3919 017f 01       		.uleb128 0x1
 3920 0180 12       		.uleb128 0x12
ARM GAS  C:\DOCUME~1\david\LOCALS~1\Temp\ccWbOjJF.s 			page 82


 3921 0181 01       		.uleb128 0x1
 3922 0182 01       		.uleb128 0x1
 3923 0183 13       		.uleb128 0x13
 3924 0184 00       		.byte	0x0
 3925 0185 00       		.byte	0x0
 3926 0186 19       		.uleb128 0x19
 3927 0187 2E       		.uleb128 0x2e
 3928 0188 00       		.byte	0x0
 3929 0189 3F       		.uleb128 0x3f
 3930 018a 0C       		.uleb128 0xc
 3931 018b 03       		.uleb128 0x3
 3932 018c 0E       		.uleb128 0xe
 3933 018d 3A       		.uleb128 0x3a
 3934 018e 0B       		.uleb128 0xb
 3935 018f 3B       		.uleb128 0x3b
 3936 0190 05       		.uleb128 0x5
 3937 0191 11       		.uleb128 0x11
 3938 0192 01       		.uleb128 0x1
 3939 0193 12       		.uleb128 0x12
 3940 0194 01       		.uleb128 0x1
 3941 0195 40       		.uleb128 0x40
 3942 0196 06       		.uleb128 0x6
 3943 0197 00       		.byte	0x0
 3944 0198 00       		.byte	0x0
 3945 0199 1A       		.uleb128 0x1a
 3946 019a 34       		.uleb128 0x34
 3947 019b 00       		.byte	0x0
 3948 019c 03       		.uleb128 0x3
 3949 019d 0E       		.uleb128 0xe
 3950 019e 3A       		.uleb128 0x3a
 3951 019f 0B       		.uleb128 0xb
 3952 01a0 3B       		.uleb128 0x3b
 3953 01a1 05       		.uleb128 0x5
 3954 01a2 49       		.uleb128 0x49
 3955 01a3 13       		.uleb128 0x13
 3956 01a4 3F       		.uleb128 0x3f
 3957 01a5 0C       		.uleb128 0xc
 3958 01a6 3C       		.uleb128 0x3c
 3959 01a7 0C       		.uleb128 0xc
 3960 01a8 00       		.byte	0x0
 3961 01a9 00       		.byte	0x0
 3962 01aa 1B       		.uleb128 0x1b
 3963 01ab 35       		.uleb128 0x35
 3964 01ac 00       		.byte	0x0
 3965 01ad 49       		.uleb128 0x49
 3966 01ae 13       		.uleb128 0x13
 3967 01af 00       		.byte	0x0
 3968 01b0 00       		.byte	0x0
 3969 01b1 1C       		.uleb128 0x1c
 3970 01b2 34       		.uleb128 0x34
 3971 01b3 00       		.byte	0x0
 3972 01b4 03       		.uleb128 0x3
 3973 01b5 0E       		.uleb128 0xe
 3974 01b6 3A       		.uleb128 0x3a
 3975 01b7 0B       		.uleb128 0xb
 3976 01b8 3B       		.uleb128 0x3b
 3977 01b9 0B       		.uleb128 0xb
ARM GAS  C:\DOCUME~1\david\LOCALS~1\Temp\ccWbOjJF.s 			page 83


 3978 01ba 49       		.uleb128 0x49
 3979 01bb 13       		.uleb128 0x13
 3980 01bc 3F       		.uleb128 0x3f
 3981 01bd 0C       		.uleb128 0xc
 3982 01be 02       		.uleb128 0x2
 3983 01bf 0A       		.uleb128 0xa
 3984 01c0 00       		.byte	0x0
 3985 01c1 00       		.byte	0x0
 3986 01c2 1D       		.uleb128 0x1d
 3987 01c3 01       		.uleb128 0x1
 3988 01c4 01       		.byte	0x1
 3989 01c5 49       		.uleb128 0x49
 3990 01c6 13       		.uleb128 0x13
 3991 01c7 01       		.uleb128 0x1
 3992 01c8 13       		.uleb128 0x13
 3993 01c9 00       		.byte	0x0
 3994 01ca 00       		.byte	0x0
 3995 01cb 1E       		.uleb128 0x1e
 3996 01cc 21       		.uleb128 0x21
 3997 01cd 00       		.byte	0x0
 3998 01ce 49       		.uleb128 0x49
 3999 01cf 13       		.uleb128 0x13
 4000 01d0 2F       		.uleb128 0x2f
 4001 01d1 0B       		.uleb128 0xb
 4002 01d2 00       		.byte	0x0
 4003 01d3 00       		.byte	0x0
 4004 01d4 00       		.byte	0x0
 4005              		.section	.debug_pubnames,"",%progbits
 4006 0000 64010000 		.4byte	0x164
 4007 0004 0200     		.2byte	0x2
 4008 0006 00000000 		.4byte	.Ldebug_info0
 4009 000a E5050000 		.4byte	0x5e5
 4010 000e D1000000 		.4byte	0xd1
 4011 0012 746F6767 		.ascii	"toggle\000"
 4011      6C6500
 4012 0019 E6000000 		.4byte	0xe6
 4013 001d 72656672 		.ascii	"refresh\000"
 4013      65736800 
 4014 0025 18010000 		.4byte	0x118
 4015 0029 6D61696E 		.ascii	"main\000"
 4015      00
 4016 002e 57010000 		.4byte	0x157
 4017 0032 696E6974 		.ascii	"initialize\000"
 4017      69616C69 
 4017      7A6500
 4018 003d 7C010000 		.4byte	0x17c
 4019 0041 636C6561 		.ascii	"clear_board\000"
 4019      725F626F 
 4019      61726400 
 4020 004d B1010000 		.4byte	0x1b1
 4021 0051 636F6E66 		.ascii	"configure_XBee\000"
 4021      69677572 
 4021      655F5842 
 4021      656500
 4022 0060 C5010000 		.4byte	0x1c5
 4023 0064 6765745F 		.ascii	"get_move\000"
 4023      6D6F7665 
ARM GAS  C:\DOCUME~1\david\LOCALS~1\Temp\ccWbOjJF.s 			page 84


 4023      00
 4024 006d 3F020000 		.4byte	0x23f
 4025 0071 72656365 		.ascii	"receive_move\000"
 4025      6976655F 
 4025      6D6F7665 
 4025      00
 4026 007e 6C020000 		.4byte	0x26c
 4027 0082 72656365 		.ascii	"receive_packet\000"
 4027      6976655F 
 4027      7061636B 
 4027      657400
 4028 0091 B5020000 		.4byte	0x2b5
 4029 0095 73656E64 		.ascii	"send_packet\000"
 4029      5F706163 
 4029      6B657400 
 4030 00a1 48030000 		.4byte	0x348
 4031 00a5 73656E64 		.ascii	"send_move\000"
 4031      5F6D6F76 
 4031      6500
 4032 00af 81030000 		.4byte	0x381
 4033 00b3 616E696D 		.ascii	"animate\000"
 4033      61746500 
 4034 00bb BE030000 		.4byte	0x3be
 4035 00bf 77696E6E 		.ascii	"winner_check\000"
 4035      65725F63 
 4035      6865636B 
 4035      00
 4036 00cc F2040000 		.4byte	0x4f2
 4037 00d0 636C6561 		.ascii	"cleanup\000"
 4037      6E757000 
 4038 00d8 1A050000 		.4byte	0x51a
 4039 00dc 706C6179 		.ascii	"player1_turn\000"
 4039      6572315F 
 4039      7475726E 
 4039      00
 4040 00e9 2C050000 		.4byte	0x52c
 4041 00ed 706C6179 		.ascii	"player2_local\000"
 4041      6572325F 
 4041      6C6F6361 
 4041      6C00
 4042 00fb 3E050000 		.4byte	0x53e
 4043 00ff 706C6179 		.ascii	"player1_color\000"
 4043      6572315F 
 4043      636F6C6F 
 4043      7200
 4044 010d 50050000 		.4byte	0x550
 4045 0111 706C6179 		.ascii	"player2_color\000"
 4045      6572325F 
 4045      636F6C6F 
 4045      7200
 4046 011f 78050000 		.4byte	0x578
 4047 0123 706C6179 		.ascii	"player1\000"
 4047      65723100 
 4048 012b 8A050000 		.4byte	0x58a
 4049 012f 706C6179 		.ascii	"player2\000"
 4049      65723200 
 4050 0137 9C050000 		.4byte	0x59c
ARM GAS  C:\DOCUME~1\david\LOCALS~1\Temp\ccWbOjJF.s 			page 85


 4051 013b 6C617374 		.ascii	"last_move\000"
 4051      5F6D6F76 
 4051      6500
 4052 0145 AE050000 		.4byte	0x5ae
 4053 0149 6C6F6361 		.ascii	"locating\000"
 4053      74696E67 
 4053      00
 4054 0152 C0050000 		.4byte	0x5c0
 4055 0156 72506F73 		.ascii	"rPos\000"
 4055      00
 4056 015b D2050000 		.4byte	0x5d2
 4057 015f 63506F73 		.ascii	"cPos\000"
 4057      00
 4058 0164 00000000 		.4byte	0x0
 4059              		.section	.debug_aranges,"",%progbits
 4060 0000 84000000 		.4byte	0x84
 4061 0004 0200     		.2byte	0x2
 4062 0006 00000000 		.4byte	.Ldebug_info0
 4063 000a 04       		.byte	0x4
 4064 000b 00       		.byte	0x0
 4065 000c 0000     		.2byte	0x0
 4066 000e 0000     		.2byte	0x0
 4067 0010 00000000 		.4byte	.LFB29
 4068 0014 34000000 		.4byte	.LFE29-.LFB29
 4069 0018 00000000 		.4byte	.LFB30
 4070 001c 58010000 		.4byte	.LFE30-.LFB30
 4071 0020 00000000 		.4byte	.LFB31
 4072 0024 E0000000 		.4byte	.LFE31-.LFB31
 4073 0028 00000000 		.4byte	.LFB32
 4074 002c 7C010000 		.4byte	.LFE32-.LFB32
 4075 0030 00000000 		.4byte	.LFB33
 4076 0034 70000000 		.4byte	.LFE33-.LFB33
 4077 0038 00000000 		.4byte	.LFB34
 4078 003c 7E010000 		.4byte	.LFE34-.LFB34
 4079 0040 00000000 		.4byte	.LFB35
 4080 0044 02020000 		.4byte	.LFE35-.LFB35
 4081 0048 00000000 		.4byte	.LFB36
 4082 004c 60000000 		.4byte	.LFE36-.LFB36
 4083 0050 00000000 		.4byte	.LFB37
 4084 0054 0C010000 		.4byte	.LFE37-.LFB37
 4085 0058 00000000 		.4byte	.LFB38
 4086 005c F8000000 		.4byte	.LFE38-.LFB38
 4087 0060 00000000 		.4byte	.LFB39
 4088 0064 3A000000 		.4byte	.LFE39-.LFB39
 4089 0068 00000000 		.4byte	.LFB40
 4090 006c FE000000 		.4byte	.LFE40-.LFB40
 4091 0070 00000000 		.4byte	.LFB41
 4092 0074 14050000 		.4byte	.LFE41-.LFB41
 4093 0078 00000000 		.4byte	.LFB42
 4094 007c 8A000000 		.4byte	.LFE42-.LFB42
 4095 0080 00000000 		.4byte	0x0
 4096 0084 00000000 		.4byte	0x0
 4097              		.section	.debug_ranges,"",%progbits
 4098              	.Ldebug_ranges0:
 4099 0000 00000000 		.4byte	.Ltext0
 4100 0004 00000000 		.4byte	.Letext0
 4101 0008 00000000 		.4byte	.LFB29
ARM GAS  C:\DOCUME~1\david\LOCALS~1\Temp\ccWbOjJF.s 			page 86


 4102 000c 34000000 		.4byte	.LFE29
 4103 0010 00000000 		.4byte	.LFB30
 4104 0014 58010000 		.4byte	.LFE30
 4105 0018 00000000 		.4byte	.LFB31
 4106 001c E0000000 		.4byte	.LFE31
 4107 0020 00000000 		.4byte	.LFB32
 4108 0024 7C010000 		.4byte	.LFE32
 4109 0028 00000000 		.4byte	.LFB33
 4110 002c 70000000 		.4byte	.LFE33
 4111 0030 00000000 		.4byte	.LFB34
 4112 0034 7E010000 		.4byte	.LFE34
 4113 0038 00000000 		.4byte	.LFB35
 4114 003c 02020000 		.4byte	.LFE35
 4115 0040 00000000 		.4byte	.LFB36
 4116 0044 60000000 		.4byte	.LFE36
 4117 0048 00000000 		.4byte	.LFB37
 4118 004c 0C010000 		.4byte	.LFE37
 4119 0050 00000000 		.4byte	.LFB38
 4120 0054 F8000000 		.4byte	.LFE38
 4121 0058 00000000 		.4byte	.LFB39
 4122 005c 3A000000 		.4byte	.LFE39
 4123 0060 00000000 		.4byte	.LFB40
 4124 0064 FE000000 		.4byte	.LFE40
 4125 0068 00000000 		.4byte	.LFB41
 4126 006c 14050000 		.4byte	.LFE41
 4127 0070 00000000 		.4byte	.LFB42
 4128 0074 8A000000 		.4byte	.LFE42
 4129 0078 00000000 		.4byte	0x0
 4130 007c 00000000 		.4byte	0x0
 4131              		.section	.debug_str,"MS",%progbits,1
 4132              	.LASF19:
 4133 0000 72656672 		.ascii	"refresh\000"
 4133      65736800 
 4134              	.LASF41:
 4135 0008 626C696E 		.ascii	"blink\000"
 4135      6B00
 4136              	.LASF37:
 4137 000e 73656E64 		.ascii	"send_move\000"
 4137      5F6D6F76 
 4137      6500
 4138              	.LASF38:
 4139 0018 77696E6E 		.ascii	"winner_check\000"
 4139      65725F63 
 4139      6865636B 
 4139      00
 4140              	.LASF2:
 4141 0025 73686F72 		.ascii	"short int\000"
 4141      7420696E 
 4141      7400
 4142              	.LASF54:
 4143 002f 63506F73 		.ascii	"cPos\000"
 4143      00
 4144              	.LASF16:
 4145 0034 6D61696E 		.ascii	"main\000"
 4145      00
 4146              	.LASF28:
 4147 0039 72656365 		.ascii	"receive_packet\000"
ARM GAS  C:\DOCUME~1\david\LOCALS~1\Temp\ccWbOjJF.s 			page 87


 4147      6976655F 
 4147      7061636B 
 4147      657400
 4148              	.LASF30:
 4149 0048 64656C69 		.ascii	"delimiter\000"
 4149      6D697465 
 4149      7200
 4150              	.LASF34:
 4151 0052 64697361 		.ascii	"disable_ack\000"
 4151      626C655F 
 4151      61636B00 
 4152              	.LASF36:
 4153 005e 63686563 		.ascii	"checksum\000"
 4153      6B73756D 
 4153      00
 4154              	.LASF9:
 4155 0067 75696E74 		.ascii	"uint8\000"
 4155      3800
 4156              	.LASF42:
 4157 006d 636F6E66 		.ascii	"configure_XBee\000"
 4157      69677572 
 4157      655F5842 
 4157      656500
 4158              	.LASF57:
 4159 007c 453A5C50 		.ascii	"E:\\PSoC Creator\\connect4\\connect4.cydsn\000"
 4159      536F4320 
 4159      43726561 
 4159      746F725C 
 4159      636F6E6E 
 4160              	.LASF48:
 4161 00a4 706C6179 		.ascii	"player2_color\000"
 4161      6572325F 
 4161      636F6C6F 
 4161      7200
 4162              	.LASF11:
 4163 00b2 666C6F61 		.ascii	"float\000"
 4163      7400
 4164              	.LASF6:
 4165 00b8 6C6F6E67 		.ascii	"long long int\000"
 4165      206C6F6E 
 4165      6720696E 
 4165      7400
 4166              	.LASF26:
 4167 00c6 72656365 		.ascii	"receive_move\000"
 4167      6976655F 
 4167      6D6F7665 
 4167      00
 4168              	.LASF18:
 4169 00d3 636C6561 		.ascii	"clear_board\000"
 4169      725F626F 
 4169      61726400 
 4170              	.LASF4:
 4171 00df 6C6F6E67 		.ascii	"long int\000"
 4171      20696E74 
 4171      00
 4172              	.LASF40:
 4173 00e8 6F666673 		.ascii	"offset\000"
ARM GAS  C:\DOCUME~1\david\LOCALS~1\Temp\ccWbOjJF.s 			page 88


 4173      657400
 4174              	.LASF14:
 4175 00ef 706C6179 		.ascii	"play_t\000"
 4175      5F7400
 4176              	.LASF29:
 4177 00f6 73656E64 		.ascii	"send_packet\000"
 4177      5F706163 
 4177      6B657400 
 4178              	.LASF45:
 4179 0102 706C6179 		.ascii	"player1_turn\000"
 4179      6572315F 
 4179      7475726E 
 4179      00
 4180              	.LASF35:
 4181 010f 6C656E67 		.ascii	"length\000"
 4181      746800
 4182              	.LASF39:
 4183 0116 7374726F 		.ascii	"strobe\000"
 4183      626500
 4184              	.LASF17:
 4185 011d 696E6974 		.ascii	"initialize\000"
 4185      69616C69 
 4185      7A6500
 4186              	.LASF1:
 4187 0128 756E7369 		.ascii	"unsigned char\000"
 4187      676E6564 
 4187      20636861 
 4187      7200
 4188              	.LASF43:
 4189 0136 636C6561 		.ascii	"cleanup\000"
 4189      6E757000 
 4190              	.LASF0:
 4191 013e 7369676E 		.ascii	"signed char\000"
 4191      65642063 
 4191      68617200 
 4192              	.LASF21:
 4193 014a 64697363 		.ascii	"disc\000"
 4193      00
 4194              	.LASF7:
 4195 014f 6C6F6E67 		.ascii	"long long unsigned int\000"
 4195      206C6F6E 
 4195      6720756E 
 4195      7369676E 
 4195      65642069 
 4196              	.LASF52:
 4197 0166 6C6F6361 		.ascii	"locating\000"
 4197      74696E67 
 4197      00
 4198              	.LASF53:
 4199 016f 72506F73 		.ascii	"rPos\000"
 4199      00
 4200              	.LASF8:
 4201 0174 756E7369 		.ascii	"unsigned int\000"
 4201      676E6564 
 4201      20696E74 
 4201      00
 4202              	.LASF51:
ARM GAS  C:\DOCUME~1\david\LOCALS~1\Temp\ccWbOjJF.s 			page 89


 4203 0181 6C617374 		.ascii	"last_move\000"
 4203      5F6D6F76 
 4203      6500
 4204              	.LASF31:
 4205 018b 6170695F 		.ascii	"api_id\000"
 4205      696400
 4206              	.LASF60:
 4207 0192 616E696D 		.ascii	"animate\000"
 4207      61746500 
 4208              	.LASF3:
 4209 019a 73686F72 		.ascii	"short unsigned int\000"
 4209      7420756E 
 4209      7369676E 
 4209      65642069 
 4209      6E7400
 4210              	.LASF13:
 4211 01ad 63686172 		.ascii	"char\000"
 4211      00
 4212              	.LASF25:
 4213 01b2 5F426F6F 		.ascii	"_Bool\000"
 4213      6C00
 4214              	.LASF20:
 4215 01b8 6765745F 		.ascii	"get_move\000"
 4215      6D6F7665 
 4215      00
 4216              	.LASF22:
 4217 01c1 70757368 		.ascii	"pushed\000"
 4217      656400
 4218              	.LASF10:
 4219 01c8 75696E74 		.ascii	"uint16\000"
 4219      313600
 4220              	.LASF15:
 4221 01cf 63656C6C 		.ascii	"cells\000"
 4221      7300
 4222              	.LASF24:
 4223 01d5 72656164 		.ascii	"reading\000"
 4223      696E6700 
 4224              	.LASF46:
 4225 01dd 706C6179 		.ascii	"player2_local\000"
 4225      6572325F 
 4225      6C6F6361 
 4225      6C00
 4226              	.LASF32:
 4227 01eb 6672616D 		.ascii	"frame_id\000"
 4227      655F6964 
 4227      00
 4228              	.LASF5:
 4229 01f4 6C6F6E67 		.ascii	"long unsigned int\000"
 4229      20756E73 
 4229      69676E65 
 4229      6420696E 
 4229      7400
 4230              	.LASF47:
 4231 0206 706C6179 		.ascii	"player1_color\000"
 4231      6572315F 
 4231      636F6C6F 
 4231      7200
ARM GAS  C:\DOCUME~1\david\LOCALS~1\Temp\ccWbOjJF.s 			page 90


 4232              	.LASF12:
 4233 0214 646F7562 		.ascii	"double\000"
 4233      6C6500
 4234              	.LASF56:
 4235 021b 2E5C6D61 		.ascii	".\\main.c\000"
 4235      696E2E63 
 4235      00
 4236              	.LASF23:
 4237 0224 64726F70 		.ascii	"dropped\000"
 4237      70656400 
 4238              	.LASF49:
 4239 022c 706C6179 		.ascii	"player1\000"
 4239      65723100 
 4240              	.LASF50:
 4241 0234 706C6179 		.ascii	"player2\000"
 4241      65723200 
 4242              	.LASF33:
 4243 023c 64657374 		.ascii	"destination\000"
 4243      696E6174 
 4243      696F6E00 
 4244              	.LASF55:
 4245 0248 474E5520 		.ascii	"GNU C 4.4.1\000"
 4245      4320342E 
 4245      342E3100 
 4246              	.LASF58:
 4247 0254 706C6179 		.ascii	"play\000"
 4247      00
 4248              	.LASF44:
 4249 0259 49544D5F 		.ascii	"ITM_RxBuffer\000"
 4249      52784275 
 4249      66666572 
 4249      00
 4250              	.LASF59:
 4251 0266 746F6767 		.ascii	"toggle\000"
 4251      6C6500
 4252              	.LASF27:
 4253 026d 6D6F7665 		.ascii	"move\000"
 4253      00
 4254              		.ident	"GCC: (Sourcery G++ Lite 2010q1-188) 4.4.1"
