ARM GAS  C:\DOCUME~1\david\LOCALS~1\Temp\cci2ny8l.s 			page 1


   1              		.syntax unified
   2              		.cpu cortex-m3
   3              		.fpu softvfp
   4              		.eabi_attribute 20, 1
   5              		.eabi_attribute 21, 1
   6              		.eabi_attribute 23, 3
   7              		.eabi_attribute 24, 1
   8              		.eabi_attribute 25, 1
   9              		.eabi_attribute 26, 1
  10              		.eabi_attribute 30, 6
  11              		.eabi_attribute 18, 4
  12              		.thumb
  13              		.file	"main.c"
  14              		.section	.debug_abbrev,"",%progbits
  15              	.Ldebug_abbrev0:
  16              		.section	.debug_info,"",%progbits
  17              	.Ldebug_info0:
  18              		.section	.debug_line,"",%progbits
  19              	.Ldebug_line0:
  20 0000 0A020000 		.text
  20      02005300 
  20      00000201 
  20      FB0E0D00 
  20      01010101 
  21              	.Ltext0:
  22              		.cfi_sections	.debug_frame
  23              		.comm	player1,64,4
  24              		.comm	player2,64,4
  25              		.global	player1_color
  26              		.data
  27              		.type	player1_color, %object
  28              		.size	player1_color, 1
  29              	player1_color:
  30 0000 01       		.byte	1
  31              		.global	player2_color
  32              		.type	player2_color, %object
  33              		.size	player2_color, 1
  34              	player2_color:
  35 0001 04       		.byte	4
  36              		.global	player1_turn
  37              		.type	player1_turn, %object
  38              		.size	player1_turn, 1
  39              	player1_turn:
  40 0002 01       		.byte	1
  41              		.global	player2_local
  42              		.type	player2_local, %object
  43              		.size	player2_local, 1
  44              	player2_local:
  45 0003 01       		.byte	1
  46              		.section	.rodata
  47              		.align	2
  48              	.LC0:
  49 0000 2B2B2B00 		.ascii	"+++\000"
  50              		.align	2
  51              	.LC1:
  52 0004 41544150 		.ascii	"ATAP1\015\000"
  52      310D00
ARM GAS  C:\DOCUME~1\david\LOCALS~1\Temp\cci2ny8l.s 			page 2


  53 000b 00       		.align	2
  54              	.LC2:
  55 000c 41544348 		.ascii	"ATCH\000"
  55      00
  56 0011 000000   		.align	2
  57              	.LC3:
  58 0014 4154434E 		.ascii	"ATCN\015\000"
  58      0D00
  59              		.section	.text.configure_XBee,"ax",%progbits
  60              		.align	2
  61              		.global	configure_XBee
  62              		.thumb
  63              		.thumb_func
  64              		.type	configure_XBee, %function
  65              	configure_XBee:
  66              	.LFB29:
  67              		.file 1 ".\\main.c"
   1:.\main.c      **** #include <device.h>
   2:.\main.c      **** #include <stdbool.h>
   3:.\main.c      **** #include <display.h>
   4:.\main.c      **** #include <matrix.h>
   5:.\main.c      **** 
   6:.\main.c      **** #define BUS_CLK_FREQ    1000000 // Hz
   7:.\main.c      **** #define REFRESH_RATE    3500    // Hz
   8:.\main.c      **** #define XBEE_GUARD_TIME 1000    // ms
   9:.\main.c      **** #define XBEE_CHANNEL    0x0F
  10:.\main.c      **** #define PLAYER1_ID      0xDA
  11:.\main.c      **** #define PLAYER2_ID      0x07
  12:.\main.c      **** 
  13:.\main.c      **** bool  player1[MATRIX_ROWS][MATRIX_COLS];
  14:.\main.c      **** bool  player2[MATRIX_ROWS][MATRIX_COLS];
  15:.\main.c      **** uint8 player1_color = RED;
  16:.\main.c      **** uint8 player2_color = BLUE;
  17:.\main.c      **** bool  player1_turn  = true;
  18:.\main.c      **** bool  player2_local = true;
  19:.\main.c      **** 
  20:.\main.c      **** typedef struct packet {
  21:.\main.c      ****     char   delimiter;
  22:.\main.c      ****     uint16 length;
  23:.\main.c      ****     uint8  api_id;
  24:.\main.c      ****     uint8  frame_id;
  25:.\main.c      ****     uint16 destination;
  26:.\main.c      ****     uint8  disable_ack;
  27:.\main.c      ****     uint8  player_id;
  28:.\main.c      ****     uint8  packet_type;
  29:.\main.c      ****     uint8  row;
  30:.\main.c      ****     uint8  col;
  31:.\main.c      ****     uint8  checksum;
  32:.\main.c      **** } packet_t;
  33:.\main.c      **** 
  34:.\main.c      **** 
  35:.\main.c      **** 
  36:.\main.c      **** 
  37:.\main.c      **** void configure_XBee () {
  68              		.loc 1 37 0
  69              		.cfi_startproc
  70              		@ args = 0, pretend = 0, frame = 0
ARM GAS  C:\DOCUME~1\david\LOCALS~1\Temp\cci2ny8l.s 			page 3


  71              		@ frame_needed = 1, uses_anonymous_args = 0
  72 0000 80B5     		push	{r7, lr}
  73              	.LCFI0:
  74              		.cfi_def_cfa_offset 8
  75 0002 00AF     		add	r7, sp, #0
  76              		.cfi_offset 14, -4
  77              		.cfi_offset 7, -8
  78              	.LCFI1:
  79              		.cfi_def_cfa_register 7
  80              	.L4:
  38:.\main.c      ****     do {
  39:.\main.c      ****         CyDelay(XBEE_GUARD_TIME);
  81              		.loc 1 39 0
  82 0004 4FF47A70 		mov	r0, #1000
  83 0008 FFF7FEFF 		bl	CyDelay
  40:.\main.c      ****         UART_PutString("+++");
  84              		.loc 1 40 0
  85 000c 40F20000 		movw	r0, #:lower16:.LC0
  86 0010 C0F20000 		movt	r0, #:upper16:.LC0
  87 0014 FFF7FEFF 		bl	UART_PutString
  41:.\main.c      ****         CyDelay(XBEE_GUARD_TIME);
  88              		.loc 1 41 0
  89 0018 4FF47A70 		mov	r0, #1000
  90 001c FFF7FEFF 		bl	CyDelay
  91              	.L2:
  42:.\main.c      ****         while (!(UART_ReadRxStatus() & UART_RX_STS_FIFO_NOTEMPTY));
  92              		.loc 1 42 0
  93 0020 FFF7FEFF 		bl	UART_ReadRxStatus
  94 0024 0346     		mov	r3, r0
  95 0026 03F02003 		and	r3, r3, #32
  96 002a 002B     		cmp	r3, #0
  97 002c F8D0     		beq	.L2
  43:.\main.c      ****     }
  44:.\main.c      ****     while (UART_ReadRxData() != 'O' && UART_ReadRxData() != 'K' && UART_ReadRxData() != '\r');
  98              		.loc 1 44 0
  99 002e FFF7FEFF 		bl	UART_ReadRxData
 100 0032 0346     		mov	r3, r0
 101 0034 4F2B     		cmp	r3, #79
 102 0036 09D0     		beq	.L3
 103 0038 FFF7FEFF 		bl	UART_ReadRxData
 104 003c 0346     		mov	r3, r0
 105 003e 4B2B     		cmp	r3, #75
 106 0040 04D0     		beq	.L3
 107 0042 FFF7FEFF 		bl	UART_ReadRxData
 108 0046 0346     		mov	r3, r0
 109 0048 0D2B     		cmp	r3, #13
 110 004a DBD1     		bne	.L4
 111              	.L3:
  45:.\main.c      ****     UART_PutString("ATAP1\r");
 112              		.loc 1 45 0
 113 004c 40F20000 		movw	r0, #:lower16:.LC1
 114 0050 C0F20000 		movt	r0, #:upper16:.LC1
 115 0054 FFF7FEFF 		bl	UART_PutString
 116              	.L6:
  46:.\main.c      ****     while (UART_ReadRxData() != 'O' && UART_ReadRxData() != 'K' && UART_ReadRxData() != '\r');
 117              		.loc 1 46 0
 118 0058 FFF7FEFF 		bl	UART_ReadRxData
ARM GAS  C:\DOCUME~1\david\LOCALS~1\Temp\cci2ny8l.s 			page 4


 119 005c 0346     		mov	r3, r0
 120 005e 4F2B     		cmp	r3, #79
 121 0060 09D0     		beq	.L5
 122 0062 FFF7FEFF 		bl	UART_ReadRxData
 123 0066 0346     		mov	r3, r0
 124 0068 4B2B     		cmp	r3, #75
 125 006a 04D0     		beq	.L5
 126 006c FFF7FEFF 		bl	UART_ReadRxData
 127 0070 0346     		mov	r3, r0
 128 0072 0D2B     		cmp	r3, #13
 129 0074 F0D1     		bne	.L6
 130              	.L5:
  47:.\main.c      ****     UART_PutString("ATCH");
 131              		.loc 1 47 0
 132 0076 40F20000 		movw	r0, #:lower16:.LC2
 133 007a C0F20000 		movt	r0, #:upper16:.LC2
 134 007e FFF7FEFF 		bl	UART_PutString
  48:.\main.c      ****     UART_WriteTxData(XBEE_CHANNEL);
 135              		.loc 1 48 0
 136 0082 4FF00F00 		mov	r0, #15
 137 0086 FFF7FEFF 		bl	UART_WriteTxData
  49:.\main.c      ****     UART_PutChar('\r');
 138              		.loc 1 49 0
 139 008a 4FF00D00 		mov	r0, #13
 140 008e FFF7FEFF 		bl	UART_PutChar
 141              	.L8:
  50:.\main.c      ****     while (UART_ReadRxData() != 'O' && UART_ReadRxData() != 'K' && UART_ReadRxData() != '\r');
 142              		.loc 1 50 0
 143 0092 FFF7FEFF 		bl	UART_ReadRxData
 144 0096 0346     		mov	r3, r0
 145 0098 4F2B     		cmp	r3, #79
 146 009a 09D0     		beq	.L7
 147 009c FFF7FEFF 		bl	UART_ReadRxData
 148 00a0 0346     		mov	r3, r0
 149 00a2 4B2B     		cmp	r3, #75
 150 00a4 04D0     		beq	.L7
 151 00a6 FFF7FEFF 		bl	UART_ReadRxData
 152 00aa 0346     		mov	r3, r0
 153 00ac 0D2B     		cmp	r3, #13
 154 00ae F0D1     		bne	.L8
 155              	.L7:
  51:.\main.c      ****     //UART_PutString("ATWR\r");
  52:.\main.c      ****     //while (UART_ReadRxData() != 'O' && UART_ReadRxData() != 'K' && UART_ReadRxData() != '\r');
  53:.\main.c      ****     UART_PutString("ATCN\r");
 156              		.loc 1 53 0
 157 00b0 40F20000 		movw	r0, #:lower16:.LC3
 158 00b4 C0F20000 		movt	r0, #:upper16:.LC3
 159 00b8 FFF7FEFF 		bl	UART_PutString
  54:.\main.c      ****     RemoteLED_Write(0x01);
 160              		.loc 1 54 0
 161 00bc 4FF00100 		mov	r0, #1
 162 00c0 FFF7FEFF 		bl	RemoteLED_Write
  55:.\main.c      **** }
 163              		.loc 1 55 0
 164 00c4 80BD     		pop	{r7, pc}
 165              		.cfi_endproc
 166              	.LFE29:
ARM GAS  C:\DOCUME~1\david\LOCALS~1\Temp\cci2ny8l.s 			page 5


 167              		.size	configure_XBee, .-configure_XBee
 168 00c6 00BF     		.section	.text.clear_board,"ax",%progbits
 169              		.align	2
 170              		.global	clear_board
 171              		.thumb
 172              		.thumb_func
 173              		.type	clear_board, %function
 174              	clear_board:
 175              	.LFB30:
  56:.\main.c      **** 
  57:.\main.c      **** 
  58:.\main.c      **** 
  59:.\main.c      **** 
  60:.\main.c      **** void clear_board () {
 176              		.loc 1 60 0
 177              		.cfi_startproc
 178              		@ args = 0, pretend = 0, frame = 8
 179              		@ frame_needed = 1, uses_anonymous_args = 0
 180              		@ link register save eliminated.
 181 0000 80B4     		push	{r7}
 182              	.LCFI2:
 183              		.cfi_def_cfa_offset 4
 184 0002 83B0     		sub	sp, sp, #12
 185              	.LCFI3:
 186              		.cfi_def_cfa_offset 16
 187 0004 00AF     		add	r7, sp, #0
 188              		.cfi_offset 7, -4
 189              	.LCFI4:
 190              		.cfi_def_cfa_register 7
  61:.\main.c      ****     uint8 r, c;
  62:.\main.c      ****     for (r=0; r < MATRIX_ROWS ;++r) {
 191              		.loc 1 62 0
 192 0006 4FF00003 		mov	r3, #0
 193 000a BB71     		strb	r3, [r7, #6]
 194 000c 28E0     		b	.L11
 195              	.L14:
  63:.\main.c      ****         for (c=0; c < MATRIX_COLS ;++c) {
 196              		.loc 1 63 0
 197 000e 4FF00003 		mov	r3, #0
 198 0012 FB71     		strb	r3, [r7, #7]
 199 0014 1DE0     		b	.L12
 200              	.L13:
  64:.\main.c      ****             player1[r][c] = false;
 201              		.loc 1 64 0
 202 0016 B979     		ldrb	r1, [r7, #6]	@ zero_extendqisi2
 203 0018 FA79     		ldrb	r2, [r7, #7]	@ zero_extendqisi2
 204 001a 40F20003 		movw	r3, #:lower16:player1
 205 001e C0F20003 		movt	r3, #:upper16:player1
 206 0022 4FEAC101 		lsl	r1, r1, #3
 207 0026 0A44     		add	r2, r1, r2
 208 0028 1344     		add	r3, r2, r3
 209 002a 4FF00002 		mov	r2, #0
 210 002e 1A70     		strb	r2, [r3, #0]
  65:.\main.c      ****             player2[r][c] = false;
 211              		.loc 1 65 0
 212 0030 B979     		ldrb	r1, [r7, #6]	@ zero_extendqisi2
 213 0032 FA79     		ldrb	r2, [r7, #7]	@ zero_extendqisi2
ARM GAS  C:\DOCUME~1\david\LOCALS~1\Temp\cci2ny8l.s 			page 6


 214 0034 40F20003 		movw	r3, #:lower16:player2
 215 0038 C0F20003 		movt	r3, #:upper16:player2
 216 003c 4FEAC101 		lsl	r1, r1, #3
 217 0040 0A44     		add	r2, r1, r2
 218 0042 1344     		add	r3, r2, r3
 219 0044 4FF00002 		mov	r2, #0
 220 0048 1A70     		strb	r2, [r3, #0]
 221              		.loc 1 63 0
 222 004a FB79     		ldrb	r3, [r7, #7]
 223 004c 03F10103 		add	r3, r3, #1
 224 0050 FB71     		strb	r3, [r7, #7]
 225              	.L12:
 226 0052 FB79     		ldrb	r3, [r7, #7]	@ zero_extendqisi2
 227 0054 072B     		cmp	r3, #7
 228 0056 DED9     		bls	.L13
 229              		.loc 1 62 0
 230 0058 BB79     		ldrb	r3, [r7, #6]
 231 005a 03F10103 		add	r3, r3, #1
 232 005e BB71     		strb	r3, [r7, #6]
 233              	.L11:
 234 0060 BB79     		ldrb	r3, [r7, #6]	@ zero_extendqisi2
 235 0062 072B     		cmp	r3, #7
 236 0064 D3D9     		bls	.L14
  66:.\main.c      ****         }
  67:.\main.c      ****     }
  68:.\main.c      **** }
 237              		.loc 1 68 0
 238 0066 07F10C07 		add	r7, r7, #12
 239 006a BD46     		mov	sp, r7
 240 006c 80BC     		pop	{r7}
 241 006e 7047     		bx	lr
 242              		.cfi_endproc
 243              	.LFE30:
 244              		.size	clear_board, .-clear_board
 245              		.global	locating
 246              		.bss
 247              		.type	locating, %object
 248              		.size	locating, 1
 249              	locating:
 250 0000 00       		.space	1
 251              		.section	.text.toggle,"ax",%progbits
 252              		.align	2
 253              		.global	toggle
 254              		.thumb
 255              		.thumb_func
 256              		.type	toggle, %function
 257              	toggle:
 258              	.LFB31:
  69:.\main.c      **** 
  70:.\main.c      **** 
  71:.\main.c      **** 
  72:.\main.c      **** 
  73:.\main.c      **** bool locating = false;
  74:.\main.c      **** CY_ISR (toggle) { if (locating) player2_local = !player2_local; }
 259              		.loc 1 74 0
 260              		.cfi_startproc
 261              		@ args = 0, pretend = 0, frame = 0
ARM GAS  C:\DOCUME~1\david\LOCALS~1\Temp\cci2ny8l.s 			page 7


 262              		@ frame_needed = 1, uses_anonymous_args = 0
 263              		@ link register save eliminated.
 264 0000 80B4     		push	{r7}
 265              	.LCFI5:
 266              		.cfi_def_cfa_offset 4
 267 0002 00AF     		add	r7, sp, #0
 268              		.cfi_offset 7, -4
 269              	.LCFI6:
 270              		.cfi_def_cfa_register 7
 271              		.loc 1 74 0
 272 0004 40F20003 		movw	r3, #:lower16:locating
 273 0008 C0F20003 		movt	r3, #:upper16:locating
 274 000c 1B78     		ldrb	r3, [r3, #0]	@ zero_extendqisi2
 275 000e 002B     		cmp	r3, #0
 276 0010 0DD0     		beq	.L18
 277 0012 40F20003 		movw	r3, #:lower16:player2_local
 278 0016 C0F20003 		movt	r3, #:upper16:player2_local
 279 001a 1B78     		ldrb	r3, [r3, #0]	@ zero_extendqisi2
 280 001c 83F00103 		eor	r3, r3, #1
 281 0020 DBB2     		uxtb	r3, r3
 282 0022 DAB2     		uxtb	r2, r3
 283 0024 40F20003 		movw	r3, #:lower16:player2_local
 284 0028 C0F20003 		movt	r3, #:upper16:player2_local
 285 002c 1A70     		strb	r2, [r3, #0]
 286              	.L18:
 287 002e BD46     		mov	sp, r7
 288 0030 80BC     		pop	{r7}
 289 0032 7047     		bx	lr
 290              		.cfi_endproc
 291              	.LFE31:
 292              		.size	toggle, .-toggle
 293              		.comm	row,1,1
 294              		.comm	col,1,1
 295              		.section	.text.refresh,"ax",%progbits
 296              		.align	2
 297              		.global	refresh
 298              		.thumb
 299              		.thumb_func
 300              		.type	refresh, %function
 301              	refresh:
 302              	.LFB32:
  75:.\main.c      **** 
  76:.\main.c      **** 
  77:.\main.c      **** 
  78:.\main.c      **** 
  79:.\main.c      **** uint8 row, col;
  80:.\main.c      **** CY_ISR (refresh) {
 303              		.loc 1 80 0
 304              		.cfi_startproc
 305              		@ args = 0, pretend = 0, frame = 8
 306              		@ frame_needed = 1, uses_anonymous_args = 0
 307 0000 80B5     		push	{r7, lr}
 308              	.LCFI7:
 309              		.cfi_def_cfa_offset 8
 310 0002 82B0     		sub	sp, sp, #8
 311              	.LCFI8:
 312              		.cfi_def_cfa_offset 16
ARM GAS  C:\DOCUME~1\david\LOCALS~1\Temp\cci2ny8l.s 			page 8


 313 0004 00AF     		add	r7, sp, #0
 314              		.cfi_offset 14, -4
 315              		.cfi_offset 7, -8
 316              	.LCFI9:
 317              		.cfi_def_cfa_register 7
  81:.\main.c      ****     int cells = MATRIX_ROWS*MATRIX_COLS;
 318              		.loc 1 81 0
 319 0006 4FF04003 		mov	r3, #64
 320 000a 7B60     		str	r3, [r7, #4]
  82:.\main.c      ****     while (cells-- > 0) {
 321              		.loc 1 82 0
 322 000c 95E0     		b	.L20
 323              	.L24:
  83:.\main.c      ****         if (++col > MATRIX_COLS) {
 324              		.loc 1 83 0
 325 000e 40F20003 		movw	r3, #:lower16:col
 326 0012 C0F20003 		movt	r3, #:upper16:col
 327 0016 1B78     		ldrb	r3, [r3, #0]	@ zero_extendqisi2
 328 0018 03F10103 		add	r3, r3, #1
 329 001c DAB2     		uxtb	r2, r3
 330 001e 40F20003 		movw	r3, #:lower16:col
 331 0022 C0F20003 		movt	r3, #:upper16:col
 332 0026 1A70     		strb	r2, [r3, #0]
 333 0028 40F20003 		movw	r3, #:lower16:col
 334 002c C0F20003 		movt	r3, #:upper16:col
 335 0030 1B78     		ldrb	r3, [r3, #0]	@ zero_extendqisi2
 336 0032 082B     		cmp	r3, #8
 337 0034 21D9     		bls	.L21
  84:.\main.c      ****             col = 0;
 338              		.loc 1 84 0
 339 0036 40F20003 		movw	r3, #:lower16:col
 340 003a C0F20003 		movt	r3, #:upper16:col
 341 003e 4FF00002 		mov	r2, #0
 342 0042 1A70     		strb	r2, [r3, #0]
  85:.\main.c      ****             if (++row > MATRIX_ROWS) row = 0;
 343              		.loc 1 85 0
 344 0044 40F20003 		movw	r3, #:lower16:row
 345 0048 C0F20003 		movt	r3, #:upper16:row
 346 004c 1B78     		ldrb	r3, [r3, #0]	@ zero_extendqisi2
 347 004e 03F10103 		add	r3, r3, #1
 348 0052 DAB2     		uxtb	r2, r3
 349 0054 40F20003 		movw	r3, #:lower16:row
 350 0058 C0F20003 		movt	r3, #:upper16:row
 351 005c 1A70     		strb	r2, [r3, #0]
 352 005e 40F20003 		movw	r3, #:lower16:row
 353 0062 C0F20003 		movt	r3, #:upper16:row
 354 0066 1B78     		ldrb	r3, [r3, #0]	@ zero_extendqisi2
 355 0068 082B     		cmp	r3, #8
 356 006a 06D9     		bls	.L21
 357 006c 40F20003 		movw	r3, #:lower16:row
 358 0070 C0F20003 		movt	r3, #:upper16:row
 359 0074 4FF00002 		mov	r2, #0
 360 0078 1A70     		strb	r2, [r3, #0]
 361              	.L21:
  86:.\main.c      ****         }
  87:.\main.c      ****         if (player1[row][col]) {
 362              		.loc 1 87 0
ARM GAS  C:\DOCUME~1\david\LOCALS~1\Temp\cci2ny8l.s 			page 9


 363 007a 40F20003 		movw	r3, #:lower16:row
 364 007e C0F20003 		movt	r3, #:upper16:row
 365 0082 1B78     		ldrb	r3, [r3, #0]	@ zero_extendqisi2
 366 0084 1946     		mov	r1, r3
 367 0086 40F20003 		movw	r3, #:lower16:col
 368 008a C0F20003 		movt	r3, #:upper16:col
 369 008e 1B78     		ldrb	r3, [r3, #0]	@ zero_extendqisi2
 370 0090 1A46     		mov	r2, r3
 371 0092 40F20003 		movw	r3, #:lower16:player1
 372 0096 C0F20003 		movt	r3, #:upper16:player1
 373 009a 4FEAC101 		lsl	r1, r1, #3
 374 009e 0A44     		add	r2, r1, r2
 375 00a0 1344     		add	r3, r2, r3
 376 00a2 1B78     		ldrb	r3, [r3, #0]	@ zero_extendqisi2
 377 00a4 002B     		cmp	r3, #0
 378 00a6 18D0     		beq	.L22
  88:.\main.c      ****             matrix_deluminate();
 379              		.loc 1 88 0
 380 00a8 FFF7FEFF 		bl	matrix_deluminate
  89:.\main.c      ****             matrix_illuminate(row,col,player1_color);
 381              		.loc 1 89 0
 382 00ac 40F20003 		movw	r3, #:lower16:row
 383 00b0 C0F20003 		movt	r3, #:upper16:row
 384 00b4 1B78     		ldrb	r3, [r3, #0]	@ zero_extendqisi2
 385 00b6 1946     		mov	r1, r3
 386 00b8 40F20003 		movw	r3, #:lower16:col
 387 00bc C0F20003 		movt	r3, #:upper16:col
 388 00c0 1B78     		ldrb	r3, [r3, #0]	@ zero_extendqisi2
 389 00c2 1A46     		mov	r2, r3
 390 00c4 40F20003 		movw	r3, #:lower16:player1_color
 391 00c8 C0F20003 		movt	r3, #:upper16:player1_color
 392 00cc 1B78     		ldrb	r3, [r3, #0]	@ zero_extendqisi2
 393 00ce 0846     		mov	r0, r1
 394 00d0 1146     		mov	r1, r2
 395 00d2 1A46     		mov	r2, r3
 396 00d4 FFF7FEFF 		bl	matrix_illuminate
  90:.\main.c      ****             break;
 397              		.loc 1 90 0
 398 00d8 3CE0     		b	.L25
 399              	.L22:
  91:.\main.c      ****         }
  92:.\main.c      ****         if (player2[row][col]) {
 400              		.loc 1 92 0
 401 00da 40F20003 		movw	r3, #:lower16:row
 402 00de C0F20003 		movt	r3, #:upper16:row
 403 00e2 1B78     		ldrb	r3, [r3, #0]	@ zero_extendqisi2
 404 00e4 1946     		mov	r1, r3
 405 00e6 40F20003 		movw	r3, #:lower16:col
 406 00ea C0F20003 		movt	r3, #:upper16:col
 407 00ee 1B78     		ldrb	r3, [r3, #0]	@ zero_extendqisi2
 408 00f0 1A46     		mov	r2, r3
 409 00f2 40F20003 		movw	r3, #:lower16:player2
 410 00f6 C0F20003 		movt	r3, #:upper16:player2
 411 00fa 4FEAC101 		lsl	r1, r1, #3
 412 00fe 0A44     		add	r2, r1, r2
 413 0100 1344     		add	r3, r2, r3
 414 0102 1B78     		ldrb	r3, [r3, #0]	@ zero_extendqisi2
ARM GAS  C:\DOCUME~1\david\LOCALS~1\Temp\cci2ny8l.s 			page 10


 415 0104 002B     		cmp	r3, #0
 416 0106 18D0     		beq	.L20
  93:.\main.c      ****             matrix_deluminate();
 417              		.loc 1 93 0
 418 0108 FFF7FEFF 		bl	matrix_deluminate
  94:.\main.c      ****             matrix_illuminate(row,col,player2_color);
 419              		.loc 1 94 0
 420 010c 40F20003 		movw	r3, #:lower16:row
 421 0110 C0F20003 		movt	r3, #:upper16:row
 422 0114 1B78     		ldrb	r3, [r3, #0]	@ zero_extendqisi2
 423 0116 1946     		mov	r1, r3
 424 0118 40F20003 		movw	r3, #:lower16:col
 425 011c C0F20003 		movt	r3, #:upper16:col
 426 0120 1B78     		ldrb	r3, [r3, #0]	@ zero_extendqisi2
 427 0122 1A46     		mov	r2, r3
 428 0124 40F20003 		movw	r3, #:lower16:player2_color
 429 0128 C0F20003 		movt	r3, #:upper16:player2_color
 430 012c 1B78     		ldrb	r3, [r3, #0]	@ zero_extendqisi2
 431 012e 0846     		mov	r0, r1
 432 0130 1146     		mov	r1, r2
 433 0132 1A46     		mov	r2, r3
 434 0134 FFF7FEFF 		bl	matrix_illuminate
  95:.\main.c      ****             break;
 435              		.loc 1 95 0
 436 0138 0CE0     		b	.L25
 437              	.L20:
 438              		.loc 1 82 0
 439 013a 7B68     		ldr	r3, [r7, #4]
 440 013c 002B     		cmp	r3, #0
 441 013e D4BF     		ite	le
 442 0140 0023     		movle	r3, #0
 443 0142 0123     		movgt	r3, #1
 444 0144 DBB2     		uxtb	r3, r3
 445 0146 7A68     		ldr	r2, [r7, #4]
 446 0148 02F1FF32 		add	r2, r2, #-1
 447 014c 7A60     		str	r2, [r7, #4]
 448 014e 002B     		cmp	r3, #0
 449 0150 7FF45DAF 		bne	.L24
 450              	.L25:
  96:.\main.c      ****         }
  97:.\main.c      ****     }
  98:.\main.c      **** }
 451              		.loc 1 98 0
 452 0154 07F10807 		add	r7, r7, #8
 453 0158 BD46     		mov	sp, r7
 454 015a 80BD     		pop	{r7, pc}
 455              		.cfi_endproc
 456              	.LFE32:
 457              		.size	refresh, .-refresh
 458              		.section	.rodata
 459 001a 0000     		.align	2
 460              	.LC4:
 461 001c 596F7520 		.ascii	"You win!\000"
 461      77696E21 
 461      00
 462              		.section	.text.winner_check,"ax",%progbits
 463              		.align	2
ARM GAS  C:\DOCUME~1\david\LOCALS~1\Temp\cci2ny8l.s 			page 11


 464              		.global	winner_check
 465              		.thumb
 466              		.thumb_func
 467              		.type	winner_check, %function
 468              	winner_check:
 469              	.LFB33:
  99:.\main.c      **** 
 100:.\main.c      **** 
 101:.\main.c      **** 
 102:.\main.c      **** 
 103:.\main.c      **** void winner_check () {
 470              		.loc 1 103 0
 471              		.cfi_startproc
 472              		@ args = 0, pretend = 0, frame = 24
 473              		@ frame_needed = 1, uses_anonymous_args = 0
 474 0000 80B5     		push	{r7, lr}
 475              	.LCFI10:
 476              		.cfi_def_cfa_offset 8
 477 0002 86B0     		sub	sp, sp, #24
 478              	.LCFI11:
 479              		.cfi_def_cfa_offset 32
 480 0004 00AF     		add	r7, sp, #0
 481              		.cfi_offset 14, -4
 482              		.cfi_offset 7, -8
 483              	.LCFI12:
 484              		.cfi_def_cfa_register 7
 104:.\main.c      ****     int r, c;
 105:.\main.c      ****     for (r=1; r < MATRIX_ROWS ;++r) {
 485              		.loc 1 105 0
 486 0006 4FF00103 		mov	r3, #1
 487 000a 7B60     		str	r3, [r7, #4]
 488 000c 77E2     		b	.L27
 489              	.L82:
 106:.\main.c      ****         for (c=0; c < MATRIX_COLS ;++c) {
 490              		.loc 1 106 0
 491 000e 4FF00003 		mov	r3, #0
 492 0012 BB60     		str	r3, [r7, #8]
 493 0014 6BE2     		b	.L28
 494              	.L81:
 495              	.LBB2:
 107:.\main.c      ****             int offset;
 108:.\main.c      ****             
 109:.\main.c      ****             //vertical
 110:.\main.c      ****             if (r < MATRIX_ROWS-3) {
 496              		.loc 1 110 0
 497 0016 7B68     		ldr	r3, [r7, #4]
 498 0018 042B     		cmp	r3, #4
 499 001a 00F39180 		bgt	.L29
 500              	.LBB3:
 111:.\main.c      ****                 bool win = true;
 501              		.loc 1 111 0
 502 001e 4FF00103 		mov	r3, #1
 503 0022 3B74     		strb	r3, [r7, #16]
 112:.\main.c      ****                 for (offset=0; win && offset < 4 ;++offset) {
 504              		.loc 1 112 0
 505 0024 4FF00003 		mov	r3, #0
 506 0028 FB60     		str	r3, [r7, #12]
ARM GAS  C:\DOCUME~1\david\LOCALS~1\Temp\cci2ny8l.s 			page 12


 507 002a 39E0     		b	.L30
 508              	.L35:
 113:.\main.c      ****                     if (player1_turn) { if (!player1[r+offset][c]) win = false; }
 509              		.loc 1 113 0
 510 002c 40F20003 		movw	r3, #:lower16:player1_turn
 511 0030 C0F20003 		movt	r3, #:upper16:player1_turn
 512 0034 1B78     		ldrb	r3, [r3, #0]	@ zero_extendqisi2
 513 0036 002B     		cmp	r3, #0
 514 0038 16D0     		beq	.L31
 515 003a 7A68     		ldr	r2, [r7, #4]
 516 003c FB68     		ldr	r3, [r7, #12]
 517 003e 02EB0301 		add	r1, r2, r3
 518 0042 BA68     		ldr	r2, [r7, #8]
 519 0044 40F20003 		movw	r3, #:lower16:player1
 520 0048 C0F20003 		movt	r3, #:upper16:player1
 521 004c 4FEAC101 		lsl	r1, r1, #3
 522 0050 0A44     		add	r2, r1, r2
 523 0052 1344     		add	r3, r2, r3
 524 0054 1B78     		ldrb	r3, [r3, #0]	@ zero_extendqisi2
 525 0056 83F00103 		eor	r3, r3, #1
 526 005a DBB2     		uxtb	r3, r3
 527 005c 002B     		cmp	r3, #0
 528 005e 1AD0     		beq	.L84
 529 0060 4FF00003 		mov	r3, #0
 530 0064 3B74     		strb	r3, [r7, #16]
 531 0066 17E0     		b	.L33
 532              	.L31:
 114:.\main.c      ****                     else              { if (!player2[r+offset][c]) win = false; }
 533              		.loc 1 114 0
 534 0068 7A68     		ldr	r2, [r7, #4]
 535 006a FB68     		ldr	r3, [r7, #12]
 536 006c 02EB0301 		add	r1, r2, r3
 537 0070 BA68     		ldr	r2, [r7, #8]
 538 0072 40F20003 		movw	r3, #:lower16:player2
 539 0076 C0F20003 		movt	r3, #:upper16:player2
 540 007a 4FEAC101 		lsl	r1, r1, #3
 541 007e 0A44     		add	r2, r1, r2
 542 0080 1344     		add	r3, r2, r3
 543 0082 1B78     		ldrb	r3, [r3, #0]	@ zero_extendqisi2
 544 0084 83F00103 		eor	r3, r3, #1
 545 0088 DBB2     		uxtb	r3, r3
 546 008a 002B     		cmp	r3, #0
 547 008c 04D0     		beq	.L33
 548 008e 4FF00003 		mov	r3, #0
 549 0092 3B74     		strb	r3, [r7, #16]
 550 0094 00E0     		b	.L33
 551              	.L84:
 552              		.loc 1 113 0
 553 0096 00BF     		nop
 554              	.L33:
 555              		.loc 1 112 0
 556 0098 FB68     		ldr	r3, [r7, #12]
 557 009a 03F10103 		add	r3, r3, #1
 558 009e FB60     		str	r3, [r7, #12]
 559              	.L30:
 560 00a0 3B7C     		ldrb	r3, [r7, #16]	@ zero_extendqisi2
 561 00a2 002B     		cmp	r3, #0
ARM GAS  C:\DOCUME~1\david\LOCALS~1\Temp\cci2ny8l.s 			page 13


 562 00a4 02D0     		beq	.L34
 563 00a6 FB68     		ldr	r3, [r7, #12]
 564 00a8 032B     		cmp	r3, #3
 565 00aa BFDD     		ble	.L35
 566              	.L34:
 115:.\main.c      ****                 }
 116:.\main.c      ****                 if (win) {
 567              		.loc 1 116 0
 568 00ac 3B7C     		ldrb	r3, [r7, #16]	@ zero_extendqisi2
 569 00ae 002B     		cmp	r3, #0
 570 00b0 46D0     		beq	.L29
 571              	.LBB4:
 117:.\main.c      ****                     LCD_UpdateMessage("You win!");
 572              		.loc 1 117 0
 573 00b2 40F20000 		movw	r0, #:lower16:.LC4
 574 00b6 C0F20000 		movt	r0, #:upper16:.LC4
 575 00ba FFF7FEFF 		bl	LCD_UpdateMessage
 118:.\main.c      ****                     bool blink = false;
 576              		.loc 1 118 0
 577 00be 4FF00003 		mov	r3, #0
 578 00c2 7B74     		strb	r3, [r7, #17]
 579              	.L41:
 119:.\main.c      ****                     while (true) {
 120:.\main.c      ****                         for (offset=0; win && offset < 4 ;++offset) {
 580              		.loc 1 120 0
 581 00c4 4FF00003 		mov	r3, #0
 582 00c8 FB60     		str	r3, [r7, #12]
 583 00ca 29E0     		b	.L36
 584              	.L40:
 121:.\main.c      ****                             if (player1_turn) player1[r+offset][c] = blink;
 585              		.loc 1 121 0
 586 00cc 40F20003 		movw	r3, #:lower16:player1_turn
 587 00d0 C0F20003 		movt	r3, #:upper16:player1_turn
 588 00d4 1B78     		ldrb	r3, [r3, #0]	@ zero_extendqisi2
 589 00d6 002B     		cmp	r3, #0
 590 00d8 0FD0     		beq	.L37
 591 00da 7A68     		ldr	r2, [r7, #4]
 592 00dc FB68     		ldr	r3, [r7, #12]
 593 00de 02EB0301 		add	r1, r2, r3
 594 00e2 BA68     		ldr	r2, [r7, #8]
 595 00e4 40F20003 		movw	r3, #:lower16:player1
 596 00e8 C0F20003 		movt	r3, #:upper16:player1
 597 00ec 4FEAC101 		lsl	r1, r1, #3
 598 00f0 0A44     		add	r2, r1, r2
 599 00f2 1344     		add	r3, r2, r3
 600 00f4 7A7C     		ldrb	r2, [r7, #17]
 601 00f6 1A70     		strb	r2, [r3, #0]
 602 00f8 0EE0     		b	.L38
 603              	.L37:
 122:.\main.c      ****                             else              player2[r+offset][c] = blink;
 604              		.loc 1 122 0
 605 00fa 7A68     		ldr	r2, [r7, #4]
 606 00fc FB68     		ldr	r3, [r7, #12]
 607 00fe 02EB0301 		add	r1, r2, r3
 608 0102 BA68     		ldr	r2, [r7, #8]
 609 0104 40F20003 		movw	r3, #:lower16:player2
 610 0108 C0F20003 		movt	r3, #:upper16:player2
ARM GAS  C:\DOCUME~1\david\LOCALS~1\Temp\cci2ny8l.s 			page 14


 611 010c 4FEAC101 		lsl	r1, r1, #3
 612 0110 0A44     		add	r2, r1, r2
 613 0112 1344     		add	r3, r2, r3
 614 0114 7A7C     		ldrb	r2, [r7, #17]
 615 0116 1A70     		strb	r2, [r3, #0]
 616              	.L38:
 617              		.loc 1 120 0
 618 0118 FB68     		ldr	r3, [r7, #12]
 619 011a 03F10103 		add	r3, r3, #1
 620 011e FB60     		str	r3, [r7, #12]
 621              	.L36:
 622 0120 3B7C     		ldrb	r3, [r7, #16]	@ zero_extendqisi2
 623 0122 002B     		cmp	r3, #0
 624 0124 02D0     		beq	.L39
 625 0126 FB68     		ldr	r3, [r7, #12]
 626 0128 032B     		cmp	r3, #3
 627 012a CFDD     		ble	.L40
 628              	.L39:
 123:.\main.c      ****                         }
 124:.\main.c      ****                         CyDelay(100);
 629              		.loc 1 124 0
 630 012c 4FF06400 		mov	r0, #100
 631 0130 FFF7FEFF 		bl	CyDelay
 125:.\main.c      ****                         blink = !blink;
 632              		.loc 1 125 0
 633 0134 7B7C     		ldrb	r3, [r7, #17]
 634 0136 83F00103 		eor	r3, r3, #1
 635 013a DBB2     		uxtb	r3, r3
 636 013c 7B74     		strb	r3, [r7, #17]
 126:.\main.c      ****                     }
 637              		.loc 1 126 0
 638 013e C1E7     		b	.L41
 639              	.L29:
 640              	.LBE4:
 641              	.LBE3:
 127:.\main.c      ****                 }
 128:.\main.c      ****             }
 129:.\main.c      ****             
 130:.\main.c      ****             //lateral
 131:.\main.c      ****             if (c < MATRIX_COLS-3) {
 642              		.loc 1 131 0
 643 0140 BB68     		ldr	r3, [r7, #8]
 644 0142 042B     		cmp	r3, #4
 645 0144 00F38D80 		bgt	.L42
 646              	.LBB5:
 132:.\main.c      ****                 bool win = true;
 647              		.loc 1 132 0
 648 0148 4FF00103 		mov	r3, #1
 649 014c BB74     		strb	r3, [r7, #18]
 133:.\main.c      ****                 for (offset=0; win && offset < 4 ;++offset) {
 650              		.loc 1 133 0
 651 014e 4FF00003 		mov	r3, #0
 652 0152 FB60     		str	r3, [r7, #12]
 653 0154 37E0     		b	.L43
 654              	.L48:
 134:.\main.c      ****                     if (player1_turn) { if (!player1[r][c+offset]) win = false; }
 655              		.loc 1 134 0
ARM GAS  C:\DOCUME~1\david\LOCALS~1\Temp\cci2ny8l.s 			page 15


 656 0156 40F20003 		movw	r3, #:lower16:player1_turn
 657 015a C0F20003 		movt	r3, #:upper16:player1_turn
 658 015e 1B78     		ldrb	r3, [r3, #0]	@ zero_extendqisi2
 659 0160 002B     		cmp	r3, #0
 660 0162 15D0     		beq	.L44
 661 0164 7968     		ldr	r1, [r7, #4]
 662 0166 BA68     		ldr	r2, [r7, #8]
 663 0168 FB68     		ldr	r3, [r7, #12]
 664 016a 1A44     		add	r2, r2, r3
 665 016c 40F20003 		movw	r3, #:lower16:player1
 666 0170 C0F20003 		movt	r3, #:upper16:player1
 667 0174 4FEAC101 		lsl	r1, r1, #3
 668 0178 0A44     		add	r2, r1, r2
 669 017a 1344     		add	r3, r2, r3
 670 017c 1B78     		ldrb	r3, [r3, #0]	@ zero_extendqisi2
 671 017e 83F00103 		eor	r3, r3, #1
 672 0182 DBB2     		uxtb	r3, r3
 673 0184 002B     		cmp	r3, #0
 674 0186 19D0     		beq	.L85
 675 0188 4FF00003 		mov	r3, #0
 676 018c BB74     		strb	r3, [r7, #18]
 677 018e 16E0     		b	.L46
 678              	.L44:
 135:.\main.c      ****                     else              { if (!player2[r][c+offset]) win = false; }
 679              		.loc 1 135 0
 680 0190 7968     		ldr	r1, [r7, #4]
 681 0192 BA68     		ldr	r2, [r7, #8]
 682 0194 FB68     		ldr	r3, [r7, #12]
 683 0196 1A44     		add	r2, r2, r3
 684 0198 40F20003 		movw	r3, #:lower16:player2
 685 019c C0F20003 		movt	r3, #:upper16:player2
 686 01a0 4FEAC101 		lsl	r1, r1, #3
 687 01a4 0A44     		add	r2, r1, r2
 688 01a6 1344     		add	r3, r2, r3
 689 01a8 1B78     		ldrb	r3, [r3, #0]	@ zero_extendqisi2
 690 01aa 83F00103 		eor	r3, r3, #1
 691 01ae DBB2     		uxtb	r3, r3
 692 01b0 002B     		cmp	r3, #0
 693 01b2 04D0     		beq	.L46
 694 01b4 4FF00003 		mov	r3, #0
 695 01b8 BB74     		strb	r3, [r7, #18]
 696 01ba 00E0     		b	.L46
 697              	.L85:
 698              		.loc 1 134 0
 699 01bc 00BF     		nop
 700              	.L46:
 701              		.loc 1 133 0
 702 01be FB68     		ldr	r3, [r7, #12]
 703 01c0 03F10103 		add	r3, r3, #1
 704 01c4 FB60     		str	r3, [r7, #12]
 705              	.L43:
 706 01c6 BB7C     		ldrb	r3, [r7, #18]	@ zero_extendqisi2
 707 01c8 002B     		cmp	r3, #0
 708 01ca 02D0     		beq	.L47
 709 01cc FB68     		ldr	r3, [r7, #12]
 710 01ce 032B     		cmp	r3, #3
 711 01d0 C1DD     		ble	.L48
ARM GAS  C:\DOCUME~1\david\LOCALS~1\Temp\cci2ny8l.s 			page 16


 712              	.L47:
 136:.\main.c      ****                 }
 137:.\main.c      ****                 if (win) {
 713              		.loc 1 137 0
 714 01d2 BB7C     		ldrb	r3, [r7, #18]	@ zero_extendqisi2
 715 01d4 002B     		cmp	r3, #0
 716 01d6 44D0     		beq	.L42
 717              	.LBB6:
 138:.\main.c      ****                     LCD_UpdateMessage("You win!");
 718              		.loc 1 138 0
 719 01d8 40F20000 		movw	r0, #:lower16:.LC4
 720 01dc C0F20000 		movt	r0, #:upper16:.LC4
 721 01e0 FFF7FEFF 		bl	LCD_UpdateMessage
 139:.\main.c      ****                     bool blink = false;
 722              		.loc 1 139 0
 723 01e4 4FF00003 		mov	r3, #0
 724 01e8 FB74     		strb	r3, [r7, #19]
 725              	.L54:
 140:.\main.c      ****                     while (true) {
 141:.\main.c      ****                         for (offset=0; win && offset < 4 ;++offset) {
 726              		.loc 1 141 0
 727 01ea 4FF00003 		mov	r3, #0
 728 01ee FB60     		str	r3, [r7, #12]
 729 01f0 27E0     		b	.L49
 730              	.L53:
 142:.\main.c      ****                             if (player1_turn) player1[r][c+offset] = blink;
 731              		.loc 1 142 0
 732 01f2 40F20003 		movw	r3, #:lower16:player1_turn
 733 01f6 C0F20003 		movt	r3, #:upper16:player1_turn
 734 01fa 1B78     		ldrb	r3, [r3, #0]	@ zero_extendqisi2
 735 01fc 002B     		cmp	r3, #0
 736 01fe 0ED0     		beq	.L50
 737 0200 7968     		ldr	r1, [r7, #4]
 738 0202 BA68     		ldr	r2, [r7, #8]
 739 0204 FB68     		ldr	r3, [r7, #12]
 740 0206 1A44     		add	r2, r2, r3
 741 0208 40F20003 		movw	r3, #:lower16:player1
 742 020c C0F20003 		movt	r3, #:upper16:player1
 743 0210 4FEAC101 		lsl	r1, r1, #3
 744 0214 0A44     		add	r2, r1, r2
 745 0216 1344     		add	r3, r2, r3
 746 0218 FA7C     		ldrb	r2, [r7, #19]
 747 021a 1A70     		strb	r2, [r3, #0]
 748 021c 0DE0     		b	.L51
 749              	.L50:
 143:.\main.c      ****                             else              player2[r][c+offset] = blink;
 750              		.loc 1 143 0
 751 021e 7968     		ldr	r1, [r7, #4]
 752 0220 BA68     		ldr	r2, [r7, #8]
 753 0222 FB68     		ldr	r3, [r7, #12]
 754 0224 1A44     		add	r2, r2, r3
 755 0226 40F20003 		movw	r3, #:lower16:player2
 756 022a C0F20003 		movt	r3, #:upper16:player2
 757 022e 4FEAC101 		lsl	r1, r1, #3
 758 0232 0A44     		add	r2, r1, r2
 759 0234 1344     		add	r3, r2, r3
 760 0236 FA7C     		ldrb	r2, [r7, #19]
ARM GAS  C:\DOCUME~1\david\LOCALS~1\Temp\cci2ny8l.s 			page 17


 761 0238 1A70     		strb	r2, [r3, #0]
 762              	.L51:
 763              		.loc 1 141 0
 764 023a FB68     		ldr	r3, [r7, #12]
 765 023c 03F10103 		add	r3, r3, #1
 766 0240 FB60     		str	r3, [r7, #12]
 767              	.L49:
 768 0242 BB7C     		ldrb	r3, [r7, #18]	@ zero_extendqisi2
 769 0244 002B     		cmp	r3, #0
 770 0246 02D0     		beq	.L52
 771 0248 FB68     		ldr	r3, [r7, #12]
 772 024a 032B     		cmp	r3, #3
 773 024c D1DD     		ble	.L53
 774              	.L52:
 144:.\main.c      ****                         }
 145:.\main.c      ****                         CyDelay(100);
 775              		.loc 1 145 0
 776 024e 4FF06400 		mov	r0, #100
 777 0252 FFF7FEFF 		bl	CyDelay
 146:.\main.c      ****                         blink = !blink;
 778              		.loc 1 146 0
 779 0256 FB7C     		ldrb	r3, [r7, #19]
 780 0258 83F00103 		eor	r3, r3, #1
 781 025c DBB2     		uxtb	r3, r3
 782 025e FB74     		strb	r3, [r7, #19]
 147:.\main.c      ****                     }
 783              		.loc 1 147 0
 784 0260 C3E7     		b	.L54
 785              	.L42:
 786              	.LBE6:
 787              	.LBE5:
 148:.\main.c      ****                 }
 149:.\main.c      ****             }
 150:.\main.c      ****             
 151:.\main.c      ****             //down-diagonal
 152:.\main.c      ****             if (r < MATRIX_ROWS-3 && c < MATRIX_COLS-3) {
 788              		.loc 1 152 0
 789 0262 7B68     		ldr	r3, [r7, #4]
 790 0264 042B     		cmp	r3, #4
 791 0266 00F39D80 		bgt	.L55
 792 026a BB68     		ldr	r3, [r7, #8]
 793 026c 042B     		cmp	r3, #4
 794 026e 00F39980 		bgt	.L55
 795              	.LBB7:
 153:.\main.c      ****                 bool win = true;
 796              		.loc 1 153 0
 797 0272 4FF00103 		mov	r3, #1
 798 0276 3B75     		strb	r3, [r7, #20]
 154:.\main.c      ****                 for (offset=0; win && offset < 4 ;++offset) {
 799              		.loc 1 154 0
 800 0278 4FF00003 		mov	r3, #0
 801 027c FB60     		str	r3, [r7, #12]
 802 027e 3DE0     		b	.L56
 803              	.L61:
 155:.\main.c      ****                     if (player1_turn) { if (!player1[r+offset][c+offset]) win = false; }
 804              		.loc 1 155 0
 805 0280 40F20003 		movw	r3, #:lower16:player1_turn
ARM GAS  C:\DOCUME~1\david\LOCALS~1\Temp\cci2ny8l.s 			page 18


 806 0284 C0F20003 		movt	r3, #:upper16:player1_turn
 807 0288 1B78     		ldrb	r3, [r3, #0]	@ zero_extendqisi2
 808 028a 002B     		cmp	r3, #0
 809 028c 18D0     		beq	.L57
 810 028e 7A68     		ldr	r2, [r7, #4]
 811 0290 FB68     		ldr	r3, [r7, #12]
 812 0292 02EB0301 		add	r1, r2, r3
 813 0296 BA68     		ldr	r2, [r7, #8]
 814 0298 FB68     		ldr	r3, [r7, #12]
 815 029a 1A44     		add	r2, r2, r3
 816 029c 40F20003 		movw	r3, #:lower16:player1
 817 02a0 C0F20003 		movt	r3, #:upper16:player1
 818 02a4 4FEAC101 		lsl	r1, r1, #3
 819 02a8 0A44     		add	r2, r1, r2
 820 02aa 1344     		add	r3, r2, r3
 821 02ac 1B78     		ldrb	r3, [r3, #0]	@ zero_extendqisi2
 822 02ae 83F00103 		eor	r3, r3, #1
 823 02b2 DBB2     		uxtb	r3, r3
 824 02b4 002B     		cmp	r3, #0
 825 02b6 1CD0     		beq	.L86
 826 02b8 4FF00003 		mov	r3, #0
 827 02bc 3B75     		strb	r3, [r7, #20]
 828 02be 19E0     		b	.L59
 829              	.L57:
 156:.\main.c      ****                     else              { if (!player2[r+offset][c+offset]) win = false; }
 830              		.loc 1 156 0
 831 02c0 7A68     		ldr	r2, [r7, #4]
 832 02c2 FB68     		ldr	r3, [r7, #12]
 833 02c4 02EB0301 		add	r1, r2, r3
 834 02c8 BA68     		ldr	r2, [r7, #8]
 835 02ca FB68     		ldr	r3, [r7, #12]
 836 02cc 1A44     		add	r2, r2, r3
 837 02ce 40F20003 		movw	r3, #:lower16:player2
 838 02d2 C0F20003 		movt	r3, #:upper16:player2
 839 02d6 4FEAC101 		lsl	r1, r1, #3
 840 02da 0A44     		add	r2, r1, r2
 841 02dc 1344     		add	r3, r2, r3
 842 02de 1B78     		ldrb	r3, [r3, #0]	@ zero_extendqisi2
 843 02e0 83F00103 		eor	r3, r3, #1
 844 02e4 DBB2     		uxtb	r3, r3
 845 02e6 002B     		cmp	r3, #0
 846 02e8 04D0     		beq	.L59
 847 02ea 4FF00003 		mov	r3, #0
 848 02ee 3B75     		strb	r3, [r7, #20]
 849 02f0 00E0     		b	.L59
 850              	.L86:
 851              		.loc 1 155 0
 852 02f2 00BF     		nop
 853              	.L59:
 854              		.loc 1 154 0
 855 02f4 FB68     		ldr	r3, [r7, #12]
 856 02f6 03F10103 		add	r3, r3, #1
 857 02fa FB60     		str	r3, [r7, #12]
 858              	.L56:
 859 02fc 3B7D     		ldrb	r3, [r7, #20]	@ zero_extendqisi2
 860 02fe 002B     		cmp	r3, #0
 861 0300 02D0     		beq	.L60
ARM GAS  C:\DOCUME~1\david\LOCALS~1\Temp\cci2ny8l.s 			page 19


 862 0302 FB68     		ldr	r3, [r7, #12]
 863 0304 032B     		cmp	r3, #3
 864 0306 BBDD     		ble	.L61
 865              	.L60:
 157:.\main.c      ****                 }
 158:.\main.c      ****                 if (win) {
 866              		.loc 1 158 0
 867 0308 3B7D     		ldrb	r3, [r7, #20]	@ zero_extendqisi2
 868 030a 002B     		cmp	r3, #0
 869 030c 4AD0     		beq	.L55
 870              	.LBB8:
 159:.\main.c      ****                     LCD_UpdateMessage("You win!");
 871              		.loc 1 159 0
 872 030e 40F20000 		movw	r0, #:lower16:.LC4
 873 0312 C0F20000 		movt	r0, #:upper16:.LC4
 874 0316 FFF7FEFF 		bl	LCD_UpdateMessage
 160:.\main.c      ****                     bool blink = false;
 875              		.loc 1 160 0
 876 031a 4FF00003 		mov	r3, #0
 877 031e 7B75     		strb	r3, [r7, #21]
 878              	.L67:
 161:.\main.c      ****                     while (true) {
 162:.\main.c      ****                         for (offset=0; win && offset < 4 ;++offset) {
 879              		.loc 1 162 0
 880 0320 4FF00003 		mov	r3, #0
 881 0324 FB60     		str	r3, [r7, #12]
 882 0326 2DE0     		b	.L62
 883              	.L66:
 163:.\main.c      ****                             if (player1_turn) player1[r+offset][c+offset] = blink;
 884              		.loc 1 163 0
 885 0328 40F20003 		movw	r3, #:lower16:player1_turn
 886 032c C0F20003 		movt	r3, #:upper16:player1_turn
 887 0330 1B78     		ldrb	r3, [r3, #0]	@ zero_extendqisi2
 888 0332 002B     		cmp	r3, #0
 889 0334 11D0     		beq	.L63
 890 0336 7A68     		ldr	r2, [r7, #4]
 891 0338 FB68     		ldr	r3, [r7, #12]
 892 033a 02EB0301 		add	r1, r2, r3
 893 033e BA68     		ldr	r2, [r7, #8]
 894 0340 FB68     		ldr	r3, [r7, #12]
 895 0342 1A44     		add	r2, r2, r3
 896 0344 40F20003 		movw	r3, #:lower16:player1
 897 0348 C0F20003 		movt	r3, #:upper16:player1
 898 034c 4FEAC101 		lsl	r1, r1, #3
 899 0350 0A44     		add	r2, r1, r2
 900 0352 1344     		add	r3, r2, r3
 901 0354 7A7D     		ldrb	r2, [r7, #21]
 902 0356 1A70     		strb	r2, [r3, #0]
 903 0358 10E0     		b	.L64
 904              	.L63:
 164:.\main.c      ****                             else              player2[r+offset][c+offset] = blink;
 905              		.loc 1 164 0
 906 035a 7A68     		ldr	r2, [r7, #4]
 907 035c FB68     		ldr	r3, [r7, #12]
 908 035e 02EB0301 		add	r1, r2, r3
 909 0362 BA68     		ldr	r2, [r7, #8]
 910 0364 FB68     		ldr	r3, [r7, #12]
ARM GAS  C:\DOCUME~1\david\LOCALS~1\Temp\cci2ny8l.s 			page 20


 911 0366 1A44     		add	r2, r2, r3
 912 0368 40F20003 		movw	r3, #:lower16:player2
 913 036c C0F20003 		movt	r3, #:upper16:player2
 914 0370 4FEAC101 		lsl	r1, r1, #3
 915 0374 0A44     		add	r2, r1, r2
 916 0376 1344     		add	r3, r2, r3
 917 0378 7A7D     		ldrb	r2, [r7, #21]
 918 037a 1A70     		strb	r2, [r3, #0]
 919              	.L64:
 920              		.loc 1 162 0
 921 037c FB68     		ldr	r3, [r7, #12]
 922 037e 03F10103 		add	r3, r3, #1
 923 0382 FB60     		str	r3, [r7, #12]
 924              	.L62:
 925 0384 3B7D     		ldrb	r3, [r7, #20]	@ zero_extendqisi2
 926 0386 002B     		cmp	r3, #0
 927 0388 02D0     		beq	.L65
 928 038a FB68     		ldr	r3, [r7, #12]
 929 038c 032B     		cmp	r3, #3
 930 038e CBDD     		ble	.L66
 931              	.L65:
 165:.\main.c      ****                         }
 166:.\main.c      ****                         CyDelay(100);
 932              		.loc 1 166 0
 933 0390 4FF06400 		mov	r0, #100
 934 0394 FFF7FEFF 		bl	CyDelay
 167:.\main.c      ****                         blink = !blink;
 935              		.loc 1 167 0
 936 0398 7B7D     		ldrb	r3, [r7, #21]
 937 039a 83F00103 		eor	r3, r3, #1
 938 039e DBB2     		uxtb	r3, r3
 939 03a0 7B75     		strb	r3, [r7, #21]
 168:.\main.c      ****                     }
 940              		.loc 1 168 0
 941 03a2 BDE7     		b	.L67
 942              	.L55:
 943              	.LBE8:
 944              	.LBE7:
 169:.\main.c      ****                 }
 170:.\main.c      ****             }
 171:.\main.c      ****             
 172:.\main.c      ****             //up-diagonal
 173:.\main.c      ****             if (r > 3 && c < MATRIX_COLS-3) {
 945              		.loc 1 173 0
 946 03a4 7B68     		ldr	r3, [r7, #4]
 947 03a6 032B     		cmp	r3, #3
 948 03a8 40F39D80 		ble	.L68
 949 03ac BB68     		ldr	r3, [r7, #8]
 950 03ae 042B     		cmp	r3, #4
 951 03b0 00F39980 		bgt	.L68
 952              	.LBB9:
 174:.\main.c      ****                 bool win = true;
 953              		.loc 1 174 0
 954 03b4 4FF00103 		mov	r3, #1
 955 03b8 BB75     		strb	r3, [r7, #22]
 175:.\main.c      ****                 for (offset=0; win && offset < 4 ;++offset) {
 956              		.loc 1 175 0
ARM GAS  C:\DOCUME~1\david\LOCALS~1\Temp\cci2ny8l.s 			page 21


 957 03ba 4FF00003 		mov	r3, #0
 958 03be FB60     		str	r3, [r7, #12]
 959 03c0 3DE0     		b	.L69
 960              	.L74:
 176:.\main.c      ****                     if (player1_turn) { if (!player1[r-offset][c+offset]) win = false; }
 961              		.loc 1 176 0
 962 03c2 40F20003 		movw	r3, #:lower16:player1_turn
 963 03c6 C0F20003 		movt	r3, #:upper16:player1_turn
 964 03ca 1B78     		ldrb	r3, [r3, #0]	@ zero_extendqisi2
 965 03cc 002B     		cmp	r3, #0
 966 03ce 18D0     		beq	.L70
 967 03d0 7A68     		ldr	r2, [r7, #4]
 968 03d2 FB68     		ldr	r3, [r7, #12]
 969 03d4 C3EB0201 		rsb	r1, r3, r2
 970 03d8 BA68     		ldr	r2, [r7, #8]
 971 03da FB68     		ldr	r3, [r7, #12]
 972 03dc 1A44     		add	r2, r2, r3
 973 03de 40F20003 		movw	r3, #:lower16:player1
 974 03e2 C0F20003 		movt	r3, #:upper16:player1
 975 03e6 4FEAC101 		lsl	r1, r1, #3
 976 03ea 0A44     		add	r2, r1, r2
 977 03ec 1344     		add	r3, r2, r3
 978 03ee 1B78     		ldrb	r3, [r3, #0]	@ zero_extendqisi2
 979 03f0 83F00103 		eor	r3, r3, #1
 980 03f4 DBB2     		uxtb	r3, r3
 981 03f6 002B     		cmp	r3, #0
 982 03f8 1CD0     		beq	.L87
 983 03fa 4FF00003 		mov	r3, #0
 984 03fe BB75     		strb	r3, [r7, #22]
 985 0400 19E0     		b	.L72
 986              	.L70:
 177:.\main.c      ****                     else              { if (!player2[r-offset][c+offset]) win = false; }
 987              		.loc 1 177 0
 988 0402 7A68     		ldr	r2, [r7, #4]
 989 0404 FB68     		ldr	r3, [r7, #12]
 990 0406 C3EB0201 		rsb	r1, r3, r2
 991 040a BA68     		ldr	r2, [r7, #8]
 992 040c FB68     		ldr	r3, [r7, #12]
 993 040e 1A44     		add	r2, r2, r3
 994 0410 40F20003 		movw	r3, #:lower16:player2
 995 0414 C0F20003 		movt	r3, #:upper16:player2
 996 0418 4FEAC101 		lsl	r1, r1, #3
 997 041c 0A44     		add	r2, r1, r2
 998 041e 1344     		add	r3, r2, r3
 999 0420 1B78     		ldrb	r3, [r3, #0]	@ zero_extendqisi2
 1000 0422 83F00103 		eor	r3, r3, #1
 1001 0426 DBB2     		uxtb	r3, r3
 1002 0428 002B     		cmp	r3, #0
 1003 042a 04D0     		beq	.L72
 1004 042c 4FF00003 		mov	r3, #0
 1005 0430 BB75     		strb	r3, [r7, #22]
 1006 0432 00E0     		b	.L72
 1007              	.L87:
 1008              		.loc 1 176 0
 1009 0434 00BF     		nop
 1010              	.L72:
 1011              		.loc 1 175 0
ARM GAS  C:\DOCUME~1\david\LOCALS~1\Temp\cci2ny8l.s 			page 22


 1012 0436 FB68     		ldr	r3, [r7, #12]
 1013 0438 03F10103 		add	r3, r3, #1
 1014 043c FB60     		str	r3, [r7, #12]
 1015              	.L69:
 1016 043e BB7D     		ldrb	r3, [r7, #22]	@ zero_extendqisi2
 1017 0440 002B     		cmp	r3, #0
 1018 0442 02D0     		beq	.L73
 1019 0444 FB68     		ldr	r3, [r7, #12]
 1020 0446 032B     		cmp	r3, #3
 1021 0448 BBDD     		ble	.L74
 1022              	.L73:
 178:.\main.c      ****                 }
 179:.\main.c      ****                 if (win) {
 1023              		.loc 1 179 0
 1024 044a BB7D     		ldrb	r3, [r7, #22]	@ zero_extendqisi2
 1025 044c 002B     		cmp	r3, #0
 1026 044e 4AD0     		beq	.L68
 1027              	.LBB10:
 180:.\main.c      ****                     LCD_UpdateMessage("You win!");
 1028              		.loc 1 180 0
 1029 0450 40F20000 		movw	r0, #:lower16:.LC4
 1030 0454 C0F20000 		movt	r0, #:upper16:.LC4
 1031 0458 FFF7FEFF 		bl	LCD_UpdateMessage
 181:.\main.c      ****                     bool blink = false;
 1032              		.loc 1 181 0
 1033 045c 4FF00003 		mov	r3, #0
 1034 0460 FB75     		strb	r3, [r7, #23]
 1035              	.L80:
 182:.\main.c      ****                     while (true) {
 183:.\main.c      ****                         for (offset=0; win && offset < 4 ;++offset) {
 1036              		.loc 1 183 0
 1037 0462 4FF00003 		mov	r3, #0
 1038 0466 FB60     		str	r3, [r7, #12]
 1039 0468 2DE0     		b	.L75
 1040              	.L79:
 184:.\main.c      ****                             if (player1_turn) player1[r-offset][c+offset] = blink;
 1041              		.loc 1 184 0
 1042 046a 40F20003 		movw	r3, #:lower16:player1_turn
 1043 046e C0F20003 		movt	r3, #:upper16:player1_turn
 1044 0472 1B78     		ldrb	r3, [r3, #0]	@ zero_extendqisi2
 1045 0474 002B     		cmp	r3, #0
 1046 0476 11D0     		beq	.L76
 1047 0478 7A68     		ldr	r2, [r7, #4]
 1048 047a FB68     		ldr	r3, [r7, #12]
 1049 047c C3EB0201 		rsb	r1, r3, r2
 1050 0480 BA68     		ldr	r2, [r7, #8]
 1051 0482 FB68     		ldr	r3, [r7, #12]
 1052 0484 1A44     		add	r2, r2, r3
 1053 0486 40F20003 		movw	r3, #:lower16:player1
 1054 048a C0F20003 		movt	r3, #:upper16:player1
 1055 048e 4FEAC101 		lsl	r1, r1, #3
 1056 0492 0A44     		add	r2, r1, r2
 1057 0494 1344     		add	r3, r2, r3
 1058 0496 FA7D     		ldrb	r2, [r7, #23]
 1059 0498 1A70     		strb	r2, [r3, #0]
 1060 049a 10E0     		b	.L77
 1061              	.L76:
ARM GAS  C:\DOCUME~1\david\LOCALS~1\Temp\cci2ny8l.s 			page 23


 185:.\main.c      ****                             else              player2[r-offset][c+offset] = blink;
 1062              		.loc 1 185 0
 1063 049c 7A68     		ldr	r2, [r7, #4]
 1064 049e FB68     		ldr	r3, [r7, #12]
 1065 04a0 C3EB0201 		rsb	r1, r3, r2
 1066 04a4 BA68     		ldr	r2, [r7, #8]
 1067 04a6 FB68     		ldr	r3, [r7, #12]
 1068 04a8 1A44     		add	r2, r2, r3
 1069 04aa 40F20003 		movw	r3, #:lower16:player2
 1070 04ae C0F20003 		movt	r3, #:upper16:player2
 1071 04b2 4FEAC101 		lsl	r1, r1, #3
 1072 04b6 0A44     		add	r2, r1, r2
 1073 04b8 1344     		add	r3, r2, r3
 1074 04ba FA7D     		ldrb	r2, [r7, #23]
 1075 04bc 1A70     		strb	r2, [r3, #0]
 1076              	.L77:
 1077              		.loc 1 183 0
 1078 04be FB68     		ldr	r3, [r7, #12]
 1079 04c0 03F10103 		add	r3, r3, #1
 1080 04c4 FB60     		str	r3, [r7, #12]
 1081              	.L75:
 1082 04c6 BB7D     		ldrb	r3, [r7, #22]	@ zero_extendqisi2
 1083 04c8 002B     		cmp	r3, #0
 1084 04ca 02D0     		beq	.L78
 1085 04cc FB68     		ldr	r3, [r7, #12]
 1086 04ce 032B     		cmp	r3, #3
 1087 04d0 CBDD     		ble	.L79
 1088              	.L78:
 186:.\main.c      ****                         }
 187:.\main.c      ****                         CyDelay(100);
 1089              		.loc 1 187 0
 1090 04d2 4FF06400 		mov	r0, #100
 1091 04d6 FFF7FEFF 		bl	CyDelay
 188:.\main.c      ****                         blink = !blink;
 1092              		.loc 1 188 0
 1093 04da FB7D     		ldrb	r3, [r7, #23]
 1094 04dc 83F00103 		eor	r3, r3, #1
 1095 04e0 DBB2     		uxtb	r3, r3
 1096 04e2 FB75     		strb	r3, [r7, #23]
 189:.\main.c      ****                     }
 1097              		.loc 1 189 0
 1098 04e4 BDE7     		b	.L80
 1099              	.L68:
 1100              	.LBE10:
 1101              	.LBE9:
 1102              	.LBE2:
 1103              		.loc 1 106 0
 1104 04e6 BB68     		ldr	r3, [r7, #8]
 1105 04e8 03F10103 		add	r3, r3, #1
 1106 04ec BB60     		str	r3, [r7, #8]
 1107              	.L28:
 1108 04ee BB68     		ldr	r3, [r7, #8]
 1109 04f0 072B     		cmp	r3, #7
 1110 04f2 7FF790AD 		ble	.L81
 1111              		.loc 1 105 0
 1112 04f6 7B68     		ldr	r3, [r7, #4]
 1113 04f8 03F10103 		add	r3, r3, #1
ARM GAS  C:\DOCUME~1\david\LOCALS~1\Temp\cci2ny8l.s 			page 24


 1114 04fc 7B60     		str	r3, [r7, #4]
 1115              	.L27:
 1116 04fe 7B68     		ldr	r3, [r7, #4]
 1117 0500 072B     		cmp	r3, #7
 1118 0502 7FF784AD 		ble	.L82
 190:.\main.c      ****                 }
 191:.\main.c      ****             }  
 192:.\main.c      ****         }
 193:.\main.c      ****     }
 194:.\main.c      **** }
 1119              		.loc 1 194 0
 1120 0506 07F11807 		add	r7, r7, #24
 1121 050a BD46     		mov	sp, r7
 1122 050c 80BD     		pop	{r7, pc}
 1123              		.cfi_endproc
 1124              	.LFE33:
 1125              		.size	winner_check, .-winner_check
 1126 050e 00BF     		.section	.text.send_packet,"ax",%progbits
 1127              		.align	2
 1128              		.global	send_packet
 1129              		.thumb
 1130              		.thumb_func
 1131              		.type	send_packet, %function
 1132              	send_packet:
 1133              	.LFB34:
 195:.\main.c      **** 
 196:.\main.c      **** 
 197:.\main.c      **** 
 198:.\main.c      **** 
 199:.\main.c      **** void send_packet ( packet_t * move ) {
 1134              		.loc 1 199 0
 1135              		.cfi_startproc
 1136              		@ args = 0, pretend = 0, frame = 8
 1137              		@ frame_needed = 1, uses_anonymous_args = 0
 1138 0000 80B5     		push	{r7, lr}
 1139              	.LCFI13:
 1140              		.cfi_def_cfa_offset 8
 1141 0002 82B0     		sub	sp, sp, #8
 1142              	.LCFI14:
 1143              		.cfi_def_cfa_offset 16
 1144 0004 00AF     		add	r7, sp, #0
 1145              		.cfi_offset 14, -4
 1146              		.cfi_offset 7, -8
 1147              	.LCFI15:
 1148              		.cfi_def_cfa_register 7
 1149 0006 7860     		str	r0, [r7, #4]
 200:.\main.c      ****     UART_WriteTxData(move->delimiter);
 1150              		.loc 1 200 0
 1151 0008 7B68     		ldr	r3, [r7, #4]
 1152 000a 1B78     		ldrb	r3, [r3, #0]	@ zero_extendqisi2
 1153 000c 1846     		mov	r0, r3
 1154 000e FFF7FEFF 		bl	UART_WriteTxData
 201:.\main.c      ****     UART_WriteTxData((uint8) (move->length >> 4));
 1155              		.loc 1 201 0
 1156 0012 7B68     		ldr	r3, [r7, #4]
 1157 0014 5B88     		ldrh	r3, [r3, #2]
 1158 0016 4FEA1313 		lsr	r3, r3, #4
ARM GAS  C:\DOCUME~1\david\LOCALS~1\Temp\cci2ny8l.s 			page 25


 1159 001a 9BB2     		uxth	r3, r3
 1160 001c DBB2     		uxtb	r3, r3
 1161 001e 1846     		mov	r0, r3
 1162 0020 FFF7FEFF 		bl	UART_WriteTxData
 202:.\main.c      ****     UART_WriteTxData((uint8) move->length);
 1163              		.loc 1 202 0
 1164 0024 7B68     		ldr	r3, [r7, #4]
 1165 0026 5B88     		ldrh	r3, [r3, #2]
 1166 0028 DBB2     		uxtb	r3, r3
 1167 002a 1846     		mov	r0, r3
 1168 002c FFF7FEFF 		bl	UART_WriteTxData
 203:.\main.c      ****     UART_WriteTxData(move->api_id);
 1169              		.loc 1 203 0
 1170 0030 7B68     		ldr	r3, [r7, #4]
 1171 0032 1B79     		ldrb	r3, [r3, #4]	@ zero_extendqisi2
 1172 0034 1846     		mov	r0, r3
 1173 0036 FFF7FEFF 		bl	UART_WriteTxData
 204:.\main.c      ****     UART_WriteTxData(move->frame_id);
 1174              		.loc 1 204 0
 1175 003a 7B68     		ldr	r3, [r7, #4]
 1176 003c 5B79     		ldrb	r3, [r3, #5]	@ zero_extendqisi2
 1177 003e 1846     		mov	r0, r3
 1178 0040 FFF7FEFF 		bl	UART_WriteTxData
 205:.\main.c      ****     UART_WriteTxData((uint8) (move->destination >> 4));
 1179              		.loc 1 205 0
 1180 0044 7B68     		ldr	r3, [r7, #4]
 1181 0046 DB88     		ldrh	r3, [r3, #6]
 1182 0048 4FEA1313 		lsr	r3, r3, #4
 1183 004c 9BB2     		uxth	r3, r3
 1184 004e DBB2     		uxtb	r3, r3
 1185 0050 1846     		mov	r0, r3
 1186 0052 FFF7FEFF 		bl	UART_WriteTxData
 206:.\main.c      ****     UART_WriteTxData((uint8) (move->destination));
 1187              		.loc 1 206 0
 1188 0056 7B68     		ldr	r3, [r7, #4]
 1189 0058 DB88     		ldrh	r3, [r3, #6]
 1190 005a DBB2     		uxtb	r3, r3
 1191 005c 1846     		mov	r0, r3
 1192 005e FFF7FEFF 		bl	UART_WriteTxData
 207:.\main.c      ****     UART_WriteTxData(move->disable_ack);
 1193              		.loc 1 207 0
 1194 0062 7B68     		ldr	r3, [r7, #4]
 1195 0064 1B7A     		ldrb	r3, [r3, #8]	@ zero_extendqisi2
 1196 0066 1846     		mov	r0, r3
 1197 0068 FFF7FEFF 		bl	UART_WriteTxData
 208:.\main.c      ****     UART_WriteTxData(move->player_id);
 1198              		.loc 1 208 0
 1199 006c 7B68     		ldr	r3, [r7, #4]
 1200 006e 5B7A     		ldrb	r3, [r3, #9]	@ zero_extendqisi2
 1201 0070 1846     		mov	r0, r3
 1202 0072 FFF7FEFF 		bl	UART_WriteTxData
 209:.\main.c      ****     UART_WriteTxData(move->packet_type);
 1203              		.loc 1 209 0
 1204 0076 7B68     		ldr	r3, [r7, #4]
 1205 0078 9B7A     		ldrb	r3, [r3, #10]	@ zero_extendqisi2
 1206 007a 1846     		mov	r0, r3
 1207 007c FFF7FEFF 		bl	UART_WriteTxData
ARM GAS  C:\DOCUME~1\david\LOCALS~1\Temp\cci2ny8l.s 			page 26


 210:.\main.c      ****     UART_WriteTxData(move->row);
 1208              		.loc 1 210 0
 1209 0080 7B68     		ldr	r3, [r7, #4]
 1210 0082 DB7A     		ldrb	r3, [r3, #11]	@ zero_extendqisi2
 1211 0084 1846     		mov	r0, r3
 1212 0086 FFF7FEFF 		bl	UART_WriteTxData
 211:.\main.c      ****     UART_WriteTxData(move->col);
 1213              		.loc 1 211 0
 1214 008a 7B68     		ldr	r3, [r7, #4]
 1215 008c 1B7B     		ldrb	r3, [r3, #12]	@ zero_extendqisi2
 1216 008e 1846     		mov	r0, r3
 1217 0090 FFF7FEFF 		bl	UART_WriteTxData
 212:.\main.c      ****     UART_WriteTxData(move->checksum);
 1218              		.loc 1 212 0
 1219 0094 7B68     		ldr	r3, [r7, #4]
 1220 0096 5B7B     		ldrb	r3, [r3, #13]	@ zero_extendqisi2
 1221 0098 1846     		mov	r0, r3
 1222 009a FFF7FEFF 		bl	UART_WriteTxData
 213:.\main.c      **** }
 1223              		.loc 1 213 0
 1224 009e 07F10807 		add	r7, r7, #8
 1225 00a2 BD46     		mov	sp, r7
 1226 00a4 80BD     		pop	{r7, pc}
 1227              		.cfi_endproc
 1228              	.LFE34:
 1229              		.size	send_packet, .-send_packet
 1230 00a6 00BF     		.section	.text.receive_packet,"ax",%progbits
 1231              		.align	2
 1232              		.global	receive_packet
 1233              		.thumb
 1234              		.thumb_func
 1235              		.type	receive_packet, %function
 1236              	receive_packet:
 1237              	.LFB35:
 214:.\main.c      **** 
 215:.\main.c      **** 
 216:.\main.c      **** 
 217:.\main.c      **** 
 218:.\main.c      **** void receive_packet ( packet_t * move ) {
 1238              		.loc 1 218 0
 1239              		.cfi_startproc
 1240              		@ args = 0, pretend = 0, frame = 8
 1241              		@ frame_needed = 1, uses_anonymous_args = 0
 1242 0000 80B5     		push	{r7, lr}
 1243              	.LCFI16:
 1244              		.cfi_def_cfa_offset 8
 1245 0002 82B0     		sub	sp, sp, #8
 1246              	.LCFI17:
 1247              		.cfi_def_cfa_offset 16
 1248 0004 00AF     		add	r7, sp, #0
 1249              		.cfi_offset 14, -4
 1250              		.cfi_offset 7, -8
 1251              	.LCFI18:
 1252              		.cfi_def_cfa_register 7
 1253 0006 7860     		str	r0, [r7, #4]
 1254              	.L91:
 219:.\main.c      ****     
ARM GAS  C:\DOCUME~1\david\LOCALS~1\Temp\cci2ny8l.s 			page 27


 220:.\main.c      ****     do { while (!(UART_ReadRxStatus() & UART_RX_STS_FIFO_NOTEMPTY)); }
 1255              		.loc 1 220 0
 1256 0008 FFF7FEFF 		bl	UART_ReadRxStatus
 1257 000c 0346     		mov	r3, r0
 1258 000e 03F02003 		and	r3, r3, #32
 1259 0012 002B     		cmp	r3, #0
 1260 0014 F8D0     		beq	.L91
 221:.\main.c      ****     while (UART_ReadRxData() != '~');
 1261              		.loc 1 221 0
 1262 0016 FFF7FEFF 		bl	UART_ReadRxData
 1263 001a 0346     		mov	r3, r0
 1264 001c 7E2B     		cmp	r3, #126
 1265 001e F3D1     		bne	.L91
 222:.\main.c      ****     move->delimiter = '~';
 1266              		.loc 1 222 0
 1267 0020 7B68     		ldr	r3, [r7, #4]
 1268 0022 4FF07E02 		mov	r2, #126
 1269 0026 1A70     		strb	r2, [r3, #0]
 1270              	.L92:
 223:.\main.c      ****     
 224:.\main.c      ****     while (!(UART_ReadRxStatus() & UART_RX_STS_FIFO_NOTEMPTY));
 1271              		.loc 1 224 0
 1272 0028 FFF7FEFF 		bl	UART_ReadRxStatus
 1273 002c 0346     		mov	r3, r0
 1274 002e 03F02003 		and	r3, r3, #32
 1275 0032 002B     		cmp	r3, #0
 1276 0034 F8D0     		beq	.L92
 225:.\main.c      ****     move->length = UART_ReadRxData();
 1277              		.loc 1 225 0
 1278 0036 FFF7FEFF 		bl	UART_ReadRxData
 1279 003a 0346     		mov	r3, r0
 1280 003c 1A46     		mov	r2, r3
 1281 003e 7B68     		ldr	r3, [r7, #4]
 1282 0040 5A80     		strh	r2, [r3, #2]	@ movhi
 226:.\main.c      ****     move->length <<= 8;
 1283              		.loc 1 226 0
 1284 0042 7B68     		ldr	r3, [r7, #4]
 1285 0044 5B88     		ldrh	r3, [r3, #2]
 1286 0046 4FEA0323 		lsl	r3, r3, #8
 1287 004a 9AB2     		uxth	r2, r3
 1288 004c 7B68     		ldr	r3, [r7, #4]
 1289 004e 5A80     		strh	r2, [r3, #2]	@ movhi
 227:.\main.c      ****     //while (!(UART_ReadRxStatus() & UART_RX_STS_FIFO_NOTEMPTY));
 228:.\main.c      ****     move->length = UART_ReadRxData(); //not quite
 1290              		.loc 1 228 0
 1291 0050 FFF7FEFF 		bl	UART_ReadRxData
 1292 0054 0346     		mov	r3, r0
 1293 0056 1A46     		mov	r2, r3
 1294 0058 7B68     		ldr	r3, [r7, #4]
 1295 005a 5A80     		strh	r2, [r3, #2]	@ movhi
 1296              	.L93:
 229:.\main.c      ****     
 230:.\main.c      ****     while (!(UART_ReadRxStatus() & UART_RX_STS_FIFO_NOTEMPTY));
 1297              		.loc 1 230 0
 1298 005c FFF7FEFF 		bl	UART_ReadRxStatus
 1299 0060 0346     		mov	r3, r0
 1300 0062 03F02003 		and	r3, r3, #32
ARM GAS  C:\DOCUME~1\david\LOCALS~1\Temp\cci2ny8l.s 			page 28


 1301 0066 002B     		cmp	r3, #0
 1302 0068 F8D0     		beq	.L93
 231:.\main.c      ****     move->api_id = UART_ReadRxData();
 1303              		.loc 1 231 0
 1304 006a FFF7FEFF 		bl	UART_ReadRxData
 1305 006e 0346     		mov	r3, r0
 1306 0070 1A46     		mov	r2, r3
 1307 0072 7B68     		ldr	r3, [r7, #4]
 1308 0074 1A71     		strb	r2, [r3, #4]
 1309              	.L94:
 232:.\main.c      ****     if (move->api_id != 0x01); //???
 233:.\main.c      ****     
 234:.\main.c      ****     while (!(UART_ReadRxStatus() & UART_RX_STS_FIFO_NOTEMPTY));
 1310              		.loc 1 234 0
 1311 0076 FFF7FEFF 		bl	UART_ReadRxStatus
 1312 007a 0346     		mov	r3, r0
 1313 007c 03F02003 		and	r3, r3, #32
 1314 0080 002B     		cmp	r3, #0
 1315 0082 F8D0     		beq	.L94
 235:.\main.c      ****     move->frame_id = UART_ReadRxData();
 1316              		.loc 1 235 0
 1317 0084 FFF7FEFF 		bl	UART_ReadRxData
 1318 0088 0346     		mov	r3, r0
 1319 008a 1A46     		mov	r2, r3
 1320 008c 7B68     		ldr	r3, [r7, #4]
 1321 008e 5A71     		strb	r2, [r3, #5]
 1322              	.L95:
 236:.\main.c      ****     if (move->frame_id != 0x00); //maybe this needs to be a sequence #?
 237:.\main.c      ****     
 238:.\main.c      ****     while (!(UART_ReadRxStatus() & UART_RX_STS_FIFO_NOTEMPTY));
 1323              		.loc 1 238 0
 1324 0090 FFF7FEFF 		bl	UART_ReadRxStatus
 1325 0094 0346     		mov	r3, r0
 1326 0096 03F02003 		and	r3, r3, #32
 1327 009a 002B     		cmp	r3, #0
 1328 009c F8D0     		beq	.L95
 239:.\main.c      ****     move->destination = UART_ReadRxData();
 1329              		.loc 1 239 0
 1330 009e FFF7FEFF 		bl	UART_ReadRxData
 1331 00a2 0346     		mov	r3, r0
 1332 00a4 1A46     		mov	r2, r3
 1333 00a6 7B68     		ldr	r3, [r7, #4]
 1334 00a8 DA80     		strh	r2, [r3, #6]	@ movhi
 240:.\main.c      ****     move->destination <<= 8;
 1335              		.loc 1 240 0
 1336 00aa 7B68     		ldr	r3, [r7, #4]
 1337 00ac DB88     		ldrh	r3, [r3, #6]
 1338 00ae 4FEA0323 		lsl	r3, r3, #8
 1339 00b2 9AB2     		uxth	r2, r3
 1340 00b4 7B68     		ldr	r3, [r7, #4]
 1341 00b6 DA80     		strh	r2, [r3, #6]	@ movhi
 241:.\main.c      ****     //while (!(UART_ReadRxStatus() & UART_RX_STS_FIFO_NOTEMPTY));
 242:.\main.c      ****     move->destination = UART_ReadRxData(); //not quite
 1342              		.loc 1 242 0
 1343 00b8 FFF7FEFF 		bl	UART_ReadRxData
 1344 00bc 0346     		mov	r3, r0
 1345 00be 1A46     		mov	r2, r3
ARM GAS  C:\DOCUME~1\david\LOCALS~1\Temp\cci2ny8l.s 			page 29


 1346 00c0 7B68     		ldr	r3, [r7, #4]
 1347 00c2 DA80     		strh	r2, [r3, #6]	@ movhi
 1348              	.L96:
 243:.\main.c      ****     if (move->destination != 0xFFFF); //???
 244:.\main.c      ****     
 245:.\main.c      ****     while (!(UART_ReadRxStatus() & UART_RX_STS_FIFO_NOTEMPTY));
 1349              		.loc 1 245 0
 1350 00c4 FFF7FEFF 		bl	UART_ReadRxStatus
 1351 00c8 0346     		mov	r3, r0
 1352 00ca 03F02003 		and	r3, r3, #32
 1353 00ce 002B     		cmp	r3, #0
 1354 00d0 F8D0     		beq	.L96
 246:.\main.c      ****     move->disable_ack = UART_ReadRxData();
 1355              		.loc 1 246 0
 1356 00d2 FFF7FEFF 		bl	UART_ReadRxData
 1357 00d6 0346     		mov	r3, r0
 1358 00d8 1A46     		mov	r2, r3
 1359 00da 7B68     		ldr	r3, [r7, #4]
 1360 00dc 1A72     		strb	r2, [r3, #8]
 1361              	.L97:
 247:.\main.c      ****     if (move->disable_ack != 0x01); //ack?
 248:.\main.c      ****     
 249:.\main.c      ****     while (!(UART_ReadRxStatus() & UART_RX_STS_FIFO_NOTEMPTY));
 1362              		.loc 1 249 0
 1363 00de FFF7FEFF 		bl	UART_ReadRxStatus
 1364 00e2 0346     		mov	r3, r0
 1365 00e4 03F02003 		and	r3, r3, #32
 1366 00e8 002B     		cmp	r3, #0
 1367 00ea F8D0     		beq	.L97
 250:.\main.c      ****     move->player_id = UART_ReadRxData();
 1368              		.loc 1 250 0
 1369 00ec FFF7FEFF 		bl	UART_ReadRxData
 1370 00f0 0346     		mov	r3, r0
 1371 00f2 1A46     		mov	r2, r3
 1372 00f4 7B68     		ldr	r3, [r7, #4]
 1373 00f6 5A72     		strb	r2, [r3, #9]
 1374              	.L98:
 251:.\main.c      ****     if (move->player_id != PLAYER2_ID); //not meant for me?
 252:.\main.c      ****     
 253:.\main.c      ****     while (!(UART_ReadRxStatus() & UART_RX_STS_FIFO_NOTEMPTY));
 1375              		.loc 1 253 0
 1376 00f8 FFF7FEFF 		bl	UART_ReadRxStatus
 1377 00fc 0346     		mov	r3, r0
 1378 00fe 03F02003 		and	r3, r3, #32
 1379 0102 002B     		cmp	r3, #0
 1380 0104 F8D0     		beq	.L98
 254:.\main.c      ****     move->packet_type = UART_ReadRxData();
 1381              		.loc 1 254 0
 1382 0106 FFF7FEFF 		bl	UART_ReadRxData
 1383 010a 0346     		mov	r3, r0
 1384 010c 1A46     		mov	r2, r3
 1385 010e 7B68     		ldr	r3, [r7, #4]
 1386 0110 9A72     		strb	r2, [r3, #10]
 1387              	.L99:
 255:.\main.c      ****     if (move->packet_type != 0x00); //a later version is trying to play with this game
 256:.\main.c      ****     
 257:.\main.c      ****     while (!(UART_ReadRxStatus() & UART_RX_STS_FIFO_NOTEMPTY));
ARM GAS  C:\DOCUME~1\david\LOCALS~1\Temp\cci2ny8l.s 			page 30


 1388              		.loc 1 257 0
 1389 0112 FFF7FEFF 		bl	UART_ReadRxStatus
 1390 0116 0346     		mov	r3, r0
 1391 0118 03F02003 		and	r3, r3, #32
 1392 011c 002B     		cmp	r3, #0
 1393 011e F8D0     		beq	.L99
 258:.\main.c      ****     move->row = UART_ReadRxData();
 1394              		.loc 1 258 0
 1395 0120 FFF7FEFF 		bl	UART_ReadRxData
 1396 0124 0346     		mov	r3, r0
 1397 0126 1A46     		mov	r2, r3
 1398 0128 7B68     		ldr	r3, [r7, #4]
 1399 012a DA72     		strb	r2, [r3, #11]
 1400              	.L100:
 259:.\main.c      ****     
 260:.\main.c      ****     while (!(UART_ReadRxStatus() & UART_RX_STS_FIFO_NOTEMPTY));
 1401              		.loc 1 260 0
 1402 012c FFF7FEFF 		bl	UART_ReadRxStatus
 1403 0130 0346     		mov	r3, r0
 1404 0132 03F02003 		and	r3, r3, #32
 1405 0136 002B     		cmp	r3, #0
 1406 0138 F8D0     		beq	.L100
 261:.\main.c      ****     move->col = UART_ReadRxData();
 1407              		.loc 1 261 0
 1408 013a FFF7FEFF 		bl	UART_ReadRxData
 1409 013e 0346     		mov	r3, r0
 1410 0140 1A46     		mov	r2, r3
 1411 0142 7B68     		ldr	r3, [r7, #4]
 1412 0144 1A73     		strb	r2, [r3, #12]
 1413              	.L101:
 262:.\main.c      ****     
 263:.\main.c      ****     while (!(UART_ReadRxStatus() & UART_RX_STS_FIFO_NOTEMPTY));
 1414              		.loc 1 263 0
 1415 0146 FFF7FEFF 		bl	UART_ReadRxStatus
 1416 014a 0346     		mov	r3, r0
 1417 014c 03F02003 		and	r3, r3, #32
 1418 0150 002B     		cmp	r3, #0
 1419 0152 F8D0     		beq	.L101
 264:.\main.c      ****     move->checksum = UART_ReadRxData();
 1420              		.loc 1 264 0
 1421 0154 FFF7FEFF 		bl	UART_ReadRxData
 1422 0158 0346     		mov	r3, r0
 1423 015a 1A46     		mov	r2, r3
 1424 015c 7B68     		ldr	r3, [r7, #4]
 1425 015e 5A73     		strb	r2, [r3, #13]
 265:.\main.c      ****     if ((move->api_id +
 266:.\main.c      ****          move->frame_id +
 267:.\main.c      ****          move->destination +
 268:.\main.c      ****          move->disable_ack +
 269:.\main.c      ****          move->player_id +
 270:.\main.c      ****          move->packet_type +
 271:.\main.c      ****          move->row +
 272:.\main.c      ****          move->col + 
 273:.\main.c      ****          move->checksum) == 0xFF);//bad checksum, silently discard?
 274:.\main.c      **** }
 1426              		.loc 1 274 0
 1427 0160 07F10807 		add	r7, r7, #8
ARM GAS  C:\DOCUME~1\david\LOCALS~1\Temp\cci2ny8l.s 			page 31


 1428 0164 BD46     		mov	sp, r7
 1429 0166 80BD     		pop	{r7, pc}
 1430              		.cfi_endproc
 1431              	.LFE35:
 1432              		.size	receive_packet, .-receive_packet
 1433              		.section	.rodata
 1434 0025 000000   		.align	2
 1435              	.LC5:
 1436 0028 696E6974 		.ascii	"initializing...\000"
 1436      69616C69 
 1436      7A696E67 
 1436      2E2E2E00 
 1437              		.align	2
 1438              	.LC6:
 1439 0038 626F6172 		.ascii	"board\000"
 1439      6400
 1440 003e 0000     		.align	2
 1441              	.LC7:
 1442 0040 6D617472 		.ascii	"matrix\000"
 1442      697800
 1443 0047 00       		.align	2
 1444              	.LC8:
 1445 0048 696E7465 		.ascii	"interrupts\000"
 1445      72727570 
 1445      747300
 1446 0053 00       		.align	2
 1447              	.LC9:
 1448 0054 74696D65 		.ascii	"timer\000"
 1448      7200
 1449 005a 0000     		.align	2
 1450              	.LC10:
 1451 005c 63617073 		.ascii	"capsense\000"
 1451      656E7365 
 1451      00
 1452 0065 000000   		.align	2
 1453              	.LC11:
 1454 0068 6C6F6361 		.ascii	"locate opponent\000"
 1454      7465206F 
 1454      70706F6E 
 1454      656E7400 
 1455              		.align	2
 1456              	.LC12:
 1457 0078 6C6F6361 		.ascii	"local\000"
 1457      6C00
 1458 007e 0000     		.align	2
 1459              	.LC13:
 1460 0080 72656D6F 		.ascii	"remote\000"
 1460      746500
 1461 0087 00       		.align	2
 1462              	.LC14:
 1463 0088 55415254 		.ascii	"UART\000"
 1463      00
 1464 008d 000000   		.align	2
 1465              	.LC15:
 1466 0090 58426565 		.ascii	"XBee\000"
 1466      00
 1467 0095 000000   		.align	2
ARM GAS  C:\DOCUME~1\david\LOCALS~1\Temp\cci2ny8l.s 			page 32


 1468              	.LC16:
 1469 0098 436F6E6E 		.ascii	"Connect 4\000"
 1469      65637420 
 1469      3400
 1470 00a2 0000     		.align	2
 1471              	.LC17:
 1472 00a4 506C6179 		.ascii	"Player 1\000"
 1472      65722031 
 1472      00
 1473 00ad 000000   		.align	2
 1474              	.LC18:
 1475 00b0 506C6179 		.ascii	"Player 2\000"
 1475      65722032 
 1475      00
 1476 00b9 000000   		.align	2
 1477              	.LC19:
 1478 00bc 506C6163 		.ascii	"Place a disc!\000"
 1478      65206120 
 1478      64697363 
 1478      2100
 1479 00ca 0000     		.align	2
 1480              	.LC20:
 1481 00cc 47616D65 		.ascii	"Game Over\000"
 1481      204F7665 
 1481      7200
 1482 00d6 0000     		.align	2
 1483              	.LC21:
 1484 00d8 426F6172 		.ascii	"Board Full\000"
 1484      64204675 
 1484      6C6C00
 1485 00e3 00       		.align	2
 1486              	.LC22:
 1487 00e4 436F6C75 		.ascii	"Column Full\000"
 1487      6D6E2046 
 1487      756C6C00 
 1488              		.align	2
 1489              	.LC23:
 1490 00f0 494D504C 		.ascii	"IMPLEMENTED\000"
 1490      454D454E 
 1490      54454400 
 1491              		.align	2
 1492              	.LC24:
 1493 00fc 6D6F7665 		.ascii	"move sent\000"
 1493      2073656E 
 1493      7400
 1494 0106 0000     		.align	2
 1495              	.LC25:
 1496 0108 554E494D 		.ascii	"UNIMPLEMENTED\000"
 1496      504C454D 
 1496      454E5445 
 1496      4400
 1497 0116 0000     		.align	2
 1498              	.LC26:
 1499 0118 77616974 		.ascii	"waiting for move\000"
 1499      696E6720 
 1499      666F7220 
 1499      6D6F7665 
ARM GAS  C:\DOCUME~1\david\LOCALS~1\Temp\cci2ny8l.s 			page 33


 1499      00
 1500 0129 000000   		.section	.text.main,"ax",%progbits
 1501              		.align	2
 1502              		.global	main
 1503              		.thumb
 1504              		.thumb_func
 1505              		.type	main, %function
 1506              	main:
 1507              	.LFB36:
 275:.\main.c      **** 
 276:.\main.c      **** 
 277:.\main.c      **** 
 278:.\main.c      **** 
 279:.\main.c      **** void main () {
 1508              		.loc 1 279 0
 1509              		.cfi_startproc
 1510              		@ args = 0, pretend = 0, frame = 40
 1511              		@ frame_needed = 1, uses_anonymous_args = 0
 1512 0000 80B5     		push	{r7, lr}
 1513              	.LCFI19:
 1514              		.cfi_def_cfa_offset 8
 1515 0002 8AB0     		sub	sp, sp, #40
 1516              	.LCFI20:
 1517              		.cfi_def_cfa_offset 48
 1518 0004 00AF     		add	r7, sp, #0
 1519              		.cfi_offset 14, -4
 1520              		.cfi_offset 7, -8
 1521              	.LCFI21:
 1522              		.cfi_def_cfa_register 7
 280:.\main.c      ****     LCD_Start();
 1523              		.loc 1 280 0
 1524 0006 FFF7FEFF 		bl	LCD_Start
 281:.\main.c      ****     LCD_UpdateStatus("initializing...");
 1525              		.loc 1 281 0
 1526 000a 40F20000 		movw	r0, #:lower16:.LC5
 1527 000e C0F20000 		movt	r0, #:upper16:.LC5
 1528 0012 FFF7FEFF 		bl	LCD_UpdateStatus
 282:.\main.c      ****     LCD_UpdateMessage("board");
 1529              		.loc 1 282 0
 1530 0016 40F20000 		movw	r0, #:lower16:.LC6
 1531 001a C0F20000 		movt	r0, #:upper16:.LC6
 1532 001e FFF7FEFF 		bl	LCD_UpdateMessage
 283:.\main.c      ****     clear_board();
 1533              		.loc 1 283 0
 1534 0022 FFF7FEFF 		bl	clear_board
 284:.\main.c      ****     LCD_UpdateMessage("matrix");
 1535              		.loc 1 284 0
 1536 0026 40F20000 		movw	r0, #:lower16:.LC7
 1537 002a C0F20000 		movt	r0, #:upper16:.LC7
 1538 002e FFF7FEFF 		bl	LCD_UpdateMessage
 285:.\main.c      ****     matrix_test(true,false);
 1539              		.loc 1 285 0
 1540 0032 4FF00100 		mov	r0, #1
 1541 0036 4FF00001 		mov	r1, #0
 1542 003a FFF7FEFF 		bl	matrix_test
 286:.\main.c      ****     matrix_deluminate();
 1543              		.loc 1 286 0
ARM GAS  C:\DOCUME~1\david\LOCALS~1\Temp\cci2ny8l.s 			page 34


 1544 003e FFF7FEFF 		bl	matrix_deluminate
 287:.\main.c      ****     LCD_UpdateMessage("interrupts");
 1545              		.loc 1 287 0
 1546 0042 40F20000 		movw	r0, #:lower16:.LC8
 1547 0046 C0F20000 		movt	r0, #:upper16:.LC8
 1548 004a FFF7FEFF 		bl	LCD_UpdateMessage
 288:.\main.c      ****     row = col = -1;
 1549              		.loc 1 288 0
 1550 004e 40F20003 		movw	r3, #:lower16:col
 1551 0052 C0F20003 		movt	r3, #:upper16:col
 1552 0056 4FF0FF32 		mov	r2, #-1
 1553 005a 1A70     		strb	r2, [r3, #0]
 1554 005c 40F20003 		movw	r3, #:lower16:col
 1555 0060 C0F20003 		movt	r3, #:upper16:col
 1556 0064 1A78     		ldrb	r2, [r3, #0]	@ zero_extendqisi2
 1557 0066 40F20003 		movw	r3, #:lower16:row
 1558 006a C0F20003 		movt	r3, #:upper16:row
 1559 006e 1A70     		strb	r2, [r3, #0]
 289:.\main.c      ****     CyGlobalIntEnable;
 1560              		.loc 1 289 0
 1561              	@ 289 ".\main.c" 1
 1562 0070 62B6     		CPSIE   i
 1563              	@ 0 "" 2
 290:.\main.c      ****     Beam_StartEx(refresh);
 1564              		.loc 1 290 0
 1565              		.thumb
 1566 0072 40F20000 		movw	r0, #:lower16:refresh
 1567 0076 C0F20000 		movt	r0, #:upper16:refresh
 1568 007a FFF7FEFF 		bl	Beam_StartEx
 291:.\main.c      ****     Location_StartEx(toggle);
 1569              		.loc 1 291 0
 1570 007e 40F20000 		movw	r0, #:lower16:toggle
 1571 0082 C0F20000 		movt	r0, #:upper16:toggle
 1572 0086 FFF7FEFF 		bl	Location_StartEx
 292:.\main.c      ****     LCD_UpdateMessage("timer");
 1573              		.loc 1 292 0
 1574 008a 40F20000 		movw	r0, #:lower16:.LC9
 1575 008e C0F20000 		movt	r0, #:upper16:.LC9
 1576 0092 FFF7FEFF 		bl	LCD_UpdateMessage
 293:.\main.c      ****     Timer_Start();
 1577              		.loc 1 293 0
 1578 0096 FFF7FEFF 		bl	Timer_Start
 294:.\main.c      ****     Timer_WritePeriod(BUS_CLK_FREQ/REFRESH_RATE);
 1579              		.loc 1 294 0
 1580 009a 40F21D10 		movw	r0, #285
 1581 009e FFF7FEFF 		bl	Timer_WritePeriod
 295:.\main.c      ****     LCD_UpdateMessage("capsense");
 1582              		.loc 1 295 0
 1583 00a2 40F20000 		movw	r0, #:lower16:.LC10
 1584 00a6 C0F20000 		movt	r0, #:upper16:.LC10
 1585 00aa FFF7FEFF 		bl	LCD_UpdateMessage
 296:.\main.c      ****     CapSense_Start();
 1586              		.loc 1 296 0
 1587 00ae FFF7FEFF 		bl	CapSense_Start
 297:.\main.c      ****     CapSense_InitializeAllBaselines();
 1588              		.loc 1 297 0
 1589 00b2 FFF7FEFF 		bl	CapSense_InitializeAllBaselines
ARM GAS  C:\DOCUME~1\david\LOCALS~1\Temp\cci2ny8l.s 			page 35


 298:.\main.c      ****     
 299:.\main.c      ****     LCD_UpdateStatus("locate opponent");
 1590              		.loc 1 299 0
 1591 00b6 40F20000 		movw	r0, #:lower16:.LC11
 1592 00ba C0F20000 		movt	r0, #:upper16:.LC11
 1593 00be FFF7FEFF 		bl	LCD_UpdateStatus
 300:.\main.c      ****     locating = true;
 1594              		.loc 1 300 0
 1595 00c2 40F20003 		movw	r3, #:lower16:locating
 1596 00c6 C0F20003 		movt	r3, #:upper16:locating
 1597 00ca 4FF00102 		mov	r2, #1
 1598 00ce 1A70     		strb	r2, [r3, #0]
 301:.\main.c      ****     uint8 t;
 302:.\main.c      ****     for (t=5; t > 0 ;--t) {
 1599              		.loc 1 302 0
 1600 00d0 4FF00503 		mov	r3, #5
 1601 00d4 BB77     		strb	r3, [r7, #30]
 1602 00d6 28E0     		b	.L104
 1603              	.L107:
 303:.\main.c      ****         LCD_UpdateMessage((player2_local) ? "local" : "remote");
 1604              		.loc 1 303 0
 1605 00d8 40F20003 		movw	r3, #:lower16:player2_local
 1606 00dc C0F20003 		movt	r3, #:upper16:player2_local
 1607 00e0 1B78     		ldrb	r3, [r3, #0]	@ zero_extendqisi2
 1608 00e2 002B     		cmp	r3, #0
 1609 00e4 04D0     		beq	.L105
 1610 00e6 40F20003 		movw	r3, #:lower16:.LC12
 1611 00ea C0F20003 		movt	r3, #:upper16:.LC12
 1612 00ee 03E0     		b	.L106
 1613              	.L105:
 1614 00f0 40F20003 		movw	r3, #:lower16:.LC13
 1615 00f4 C0F20003 		movt	r3, #:upper16:.LC13
 1616              	.L106:
 1617 00f8 1846     		mov	r0, r3
 1618 00fa FFF7FEFF 		bl	LCD_UpdateMessage
 304:.\main.c      ****         CyDelay(500);
 1619              		.loc 1 304 0
 1620 00fe 4FF4FA70 		mov	r0, #500
 1621 0102 FFF7FEFF 		bl	CyDelay
 305:.\main.c      ****         LCD_Position(1,15);
 1622              		.loc 1 305 0
 1623 0106 4FF00100 		mov	r0, #1
 1624 010a 4FF00F01 		mov	r1, #15
 1625 010e FFF7FEFF 		bl	LCD_Position
 306:.\main.c      ****         LCD_PrintNumber(t);
 1626              		.loc 1 306 0
 1627 0112 BB7F     		ldrb	r3, [r7, #30]	@ zero_extendqisi2
 1628 0114 1846     		mov	r0, r3
 1629 0116 FFF7FEFF 		bl	LCD_PrintNumber
 307:.\main.c      ****         CyDelay(500);
 1630              		.loc 1 307 0
 1631 011a 4FF4FA70 		mov	r0, #500
 1632 011e FFF7FEFF 		bl	CyDelay
 1633              		.loc 1 302 0
 1634 0122 BB7F     		ldrb	r3, [r7, #30]
 1635 0124 03F1FF33 		add	r3, r3, #-1
 1636 0128 BB77     		strb	r3, [r7, #30]
ARM GAS  C:\DOCUME~1\david\LOCALS~1\Temp\cci2ny8l.s 			page 36


 1637              	.L104:
 1638 012a BB7F     		ldrb	r3, [r7, #30]	@ zero_extendqisi2
 1639 012c 002B     		cmp	r3, #0
 1640 012e D3D1     		bne	.L107
 308:.\main.c      ****     }
 309:.\main.c      ****     locating = false;
 1641              		.loc 1 309 0
 1642 0130 40F20003 		movw	r3, #:lower16:locating
 1643 0134 C0F20003 		movt	r3, #:upper16:locating
 1644 0138 4FF00002 		mov	r2, #0
 1645 013c 1A70     		strb	r2, [r3, #0]
 310:.\main.c      ****     if (!player2_local) {
 1646              		.loc 1 310 0
 1647 013e 40F20003 		movw	r3, #:lower16:player2_local
 1648 0142 C0F20003 		movt	r3, #:upper16:player2_local
 1649 0146 1B78     		ldrb	r3, [r3, #0]	@ zero_extendqisi2
 1650 0148 83F00103 		eor	r3, r3, #1
 1651 014c DBB2     		uxtb	r3, r3
 1652 014e 002B     		cmp	r3, #0
 1653 0150 19D0     		beq	.L108
 311:.\main.c      ****         LCD_UpdateStatus("initializing...");
 1654              		.loc 1 311 0
 1655 0152 40F20000 		movw	r0, #:lower16:.LC5
 1656 0156 C0F20000 		movt	r0, #:upper16:.LC5
 1657 015a FFF7FEFF 		bl	LCD_UpdateStatus
 312:.\main.c      ****         LCD_UpdateMessage("UART");
 1658              		.loc 1 312 0
 1659 015e 40F20000 		movw	r0, #:lower16:.LC14
 1660 0162 C0F20000 		movt	r0, #:upper16:.LC14
 1661 0166 FFF7FEFF 		bl	LCD_UpdateMessage
 313:.\main.c      ****         UART_Start();
 1662              		.loc 1 313 0
 1663 016a FFF7FEFF 		bl	UART_Start
 314:.\main.c      ****         UART_ClearTxBuffer();
 1664              		.loc 1 314 0
 1665 016e FFF7FEFF 		bl	UART_ClearTxBuffer
 315:.\main.c      ****         UART_ClearRxBuffer();
 1666              		.loc 1 315 0
 1667 0172 FFF7FEFF 		bl	UART_ClearRxBuffer
 316:.\main.c      ****         LCD_UpdateMessage("XBee");
 1668              		.loc 1 316 0
 1669 0176 40F20000 		movw	r0, #:lower16:.LC15
 1670 017a C0F20000 		movt	r0, #:upper16:.LC15
 1671 017e FFF7FEFF 		bl	LCD_UpdateMessage
 317:.\main.c      ****         configure_XBee();
 1672              		.loc 1 317 0
 1673 0182 FFF7FEFF 		bl	configure_XBee
 1674              	.L108:
 318:.\main.c      ****     }
 319:.\main.c      ****     
 320:.\main.c      ****     
 321:.\main.c      ****     LCD_UpdateStatus("Connect 4");
 1675              		.loc 1 321 0
 1676 0186 40F20000 		movw	r0, #:lower16:.LC16
 1677 018a C0F20000 		movt	r0, #:upper16:.LC16
 1678 018e FFF7FEFF 		bl	LCD_UpdateStatus
 1679              	.L140:
ARM GAS  C:\DOCUME~1\david\LOCALS~1\Temp\cci2ny8l.s 			page 37


 322:.\main.c      ****     while (true) {
 323:.\main.c      ****         if (player1_turn || player2_local) {
 1680              		.loc 1 323 0
 1681 0192 40F20003 		movw	r3, #:lower16:player1_turn
 1682 0196 C0F20003 		movt	r3, #:upper16:player1_turn
 1683 019a 1B78     		ldrb	r3, [r3, #0]	@ zero_extendqisi2
 1684 019c 002B     		cmp	r3, #0
 1685 019e 07D1     		bne	.L109
 1686 01a0 40F20003 		movw	r3, #:lower16:player2_local
 1687 01a4 C0F20003 		movt	r3, #:upper16:player2_local
 1688 01a8 1B78     		ldrb	r3, [r3, #0]	@ zero_extendqisi2
 1689 01aa 002B     		cmp	r3, #0
 1690 01ac 00F00282 		beq	.L110
 1691              	.L109:
 1692              	.LBB11:
 324:.\main.c      ****             LCD_UpdateStatus((player1_turn) ? "Player 1" : "Player 2");
 1693              		.loc 1 324 0
 1694 01b0 40F20003 		movw	r3, #:lower16:player1_turn
 1695 01b4 C0F20003 		movt	r3, #:upper16:player1_turn
 1696 01b8 1B78     		ldrb	r3, [r3, #0]	@ zero_extendqisi2
 1697 01ba 002B     		cmp	r3, #0
 1698 01bc 04D0     		beq	.L111
 1699 01be 40F20003 		movw	r3, #:lower16:.LC17
 1700 01c2 C0F20003 		movt	r3, #:upper16:.LC17
 1701 01c6 03E0     		b	.L112
 1702              	.L111:
 1703 01c8 40F20003 		movw	r3, #:lower16:.LC18
 1704 01cc C0F20003 		movt	r3, #:upper16:.LC18
 1705              	.L112:
 1706 01d0 1846     		mov	r0, r3
 1707 01d2 FFF7FEFF 		bl	LCD_UpdateStatus
 325:.\main.c      ****             LCD_UpdateMessage("Place a disc!");
 1708              		.loc 1 325 0
 1709 01d6 40F20000 		movw	r0, #:lower16:.LC19
 1710 01da C0F20000 		movt	r0, #:upper16:.LC19
 1711 01de FFF7FEFF 		bl	LCD_UpdateMessage
 326:.\main.c      ****             uint8 disc = 0;
 1712              		.loc 1 326 0
 1713 01e2 4FF00003 		mov	r3, #0
 1714 01e6 FB77     		strb	r3, [r7, #31]
 327:.\main.c      ****             while (player1[1][disc] || player2[1][disc]) {
 1715              		.loc 1 327 0
 1716 01e8 13E0     		b	.L113
 1717              	.L115:
 328:.\main.c      ****                 if (++disc >= MATRIX_COLS) {
 1718              		.loc 1 328 0
 1719 01ea FB7F     		ldrb	r3, [r7, #31]
 1720 01ec 03F10103 		add	r3, r3, #1
 1721 01f0 FB77     		strb	r3, [r7, #31]
 1722 01f2 FB7F     		ldrb	r3, [r7, #31]	@ zero_extendqisi2
 1723 01f4 072B     		cmp	r3, #7
 1724 01f6 0CD9     		bls	.L113
 329:.\main.c      ****                     LCD_UpdateStatus("Game Over");
 1725              		.loc 1 329 0
 1726 01f8 40F20000 		movw	r0, #:lower16:.LC20
 1727 01fc C0F20000 		movt	r0, #:upper16:.LC20
 1728 0200 FFF7FEFF 		bl	LCD_UpdateStatus
ARM GAS  C:\DOCUME~1\david\LOCALS~1\Temp\cci2ny8l.s 			page 38


 330:.\main.c      ****                     LCD_UpdateMessage("Board Full");
 1729              		.loc 1 330 0
 1730 0204 40F20000 		movw	r0, #:lower16:.LC21
 1731 0208 C0F20000 		movt	r0, #:upper16:.LC21
 1732 020c FFF7FEFF 		bl	LCD_UpdateMessage
 1733              	.L114:
 331:.\main.c      ****                     while (true);
 1734              		.loc 1 331 0
 1735 0210 FEE7     		b	.L114
 1736              	.L113:
 1737              		.loc 1 327 0
 1738 0212 FA7F     		ldrb	r2, [r7, #31]	@ zero_extendqisi2
 1739 0214 40F20003 		movw	r3, #:lower16:player1
 1740 0218 C0F20003 		movt	r3, #:upper16:player1
 1741 021c 1344     		add	r3, r2, r3
 1742 021e 1B7A     		ldrb	r3, [r3, #8]	@ zero_extendqisi2
 1743 0220 002B     		cmp	r3, #0
 1744 0222 E2D1     		bne	.L115
 1745 0224 FA7F     		ldrb	r2, [r7, #31]	@ zero_extendqisi2
 1746 0226 40F20003 		movw	r3, #:lower16:player2
 1747 022a C0F20003 		movt	r3, #:upper16:player2
 1748 022e 1344     		add	r3, r2, r3
 1749 0230 1B7A     		ldrb	r3, [r3, #8]	@ zero_extendqisi2
 1750 0232 002B     		cmp	r3, #0
 1751 0234 D9D1     		bne	.L115
 332:.\main.c      ****                 }
 333:.\main.c      ****             }
 334:.\main.c      ****             bool dropped = false;
 1752              		.loc 1 334 0
 1753 0236 4FF00003 		mov	r3, #0
 1754 023a 87F82030 		strb	r3, [r7, #32]
 1755              	.L130:
 335:.\main.c      ****             do {
 336:.\main.c      ****                 CapSense_UpdateEnabledBaselines();
 1756              		.loc 1 336 0
 1757 023e FFF7FEFF 		bl	CapSense_UpdateEnabledBaselines
 337:.\main.c      ****                 CapSense_UpdateEnabledBaselines(); //Helps avoid auto-dropping for some reason.
 1758              		.loc 1 337 0
 1759 0242 FFF7FEFF 		bl	CapSense_UpdateEnabledBaselines
 338:.\main.c      ****                 CapSense_ScanEnabledWidgets();
 1760              		.loc 1 338 0
 1761 0246 FFF7FEFF 		bl	CapSense_ScanEnabledWidgets
 1762              	.L116:
 339:.\main.c      ****                 while (CapSense_IsBusy());
 1763              		.loc 1 339 0
 1764 024a FFF7FEFF 		bl	CapSense_IsBusy
 1765 024e 0346     		mov	r3, r0
 1766 0250 002B     		cmp	r3, #0
 1767 0252 FAD1     		bne	.L116
 340:.\main.c      ****                 if ((player1_turn && CapSense_CheckIsWidgetActive(CapSense_BUTTON0__BTN))
 1768              		.loc 1 340 0
 1769 0254 40F20003 		movw	r3, #:lower16:player1_turn
 1770 0258 C0F20003 		movt	r3, #:upper16:player1_turn
 1771 025c 1B78     		ldrb	r3, [r3, #0]	@ zero_extendqisi2
 1772 025e 002B     		cmp	r3, #0
 1773 0260 06D0     		beq	.L117
 1774 0262 4FF00100 		mov	r0, #1
ARM GAS  C:\DOCUME~1\david\LOCALS~1\Temp\cci2ny8l.s 			page 39


 1775 0266 FFF7FEFF 		bl	CapSense_CheckIsWidgetActive
 1776 026a 0346     		mov	r3, r0
 1777 026c 002B     		cmp	r3, #0
 1778 026e 10D1     		bne	.L118
 1779              	.L117:
 1780 0270 40F20003 		movw	r3, #:lower16:player1_turn
 1781 0274 C0F20003 		movt	r3, #:upper16:player1_turn
 1782 0278 1B78     		ldrb	r3, [r3, #0]	@ zero_extendqisi2
 1783 027a 83F00103 		eor	r3, r3, #1
 1784 027e DBB2     		uxtb	r3, r3
 1785 0280 002B     		cmp	r3, #0
 1786 0282 25D0     		beq	.L119
 341:.\main.c      ****                 || (!player1_turn && CapSense_CheckIsWidgetActive(CapSense_BUTTON1__BTN))) { //Help
 1787              		.loc 1 341 0
 1788 0284 4FF00200 		mov	r0, #2
 1789 0288 FFF7FEFF 		bl	CapSense_CheckIsWidgetActive
 1790 028c 0346     		mov	r3, r0
 1791              		.loc 1 340 0
 1792 028e 002B     		cmp	r3, #0
 1793 0290 1ED0     		beq	.L119
 1794              	.L118:
 342:.\main.c      ****                     if (player1[1][disc] || player2[1][disc]) LCD_UpdateMessage("Column Full");
 1795              		.loc 1 342 0
 1796 0292 FA7F     		ldrb	r2, [r7, #31]	@ zero_extendqisi2
 1797 0294 40F20003 		movw	r3, #:lower16:player1
 1798 0298 C0F20003 		movt	r3, #:upper16:player1
 1799 029c 1344     		add	r3, r2, r3
 1800 029e 1B7A     		ldrb	r3, [r3, #8]	@ zero_extendqisi2
 1801 02a0 002B     		cmp	r3, #0
 1802 02a2 08D1     		bne	.L120
 1803 02a4 FA7F     		ldrb	r2, [r7, #31]	@ zero_extendqisi2
 1804 02a6 40F20003 		movw	r3, #:lower16:player2
 1805 02aa C0F20003 		movt	r3, #:upper16:player2
 1806 02ae 1344     		add	r3, r2, r3
 1807 02b0 1B7A     		ldrb	r3, [r3, #8]	@ zero_extendqisi2
 1808 02b2 002B     		cmp	r3, #0
 1809 02b4 07D0     		beq	.L121
 1810              	.L120:
 1811 02b6 40F20000 		movw	r0, #:lower16:.LC22
 1812 02ba C0F20000 		movt	r0, #:upper16:.LC22
 1813 02be FFF7FEFF 		bl	LCD_UpdateMessage
 1814 02c2 00BF     		nop
 1815              		.loc 1 340 0
 1816 02c4 77E0     		b	.L123
 1817              	.L121:
 343:.\main.c      ****                     else dropped = true;
 1818              		.loc 1 343 0
 1819 02c6 4FF00103 		mov	r3, #1
 1820 02ca 87F82030 		strb	r3, [r7, #32]
 1821              		.loc 1 340 0
 1822 02ce 72E0     		b	.L123
 1823              	.L119:
 1824              	.LBB12:
 344:.\main.c      ****                 }
 345:.\main.c      ****                 else {
 346:.\main.c      ****                     player1[0][disc] = player2[0][disc] = false;
 1825              		.loc 1 346 0
ARM GAS  C:\DOCUME~1\david\LOCALS~1\Temp\cci2ny8l.s 			page 40


 1826 02d0 F97F     		ldrb	r1, [r7, #31]	@ zero_extendqisi2
 1827 02d2 FA7F     		ldrb	r2, [r7, #31]	@ zero_extendqisi2
 1828 02d4 40F20003 		movw	r3, #:lower16:player2
 1829 02d8 C0F20003 		movt	r3, #:upper16:player2
 1830 02dc 4FF00000 		mov	r0, #0
 1831 02e0 9854     		strb	r0, [r3, r2]
 1832 02e2 40F20003 		movw	r3, #:lower16:player2
 1833 02e6 C0F20003 		movt	r3, #:upper16:player2
 1834 02ea 9A5C     		ldrb	r2, [r3, r2]	@ zero_extendqisi2
 1835 02ec 40F20003 		movw	r3, #:lower16:player1
 1836 02f0 C0F20003 		movt	r3, #:upper16:player1
 1837 02f4 5A54     		strb	r2, [r3, r1]
 347:.\main.c      ****                     uint16 reading = (CapSense_GetCentroidPos(CapSense_LINEARSLIDER0__LS)*(MATRIX_C
 1838              		.loc 1 347 0
 1839 02f6 4FF00000 		mov	r0, #0
 1840 02fa FFF7FEFF 		bl	CapSense_GetCentroidPos
 1841 02fe 0346     		mov	r3, r0
 1842 0300 1A46     		mov	r2, r3
 1843 0302 1346     		mov	r3, r2
 1844 0304 4FEAC303 		lsl	r3, r3, #3
 1845 0308 C2EB0302 		rsb	r2, r2, r3
 1846 030c 40F2EB73 		movw	r3, #:lower16:354224107
 1847 0310 C1F21D53 		movt	r3, #:upper16:354224107
 1848 0314 83FB0213 		smull	r1, r3, r3, r2
 1849 0318 4FEAE301 		asr	r1, r3, #3
 1850 031c 4FEAE273 		asr	r3, r2, #31
 1851 0320 C3EB0103 		rsb	r3, r3, r1
 1852 0324 7B84     		strh	r3, [r7, #34]	@ movhi
 348:.\main.c      ****                     if (reading < 8) disc = reading;
 1853              		.loc 1 348 0
 1854 0326 7B8C     		ldrh	r3, [r7, #34]
 1855 0328 072B     		cmp	r3, #7
 1856 032a 01D8     		bhi	.L124
 1857 032c 7B8C     		ldrh	r3, [r7, #34]	@ movhi
 1858 032e FB77     		strb	r3, [r7, #31]
 1859              	.L124:
 349:.\main.c      ****                     
 350:.\main.c      ****                     //guide the disc
 351:.\main.c      ****                     int dir = 1;
 1860              		.loc 1 351 0
 1861 0330 4FF00103 		mov	r3, #1
 1862 0334 7B62     		str	r3, [r7, #36]
 352:.\main.c      ****                     while (player1[1][disc] || player2[1][disc]) {
 1863              		.loc 1 352 0
 1864 0336 14E0     		b	.L125
 1865              	.L128:
 353:.\main.c      ****                         if (disc >= MATRIX_COLS-1)  dir = -1;
 1866              		.loc 1 353 0
 1867 0338 FB7F     		ldrb	r3, [r7, #31]	@ zero_extendqisi2
 1868 033a 062B     		cmp	r3, #6
 1869 033c 02D9     		bls	.L126
 1870 033e 4FF0FF33 		mov	r3, #-1
 1871 0342 7B62     		str	r3, [r7, #36]
 1872              	.L126:
 354:.\main.c      ****                         if (disc == 0 && dir == -1) dir =  1; // There may be redundancy here.
 1873              		.loc 1 354 0
 1874 0344 FB7F     		ldrb	r3, [r7, #31]	@ zero_extendqisi2
ARM GAS  C:\DOCUME~1\david\LOCALS~1\Temp\cci2ny8l.s 			page 41


 1875 0346 002B     		cmp	r3, #0
 1876 0348 06D1     		bne	.L127
 1877 034a 7B6A     		ldr	r3, [r7, #36]
 1878 034c B3F1FF3F 		cmp	r3, #-1
 1879 0350 02D1     		bne	.L127
 1880 0352 4FF00103 		mov	r3, #1
 1881 0356 7B62     		str	r3, [r7, #36]
 1882              	.L127:
 355:.\main.c      ****                         disc += dir;
 1883              		.loc 1 355 0
 1884 0358 7B6A     		ldr	r3, [r7, #36]
 1885 035a DAB2     		uxtb	r2, r3
 1886 035c FB7F     		ldrb	r3, [r7, #31]
 1887 035e 1344     		add	r3, r2, r3
 1888 0360 FB77     		strb	r3, [r7, #31]
 1889              	.L125:
 1890              		.loc 1 352 0
 1891 0362 FA7F     		ldrb	r2, [r7, #31]	@ zero_extendqisi2
 1892 0364 40F20003 		movw	r3, #:lower16:player1
 1893 0368 C0F20003 		movt	r3, #:upper16:player1
 1894 036c 1344     		add	r3, r2, r3
 1895 036e 1B7A     		ldrb	r3, [r3, #8]	@ zero_extendqisi2
 1896 0370 002B     		cmp	r3, #0
 1897 0372 E1D1     		bne	.L128
 1898 0374 FA7F     		ldrb	r2, [r7, #31]	@ zero_extendqisi2
 1899 0376 40F20003 		movw	r3, #:lower16:player2
 1900 037a C0F20003 		movt	r3, #:upper16:player2
 1901 037e 1344     		add	r3, r2, r3
 1902 0380 1B7A     		ldrb	r3, [r3, #8]	@ zero_extendqisi2
 1903 0382 002B     		cmp	r3, #0
 1904 0384 D8D1     		bne	.L128
 356:.\main.c      ****                     }
 357:.\main.c      ****                     if (player1_turn) player1[0][disc] = true;
 1905              		.loc 1 357 0
 1906 0386 40F20003 		movw	r3, #:lower16:player1_turn
 1907 038a C0F20003 		movt	r3, #:upper16:player1_turn
 1908 038e 1B78     		ldrb	r3, [r3, #0]	@ zero_extendqisi2
 1909 0390 002B     		cmp	r3, #0
 1910 0392 08D0     		beq	.L129
 1911 0394 FA7F     		ldrb	r2, [r7, #31]	@ zero_extendqisi2
 1912 0396 40F20003 		movw	r3, #:lower16:player1
 1913 039a C0F20003 		movt	r3, #:upper16:player1
 1914 039e 4FF00101 		mov	r1, #1
 1915 03a2 9954     		strb	r1, [r3, r2]
 1916 03a4 07E0     		b	.L123
 1917              	.L129:
 358:.\main.c      ****                     else              player2[0][disc] = true;
 1918              		.loc 1 358 0
 1919 03a6 FA7F     		ldrb	r2, [r7, #31]	@ zero_extendqisi2
 1920 03a8 40F20003 		movw	r3, #:lower16:player2
 1921 03ac C0F20003 		movt	r3, #:upper16:player2
 1922 03b0 4FF00101 		mov	r1, #1
 1923 03b4 9954     		strb	r1, [r3, r2]
 1924              	.L123:
 1925              	.LBE12:
 359:.\main.c      ****                 }
 360:.\main.c      ****             } while (!dropped);
ARM GAS  C:\DOCUME~1\david\LOCALS~1\Temp\cci2ny8l.s 			page 42


 1926              		.loc 1 360 0
 1927 03b6 97F82030 		ldrb	r3, [r7, #32]
 1928 03ba 83F00103 		eor	r3, r3, #1
 1929 03be DBB2     		uxtb	r3, r3
 1930 03c0 002B     		cmp	r3, #0
 1931 03c2 7FF43CAF 		bne	.L130
 361:.\main.c      ****             
 362:.\main.c      ****             //animate drop
 363:.\main.c      ****             player1[0][disc] = player2[0][disc] = false;
 1932              		.loc 1 363 0
 1933 03c6 F97F     		ldrb	r1, [r7, #31]	@ zero_extendqisi2
 1934 03c8 FA7F     		ldrb	r2, [r7, #31]	@ zero_extendqisi2
 1935 03ca 40F20003 		movw	r3, #:lower16:player2
 1936 03ce C0F20003 		movt	r3, #:upper16:player2
 1937 03d2 4FF00000 		mov	r0, #0
 1938 03d6 9854     		strb	r0, [r3, r2]
 1939 03d8 40F20003 		movw	r3, #:lower16:player2
 1940 03dc C0F20003 		movt	r3, #:upper16:player2
 1941 03e0 9A5C     		ldrb	r2, [r3, r2]	@ zero_extendqisi2
 1942 03e2 40F20003 		movw	r3, #:lower16:player1
 1943 03e6 C0F20003 		movt	r3, #:upper16:player1
 1944 03ea 5A54     		strb	r2, [r3, r1]
 364:.\main.c      ****             uint8 r;
 365:.\main.c      ****             for (r=1; r < MATRIX_ROWS ;++r) {
 1945              		.loc 1 365 0
 1946 03ec 4FF00103 		mov	r3, #1
 1947 03f0 87F82130 		strb	r3, [r7, #33]
 1948 03f4 75E0     		b	.L131
 1949              	.L137:
 366:.\main.c      ****                 if (player1_turn) player1[r][disc] = true;
 1950              		.loc 1 366 0
 1951 03f6 40F20003 		movw	r3, #:lower16:player1_turn
 1952 03fa C0F20003 		movt	r3, #:upper16:player1_turn
 1953 03fe 1B78     		ldrb	r3, [r3, #0]	@ zero_extendqisi2
 1954 0400 002B     		cmp	r3, #0
 1955 0402 0ED0     		beq	.L132
 1956 0404 97F82110 		ldrb	r1, [r7, #33]	@ zero_extendqisi2
 1957 0408 FA7F     		ldrb	r2, [r7, #31]	@ zero_extendqisi2
 1958 040a 40F20003 		movw	r3, #:lower16:player1
 1959 040e C0F20003 		movt	r3, #:upper16:player1
 1960 0412 4FEAC101 		lsl	r1, r1, #3
 1961 0416 0A44     		add	r2, r1, r2
 1962 0418 1344     		add	r3, r2, r3
 1963 041a 4FF00102 		mov	r2, #1
 1964 041e 1A70     		strb	r2, [r3, #0]
 1965 0420 0DE0     		b	.L133
 1966              	.L132:
 367:.\main.c      ****                 else              player2[r][disc] = true;
 1967              		.loc 1 367 0
 1968 0422 97F82110 		ldrb	r1, [r7, #33]	@ zero_extendqisi2
 1969 0426 FA7F     		ldrb	r2, [r7, #31]	@ zero_extendqisi2
 1970 0428 40F20003 		movw	r3, #:lower16:player2
 1971 042c C0F20003 		movt	r3, #:upper16:player2
 1972 0430 4FEAC101 		lsl	r1, r1, #3
 1973 0434 0A44     		add	r2, r1, r2
 1974 0436 1344     		add	r3, r2, r3
 1975 0438 4FF00102 		mov	r2, #1
ARM GAS  C:\DOCUME~1\david\LOCALS~1\Temp\cci2ny8l.s 			page 43


 1976 043c 1A70     		strb	r2, [r3, #0]
 1977              	.L133:
 368:.\main.c      ****                 if (player1[r+1][disc] || player2[r+1][disc] || r+1 == MATRIX_ROWS) break;
 1978              		.loc 1 368 0
 1979 043e 97F82130 		ldrb	r3, [r7, #33]	@ zero_extendqisi2
 1980 0442 03F10101 		add	r1, r3, #1
 1981 0446 FA7F     		ldrb	r2, [r7, #31]	@ zero_extendqisi2
 1982 0448 40F20003 		movw	r3, #:lower16:player1
 1983 044c C0F20003 		movt	r3, #:upper16:player1
 1984 0450 4FEAC101 		lsl	r1, r1, #3
 1985 0454 0A44     		add	r2, r1, r2
 1986 0456 1344     		add	r3, r2, r3
 1987 0458 1B78     		ldrb	r3, [r3, #0]	@ zero_extendqisi2
 1988 045a 002B     		cmp	r3, #0
 1989 045c 45D1     		bne	.L134
 1990 045e 97F82130 		ldrb	r3, [r7, #33]	@ zero_extendqisi2
 1991 0462 03F10101 		add	r1, r3, #1
 1992 0466 FA7F     		ldrb	r2, [r7, #31]	@ zero_extendqisi2
 1993 0468 40F20003 		movw	r3, #:lower16:player2
 1994 046c C0F20003 		movt	r3, #:upper16:player2
 1995 0470 4FEAC101 		lsl	r1, r1, #3
 1996 0474 0A44     		add	r2, r1, r2
 1997 0476 1344     		add	r3, r2, r3
 1998 0478 1B78     		ldrb	r3, [r3, #0]	@ zero_extendqisi2
 1999 047a 002B     		cmp	r3, #0
 2000 047c 35D1     		bne	.L134
 2001 047e 97F82130 		ldrb	r3, [r7, #33]	@ zero_extendqisi2
 2002 0482 072B     		cmp	r3, #7
 2003 0484 31D0     		beq	.L134
 369:.\main.c      ****                 else CyDelay(100);
 2004              		.loc 1 369 0
 2005 0486 4FF06400 		mov	r0, #100
 2006 048a FFF7FEFF 		bl	CyDelay
 370:.\main.c      ****                 if (player1_turn) player1[r][disc] = false;
 2007              		.loc 1 370 0
 2008 048e 40F20003 		movw	r3, #:lower16:player1_turn
 2009 0492 C0F20003 		movt	r3, #:upper16:player1_turn
 2010 0496 1B78     		ldrb	r3, [r3, #0]	@ zero_extendqisi2
 2011 0498 002B     		cmp	r3, #0
 2012 049a 0ED0     		beq	.L135
 2013 049c 97F82110 		ldrb	r1, [r7, #33]	@ zero_extendqisi2
 2014 04a0 FA7F     		ldrb	r2, [r7, #31]	@ zero_extendqisi2
 2015 04a2 40F20003 		movw	r3, #:lower16:player1
 2016 04a6 C0F20003 		movt	r3, #:upper16:player1
 2017 04aa 4FEAC101 		lsl	r1, r1, #3
 2018 04ae 0A44     		add	r2, r1, r2
 2019 04b0 1344     		add	r3, r2, r3
 2020 04b2 4FF00002 		mov	r2, #0
 2021 04b6 1A70     		strb	r2, [r3, #0]
 2022 04b8 0DE0     		b	.L136
 2023              	.L135:
 371:.\main.c      ****                 else              player2[r][disc] = false;
 2024              		.loc 1 371 0
 2025 04ba 97F82110 		ldrb	r1, [r7, #33]	@ zero_extendqisi2
 2026 04be FA7F     		ldrb	r2, [r7, #31]	@ zero_extendqisi2
 2027 04c0 40F20003 		movw	r3, #:lower16:player2
 2028 04c4 C0F20003 		movt	r3, #:upper16:player2
ARM GAS  C:\DOCUME~1\david\LOCALS~1\Temp\cci2ny8l.s 			page 44


 2029 04c8 4FEAC101 		lsl	r1, r1, #3
 2030 04cc 0A44     		add	r2, r1, r2
 2031 04ce 1344     		add	r3, r2, r3
 2032 04d0 4FF00002 		mov	r2, #0
 2033 04d4 1A70     		strb	r2, [r3, #0]
 2034              	.L136:
 2035              		.loc 1 365 0
 2036 04d6 97F82130 		ldrb	r3, [r7, #33]
 2037 04da 03F10103 		add	r3, r3, #1
 2038 04de 87F82130 		strb	r3, [r7, #33]
 2039              	.L131:
 2040 04e2 97F82130 		ldrb	r3, [r7, #33]	@ zero_extendqisi2
 2041 04e6 072B     		cmp	r3, #7
 2042 04e8 85D9     		bls	.L137
 2043              	.L134:
 372:.\main.c      ****             }
 373:.\main.c      ****             if (!player2_local) {
 2044              		.loc 1 373 0
 2045 04ea 40F20003 		movw	r3, #:lower16:player2_local
 2046 04ee C0F20003 		movt	r3, #:upper16:player2_local
 2047 04f2 1B78     		ldrb	r3, [r3, #0]	@ zero_extendqisi2
 2048 04f4 83F00103 		eor	r3, r3, #1
 2049 04f8 DBB2     		uxtb	r3, r3
 2050 04fa 002B     		cmp	r3, #0
 2051 04fc 49D0     		beq	.L138
 2052              	.LBB13:
 374:.\main.c      ****                 packet_t move;
 375:.\main.c      ****                 move.delimiter   = '~';
 2053              		.loc 1 375 0
 2054 04fe 4FF07E03 		mov	r3, #126
 2055 0502 3B74     		strb	r3, [r7, #16]
 376:.\main.c      ****                 move.length      = sizeof(move) - (sizeof(move.delimiter) +
 2056              		.loc 1 376 0
 2057 0504 4FF00A03 		mov	r3, #10
 2058 0508 7B82     		strh	r3, [r7, #18]	@ movhi
 377:.\main.c      ****                                                    sizeof(move.length) +
 378:.\main.c      ****                                                    sizeof(move.checksum));
 379:.\main.c      ****                 move.api_id      = 0x01;
 2059              		.loc 1 379 0
 2060 050a 4FF00103 		mov	r3, #1
 2061 050e 3B75     		strb	r3, [r7, #20]
 380:.\main.c      ****                 move.frame_id    = 0x00;
 2062              		.loc 1 380 0
 2063 0510 4FF00003 		mov	r3, #0
 2064 0514 7B75     		strb	r3, [r7, #21]
 381:.\main.c      ****                 move.destination = 0xFFFF;
 2065              		.loc 1 381 0
 2066 0516 4FF6FF73 		movw	r3, #65535
 2067 051a FB82     		strh	r3, [r7, #22]	@ movhi
 382:.\main.c      ****                 move.disable_ack = 0x01;
 2068              		.loc 1 382 0
 2069 051c 4FF00103 		mov	r3, #1
 2070 0520 3B76     		strb	r3, [r7, #24]
 383:.\main.c      ****                 move.player_id   = PLAYER1_ID;
 2071              		.loc 1 383 0
 2072 0522 6FF02503 		mvn	r3, #37
 2073 0526 7B76     		strb	r3, [r7, #25]
ARM GAS  C:\DOCUME~1\david\LOCALS~1\Temp\cci2ny8l.s 			page 45


 384:.\main.c      ****                 move.packet_type = 0x00;
 2074              		.loc 1 384 0
 2075 0528 4FF00003 		mov	r3, #0
 2076 052c BB76     		strb	r3, [r7, #26]
 385:.\main.c      ****                 move.row         = r;
 2077              		.loc 1 385 0
 2078 052e 97F82130 		ldrb	r3, [r7, #33]
 2079 0532 FB76     		strb	r3, [r7, #27]
 386:.\main.c      ****                 move.col         = disc;
 2080              		.loc 1 386 0
 2081 0534 FB7F     		ldrb	r3, [r7, #31]
 2082 0536 3B77     		strb	r3, [r7, #28]
 387:.\main.c      ****                 move.checksum    = 0xFF - (uint8) (move.api_id +
 2083              		.loc 1 387 0
 2084 0538 3A7D     		ldrb	r2, [r7, #20]	@ zero_extendqisi2
 2085 053a 7B7D     		ldrb	r3, [r7, #21]	@ zero_extendqisi2
 2086 053c 1344     		add	r3, r2, r3
 2087 053e DAB2     		uxtb	r2, r3
 2088 0540 FB8A     		ldrh	r3, [r7, #22]
 2089 0542 DBB2     		uxtb	r3, r3
 2090 0544 1344     		add	r3, r2, r3
 2091 0546 DAB2     		uxtb	r2, r3
 2092 0548 3B7E     		ldrb	r3, [r7, #24]	@ zero_extendqisi2
 2093 054a 1344     		add	r3, r2, r3
 2094 054c DAB2     		uxtb	r2, r3
 2095 054e 7B7E     		ldrb	r3, [r7, #25]	@ zero_extendqisi2
 2096 0550 1344     		add	r3, r2, r3
 2097 0552 DAB2     		uxtb	r2, r3
 2098 0554 BB7E     		ldrb	r3, [r7, #26]	@ zero_extendqisi2
 2099 0556 1344     		add	r3, r2, r3
 2100 0558 DAB2     		uxtb	r2, r3
 2101 055a FB7E     		ldrb	r3, [r7, #27]	@ zero_extendqisi2
 2102 055c 1344     		add	r3, r2, r3
 2103 055e DAB2     		uxtb	r2, r3
 2104 0560 3B7F     		ldrb	r3, [r7, #28]	@ zero_extendqisi2
 2105 0562 1344     		add	r3, r2, r3
 2106 0564 DBB2     		uxtb	r3, r3
 2107 0566 6FEA0303 		mvn	r3, r3
 2108 056a DBB2     		uxtb	r3, r3
 2109 056c 7B77     		strb	r3, [r7, #29]
 388:.\main.c      ****                                                    move.frame_id +
 389:.\main.c      ****                                                    move.destination +
 390:.\main.c      ****                                                    move.disable_ack +
 391:.\main.c      ****                                                    move.player_id +
 392:.\main.c      ****                                                    move.packet_type +
 393:.\main.c      ****                                                    move.row +
 394:.\main.c      ****                                                    move.col);
 395:.\main.c      ****                 send_packet(&move);
 2110              		.loc 1 395 0
 2111 056e 07F11003 		add	r3, r7, #16
 2112 0572 1846     		mov	r0, r3
 2113 0574 FFF7FEFF 		bl	send_packet
 396:.\main.c      ****                 
 397:.\main.c      ****                 LCD_UpdateStatus("IMPLEMENTED"); // DEBUG
 2114              		.loc 1 397 0
 2115 0578 40F20000 		movw	r0, #:lower16:.LC23
 2116 057c C0F20000 		movt	r0, #:upper16:.LC23
ARM GAS  C:\DOCUME~1\david\LOCALS~1\Temp\cci2ny8l.s 			page 46


 2117 0580 FFF7FEFF 		bl	LCD_UpdateStatus
 398:.\main.c      ****                 LCD_UpdateMessage("move sent"); // DEBUG
 2118              		.loc 1 398 0
 2119 0584 40F20000 		movw	r0, #:lower16:.LC24
 2120 0588 C0F20000 		movt	r0, #:upper16:.LC24
 2121 058c FFF7FEFF 		bl	LCD_UpdateMessage
 2122              	.L139:
 399:.\main.c      ****                 while (true); // DEBUG
 2123              		.loc 1 399 0
 2124 0590 FEE7     		b	.L139
 2125              	.L138:
 2126              	.LBE13:
 400:.\main.c      ****             }
 401:.\main.c      ****             
 402:.\main.c      ****             winner_check();
 2127              		.loc 1 402 0
 2128 0592 FFF7FEFF 		bl	winner_check
 403:.\main.c      ****             player1_turn = !player1_turn;
 2129              		.loc 1 403 0
 2130 0596 40F20003 		movw	r3, #:lower16:player1_turn
 2131 059a C0F20003 		movt	r3, #:upper16:player1_turn
 2132 059e 1B78     		ldrb	r3, [r3, #0]	@ zero_extendqisi2
 2133 05a0 83F00103 		eor	r3, r3, #1
 2134 05a4 DBB2     		uxtb	r3, r3
 2135 05a6 DAB2     		uxtb	r2, r3
 2136 05a8 40F20003 		movw	r3, #:lower16:player1_turn
 2137 05ac C0F20003 		movt	r3, #:upper16:player1_turn
 2138 05b0 1A70     		strb	r2, [r3, #0]
 2139              	.LBE11:
 404:.\main.c      ****         }
 405:.\main.c      ****         else {
 406:.\main.c      ****             LCD_UpdateMessage("Player 2");
 407:.\main.c      ****             packet_t move;
 408:.\main.c      ****             receive_packet(&move);
 409:.\main.c      ****             
 410:.\main.c      ****             LCD_UpdateStatus("UNIMPLEMENTED"); // DEBUG
 411:.\main.c      ****             LCD_UpdateMessage("waiting for move"); // DEBUG
 412:.\main.c      ****             while (true); // DEBUG
 413:.\main.c      ****             
 414:.\main.c      ****             player1_turn = true;
 415:.\main.c      ****         }
 416:.\main.c      ****     }
 2140              		.loc 1 416 0
 2141 05b2 EEE5     		b	.L140
 2142              	.L110:
 2143              	.LBB14:
 2144              		.loc 1 406 0
 2145 05b4 40F20000 		movw	r0, #:lower16:.LC18
 2146 05b8 C0F20000 		movt	r0, #:upper16:.LC18
 2147 05bc FFF7FEFF 		bl	LCD_UpdateMessage
 2148              		.loc 1 408 0
 2149 05c0 3B46     		mov	r3, r7
 2150 05c2 1846     		mov	r0, r3
 2151 05c4 FFF7FEFF 		bl	receive_packet
 2152              		.loc 1 410 0
 2153 05c8 40F20000 		movw	r0, #:lower16:.LC25
 2154 05cc C0F20000 		movt	r0, #:upper16:.LC25
ARM GAS  C:\DOCUME~1\david\LOCALS~1\Temp\cci2ny8l.s 			page 47


 2155 05d0 FFF7FEFF 		bl	LCD_UpdateStatus
 2156              		.loc 1 411 0
 2157 05d4 40F20000 		movw	r0, #:lower16:.LC26
 2158 05d8 C0F20000 		movt	r0, #:upper16:.LC26
 2159 05dc FFF7FEFF 		bl	LCD_UpdateMessage
 2160              	.L141:
 2161              		.loc 1 412 0
 2162 05e0 FEE7     		b	.L141
 2163              	.LBE14:
 2164              		.cfi_endproc
 2165              	.LFE36:
 2166              		.size	main, .-main
 2167 05e2 00BF     		.text
 2168              	.Letext0:
 2169              		.section	.debug_loc,"",%progbits
 2170              	.Ldebug_loc0:
 2171              	.LLST0:
 2172 0000 00000000 		.4byte	.LFB29
 2173 0004 02000000 		.4byte	.LCFI0
 2174 0008 0100     		.2byte	0x1
 2175 000a 5D       		.byte	0x5d
 2176 000b 02000000 		.4byte	.LCFI0
 2177 000f 04000000 		.4byte	.LCFI1
 2178 0013 0200     		.2byte	0x2
 2179 0015 7D       		.byte	0x7d
 2180 0016 08       		.sleb128 8
 2181 0017 04000000 		.4byte	.LCFI1
 2182 001b C6000000 		.4byte	.LFE29
 2183 001f 0200     		.2byte	0x2
 2184 0021 77       		.byte	0x77
 2185 0022 08       		.sleb128 8
 2186 0023 00000000 		.4byte	0x0
 2187 0027 00000000 		.4byte	0x0
 2188              	.LLST1:
 2189 002b 00000000 		.4byte	.LFB30
 2190 002f 02000000 		.4byte	.LCFI2
 2191 0033 0100     		.2byte	0x1
 2192 0035 5D       		.byte	0x5d
 2193 0036 02000000 		.4byte	.LCFI2
 2194 003a 04000000 		.4byte	.LCFI3
 2195 003e 0200     		.2byte	0x2
 2196 0040 7D       		.byte	0x7d
 2197 0041 04       		.sleb128 4
 2198 0042 04000000 		.4byte	.LCFI3
 2199 0046 06000000 		.4byte	.LCFI4
 2200 004a 0200     		.2byte	0x2
 2201 004c 7D       		.byte	0x7d
 2202 004d 10       		.sleb128 16
 2203 004e 06000000 		.4byte	.LCFI4
 2204 0052 70000000 		.4byte	.LFE30
 2205 0056 0200     		.2byte	0x2
 2206 0058 77       		.byte	0x77
 2207 0059 10       		.sleb128 16
 2208 005a 00000000 		.4byte	0x0
 2209 005e 00000000 		.4byte	0x0
 2210              	.LLST2:
 2211 0062 00000000 		.4byte	.LFB31
ARM GAS  C:\DOCUME~1\david\LOCALS~1\Temp\cci2ny8l.s 			page 48


 2212 0066 02000000 		.4byte	.LCFI5
 2213 006a 0100     		.2byte	0x1
 2214 006c 5D       		.byte	0x5d
 2215 006d 02000000 		.4byte	.LCFI5
 2216 0071 04000000 		.4byte	.LCFI6
 2217 0075 0200     		.2byte	0x2
 2218 0077 7D       		.byte	0x7d
 2219 0078 04       		.sleb128 4
 2220 0079 04000000 		.4byte	.LCFI6
 2221 007d 34000000 		.4byte	.LFE31
 2222 0081 0200     		.2byte	0x2
 2223 0083 77       		.byte	0x77
 2224 0084 04       		.sleb128 4
 2225 0085 00000000 		.4byte	0x0
 2226 0089 00000000 		.4byte	0x0
 2227              	.LLST3:
 2228 008d 00000000 		.4byte	.LFB32
 2229 0091 02000000 		.4byte	.LCFI7
 2230 0095 0100     		.2byte	0x1
 2231 0097 5D       		.byte	0x5d
 2232 0098 02000000 		.4byte	.LCFI7
 2233 009c 04000000 		.4byte	.LCFI8
 2234 00a0 0200     		.2byte	0x2
 2235 00a2 7D       		.byte	0x7d
 2236 00a3 08       		.sleb128 8
 2237 00a4 04000000 		.4byte	.LCFI8
 2238 00a8 06000000 		.4byte	.LCFI9
 2239 00ac 0200     		.2byte	0x2
 2240 00ae 7D       		.byte	0x7d
 2241 00af 10       		.sleb128 16
 2242 00b0 06000000 		.4byte	.LCFI9
 2243 00b4 5C010000 		.4byte	.LFE32
 2244 00b8 0200     		.2byte	0x2
 2245 00ba 77       		.byte	0x77
 2246 00bb 10       		.sleb128 16
 2247 00bc 00000000 		.4byte	0x0
 2248 00c0 00000000 		.4byte	0x0
 2249              	.LLST4:
 2250 00c4 00000000 		.4byte	.LFB33
 2251 00c8 02000000 		.4byte	.LCFI10
 2252 00cc 0100     		.2byte	0x1
 2253 00ce 5D       		.byte	0x5d
 2254 00cf 02000000 		.4byte	.LCFI10
 2255 00d3 04000000 		.4byte	.LCFI11
 2256 00d7 0200     		.2byte	0x2
 2257 00d9 7D       		.byte	0x7d
 2258 00da 08       		.sleb128 8
 2259 00db 04000000 		.4byte	.LCFI11
 2260 00df 06000000 		.4byte	.LCFI12
 2261 00e3 0200     		.2byte	0x2
 2262 00e5 7D       		.byte	0x7d
 2263 00e6 20       		.sleb128 32
 2264 00e7 06000000 		.4byte	.LCFI12
 2265 00eb 0E050000 		.4byte	.LFE33
 2266 00ef 0200     		.2byte	0x2
 2267 00f1 77       		.byte	0x77
 2268 00f2 20       		.sleb128 32
ARM GAS  C:\DOCUME~1\david\LOCALS~1\Temp\cci2ny8l.s 			page 49


 2269 00f3 00000000 		.4byte	0x0
 2270 00f7 00000000 		.4byte	0x0
 2271              	.LLST5:
 2272 00fb 00000000 		.4byte	.LFB34
 2273 00ff 02000000 		.4byte	.LCFI13
 2274 0103 0100     		.2byte	0x1
 2275 0105 5D       		.byte	0x5d
 2276 0106 02000000 		.4byte	.LCFI13
 2277 010a 04000000 		.4byte	.LCFI14
 2278 010e 0200     		.2byte	0x2
 2279 0110 7D       		.byte	0x7d
 2280 0111 08       		.sleb128 8
 2281 0112 04000000 		.4byte	.LCFI14
 2282 0116 06000000 		.4byte	.LCFI15
 2283 011a 0200     		.2byte	0x2
 2284 011c 7D       		.byte	0x7d
 2285 011d 10       		.sleb128 16
 2286 011e 06000000 		.4byte	.LCFI15
 2287 0122 A6000000 		.4byte	.LFE34
 2288 0126 0200     		.2byte	0x2
 2289 0128 77       		.byte	0x77
 2290 0129 10       		.sleb128 16
 2291 012a 00000000 		.4byte	0x0
 2292 012e 00000000 		.4byte	0x0
 2293              	.LLST6:
 2294 0132 00000000 		.4byte	.LFB35
 2295 0136 02000000 		.4byte	.LCFI16
 2296 013a 0100     		.2byte	0x1
 2297 013c 5D       		.byte	0x5d
 2298 013d 02000000 		.4byte	.LCFI16
 2299 0141 04000000 		.4byte	.LCFI17
 2300 0145 0200     		.2byte	0x2
 2301 0147 7D       		.byte	0x7d
 2302 0148 08       		.sleb128 8
 2303 0149 04000000 		.4byte	.LCFI17
 2304 014d 06000000 		.4byte	.LCFI18
 2305 0151 0200     		.2byte	0x2
 2306 0153 7D       		.byte	0x7d
 2307 0154 10       		.sleb128 16
 2308 0155 06000000 		.4byte	.LCFI18
 2309 0159 68010000 		.4byte	.LFE35
 2310 015d 0200     		.2byte	0x2
 2311 015f 77       		.byte	0x77
 2312 0160 10       		.sleb128 16
 2313 0161 00000000 		.4byte	0x0
 2314 0165 00000000 		.4byte	0x0
 2315              	.LLST7:
 2316 0169 00000000 		.4byte	.LFB36
 2317 016d 02000000 		.4byte	.LCFI19
 2318 0171 0100     		.2byte	0x1
 2319 0173 5D       		.byte	0x5d
 2320 0174 02000000 		.4byte	.LCFI19
 2321 0178 04000000 		.4byte	.LCFI20
 2322 017c 0200     		.2byte	0x2
 2323 017e 7D       		.byte	0x7d
 2324 017f 08       		.sleb128 8
 2325 0180 04000000 		.4byte	.LCFI20
ARM GAS  C:\DOCUME~1\david\LOCALS~1\Temp\cci2ny8l.s 			page 50


 2326 0184 06000000 		.4byte	.LCFI21
 2327 0188 0200     		.2byte	0x2
 2328 018a 7D       		.byte	0x7d
 2329 018b 30       		.sleb128 48
 2330 018c 06000000 		.4byte	.LCFI21
 2331 0190 E2050000 		.4byte	.LFE36
 2332 0194 0200     		.2byte	0x2
 2333 0196 77       		.byte	0x77
 2334 0197 30       		.sleb128 48
 2335 0198 00000000 		.4byte	0x0
 2336 019c 00000000 		.4byte	0x0
 2337              		.file 2 "./Generated_Source/PSoC5/cytypes.h"
 2338              		.file 3 "./Generated_Source/PSoC5/core_cm3.h"
 2339              		.section	.debug_info
 2340 0000 C9040000 		.4byte	0x4c9
 2341 0004 0200     		.2byte	0x2
 2342 0006 00000000 		.4byte	.Ldebug_abbrev0
 2343 000a 04       		.byte	0x4
 2344 000b 01       		.uleb128 0x1
 2345 000c C2010000 		.4byte	.LASF46
 2346 0010 01       		.byte	0x1
 2347 0011 AD000000 		.4byte	.LASF47
 2348 0015 B6000000 		.4byte	.LASF48
 2349 0019 00000000 		.4byte	0x0
 2350 001d 00000000 		.4byte	0x0
 2351 0021 00000000 		.4byte	.Ldebug_ranges0+0x0
 2352 0025 00000000 		.4byte	.Ldebug_line0
 2353 0029 02       		.uleb128 0x2
 2354 002a 01       		.byte	0x1
 2355 002b 06       		.byte	0x6
 2356 002c 09010000 		.4byte	.LASF0
 2357 0030 02       		.uleb128 0x2
 2358 0031 01       		.byte	0x1
 2359 0032 08       		.byte	0x8
 2360 0033 1F010000 		.4byte	.LASF1
 2361 0037 02       		.uleb128 0x2
 2362 0038 02       		.byte	0x2
 2363 0039 05       		.byte	0x5
 2364 003a 34010000 		.4byte	.LASF2
 2365 003e 02       		.uleb128 0x2
 2366 003f 02       		.byte	0x2
 2367 0040 07       		.byte	0x7
 2368 0041 F0000000 		.4byte	.LASF3
 2369 0045 02       		.uleb128 0x2
 2370 0046 04       		.byte	0x4
 2371 0047 05       		.byte	0x5
 2372 0048 07020000 		.4byte	.LASF4
 2373 004c 02       		.uleb128 0x2
 2374 004d 04       		.byte	0x4
 2375 004e 07       		.byte	0x7
 2376 004f DE000000 		.4byte	.LASF5
 2377 0053 02       		.uleb128 0x2
 2378 0054 08       		.byte	0x8
 2379 0055 05       		.byte	0x5
 2380 0056 00000000 		.4byte	.LASF6
 2381 005a 02       		.uleb128 0x2
 2382 005b 08       		.byte	0x8
ARM GAS  C:\DOCUME~1\david\LOCALS~1\Temp\cci2ny8l.s 			page 51


 2383 005c 07       		.byte	0x7
 2384 005d 7C010000 		.4byte	.LASF7
 2385 0061 03       		.uleb128 0x3
 2386 0062 04       		.byte	0x4
 2387 0063 05       		.byte	0x5
 2388 0064 696E7400 		.ascii	"int\000"
 2389 0068 02       		.uleb128 0x2
 2390 0069 04       		.byte	0x4
 2391 006a 07       		.byte	0x7
 2392 006b 68010000 		.4byte	.LASF8
 2393 006f 04       		.uleb128 0x4
 2394 0070 01020000 		.4byte	.LASF9
 2395 0074 02       		.byte	0x2
 2396 0075 4C       		.byte	0x4c
 2397 0076 30000000 		.4byte	0x30
 2398 007a 04       		.uleb128 0x4
 2399 007b 45010000 		.4byte	.LASF10
 2400 007f 02       		.byte	0x2
 2401 0080 4D       		.byte	0x4d
 2402 0081 3E000000 		.4byte	0x3e
 2403 0085 02       		.uleb128 0x2
 2404 0086 04       		.byte	0x4
 2405 0087 04       		.byte	0x4
 2406 0088 79000000 		.4byte	.LASF11
 2407 008c 02       		.uleb128 0x2
 2408 008d 08       		.byte	0x8
 2409 008e 04       		.byte	0x4
 2410 008f 2D010000 		.4byte	.LASF12
 2411 0093 02       		.uleb128 0x2
 2412 0094 01       		.byte	0x1
 2413 0095 08       		.byte	0x8
 2414 0096 CE010000 		.4byte	.LASF13
 2415 009a 05       		.uleb128 0x5
 2416 009b 04       		.byte	0x4
 2417 009c 07       		.byte	0x7
 2418 009d 06       		.uleb128 0x6
 2419 009e 3E010000 		.4byte	.LASF49
 2420 00a2 0E       		.byte	0xe
 2421 00a3 01       		.byte	0x1
 2422 00a4 14       		.byte	0x14
 2423 00a5 44010000 		.4byte	0x144
 2424 00a9 07       		.uleb128 0x7
 2425 00aa 15010000 		.4byte	.LASF14
 2426 00ae 01       		.byte	0x1
 2427 00af 15       		.byte	0x15
 2428 00b0 93000000 		.4byte	0x93
 2429 00b4 02       		.byte	0x2
 2430 00b5 23       		.byte	0x23
 2431 00b6 00       		.uleb128 0x0
 2432 00b7 07       		.uleb128 0x7
 2433 00b8 10020000 		.4byte	.LASF15
 2434 00bc 01       		.byte	0x1
 2435 00bd 16       		.byte	0x16
 2436 00be 7A000000 		.4byte	0x7a
 2437 00c2 02       		.byte	0x2
 2438 00c3 23       		.byte	0x23
 2439 00c4 02       		.uleb128 0x2
ARM GAS  C:\DOCUME~1\david\LOCALS~1\Temp\cci2ny8l.s 			page 52


 2440 00c5 07       		.uleb128 0x7
 2441 00c6 75010000 		.4byte	.LASF16
 2442 00ca 01       		.byte	0x1
 2443 00cb 17       		.byte	0x17
 2444 00cc 6F000000 		.4byte	0x6f
 2445 00d0 02       		.byte	0x2
 2446 00d1 23       		.byte	0x23
 2447 00d2 04       		.uleb128 0x4
 2448 00d3 07       		.uleb128 0x7
 2449 00d4 D3010000 		.4byte	.LASF17
 2450 00d8 01       		.byte	0x1
 2451 00d9 18       		.byte	0x18
 2452 00da 6F000000 		.4byte	0x6f
 2453 00de 02       		.byte	0x2
 2454 00df 23       		.byte	0x23
 2455 00e0 05       		.uleb128 0x5
 2456 00e1 07       		.uleb128 0x7
 2457 00e2 5E000000 		.4byte	.LASF18
 2458 00e6 01       		.byte	0x1
 2459 00e7 19       		.byte	0x19
 2460 00e8 7A000000 		.4byte	0x7a
 2461 00ec 02       		.byte	0x2
 2462 00ed 23       		.byte	0x23
 2463 00ee 06       		.uleb128 0x6
 2464 00ef 07       		.uleb128 0x7
 2465 00f0 8B000000 		.4byte	.LASF19
 2466 00f4 01       		.byte	0x1
 2467 00f5 1A       		.byte	0x1a
 2468 00f6 6F000000 		.4byte	0x6f
 2469 00fa 02       		.byte	0x2
 2470 00fb 23       		.byte	0x23
 2471 00fc 08       		.uleb128 0x8
 2472 00fd 07       		.uleb128 0x7
 2473 00fe 4C010000 		.4byte	.LASF20
 2474 0102 01       		.byte	0x1
 2475 0103 1B       		.byte	0x1b
 2476 0104 6F000000 		.4byte	0x6f
 2477 0108 02       		.byte	0x2
 2478 0109 23       		.byte	0x23
 2479 010a 09       		.uleb128 0x9
 2480 010b 07       		.uleb128 0x7
 2481 010c 93010000 		.4byte	.LASF21
 2482 0110 01       		.byte	0x1
 2483 0111 1C       		.byte	0x1c
 2484 0112 6F000000 		.4byte	0x6f
 2485 0116 02       		.byte	0x2
 2486 0117 23       		.byte	0x23
 2487 0118 0A       		.uleb128 0xa
 2488 0119 08       		.uleb128 0x8
 2489 011a 726F7700 		.ascii	"row\000"
 2490 011e 01       		.byte	0x1
 2491 011f 1D       		.byte	0x1d
 2492 0120 6F000000 		.4byte	0x6f
 2493 0124 02       		.byte	0x2
 2494 0125 23       		.byte	0x23
 2495 0126 0B       		.uleb128 0xb
 2496 0127 08       		.uleb128 0x8
ARM GAS  C:\DOCUME~1\david\LOCALS~1\Temp\cci2ny8l.s 			page 53


 2497 0128 636F6C00 		.ascii	"col\000"
 2498 012c 01       		.byte	0x1
 2499 012d 1E       		.byte	0x1e
 2500 012e 6F000000 		.4byte	0x6f
 2501 0132 02       		.byte	0x2
 2502 0133 23       		.byte	0x23
 2503 0134 0C       		.uleb128 0xc
 2504 0135 07       		.uleb128 0x7
 2505 0136 DC010000 		.4byte	.LASF22
 2506 013a 01       		.byte	0x1
 2507 013b 1F       		.byte	0x1f
 2508 013c 6F000000 		.4byte	0x6f
 2509 0140 02       		.byte	0x2
 2510 0141 23       		.byte	0x23
 2511 0142 0D       		.uleb128 0xd
 2512 0143 00       		.byte	0x0
 2513 0144 04       		.uleb128 0x4
 2514 0145 26020000 		.4byte	.LASF23
 2515 0149 01       		.byte	0x1
 2516 014a 20       		.byte	0x20
 2517 014b 9D000000 		.4byte	0x9d
 2518 014f 09       		.uleb128 0x9
 2519 0150 01       		.byte	0x1
 2520 0151 9F010000 		.4byte	.LASF50
 2521 0155 01       		.byte	0x1
 2522 0156 25       		.byte	0x25
 2523 0157 00000000 		.4byte	.LFB29
 2524 015b C6000000 		.4byte	.LFE29
 2525 015f 00000000 		.4byte	.LLST0
 2526 0163 0A       		.uleb128 0xa
 2527 0164 01       		.byte	0x1
 2528 0165 AE010000 		.4byte	.LASF25
 2529 0169 01       		.byte	0x1
 2530 016a 3C       		.byte	0x3c
 2531 016b 00000000 		.4byte	.LFB30
 2532 016f 70000000 		.4byte	.LFE30
 2533 0173 2B000000 		.4byte	.LLST1
 2534 0177 94010000 		.4byte	0x194
 2535 017b 0B       		.uleb128 0xb
 2536 017c 7200     		.ascii	"r\000"
 2537 017e 01       		.byte	0x1
 2538 017f 3D       		.byte	0x3d
 2539 0180 6F000000 		.4byte	0x6f
 2540 0184 02       		.byte	0x2
 2541 0185 91       		.byte	0x91
 2542 0186 76       		.sleb128 -10
 2543 0187 0B       		.uleb128 0xb
 2544 0188 6300     		.ascii	"c\000"
 2545 018a 01       		.byte	0x1
 2546 018b 3D       		.byte	0x3d
 2547 018c 6F000000 		.4byte	0x6f
 2548 0190 02       		.byte	0x2
 2549 0191 91       		.byte	0x91
 2550 0192 77       		.sleb128 -9
 2551 0193 00       		.byte	0x0
 2552 0194 0C       		.uleb128 0xc
 2553 0195 01       		.byte	0x1
ARM GAS  C:\DOCUME~1\david\LOCALS~1\Temp\cci2ny8l.s 			page 54


 2554 0196 72000000 		.4byte	.LASF51
 2555 019a 01       		.byte	0x1
 2556 019b 4A       		.byte	0x4a
 2557 019c 01       		.byte	0x1
 2558 019d 00000000 		.4byte	.LFB31
 2559 01a1 34000000 		.4byte	.LFE31
 2560 01a5 62000000 		.4byte	.LLST2
 2561 01a9 0D       		.uleb128 0xd
 2562 01aa 01       		.byte	0x1
 2563 01ab BA010000 		.4byte	.LASF30
 2564 01af 01       		.byte	0x1
 2565 01b0 50       		.byte	0x50
 2566 01b1 01       		.byte	0x1
 2567 01b2 00000000 		.4byte	.LFB32
 2568 01b6 5C010000 		.4byte	.LFE32
 2569 01ba 8D000000 		.4byte	.LLST3
 2570 01be D1010000 		.4byte	0x1d1
 2571 01c2 0E       		.uleb128 0xe
 2572 01c3 38000000 		.4byte	.LASF24
 2573 01c7 01       		.byte	0x1
 2574 01c8 51       		.byte	0x51
 2575 01c9 61000000 		.4byte	0x61
 2576 01cd 02       		.byte	0x2
 2577 01ce 91       		.byte	0x91
 2578 01cf 74       		.sleb128 -12
 2579 01d0 00       		.byte	0x0
 2580 01d1 0A       		.uleb128 0xa
 2581 01d2 01       		.byte	0x1
 2582 01d3 4C000000 		.4byte	.LASF26
 2583 01d7 01       		.byte	0x1
 2584 01d8 67       		.byte	0x67
 2585 01d9 00000000 		.4byte	.LFB33
 2586 01dd 0E050000 		.4byte	.LFE33
 2587 01e1 C4000000 		.4byte	.LLST4
 2588 01e5 E6020000 		.4byte	0x2e6
 2589 01e9 0B       		.uleb128 0xb
 2590 01ea 7200     		.ascii	"r\000"
 2591 01ec 01       		.byte	0x1
 2592 01ed 68       		.byte	0x68
 2593 01ee 61000000 		.4byte	0x61
 2594 01f2 02       		.byte	0x2
 2595 01f3 91       		.byte	0x91
 2596 01f4 64       		.sleb128 -28
 2597 01f5 0B       		.uleb128 0xb
 2598 01f6 6300     		.ascii	"c\000"
 2599 01f8 01       		.byte	0x1
 2600 01f9 68       		.byte	0x68
 2601 01fa 61000000 		.4byte	0x61
 2602 01fe 02       		.byte	0x2
 2603 01ff 91       		.byte	0x91
 2604 0200 68       		.sleb128 -24
 2605 0201 0F       		.uleb128 0xf
 2606 0202 16000000 		.4byte	.LBB2
 2607 0206 E6040000 		.4byte	.LBE2
 2608 020a 0E       		.uleb128 0xe
 2609 020b ED010000 		.4byte	.LASF27
 2610 020f 01       		.byte	0x1
ARM GAS  C:\DOCUME~1\david\LOCALS~1\Temp\cci2ny8l.s 			page 55


 2611 0210 6B       		.byte	0x6b
 2612 0211 61000000 		.4byte	0x61
 2613 0215 02       		.byte	0x2
 2614 0216 91       		.byte	0x91
 2615 0217 6C       		.sleb128 -20
 2616 0218 10       		.uleb128 0x10
 2617 0219 1E000000 		.4byte	.LBB3
 2618 021d 40010000 		.4byte	.LBE3
 2619 0221 4C020000 		.4byte	0x24c
 2620 0225 0B       		.uleb128 0xb
 2621 0226 77696E00 		.ascii	"win\000"
 2622 022a 01       		.byte	0x1
 2623 022b 6F       		.byte	0x6f
 2624 022c E6020000 		.4byte	0x2e6
 2625 0230 02       		.byte	0x2
 2626 0231 91       		.byte	0x91
 2627 0232 70       		.sleb128 -16
 2628 0233 0F       		.uleb128 0xf
 2629 0234 B2000000 		.4byte	.LBB4
 2630 0238 40010000 		.4byte	.LBE4
 2631 023c 0E       		.uleb128 0xe
 2632 023d 03010000 		.4byte	.LASF28
 2633 0241 01       		.byte	0x1
 2634 0242 76       		.byte	0x76
 2635 0243 E6020000 		.4byte	0x2e6
 2636 0247 02       		.byte	0x2
 2637 0248 91       		.byte	0x91
 2638 0249 71       		.sleb128 -15
 2639 024a 00       		.byte	0x0
 2640 024b 00       		.byte	0x0
 2641 024c 10       		.uleb128 0x10
 2642 024d 48010000 		.4byte	.LBB5
 2643 0251 62020000 		.4byte	.LBE5
 2644 0255 80020000 		.4byte	0x280
 2645 0259 0B       		.uleb128 0xb
 2646 025a 77696E00 		.ascii	"win\000"
 2647 025e 01       		.byte	0x1
 2648 025f 84       		.byte	0x84
 2649 0260 E6020000 		.4byte	0x2e6
 2650 0264 02       		.byte	0x2
 2651 0265 91       		.byte	0x91
 2652 0266 72       		.sleb128 -14
 2653 0267 0F       		.uleb128 0xf
 2654 0268 D8010000 		.4byte	.LBB6
 2655 026c 62020000 		.4byte	.LBE6
 2656 0270 0E       		.uleb128 0xe
 2657 0271 03010000 		.4byte	.LASF28
 2658 0275 01       		.byte	0x1
 2659 0276 8B       		.byte	0x8b
 2660 0277 E6020000 		.4byte	0x2e6
 2661 027b 02       		.byte	0x2
 2662 027c 91       		.byte	0x91
 2663 027d 73       		.sleb128 -13
 2664 027e 00       		.byte	0x0
 2665 027f 00       		.byte	0x0
 2666 0280 10       		.uleb128 0x10
 2667 0281 72020000 		.4byte	.LBB7
ARM GAS  C:\DOCUME~1\david\LOCALS~1\Temp\cci2ny8l.s 			page 56


 2668 0285 A4030000 		.4byte	.LBE7
 2669 0289 B4020000 		.4byte	0x2b4
 2670 028d 0B       		.uleb128 0xb
 2671 028e 77696E00 		.ascii	"win\000"
 2672 0292 01       		.byte	0x1
 2673 0293 99       		.byte	0x99
 2674 0294 E6020000 		.4byte	0x2e6
 2675 0298 02       		.byte	0x2
 2676 0299 91       		.byte	0x91
 2677 029a 74       		.sleb128 -12
 2678 029b 0F       		.uleb128 0xf
 2679 029c 0E030000 		.4byte	.LBB8
 2680 02a0 A4030000 		.4byte	.LBE8
 2681 02a4 0E       		.uleb128 0xe
 2682 02a5 03010000 		.4byte	.LASF28
 2683 02a9 01       		.byte	0x1
 2684 02aa A0       		.byte	0xa0
 2685 02ab E6020000 		.4byte	0x2e6
 2686 02af 02       		.byte	0x2
 2687 02b0 91       		.byte	0x91
 2688 02b1 75       		.sleb128 -11
 2689 02b2 00       		.byte	0x0
 2690 02b3 00       		.byte	0x0
 2691 02b4 0F       		.uleb128 0xf
 2692 02b5 B4030000 		.4byte	.LBB9
 2693 02b9 E6040000 		.4byte	.LBE9
 2694 02bd 0B       		.uleb128 0xb
 2695 02be 77696E00 		.ascii	"win\000"
 2696 02c2 01       		.byte	0x1
 2697 02c3 AE       		.byte	0xae
 2698 02c4 E6020000 		.4byte	0x2e6
 2699 02c8 02       		.byte	0x2
 2700 02c9 91       		.byte	0x91
 2701 02ca 76       		.sleb128 -10
 2702 02cb 0F       		.uleb128 0xf
 2703 02cc 50040000 		.4byte	.LBB10
 2704 02d0 E6040000 		.4byte	.LBE10
 2705 02d4 0E       		.uleb128 0xe
 2706 02d5 03010000 		.4byte	.LASF28
 2707 02d9 01       		.byte	0x1
 2708 02da B5       		.byte	0xb5
 2709 02db E6020000 		.4byte	0x2e6
 2710 02df 02       		.byte	0x2
 2711 02e0 91       		.byte	0x91
 2712 02e1 77       		.sleb128 -9
 2713 02e2 00       		.byte	0x0
 2714 02e3 00       		.byte	0x0
 2715 02e4 00       		.byte	0x0
 2716 02e5 00       		.byte	0x0
 2717 02e6 02       		.uleb128 0x2
 2718 02e7 01       		.byte	0x1
 2719 02e8 02       		.byte	0x2
 2720 02e9 20020000 		.4byte	.LASF29
 2721 02ed 0D       		.uleb128 0xd
 2722 02ee 01       		.byte	0x1
 2723 02ef 7F000000 		.4byte	.LASF31
 2724 02f3 01       		.byte	0x1
ARM GAS  C:\DOCUME~1\david\LOCALS~1\Temp\cci2ny8l.s 			page 57


 2725 02f4 C7       		.byte	0xc7
 2726 02f5 01       		.byte	0x1
 2727 02f6 00000000 		.4byte	.LFB34
 2728 02fa A6000000 		.4byte	.LFE34
 2729 02fe FB000000 		.4byte	.LLST5
 2730 0302 15030000 		.4byte	0x315
 2731 0306 11       		.uleb128 0x11
 2732 0307 33000000 		.4byte	.LASF33
 2733 030b 01       		.byte	0x1
 2734 030c C7       		.byte	0xc7
 2735 030d 15030000 		.4byte	0x315
 2736 0311 02       		.byte	0x2
 2737 0312 91       		.byte	0x91
 2738 0313 74       		.sleb128 -12
 2739 0314 00       		.byte	0x0
 2740 0315 12       		.uleb128 0x12
 2741 0316 04       		.byte	0x4
 2742 0317 44010000 		.4byte	0x144
 2743 031b 0D       		.uleb128 0xd
 2744 031c 01       		.byte	0x1
 2745 031d 24000000 		.4byte	.LASF32
 2746 0321 01       		.byte	0x1
 2747 0322 DA       		.byte	0xda
 2748 0323 01       		.byte	0x1
 2749 0324 00000000 		.4byte	.LFB35
 2750 0328 68010000 		.4byte	.LFE35
 2751 032c 32010000 		.4byte	.LLST6
 2752 0330 43030000 		.4byte	0x343
 2753 0334 11       		.uleb128 0x11
 2754 0335 33000000 		.4byte	.LASF33
 2755 0339 01       		.byte	0x1
 2756 033a DA       		.byte	0xda
 2757 033b 15030000 		.4byte	0x315
 2758 033f 02       		.byte	0x2
 2759 0340 91       		.byte	0x91
 2760 0341 74       		.sleb128 -12
 2761 0342 00       		.byte	0x0
 2762 0343 13       		.uleb128 0x13
 2763 0344 01       		.byte	0x1
 2764 0345 63010000 		.4byte	.LASF34
 2765 0349 01       		.byte	0x1
 2766 034a 1701     		.2byte	0x117
 2767 034c 00000000 		.4byte	.LFB36
 2768 0350 E2050000 		.4byte	.LFE36
 2769 0354 69010000 		.4byte	.LLST7
 2770 0358 01040000 		.4byte	0x401
 2771 035c 14       		.uleb128 0x14
 2772 035d 7400     		.ascii	"t\000"
 2773 035f 01       		.byte	0x1
 2774 0360 2D01     		.2byte	0x12d
 2775 0362 6F000000 		.4byte	0x6f
 2776 0366 02       		.byte	0x2
 2777 0367 91       		.byte	0x91
 2778 0368 6E       		.sleb128 -18
 2779 0369 10       		.uleb128 0x10
 2780 036a B0010000 		.4byte	.LBB11
 2781 036e B2050000 		.4byte	.LBE11
ARM GAS  C:\DOCUME~1\david\LOCALS~1\Temp\cci2ny8l.s 			page 58


 2782 0372 E7030000 		.4byte	0x3e7
 2783 0376 15       		.uleb128 0x15
 2784 0377 59000000 		.4byte	.LASF35
 2785 037b 01       		.byte	0x1
 2786 037c 4601     		.2byte	0x146
 2787 037e 6F000000 		.4byte	0x6f
 2788 0382 02       		.byte	0x2
 2789 0383 91       		.byte	0x91
 2790 0384 6F       		.sleb128 -17
 2791 0385 15       		.uleb128 0x15
 2792 0386 E5010000 		.4byte	.LASF36
 2793 038a 01       		.byte	0x1
 2794 038b 4E01     		.2byte	0x14e
 2795 038d E6020000 		.4byte	0x2e6
 2796 0391 02       		.byte	0x2
 2797 0392 91       		.byte	0x91
 2798 0393 70       		.sleb128 -16
 2799 0394 14       		.uleb128 0x14
 2800 0395 7200     		.ascii	"r\000"
 2801 0397 01       		.byte	0x1
 2802 0398 6C01     		.2byte	0x16c
 2803 039a 6F000000 		.4byte	0x6f
 2804 039e 02       		.byte	0x2
 2805 039f 91       		.byte	0x91
 2806 03a0 71       		.sleb128 -15
 2807 03a1 10       		.uleb128 0x10
 2808 03a2 D0020000 		.4byte	.LBB12
 2809 03a6 B6030000 		.4byte	.LBE12
 2810 03aa CD030000 		.4byte	0x3cd
 2811 03ae 15       		.uleb128 0x15
 2812 03af 6A000000 		.4byte	.LASF37
 2813 03b3 01       		.byte	0x1
 2814 03b4 5B01     		.2byte	0x15b
 2815 03b6 7A000000 		.4byte	0x7a
 2816 03ba 02       		.byte	0x2
 2817 03bb 91       		.byte	0x91
 2818 03bc 72       		.sleb128 -14
 2819 03bd 14       		.uleb128 0x14
 2820 03be 64697200 		.ascii	"dir\000"
 2821 03c2 01       		.byte	0x1
 2822 03c3 5F01     		.2byte	0x15f
 2823 03c5 61000000 		.4byte	0x61
 2824 03c9 02       		.byte	0x2
 2825 03ca 91       		.byte	0x91
 2826 03cb 74       		.sleb128 -12
 2827 03cc 00       		.byte	0x0
 2828 03cd 0F       		.uleb128 0xf
 2829 03ce FE040000 		.4byte	.LBB13
 2830 03d2 92050000 		.4byte	.LBE13
 2831 03d6 15       		.uleb128 0x15
 2832 03d7 33000000 		.4byte	.LASF33
 2833 03db 01       		.byte	0x1
 2834 03dc 7601     		.2byte	0x176
 2835 03de 44010000 		.4byte	0x144
 2836 03e2 02       		.byte	0x2
 2837 03e3 91       		.byte	0x91
 2838 03e4 60       		.sleb128 -32
ARM GAS  C:\DOCUME~1\david\LOCALS~1\Temp\cci2ny8l.s 			page 59


 2839 03e5 00       		.byte	0x0
 2840 03e6 00       		.byte	0x0
 2841 03e7 0F       		.uleb128 0xf
 2842 03e8 B4050000 		.4byte	.LBB14
 2843 03ec E2050000 		.4byte	.LBE14
 2844 03f0 15       		.uleb128 0x15
 2845 03f1 33000000 		.4byte	.LASF33
 2846 03f5 01       		.byte	0x1
 2847 03f6 9701     		.2byte	0x197
 2848 03f8 44010000 		.4byte	0x144
 2849 03fc 02       		.byte	0x2
 2850 03fd 91       		.byte	0x91
 2851 03fe 50       		.sleb128 -48
 2852 03ff 00       		.byte	0x0
 2853 0400 00       		.byte	0x0
 2854 0401 16       		.uleb128 0x16
 2855 0402 56010000 		.4byte	.LASF38
 2856 0406 03       		.byte	0x3
 2857 0407 CE06     		.2byte	0x6ce
 2858 0409 0F040000 		.4byte	0x40f
 2859 040d 01       		.byte	0x1
 2860 040e 01       		.byte	0x1
 2861 040f 17       		.uleb128 0x17
 2862 0410 61000000 		.4byte	0x61
 2863 0414 18       		.uleb128 0x18
 2864 0415 E6020000 		.4byte	0x2e6
 2865 0419 2A040000 		.4byte	0x42a
 2866 041d 19       		.uleb128 0x19
 2867 041e 9A000000 		.4byte	0x9a
 2868 0422 07       		.byte	0x7
 2869 0423 19       		.uleb128 0x19
 2870 0424 9A000000 		.4byte	0x9a
 2871 0428 07       		.byte	0x7
 2872 0429 00       		.byte	0x0
 2873 042a 1A       		.uleb128 0x1a
 2874 042b 0E000000 		.4byte	.LASF39
 2875 042f 01       		.byte	0x1
 2876 0430 0D       		.byte	0xd
 2877 0431 14040000 		.4byte	0x414
 2878 0435 01       		.byte	0x1
 2879 0436 05       		.byte	0x5
 2880 0437 03       		.byte	0x3
 2881 0438 00000000 		.4byte	player1
 2882 043c 1A       		.uleb128 0x1a
 2883 043d A5000000 		.4byte	.LASF40
 2884 0441 01       		.byte	0x1
 2885 0442 0E       		.byte	0xe
 2886 0443 14040000 		.4byte	0x414
 2887 0447 01       		.byte	0x1
 2888 0448 05       		.byte	0x5
 2889 0449 03       		.byte	0x3
 2890 044a 00000000 		.4byte	player2
 2891 044e 1A       		.uleb128 0x1a
 2892 044f 97000000 		.4byte	.LASF41
 2893 0453 01       		.byte	0x1
 2894 0454 0F       		.byte	0xf
 2895 0455 6F000000 		.4byte	0x6f
ARM GAS  C:\DOCUME~1\david\LOCALS~1\Temp\cci2ny8l.s 			page 60


 2896 0459 01       		.byte	0x1
 2897 045a 05       		.byte	0x5
 2898 045b 03       		.byte	0x3
 2899 045c 00000000 		.4byte	player1_color
 2900 0460 1A       		.uleb128 0x1a
 2901 0461 3E000000 		.4byte	.LASF42
 2902 0465 01       		.byte	0x1
 2903 0466 10       		.byte	0x10
 2904 0467 6F000000 		.4byte	0x6f
 2905 046b 01       		.byte	0x1
 2906 046c 05       		.byte	0x5
 2907 046d 03       		.byte	0x3
 2908 046e 00000000 		.4byte	player2_color
 2909 0472 1A       		.uleb128 0x1a
 2910 0473 F4010000 		.4byte	.LASF43
 2911 0477 01       		.byte	0x1
 2912 0478 11       		.byte	0x11
 2913 0479 E6020000 		.4byte	0x2e6
 2914 047d 01       		.byte	0x1
 2915 047e 05       		.byte	0x5
 2916 047f 03       		.byte	0x3
 2917 0480 00000000 		.4byte	player1_turn
 2918 0484 1A       		.uleb128 0x1a
 2919 0485 16000000 		.4byte	.LASF44
 2920 0489 01       		.byte	0x1
 2921 048a 12       		.byte	0x12
 2922 048b E6020000 		.4byte	0x2e6
 2923 048f 01       		.byte	0x1
 2924 0490 05       		.byte	0x5
 2925 0491 03       		.byte	0x3
 2926 0492 00000000 		.4byte	player2_local
 2927 0496 1A       		.uleb128 0x1a
 2928 0497 17020000 		.4byte	.LASF45
 2929 049b 01       		.byte	0x1
 2930 049c 49       		.byte	0x49
 2931 049d E6020000 		.4byte	0x2e6
 2932 04a1 01       		.byte	0x1
 2933 04a2 05       		.byte	0x5
 2934 04a3 03       		.byte	0x3
 2935 04a4 00000000 		.4byte	locating
 2936 04a8 1B       		.uleb128 0x1b
 2937 04a9 726F7700 		.ascii	"row\000"
 2938 04ad 01       		.byte	0x1
 2939 04ae 4F       		.byte	0x4f
 2940 04af 6F000000 		.4byte	0x6f
 2941 04b3 01       		.byte	0x1
 2942 04b4 05       		.byte	0x5
 2943 04b5 03       		.byte	0x3
 2944 04b6 00000000 		.4byte	row
 2945 04ba 1B       		.uleb128 0x1b
 2946 04bb 636F6C00 		.ascii	"col\000"
 2947 04bf 01       		.byte	0x1
 2948 04c0 4F       		.byte	0x4f
 2949 04c1 6F000000 		.4byte	0x6f
 2950 04c5 01       		.byte	0x1
 2951 04c6 05       		.byte	0x5
 2952 04c7 03       		.byte	0x3
ARM GAS  C:\DOCUME~1\david\LOCALS~1\Temp\cci2ny8l.s 			page 61


 2953 04c8 00000000 		.4byte	col
 2954 04cc 00       		.byte	0x0
 2955              		.section	.debug_abbrev
 2956 0000 01       		.uleb128 0x1
 2957 0001 11       		.uleb128 0x11
 2958 0002 01       		.byte	0x1
 2959 0003 25       		.uleb128 0x25
 2960 0004 0E       		.uleb128 0xe
 2961 0005 13       		.uleb128 0x13
 2962 0006 0B       		.uleb128 0xb
 2963 0007 03       		.uleb128 0x3
 2964 0008 0E       		.uleb128 0xe
 2965 0009 1B       		.uleb128 0x1b
 2966 000a 0E       		.uleb128 0xe
 2967 000b 11       		.uleb128 0x11
 2968 000c 01       		.uleb128 0x1
 2969 000d 52       		.uleb128 0x52
 2970 000e 01       		.uleb128 0x1
 2971 000f 55       		.uleb128 0x55
 2972 0010 06       		.uleb128 0x6
 2973 0011 10       		.uleb128 0x10
 2974 0012 06       		.uleb128 0x6
 2975 0013 00       		.byte	0x0
 2976 0014 00       		.byte	0x0
 2977 0015 02       		.uleb128 0x2
 2978 0016 24       		.uleb128 0x24
 2979 0017 00       		.byte	0x0
 2980 0018 0B       		.uleb128 0xb
 2981 0019 0B       		.uleb128 0xb
 2982 001a 3E       		.uleb128 0x3e
 2983 001b 0B       		.uleb128 0xb
 2984 001c 03       		.uleb128 0x3
 2985 001d 0E       		.uleb128 0xe
 2986 001e 00       		.byte	0x0
 2987 001f 00       		.byte	0x0
 2988 0020 03       		.uleb128 0x3
 2989 0021 24       		.uleb128 0x24
 2990 0022 00       		.byte	0x0
 2991 0023 0B       		.uleb128 0xb
 2992 0024 0B       		.uleb128 0xb
 2993 0025 3E       		.uleb128 0x3e
 2994 0026 0B       		.uleb128 0xb
 2995 0027 03       		.uleb128 0x3
 2996 0028 08       		.uleb128 0x8
 2997 0029 00       		.byte	0x0
 2998 002a 00       		.byte	0x0
 2999 002b 04       		.uleb128 0x4
 3000 002c 16       		.uleb128 0x16
 3001 002d 00       		.byte	0x0
 3002 002e 03       		.uleb128 0x3
 3003 002f 0E       		.uleb128 0xe
 3004 0030 3A       		.uleb128 0x3a
 3005 0031 0B       		.uleb128 0xb
 3006 0032 3B       		.uleb128 0x3b
 3007 0033 0B       		.uleb128 0xb
 3008 0034 49       		.uleb128 0x49
 3009 0035 13       		.uleb128 0x13
ARM GAS  C:\DOCUME~1\david\LOCALS~1\Temp\cci2ny8l.s 			page 62


 3010 0036 00       		.byte	0x0
 3011 0037 00       		.byte	0x0
 3012 0038 05       		.uleb128 0x5
 3013 0039 24       		.uleb128 0x24
 3014 003a 00       		.byte	0x0
 3015 003b 0B       		.uleb128 0xb
 3016 003c 0B       		.uleb128 0xb
 3017 003d 3E       		.uleb128 0x3e
 3018 003e 0B       		.uleb128 0xb
 3019 003f 00       		.byte	0x0
 3020 0040 00       		.byte	0x0
 3021 0041 06       		.uleb128 0x6
 3022 0042 13       		.uleb128 0x13
 3023 0043 01       		.byte	0x1
 3024 0044 03       		.uleb128 0x3
 3025 0045 0E       		.uleb128 0xe
 3026 0046 0B       		.uleb128 0xb
 3027 0047 0B       		.uleb128 0xb
 3028 0048 3A       		.uleb128 0x3a
 3029 0049 0B       		.uleb128 0xb
 3030 004a 3B       		.uleb128 0x3b
 3031 004b 0B       		.uleb128 0xb
 3032 004c 01       		.uleb128 0x1
 3033 004d 13       		.uleb128 0x13
 3034 004e 00       		.byte	0x0
 3035 004f 00       		.byte	0x0
 3036 0050 07       		.uleb128 0x7
 3037 0051 0D       		.uleb128 0xd
 3038 0052 00       		.byte	0x0
 3039 0053 03       		.uleb128 0x3
 3040 0054 0E       		.uleb128 0xe
 3041 0055 3A       		.uleb128 0x3a
 3042 0056 0B       		.uleb128 0xb
 3043 0057 3B       		.uleb128 0x3b
 3044 0058 0B       		.uleb128 0xb
 3045 0059 49       		.uleb128 0x49
 3046 005a 13       		.uleb128 0x13
 3047 005b 38       		.uleb128 0x38
 3048 005c 0A       		.uleb128 0xa
 3049 005d 00       		.byte	0x0
 3050 005e 00       		.byte	0x0
 3051 005f 08       		.uleb128 0x8
 3052 0060 0D       		.uleb128 0xd
 3053 0061 00       		.byte	0x0
 3054 0062 03       		.uleb128 0x3
 3055 0063 08       		.uleb128 0x8
 3056 0064 3A       		.uleb128 0x3a
 3057 0065 0B       		.uleb128 0xb
 3058 0066 3B       		.uleb128 0x3b
 3059 0067 0B       		.uleb128 0xb
 3060 0068 49       		.uleb128 0x49
 3061 0069 13       		.uleb128 0x13
 3062 006a 38       		.uleb128 0x38
 3063 006b 0A       		.uleb128 0xa
 3064 006c 00       		.byte	0x0
 3065 006d 00       		.byte	0x0
 3066 006e 09       		.uleb128 0x9
ARM GAS  C:\DOCUME~1\david\LOCALS~1\Temp\cci2ny8l.s 			page 63


 3067 006f 2E       		.uleb128 0x2e
 3068 0070 00       		.byte	0x0
 3069 0071 3F       		.uleb128 0x3f
 3070 0072 0C       		.uleb128 0xc
 3071 0073 03       		.uleb128 0x3
 3072 0074 0E       		.uleb128 0xe
 3073 0075 3A       		.uleb128 0x3a
 3074 0076 0B       		.uleb128 0xb
 3075 0077 3B       		.uleb128 0x3b
 3076 0078 0B       		.uleb128 0xb
 3077 0079 11       		.uleb128 0x11
 3078 007a 01       		.uleb128 0x1
 3079 007b 12       		.uleb128 0x12
 3080 007c 01       		.uleb128 0x1
 3081 007d 40       		.uleb128 0x40
 3082 007e 06       		.uleb128 0x6
 3083 007f 00       		.byte	0x0
 3084 0080 00       		.byte	0x0
 3085 0081 0A       		.uleb128 0xa
 3086 0082 2E       		.uleb128 0x2e
 3087 0083 01       		.byte	0x1
 3088 0084 3F       		.uleb128 0x3f
 3089 0085 0C       		.uleb128 0xc
 3090 0086 03       		.uleb128 0x3
 3091 0087 0E       		.uleb128 0xe
 3092 0088 3A       		.uleb128 0x3a
 3093 0089 0B       		.uleb128 0xb
 3094 008a 3B       		.uleb128 0x3b
 3095 008b 0B       		.uleb128 0xb
 3096 008c 11       		.uleb128 0x11
 3097 008d 01       		.uleb128 0x1
 3098 008e 12       		.uleb128 0x12
 3099 008f 01       		.uleb128 0x1
 3100 0090 40       		.uleb128 0x40
 3101 0091 06       		.uleb128 0x6
 3102 0092 01       		.uleb128 0x1
 3103 0093 13       		.uleb128 0x13
 3104 0094 00       		.byte	0x0
 3105 0095 00       		.byte	0x0
 3106 0096 0B       		.uleb128 0xb
 3107 0097 34       		.uleb128 0x34
 3108 0098 00       		.byte	0x0
 3109 0099 03       		.uleb128 0x3
 3110 009a 08       		.uleb128 0x8
 3111 009b 3A       		.uleb128 0x3a
 3112 009c 0B       		.uleb128 0xb
 3113 009d 3B       		.uleb128 0x3b
 3114 009e 0B       		.uleb128 0xb
 3115 009f 49       		.uleb128 0x49
 3116 00a0 13       		.uleb128 0x13
 3117 00a1 02       		.uleb128 0x2
 3118 00a2 0A       		.uleb128 0xa
 3119 00a3 00       		.byte	0x0
 3120 00a4 00       		.byte	0x0
 3121 00a5 0C       		.uleb128 0xc
 3122 00a6 2E       		.uleb128 0x2e
 3123 00a7 00       		.byte	0x0
ARM GAS  C:\DOCUME~1\david\LOCALS~1\Temp\cci2ny8l.s 			page 64


 3124 00a8 3F       		.uleb128 0x3f
 3125 00a9 0C       		.uleb128 0xc
 3126 00aa 03       		.uleb128 0x3
 3127 00ab 0E       		.uleb128 0xe
 3128 00ac 3A       		.uleb128 0x3a
 3129 00ad 0B       		.uleb128 0xb
 3130 00ae 3B       		.uleb128 0x3b
 3131 00af 0B       		.uleb128 0xb
 3132 00b0 27       		.uleb128 0x27
 3133 00b1 0C       		.uleb128 0xc
 3134 00b2 11       		.uleb128 0x11
 3135 00b3 01       		.uleb128 0x1
 3136 00b4 12       		.uleb128 0x12
 3137 00b5 01       		.uleb128 0x1
 3138 00b6 40       		.uleb128 0x40
 3139 00b7 06       		.uleb128 0x6
 3140 00b8 00       		.byte	0x0
 3141 00b9 00       		.byte	0x0
 3142 00ba 0D       		.uleb128 0xd
 3143 00bb 2E       		.uleb128 0x2e
 3144 00bc 01       		.byte	0x1
 3145 00bd 3F       		.uleb128 0x3f
 3146 00be 0C       		.uleb128 0xc
 3147 00bf 03       		.uleb128 0x3
 3148 00c0 0E       		.uleb128 0xe
 3149 00c1 3A       		.uleb128 0x3a
 3150 00c2 0B       		.uleb128 0xb
 3151 00c3 3B       		.uleb128 0x3b
 3152 00c4 0B       		.uleb128 0xb
 3153 00c5 27       		.uleb128 0x27
 3154 00c6 0C       		.uleb128 0xc
 3155 00c7 11       		.uleb128 0x11
 3156 00c8 01       		.uleb128 0x1
 3157 00c9 12       		.uleb128 0x12
 3158 00ca 01       		.uleb128 0x1
 3159 00cb 40       		.uleb128 0x40
 3160 00cc 06       		.uleb128 0x6
 3161 00cd 01       		.uleb128 0x1
 3162 00ce 13       		.uleb128 0x13
 3163 00cf 00       		.byte	0x0
 3164 00d0 00       		.byte	0x0
 3165 00d1 0E       		.uleb128 0xe
 3166 00d2 34       		.uleb128 0x34
 3167 00d3 00       		.byte	0x0
 3168 00d4 03       		.uleb128 0x3
 3169 00d5 0E       		.uleb128 0xe
 3170 00d6 3A       		.uleb128 0x3a
 3171 00d7 0B       		.uleb128 0xb
 3172 00d8 3B       		.uleb128 0x3b
 3173 00d9 0B       		.uleb128 0xb
 3174 00da 49       		.uleb128 0x49
 3175 00db 13       		.uleb128 0x13
 3176 00dc 02       		.uleb128 0x2
 3177 00dd 0A       		.uleb128 0xa
 3178 00de 00       		.byte	0x0
 3179 00df 00       		.byte	0x0
 3180 00e0 0F       		.uleb128 0xf
ARM GAS  C:\DOCUME~1\david\LOCALS~1\Temp\cci2ny8l.s 			page 65


 3181 00e1 0B       		.uleb128 0xb
 3182 00e2 01       		.byte	0x1
 3183 00e3 11       		.uleb128 0x11
 3184 00e4 01       		.uleb128 0x1
 3185 00e5 12       		.uleb128 0x12
 3186 00e6 01       		.uleb128 0x1
 3187 00e7 00       		.byte	0x0
 3188 00e8 00       		.byte	0x0
 3189 00e9 10       		.uleb128 0x10
 3190 00ea 0B       		.uleb128 0xb
 3191 00eb 01       		.byte	0x1
 3192 00ec 11       		.uleb128 0x11
 3193 00ed 01       		.uleb128 0x1
 3194 00ee 12       		.uleb128 0x12
 3195 00ef 01       		.uleb128 0x1
 3196 00f0 01       		.uleb128 0x1
 3197 00f1 13       		.uleb128 0x13
 3198 00f2 00       		.byte	0x0
 3199 00f3 00       		.byte	0x0
 3200 00f4 11       		.uleb128 0x11
 3201 00f5 05       		.uleb128 0x5
 3202 00f6 00       		.byte	0x0
 3203 00f7 03       		.uleb128 0x3
 3204 00f8 0E       		.uleb128 0xe
 3205 00f9 3A       		.uleb128 0x3a
 3206 00fa 0B       		.uleb128 0xb
 3207 00fb 3B       		.uleb128 0x3b
 3208 00fc 0B       		.uleb128 0xb
 3209 00fd 49       		.uleb128 0x49
 3210 00fe 13       		.uleb128 0x13
 3211 00ff 02       		.uleb128 0x2
 3212 0100 0A       		.uleb128 0xa
 3213 0101 00       		.byte	0x0
 3214 0102 00       		.byte	0x0
 3215 0103 12       		.uleb128 0x12
 3216 0104 0F       		.uleb128 0xf
 3217 0105 00       		.byte	0x0
 3218 0106 0B       		.uleb128 0xb
 3219 0107 0B       		.uleb128 0xb
 3220 0108 49       		.uleb128 0x49
 3221 0109 13       		.uleb128 0x13
 3222 010a 00       		.byte	0x0
 3223 010b 00       		.byte	0x0
 3224 010c 13       		.uleb128 0x13
 3225 010d 2E       		.uleb128 0x2e
 3226 010e 01       		.byte	0x1
 3227 010f 3F       		.uleb128 0x3f
 3228 0110 0C       		.uleb128 0xc
 3229 0111 03       		.uleb128 0x3
 3230 0112 0E       		.uleb128 0xe
 3231 0113 3A       		.uleb128 0x3a
 3232 0114 0B       		.uleb128 0xb
 3233 0115 3B       		.uleb128 0x3b
 3234 0116 05       		.uleb128 0x5
 3235 0117 11       		.uleb128 0x11
 3236 0118 01       		.uleb128 0x1
 3237 0119 12       		.uleb128 0x12
ARM GAS  C:\DOCUME~1\david\LOCALS~1\Temp\cci2ny8l.s 			page 66


 3238 011a 01       		.uleb128 0x1
 3239 011b 40       		.uleb128 0x40
 3240 011c 06       		.uleb128 0x6
 3241 011d 01       		.uleb128 0x1
 3242 011e 13       		.uleb128 0x13
 3243 011f 00       		.byte	0x0
 3244 0120 00       		.byte	0x0
 3245 0121 14       		.uleb128 0x14
 3246 0122 34       		.uleb128 0x34
 3247 0123 00       		.byte	0x0
 3248 0124 03       		.uleb128 0x3
 3249 0125 08       		.uleb128 0x8
 3250 0126 3A       		.uleb128 0x3a
 3251 0127 0B       		.uleb128 0xb
 3252 0128 3B       		.uleb128 0x3b
 3253 0129 05       		.uleb128 0x5
 3254 012a 49       		.uleb128 0x49
 3255 012b 13       		.uleb128 0x13
 3256 012c 02       		.uleb128 0x2
 3257 012d 0A       		.uleb128 0xa
 3258 012e 00       		.byte	0x0
 3259 012f 00       		.byte	0x0
 3260 0130 15       		.uleb128 0x15
 3261 0131 34       		.uleb128 0x34
 3262 0132 00       		.byte	0x0
 3263 0133 03       		.uleb128 0x3
 3264 0134 0E       		.uleb128 0xe
 3265 0135 3A       		.uleb128 0x3a
 3266 0136 0B       		.uleb128 0xb
 3267 0137 3B       		.uleb128 0x3b
 3268 0138 05       		.uleb128 0x5
 3269 0139 49       		.uleb128 0x49
 3270 013a 13       		.uleb128 0x13
 3271 013b 02       		.uleb128 0x2
 3272 013c 0A       		.uleb128 0xa
 3273 013d 00       		.byte	0x0
 3274 013e 00       		.byte	0x0
 3275 013f 16       		.uleb128 0x16
 3276 0140 34       		.uleb128 0x34
 3277 0141 00       		.byte	0x0
 3278 0142 03       		.uleb128 0x3
 3279 0143 0E       		.uleb128 0xe
 3280 0144 3A       		.uleb128 0x3a
 3281 0145 0B       		.uleb128 0xb
 3282 0146 3B       		.uleb128 0x3b
 3283 0147 05       		.uleb128 0x5
 3284 0148 49       		.uleb128 0x49
 3285 0149 13       		.uleb128 0x13
 3286 014a 3F       		.uleb128 0x3f
 3287 014b 0C       		.uleb128 0xc
 3288 014c 3C       		.uleb128 0x3c
 3289 014d 0C       		.uleb128 0xc
 3290 014e 00       		.byte	0x0
 3291 014f 00       		.byte	0x0
 3292 0150 17       		.uleb128 0x17
 3293 0151 35       		.uleb128 0x35
 3294 0152 00       		.byte	0x0
ARM GAS  C:\DOCUME~1\david\LOCALS~1\Temp\cci2ny8l.s 			page 67


 3295 0153 49       		.uleb128 0x49
 3296 0154 13       		.uleb128 0x13
 3297 0155 00       		.byte	0x0
 3298 0156 00       		.byte	0x0
 3299 0157 18       		.uleb128 0x18
 3300 0158 01       		.uleb128 0x1
 3301 0159 01       		.byte	0x1
 3302 015a 49       		.uleb128 0x49
 3303 015b 13       		.uleb128 0x13
 3304 015c 01       		.uleb128 0x1
 3305 015d 13       		.uleb128 0x13
 3306 015e 00       		.byte	0x0
 3307 015f 00       		.byte	0x0
 3308 0160 19       		.uleb128 0x19
 3309 0161 21       		.uleb128 0x21
 3310 0162 00       		.byte	0x0
 3311 0163 49       		.uleb128 0x49
 3312 0164 13       		.uleb128 0x13
 3313 0165 2F       		.uleb128 0x2f
 3314 0166 0B       		.uleb128 0xb
 3315 0167 00       		.byte	0x0
 3316 0168 00       		.byte	0x0
 3317 0169 1A       		.uleb128 0x1a
 3318 016a 34       		.uleb128 0x34
 3319 016b 00       		.byte	0x0
 3320 016c 03       		.uleb128 0x3
 3321 016d 0E       		.uleb128 0xe
 3322 016e 3A       		.uleb128 0x3a
 3323 016f 0B       		.uleb128 0xb
 3324 0170 3B       		.uleb128 0x3b
 3325 0171 0B       		.uleb128 0xb
 3326 0172 49       		.uleb128 0x49
 3327 0173 13       		.uleb128 0x13
 3328 0174 3F       		.uleb128 0x3f
 3329 0175 0C       		.uleb128 0xc
 3330 0176 02       		.uleb128 0x2
 3331 0177 0A       		.uleb128 0xa
 3332 0178 00       		.byte	0x0
 3333 0179 00       		.byte	0x0
 3334 017a 1B       		.uleb128 0x1b
 3335 017b 34       		.uleb128 0x34
 3336 017c 00       		.byte	0x0
 3337 017d 03       		.uleb128 0x3
 3338 017e 08       		.uleb128 0x8
 3339 017f 3A       		.uleb128 0x3a
 3340 0180 0B       		.uleb128 0xb
 3341 0181 3B       		.uleb128 0x3b
 3342 0182 0B       		.uleb128 0xb
 3343 0183 49       		.uleb128 0x49
 3344 0184 13       		.uleb128 0x13
 3345 0185 3F       		.uleb128 0x3f
 3346 0186 0C       		.uleb128 0xc
 3347 0187 02       		.uleb128 0x2
 3348 0188 0A       		.uleb128 0xa
 3349 0189 00       		.byte	0x0
 3350 018a 00       		.byte	0x0
 3351 018b 00       		.byte	0x0
ARM GAS  C:\DOCUME~1\david\LOCALS~1\Temp\cci2ny8l.s 			page 68


 3352              		.section	.debug_pubnames,"",%progbits
 3353 0000 01010000 		.4byte	0x101
 3354 0004 0200     		.2byte	0x2
 3355 0006 00000000 		.4byte	.Ldebug_info0
 3356 000a CD040000 		.4byte	0x4cd
 3357 000e 4F010000 		.4byte	0x14f
 3358 0012 636F6E66 		.ascii	"configure_XBee\000"
 3358      69677572 
 3358      655F5842 
 3358      656500
 3359 0021 63010000 		.4byte	0x163
 3360 0025 636C6561 		.ascii	"clear_board\000"
 3360      725F626F 
 3360      61726400 
 3361 0031 94010000 		.4byte	0x194
 3362 0035 746F6767 		.ascii	"toggle\000"
 3362      6C6500
 3363 003c A9010000 		.4byte	0x1a9
 3364 0040 72656672 		.ascii	"refresh\000"
 3364      65736800 
 3365 0048 D1010000 		.4byte	0x1d1
 3366 004c 77696E6E 		.ascii	"winner_check\000"
 3366      65725F63 
 3366      6865636B 
 3366      00
 3367 0059 ED020000 		.4byte	0x2ed
 3368 005d 73656E64 		.ascii	"send_packet\000"
 3368      5F706163 
 3368      6B657400 
 3369 0069 1B030000 		.4byte	0x31b
 3370 006d 72656365 		.ascii	"receive_packet\000"
 3370      6976655F 
 3370      7061636B 
 3370      657400
 3371 007c 43030000 		.4byte	0x343
 3372 0080 6D61696E 		.ascii	"main\000"
 3372      00
 3373 0085 2A040000 		.4byte	0x42a
 3374 0089 706C6179 		.ascii	"player1\000"
 3374      65723100 
 3375 0091 3C040000 		.4byte	0x43c
 3376 0095 706C6179 		.ascii	"player2\000"
 3376      65723200 
 3377 009d 4E040000 		.4byte	0x44e
 3378 00a1 706C6179 		.ascii	"player1_color\000"
 3378      6572315F 
 3378      636F6C6F 
 3378      7200
 3379 00af 60040000 		.4byte	0x460
 3380 00b3 706C6179 		.ascii	"player2_color\000"
 3380      6572325F 
 3380      636F6C6F 
 3380      7200
 3381 00c1 72040000 		.4byte	0x472
 3382 00c5 706C6179 		.ascii	"player1_turn\000"
 3382      6572315F 
 3382      7475726E 
ARM GAS  C:\DOCUME~1\david\LOCALS~1\Temp\cci2ny8l.s 			page 69


 3382      00
 3383 00d2 84040000 		.4byte	0x484
 3384 00d6 706C6179 		.ascii	"player2_local\000"
 3384      6572325F 
 3384      6C6F6361 
 3384      6C00
 3385 00e4 96040000 		.4byte	0x496
 3386 00e8 6C6F6361 		.ascii	"locating\000"
 3386      74696E67 
 3386      00
 3387 00f1 A8040000 		.4byte	0x4a8
 3388 00f5 726F7700 		.ascii	"row\000"
 3389 00f9 BA040000 		.4byte	0x4ba
 3390 00fd 636F6C00 		.ascii	"col\000"
 3391 0101 00000000 		.4byte	0x0
 3392              		.section	.debug_aranges,"",%progbits
 3393 0000 54000000 		.4byte	0x54
 3394 0004 0200     		.2byte	0x2
 3395 0006 00000000 		.4byte	.Ldebug_info0
 3396 000a 04       		.byte	0x4
 3397 000b 00       		.byte	0x0
 3398 000c 0000     		.2byte	0x0
 3399 000e 0000     		.2byte	0x0
 3400 0010 00000000 		.4byte	.LFB29
 3401 0014 C6000000 		.4byte	.LFE29-.LFB29
 3402 0018 00000000 		.4byte	.LFB30
 3403 001c 70000000 		.4byte	.LFE30-.LFB30
 3404 0020 00000000 		.4byte	.LFB31
 3405 0024 34000000 		.4byte	.LFE31-.LFB31
 3406 0028 00000000 		.4byte	.LFB32
 3407 002c 5C010000 		.4byte	.LFE32-.LFB32
 3408 0030 00000000 		.4byte	.LFB33
 3409 0034 0E050000 		.4byte	.LFE33-.LFB33
 3410 0038 00000000 		.4byte	.LFB34
 3411 003c A6000000 		.4byte	.LFE34-.LFB34
 3412 0040 00000000 		.4byte	.LFB35
 3413 0044 68010000 		.4byte	.LFE35-.LFB35
 3414 0048 00000000 		.4byte	.LFB36
 3415 004c E2050000 		.4byte	.LFE36-.LFB36
 3416 0050 00000000 		.4byte	0x0
 3417 0054 00000000 		.4byte	0x0
 3418              		.section	.debug_ranges,"",%progbits
 3419              	.Ldebug_ranges0:
 3420 0000 00000000 		.4byte	.Ltext0
 3421 0004 00000000 		.4byte	.Letext0
 3422 0008 00000000 		.4byte	.LFB29
 3423 000c C6000000 		.4byte	.LFE29
 3424 0010 00000000 		.4byte	.LFB30
 3425 0014 70000000 		.4byte	.LFE30
 3426 0018 00000000 		.4byte	.LFB31
 3427 001c 34000000 		.4byte	.LFE31
 3428 0020 00000000 		.4byte	.LFB32
 3429 0024 5C010000 		.4byte	.LFE32
 3430 0028 00000000 		.4byte	.LFB33
 3431 002c 0E050000 		.4byte	.LFE33
 3432 0030 00000000 		.4byte	.LFB34
 3433 0034 A6000000 		.4byte	.LFE34
ARM GAS  C:\DOCUME~1\david\LOCALS~1\Temp\cci2ny8l.s 			page 70


 3434 0038 00000000 		.4byte	.LFB35
 3435 003c 68010000 		.4byte	.LFE35
 3436 0040 00000000 		.4byte	.LFB36
 3437 0044 E2050000 		.4byte	.LFE36
 3438 0048 00000000 		.4byte	0x0
 3439 004c 00000000 		.4byte	0x0
 3440              		.section	.debug_str,"MS",%progbits,1
 3441              	.LASF6:
 3442 0000 6C6F6E67 		.ascii	"long long int\000"
 3442      206C6F6E 
 3442      6720696E 
 3442      7400
 3443              	.LASF39:
 3444 000e 706C6179 		.ascii	"player1\000"
 3444      65723100 
 3445              	.LASF44:
 3446 0016 706C6179 		.ascii	"player2_local\000"
 3446      6572325F 
 3446      6C6F6361 
 3446      6C00
 3447              	.LASF32:
 3448 0024 72656365 		.ascii	"receive_packet\000"
 3448      6976655F 
 3448      7061636B 
 3448      657400
 3449              	.LASF33:
 3450 0033 6D6F7665 		.ascii	"move\000"
 3450      00
 3451              	.LASF24:
 3452 0038 63656C6C 		.ascii	"cells\000"
 3452      7300
 3453              	.LASF42:
 3454 003e 706C6179 		.ascii	"player2_color\000"
 3454      6572325F 
 3454      636F6C6F 
 3454      7200
 3455              	.LASF26:
 3456 004c 77696E6E 		.ascii	"winner_check\000"
 3456      65725F63 
 3456      6865636B 
 3456      00
 3457              	.LASF35:
 3458 0059 64697363 		.ascii	"disc\000"
 3458      00
 3459              	.LASF18:
 3460 005e 64657374 		.ascii	"destination\000"
 3460      696E6174 
 3460      696F6E00 
 3461              	.LASF37:
 3462 006a 72656164 		.ascii	"reading\000"
 3462      696E6700 
 3463              	.LASF51:
 3464 0072 746F6767 		.ascii	"toggle\000"
 3464      6C6500
 3465              	.LASF11:
 3466 0079 666C6F61 		.ascii	"float\000"
 3466      7400
ARM GAS  C:\DOCUME~1\david\LOCALS~1\Temp\cci2ny8l.s 			page 71


 3467              	.LASF31:
 3468 007f 73656E64 		.ascii	"send_packet\000"
 3468      5F706163 
 3468      6B657400 
 3469              	.LASF19:
 3470 008b 64697361 		.ascii	"disable_ack\000"
 3470      626C655F 
 3470      61636B00 
 3471              	.LASF41:
 3472 0097 706C6179 		.ascii	"player1_color\000"
 3472      6572315F 
 3472      636F6C6F 
 3472      7200
 3473              	.LASF40:
 3474 00a5 706C6179 		.ascii	"player2\000"
 3474      65723200 
 3475              	.LASF47:
 3476 00ad 2E5C6D61 		.ascii	".\\main.c\000"
 3476      696E2E63 
 3476      00
 3477              	.LASF48:
 3478 00b6 453A5C50 		.ascii	"E:\\PSoC Creator\\connect4\\connect4.cydsn\000"
 3478      536F4320 
 3478      43726561 
 3478      746F725C 
 3478      636F6E6E 
 3479              	.LASF5:
 3480 00de 6C6F6E67 		.ascii	"long unsigned int\000"
 3480      20756E73 
 3480      69676E65 
 3480      6420696E 
 3480      7400
 3481              	.LASF3:
 3482 00f0 73686F72 		.ascii	"short unsigned int\000"
 3482      7420756E 
 3482      7369676E 
 3482      65642069 
 3482      6E7400
 3483              	.LASF28:
 3484 0103 626C696E 		.ascii	"blink\000"
 3484      6B00
 3485              	.LASF0:
 3486 0109 7369676E 		.ascii	"signed char\000"
 3486      65642063 
 3486      68617200 
 3487              	.LASF14:
 3488 0115 64656C69 		.ascii	"delimiter\000"
 3488      6D697465 
 3488      7200
 3489              	.LASF1:
 3490 011f 756E7369 		.ascii	"unsigned char\000"
 3490      676E6564 
 3490      20636861 
 3490      7200
 3491              	.LASF12:
 3492 012d 646F7562 		.ascii	"double\000"
 3492      6C6500
ARM GAS  C:\DOCUME~1\david\LOCALS~1\Temp\cci2ny8l.s 			page 72


 3493              	.LASF2:
 3494 0134 73686F72 		.ascii	"short int\000"
 3494      7420696E 
 3494      7400
 3495              	.LASF49:
 3496 013e 7061636B 		.ascii	"packet\000"
 3496      657400
 3497              	.LASF10:
 3498 0145 75696E74 		.ascii	"uint16\000"
 3498      313600
 3499              	.LASF20:
 3500 014c 706C6179 		.ascii	"player_id\000"
 3500      65725F69 
 3500      6400
 3501              	.LASF38:
 3502 0156 49544D5F 		.ascii	"ITM_RxBuffer\000"
 3502      52784275 
 3502      66666572 
 3502      00
 3503              	.LASF34:
 3504 0163 6D61696E 		.ascii	"main\000"
 3504      00
 3505              	.LASF8:
 3506 0168 756E7369 		.ascii	"unsigned int\000"
 3506      676E6564 
 3506      20696E74 
 3506      00
 3507              	.LASF16:
 3508 0175 6170695F 		.ascii	"api_id\000"
 3508      696400
 3509              	.LASF7:
 3510 017c 6C6F6E67 		.ascii	"long long unsigned int\000"
 3510      206C6F6E 
 3510      6720756E 
 3510      7369676E 
 3510      65642069 
 3511              	.LASF21:
 3512 0193 7061636B 		.ascii	"packet_type\000"
 3512      65745F74 
 3512      79706500 
 3513              	.LASF50:
 3514 019f 636F6E66 		.ascii	"configure_XBee\000"
 3514      69677572 
 3514      655F5842 
 3514      656500
 3515              	.LASF25:
 3516 01ae 636C6561 		.ascii	"clear_board\000"
 3516      725F626F 
 3516      61726400 
 3517              	.LASF30:
 3518 01ba 72656672 		.ascii	"refresh\000"
 3518      65736800 
 3519              	.LASF46:
 3520 01c2 474E5520 		.ascii	"GNU C 4.4.1\000"
 3520      4320342E 
 3520      342E3100 
 3521              	.LASF13:
ARM GAS  C:\DOCUME~1\david\LOCALS~1\Temp\cci2ny8l.s 			page 73


 3522 01ce 63686172 		.ascii	"char\000"
 3522      00
 3523              	.LASF17:
 3524 01d3 6672616D 		.ascii	"frame_id\000"
 3524      655F6964 
 3524      00
 3525              	.LASF22:
 3526 01dc 63686563 		.ascii	"checksum\000"
 3526      6B73756D 
 3526      00
 3527              	.LASF36:
 3528 01e5 64726F70 		.ascii	"dropped\000"
 3528      70656400 
 3529              	.LASF27:
 3530 01ed 6F666673 		.ascii	"offset\000"
 3530      657400
 3531              	.LASF43:
 3532 01f4 706C6179 		.ascii	"player1_turn\000"
 3532      6572315F 
 3532      7475726E 
 3532      00
 3533              	.LASF9:
 3534 0201 75696E74 		.ascii	"uint8\000"
 3534      3800
 3535              	.LASF4:
 3536 0207 6C6F6E67 		.ascii	"long int\000"
 3536      20696E74 
 3536      00
 3537              	.LASF15:
 3538 0210 6C656E67 		.ascii	"length\000"
 3538      746800
 3539              	.LASF45:
 3540 0217 6C6F6361 		.ascii	"locating\000"
 3540      74696E67 
 3540      00
 3541              	.LASF29:
 3542 0220 5F426F6F 		.ascii	"_Bool\000"
 3542      6C00
 3543              	.LASF23:
 3544 0226 7061636B 		.ascii	"packet_t\000"
 3544      65745F74 
 3544      00
 3545              		.ident	"GCC: (Sourcery G++ Lite 2010q1-188) 4.4.1"
